
StdIO.elf:     file format elf32-littlearm


Disassembly of section .text:

00000000 <__Vectors>:
       0:	00 80 00 10 0d 06 00 00 15 06 00 00 17 06 00 00     ................
      10:	19 06 00 00 1b 06 00 00 1d 06 00 00 00 00 00 00     ................
	...
      2c:	1f 06 00 00 21 06 00 00 00 00 00 00 23 06 00 00     ....!.......#...
      3c:	25 06 00 00 27 06 00 00 27 06 00 00 27 06 00 00     %...'...'...'...
      4c:	27 06 00 00 27 06 00 00 27 06 00 00 27 06 00 00     '...'...'...'...
      5c:	27 06 00 00 27 06 00 00 27 06 00 00 27 06 00 00     '...'...'...'...
      6c:	27 06 00 00 27 06 00 00 27 06 00 00 27 06 00 00     '...'...'...'...
      7c:	27 06 00 00 27 06 00 00 27 06 00 00 27 06 00 00     '...'...'...'...
      8c:	27 06 00 00 27 06 00 00 27 06 00 00 27 06 00 00     '...'...'...'...
      9c:	27 06 00 00 27 06 00 00 27 06 00 00 27 06 00 00     '...'...'...'...
      ac:	27 06 00 00 27 06 00 00 27 06 00 00 27 06 00 00     '...'...'...'...
      bc:	27 06 00 00 27 06 00 00                             '...'...

000000c4 <__main>:
      c4:	4839      	ldr	r0, [pc, #228]	; (1ac <__main+0xe8>)
      c6:	493a      	ldr	r1, [pc, #232]	; (1b0 <__main+0xec>)
      c8:	b570      	push	{r4, r5, r6, lr}
      ca:	4288      	cmp	r0, r1
      cc:	d023      	beq.n	116 <__main+0x52>
      ce:	4c39      	ldr	r4, [pc, #228]	; (1b4 <__main+0xf0>)
      d0:	42a1      	cmp	r1, r4
      d2:	d220      	bcs.n	116 <__main+0x52>
      d4:	4602      	mov	r2, r0
      d6:	f852 6b04 	ldr.w	r6, [r2], #4
      da:	460b      	mov	r3, r1
      dc:	43cd      	mvns	r5, r1
      de:	f843 6b04 	str.w	r6, [r3], #4
      e2:	1965      	adds	r5, r4, r5
      e4:	42a3      	cmp	r3, r4
      e6:	f3c5 0580 	ubfx	r5, r5, #2, #1
      ea:	d214      	bcs.n	116 <__main+0x52>
      ec:	b13d      	cbz	r5, fe <__main+0x3a>
      ee:	6816      	ldr	r6, [r2, #0]
      f0:	f100 0208 	add.w	r2, r0, #8
      f4:	601e      	str	r6, [r3, #0]
      f6:	f101 0308 	add.w	r3, r1, #8
      fa:	42a3      	cmp	r3, r4
      fc:	d20b      	bcs.n	116 <__main+0x52>
      fe:	4610      	mov	r0, r2
     100:	f850 5b04 	ldr.w	r5, [r0], #4
     104:	4619      	mov	r1, r3
     106:	f841 5b04 	str.w	r5, [r1], #4
     10a:	6856      	ldr	r6, [r2, #4]
     10c:	1d02      	adds	r2, r0, #4
     10e:	605e      	str	r6, [r3, #4]
     110:	1d0b      	adds	r3, r1, #4
     112:	42a3      	cmp	r3, r4
     114:	d3f3      	bcc.n	fe <__main+0x3a>
     116:	4828      	ldr	r0, [pc, #160]	; (1b8 <__main+0xf4>)
     118:	4928      	ldr	r1, [pc, #160]	; (1bc <__main+0xf8>)
     11a:	4288      	cmp	r0, r1
     11c:	d024      	beq.n	168 <__main+0xa4>
     11e:	4c28      	ldr	r4, [pc, #160]	; (1c0 <__main+0xfc>)
     120:	42a1      	cmp	r1, r4
     122:	d221      	bcs.n	168 <__main+0xa4>
     124:	4602      	mov	r2, r0
     126:	f852 6b04 	ldr.w	r6, [r2], #4
     12a:	460b      	mov	r3, r1
     12c:	43cd      	mvns	r5, r1
     12e:	f843 6b04 	str.w	r6, [r3], #4
     132:	eb04 0c05 	add.w	ip, r4, r5
     136:	42a3      	cmp	r3, r4
     138:	f3cc 0580 	ubfx	r5, ip, #2, #1
     13c:	d214      	bcs.n	168 <__main+0xa4>
     13e:	b13d      	cbz	r5, 150 <__main+0x8c>
     140:	6815      	ldr	r5, [r2, #0]
     142:	f100 0208 	add.w	r2, r0, #8
     146:	601d      	str	r5, [r3, #0]
     148:	f101 0308 	add.w	r3, r1, #8
     14c:	42a3      	cmp	r3, r4
     14e:	d20b      	bcs.n	168 <__main+0xa4>
     150:	4610      	mov	r0, r2
     152:	f850 5b04 	ldr.w	r5, [r0], #4
     156:	4619      	mov	r1, r3
     158:	f841 5b04 	str.w	r5, [r1], #4
     15c:	6856      	ldr	r6, [r2, #4]
     15e:	1d02      	adds	r2, r0, #4
     160:	605e      	str	r6, [r3, #4]
     162:	1d0b      	adds	r3, r1, #4
     164:	42a3      	cmp	r3, r4
     166:	d3f3      	bcc.n	150 <__main+0x8c>
     168:	4a16      	ldr	r2, [pc, #88]	; (1c4 <__main+0x100>)
     16a:	4817      	ldr	r0, [pc, #92]	; (1c8 <__main+0x104>)
     16c:	4282      	cmp	r2, r0
     16e:	d216      	bcs.n	19e <__main+0xda>
     170:	2100      	movs	r1, #0
     172:	4613      	mov	r3, r2
     174:	43d6      	mvns	r6, r2
     176:	f843 1b04 	str.w	r1, [r3], #4
     17a:	1984      	adds	r4, r0, r6
     17c:	4283      	cmp	r3, r0
     17e:	f3c4 0480 	ubfx	r4, r4, #2, #1
     182:	d20c      	bcs.n	19e <__main+0xda>
     184:	b124      	cbz	r4, 190 <__main+0xcc>
     186:	6019      	str	r1, [r3, #0]
     188:	f102 0308 	add.w	r3, r2, #8
     18c:	4283      	cmp	r3, r0
     18e:	d206      	bcs.n	19e <__main+0xda>
     190:	461a      	mov	r2, r3
     192:	f842 1b04 	str.w	r1, [r2], #4
     196:	6059      	str	r1, [r3, #4]
     198:	1d13      	adds	r3, r2, #4
     19a:	4283      	cmp	r3, r0
     19c:	d3f8      	bcc.n	190 <__main+0xcc>
     19e:	f002 f811 	bl	21c4 <__libc_init_array>
     1a2:	f000 f9d9 	bl	558 <main>
     1a6:	f00c fcb7 	bl	cb18 <exit>
     1aa:	bf00      	nop
     1ac:	0000d10c 	.word	0x0000d10c
     1b0:	10000000 	.word	0x10000000
     1b4:	100005b0 	.word	0x100005b0
     1b8:	0000d6bc 	.word	0x0000d6bc
     1bc:	10000744 	.word	0x10000744
     1c0:	10000744 	.word	0x10000744
     1c4:	100005b0 	.word	0x100005b0
     1c8:	10000744 	.word	0x10000744

000001cc <SystemInit>:
     1cc:	481b      	ldr	r0, [pc, #108]	; (23c <SystemInit+0x70>)
     1ce:	2120      	movs	r1, #32
     1d0:	f8c0 11a0 	str.w	r1, [r0, #416]	; 0x1a0
     1d4:	f8d0 11a0 	ldr.w	r1, [r0, #416]	; 0x1a0
     1d8:	f011 0f40 	tst.w	r1, #64	; 0x40
     1dc:	d0fa      	beq.n	1d4 <SystemInit+0x8>
     1de:	2102      	movs	r1, #2
     1e0:	f8c0 1104 	str.w	r1, [r0, #260]	; 0x104
     1e4:	2101      	movs	r1, #1
     1e6:	f8c0 110c 	str.w	r1, [r0, #268]	; 0x10c
     1ea:	220b      	movs	r2, #11
     1ec:	f8c0 2084 	str.w	r2, [r0, #132]	; 0x84
     1f0:	f8c0 1080 	str.w	r1, [r0, #128]	; 0x80
     1f4:	22aa      	movs	r2, #170	; 0xaa
     1f6:	f8c0 208c 	str.w	r2, [r0, #140]	; 0x8c
     1fa:	2355      	movs	r3, #85	; 0x55
     1fc:	f8c0 308c 	str.w	r3, [r0, #140]	; 0x8c
     200:	f8d0 1088 	ldr.w	r1, [r0, #136]	; 0x88
     204:	f011 6f80 	tst.w	r1, #67108864	; 0x4000000
     208:	d0fa      	beq.n	200 <SystemInit+0x34>
     20a:	2103      	movs	r1, #3
     20c:	f8c0 1080 	str.w	r1, [r0, #128]	; 0x80
     210:	f8c0 208c 	str.w	r2, [r0, #140]	; 0x8c
     214:	f8c0 308c 	str.w	r3, [r0, #140]	; 0x8c
     218:	2105      	movs	r1, #5
     21a:	f8c0 1108 	str.w	r1, [r0, #264]	; 0x108
     21e:	2100      	movs	r1, #0
     220:	f8c0 11a8 	str.w	r1, [r0, #424]	; 0x1a8
     224:	f8c0 11ac 	str.w	r1, [r0, #428]	; 0x1ac
     228:	4a05      	ldr	r2, [pc, #20]	; (240 <SystemInit+0x74>)
     22a:	f8c0 20c4 	str.w	r2, [r0, #196]	; 0xc4
     22e:	f8c0 11c8 	str.w	r1, [r0, #456]	; 0x1c8
     232:	f243 013a 	movw	r1, #12346	; 0x303a
     236:	6001      	str	r1, [r0, #0]
     238:	4770      	bx	lr
     23a:	0000      	.short	0x0000
     23c:	400fc000 	.word	0x400fc000
     240:	042887de 	.word	0x042887de
	...

00000300 <__do_global_dtors_aux>:
     300:	f240 53b0 	movw	r3, #1456	; 0x5b0
     304:	f2c1 0300 	movt	r3, #4096	; 0x1000
     308:	781a      	ldrb	r2, [r3, #0]
     30a:	b90a      	cbnz	r2, 310 <__do_global_dtors_aux+0x10>
     30c:	2001      	movs	r0, #1
     30e:	7018      	strb	r0, [r3, #0]
     310:	4770      	bx	lr
     312:	bf00      	nop

00000314 <frame_dummy>:
     314:	f240 50b0 	movw	r0, #1456	; 0x5b0
     318:	f2c1 0000 	movt	r0, #4096	; 0x1000
     31c:	b508      	push	{r3, lr}
     31e:	6803      	ldr	r3, [r0, #0]
     320:	b12b      	cbz	r3, 32e <frame_dummy+0x1a>
     322:	f240 0300 	movw	r3, #0
     326:	f2c0 0300 	movt	r3, #0
     32a:	b103      	cbz	r3, 32e <frame_dummy+0x1a>
     32c:	4798      	blx	r3
     32e:	bd08      	pop	{r3, pc}

00000330 <__GCC4MBEDOpenStandardHandles>:
     330:	b508      	push	{r3, lr}
     332:	2100      	movs	r1, #0
     334:	4807      	ldr	r0, [pc, #28]	; (354 <__GCC4MBEDOpenStandardHandles+0x24>)
     336:	f00c f8bd 	bl	c4b4 <_sys_open>
     33a:	2104      	movs	r1, #4
     33c:	4806      	ldr	r0, [pc, #24]	; (358 <__GCC4MBEDOpenStandardHandles+0x28>)
     33e:	f00c f8b9 	bl	c4b4 <_sys_open>
     342:	4806      	ldr	r0, [pc, #24]	; (35c <__GCC4MBEDOpenStandardHandles+0x2c>)
     344:	2104      	movs	r1, #4
     346:	f00c f8b5 	bl	c4b4 <_sys_open>
     34a:	4b05      	ldr	r3, [pc, #20]	; (360 <__GCC4MBEDOpenStandardHandles+0x30>)
     34c:	2201      	movs	r2, #1
     34e:	601a      	str	r2, [r3, #0]
     350:	bd08      	pop	{r3, pc}
     352:	bf00      	nop
     354:	0000bd58 	.word	0x0000bd58
     358:	0000bd60 	.word	0x0000bd60
     35c:	0000bd68 	.word	0x0000bd68
     360:	100005bc 	.word	0x100005bc

00000364 <_kill>:
     364:	4b02      	ldr	r3, [pc, #8]	; (370 <_kill+0xc>)
     366:	2216      	movs	r2, #22
     368:	601a      	str	r2, [r3, #0]
     36a:	f04f 30ff 	mov.w	r0, #4294967295
     36e:	4770      	bx	lr
     370:	10000640 	.word	0x10000640

00000374 <_exit>:
     374:	b508      	push	{r3, lr}
     376:	f00c fbcf 	bl	cb18 <exit>
     37a:	bf00      	nop

0000037c <_getpid>:
     37c:	2001      	movs	r0, #1
     37e:	4770      	bx	lr

00000380 <_sbrk>:
     380:	b570      	push	{r4, r5, r6, lr}
     382:	4d09      	ldr	r5, [pc, #36]	; (3a8 <_sbrk+0x28>)
     384:	4606      	mov	r6, r0
     386:	682c      	ldr	r4, [r5, #0]
     388:	b14c      	cbz	r4, 39e <_sbrk+0x1e>
     38a:	f00c fa0f 	bl	c7ac <__get_MSP>
     38e:	19a3      	adds	r3, r4, r6
     390:	4283      	cmp	r3, r0
     392:	d807      	bhi.n	3a4 <_sbrk+0x24>
     394:	6829      	ldr	r1, [r5, #0]
     396:	4620      	mov	r0, r4
     398:	198e      	adds	r6, r1, r6
     39a:	602e      	str	r6, [r5, #0]
     39c:	bd70      	pop	{r4, r5, r6, pc}
     39e:	4c03      	ldr	r4, [pc, #12]	; (3ac <_sbrk+0x2c>)
     3a0:	602c      	str	r4, [r5, #0]
     3a2:	e7f2      	b.n	38a <_sbrk+0xa>
     3a4:	f001 fd26 	bl	1df4 <abort>
     3a8:	100005b8 	.word	0x100005b8
     3ac:	10000748 	.word	0x10000748

000003b0 <_close>:
     3b0:	f00c b856 	b.w	c460 <__fini_array_end>

000003b4 <_isatty>:
     3b4:	2802      	cmp	r0, #2
     3b6:	dc01      	bgt.n	3bc <_isatty+0x8>
     3b8:	2001      	movs	r0, #1
     3ba:	4770      	bx	lr
     3bc:	f00c b866 	b.w	c48c <_sys_istty>

000003c0 <_lseek>:
     3c0:	2802      	cmp	r0, #2
     3c2:	e92d 47f0 	stmdb	sp!, {r4, r5, r6, r7, r8, r9, sl, lr}
     3c6:	dd6e      	ble.n	4a6 <_lseek+0xe6>
     3c8:	4f40      	ldr	r7, [pc, #256]	; (4cc <_lseek+0x10c>)
     3ca:	683b      	ldr	r3, [r7, #0]
     3cc:	2b00      	cmp	r3, #0
     3ce:	d161      	bne.n	494 <_lseek+0xd4>
     3d0:	4d3f      	ldr	r5, [pc, #252]	; (4d0 <_lseek+0x110>)
     3d2:	4c40      	ldr	r4, [pc, #256]	; (4d4 <_lseek+0x114>)
     3d4:	f025 0c01 	bic.w	ip, r5, #1
     3d8:	4665      	mov	r5, ip
     3da:	f10c 0628 	add.w	r6, ip, #40	; 0x28
     3de:	f815 ab01 	ldrb.w	sl, [r5], #1
     3e2:	f3c3 084f 	ubfx	r8, r3, #1, #16
     3e6:	ea83 030a 	eor.w	r3, r3, sl
     3ea:	f013 0f01 	tst.w	r3, #1
     3ee:	bf1c      	itt	ne
     3f0:	ea88 0804 	eorne.w	r8, r8, r4
     3f4:	fa1f f888 	uxthne.w	r8, r8
     3f8:	ea4f 095a 	mov.w	r9, sl, lsr #1
     3fc:	ea88 0a09 	eor.w	sl, r8, r9
     400:	ea4f 0358 	mov.w	r3, r8, lsr #1
     404:	f01a 0f01 	tst.w	sl, #1
     408:	bf1c      	itt	ne
     40a:	4063      	eorne	r3, r4
     40c:	b29b      	uxthne	r3, r3
     40e:	ea4f 0859 	mov.w	r8, r9, lsr #1
     412:	ea83 0908 	eor.w	r9, r3, r8
     416:	085b      	lsrs	r3, r3, #1
     418:	f019 0f01 	tst.w	r9, #1
     41c:	bf1c      	itt	ne
     41e:	4063      	eorne	r3, r4
     420:	b29b      	uxthne	r3, r3
     422:	ea4f 0858 	mov.w	r8, r8, lsr #1
     426:	ea83 0908 	eor.w	r9, r3, r8
     42a:	085b      	lsrs	r3, r3, #1
     42c:	f019 0f01 	tst.w	r9, #1
     430:	bf1c      	itt	ne
     432:	4063      	eorne	r3, r4
     434:	b29b      	uxthne	r3, r3
     436:	ea4f 0858 	mov.w	r8, r8, lsr #1
     43a:	ea83 0908 	eor.w	r9, r3, r8
     43e:	085b      	lsrs	r3, r3, #1
     440:	f019 0f01 	tst.w	r9, #1
     444:	bf1c      	itt	ne
     446:	4063      	eorne	r3, r4
     448:	b29b      	uxthne	r3, r3
     44a:	ea4f 0858 	mov.w	r8, r8, lsr #1
     44e:	ea83 0908 	eor.w	r9, r3, r8
     452:	085b      	lsrs	r3, r3, #1
     454:	f019 0f01 	tst.w	r9, #1
     458:	bf1c      	itt	ne
     45a:	4063      	eorne	r3, r4
     45c:	b29b      	uxthne	r3, r3
     45e:	ea4f 0858 	mov.w	r8, r8, lsr #1
     462:	ea83 0908 	eor.w	r9, r3, r8
     466:	085b      	lsrs	r3, r3, #1
     468:	f019 0f01 	tst.w	r9, #1
     46c:	bf1c      	itt	ne
     46e:	4063      	eorne	r3, r4
     470:	b29b      	uxthne	r3, r3
     472:	ea83 0858 	eor.w	r8, r3, r8, lsr #1
     476:	085b      	lsrs	r3, r3, #1
     478:	f018 0f01 	tst.w	r8, #1
     47c:	bf1c      	itt	ne
     47e:	4063      	eorne	r3, r4
     480:	b29b      	uxthne	r3, r3
     482:	42b5      	cmp	r5, r6
     484:	d1ab      	bne.n	3de <_lseek+0x1e>
     486:	f242 043f 	movw	r4, #8255	; 0x203f
     48a:	42a3      	cmp	r3, r4
     48c:	d112      	bne.n	4b4 <_lseek+0xf4>
     48e:	f8dc 3028 	ldr.w	r3, [ip, #40]	; 0x28
     492:	603b      	str	r3, [r7, #0]
     494:	3803      	subs	r0, #3
     496:	f853 0020 	ldr.w	r0, [r3, r0, lsl #2]
     49a:	b138      	cbz	r0, 4ac <_lseek+0xec>
     49c:	6803      	ldr	r3, [r0, #0]
     49e:	691b      	ldr	r3, [r3, #16]
     4a0:	4798      	blx	r3
     4a2:	e8bd 87f0 	ldmia.w	sp!, {r4, r5, r6, r7, r8, r9, sl, pc}
     4a6:	2000      	movs	r0, #0
     4a8:	e8bd 87f0 	ldmia.w	sp!, {r4, r5, r6, r7, r8, r9, sl, pc}
     4ac:	f04f 30ff 	mov.w	r0, #4294967295
     4b0:	e8bd 87f0 	ldmia.w	sp!, {r4, r5, r6, r7, r8, r9, sl, pc}
     4b4:	4908      	ldr	r1, [pc, #32]	; (4d8 <_lseek+0x118>)
     4b6:	4809      	ldr	r0, [pc, #36]	; (4dc <_lseek+0x11c>)
     4b8:	680c      	ldr	r4, [r1, #0]
     4ba:	226b      	movs	r2, #107	; 0x6b
     4bc:	2101      	movs	r1, #1
     4be:	68e3      	ldr	r3, [r4, #12]
     4c0:	f001 fe70 	bl	21a4 <fwrite>
     4c4:	2001      	movs	r0, #1
     4c6:	f00c fb27 	bl	cb18 <exit>
     4ca:	bf00      	nop
     4cc:	100005b4 	.word	0x100005b4
     4d0:	0000c679 	.word	0x0000c679
     4d4:	ffffa001 	.word	0xffffa001
     4d8:	1000010c 	.word	0x1000010c
     4dc:	0000bd70 	.word	0x0000bd70

000004e0 <_read>:
     4e0:	b510      	push	{r4, lr}
     4e2:	4c0b      	ldr	r4, [pc, #44]	; (510 <_read+0x30>)
     4e4:	b082      	sub	sp, #8
     4e6:	6823      	ldr	r3, [r4, #0]
     4e8:	4614      	mov	r4, r2
     4ea:	b90b      	cbnz	r3, 4f0 <_read+0x10>
     4ec:	2802      	cmp	r0, #2
     4ee:	dd08      	ble.n	502 <_read+0x22>
     4f0:	4622      	mov	r2, r4
     4f2:	2300      	movs	r3, #0
     4f4:	f00c f8a0 	bl	c638 <_sys_read>
     4f8:	f020 4000 	bic.w	r0, r0, #2147483648	; 0x80000000
     4fc:	1a20      	subs	r0, r4, r0
     4fe:	b002      	add	sp, #8
     500:	bd10      	pop	{r4, pc}
     502:	9001      	str	r0, [sp, #4]
     504:	9100      	str	r1, [sp, #0]
     506:	f7ff ff13 	bl	330 <__GCC4MBEDOpenStandardHandles>
     50a:	9900      	ldr	r1, [sp, #0]
     50c:	9801      	ldr	r0, [sp, #4]
     50e:	e7ef      	b.n	4f0 <_read+0x10>
     510:	100005bc 	.word	0x100005bc

00000514 <_write>:
     514:	b510      	push	{r4, lr}
     516:	4c0c      	ldr	r4, [pc, #48]	; (548 <_write+0x34>)
     518:	b082      	sub	sp, #8
     51a:	6823      	ldr	r3, [r4, #0]
     51c:	4614      	mov	r4, r2
     51e:	b90b      	cbnz	r3, 524 <_write+0x10>
     520:	2802      	cmp	r0, #2
     522:	dd09      	ble.n	538 <_write+0x24>
     524:	2300      	movs	r3, #0
     526:	4622      	mov	r2, r4
     528:	f00c f8bc 	bl	c6a4 <_sys_write>
     52c:	2800      	cmp	r0, #0
     52e:	bfa8      	it	ge
     530:	ebc0 0004 	rsbge	r0, r0, r4
     534:	b002      	add	sp, #8
     536:	bd10      	pop	{r4, pc}
     538:	9001      	str	r0, [sp, #4]
     53a:	9100      	str	r1, [sp, #0]
     53c:	f7ff fef8 	bl	330 <__GCC4MBEDOpenStandardHandles>
     540:	9900      	ldr	r1, [sp, #0]
     542:	9801      	ldr	r0, [sp, #4]
     544:	e7ee      	b.n	524 <_write+0x10>
     546:	bf00      	nop
     548:	100005bc 	.word	0x100005bc

0000054c <_fstat>:
     54c:	f44f 5300 	mov.w	r3, #8192	; 0x2000
     550:	604b      	str	r3, [r1, #4]
     552:	2000      	movs	r0, #0
     554:	4770      	bx	lr
     556:	bf00      	nop

00000558 <main>:
     558:	b530      	push	{r4, r5, lr}
     55a:	b083      	sub	sp, #12
     55c:	f04f 31ff 	mov.w	r1, #4294967295
     560:	ac02      	add	r4, sp, #8
     562:	481e      	ldr	r0, [pc, #120]	; (5dc <main+0x84>)
     564:	f844 1d04 	str.w	r1, [r4, #-4]!
     568:	f002 f8e8 	bl	273c <puts>
     56c:	481c      	ldr	r0, [pc, #112]	; (5e0 <main+0x88>)
     56e:	f002 f8e5 	bl	273c <puts>
     572:	481c      	ldr	r0, [pc, #112]	; (5e4 <main+0x8c>)
     574:	f002 f8e2 	bl	273c <puts>
     578:	481b      	ldr	r0, [pc, #108]	; (5e8 <main+0x90>)
     57a:	f002 f8df 	bl	273c <puts>
     57e:	481b      	ldr	r0, [pc, #108]	; (5ec <main+0x94>)
     580:	f002 f88c 	bl	269c <printf>
     584:	4d1a      	ldr	r5, [pc, #104]	; (5f0 <main+0x98>)
     586:	4621      	mov	r1, r4
     588:	481a      	ldr	r0, [pc, #104]	; (5f4 <main+0x9c>)
     58a:	f002 fa6d 	bl	2a68 <scanf>
     58e:	9901      	ldr	r1, [sp, #4]
     590:	4819      	ldr	r0, [pc, #100]	; (5f8 <main+0xa0>)
     592:	f002 f883 	bl	269c <printf>
     596:	682b      	ldr	r3, [r5, #0]
     598:	2101      	movs	r1, #1
     59a:	2223      	movs	r2, #35	; 0x23
     59c:	689b      	ldr	r3, [r3, #8]
     59e:	4817      	ldr	r0, [pc, #92]	; (5fc <main+0xa4>)
     5a0:	f001 fe00 	bl	21a4 <fwrite>
     5a4:	6828      	ldr	r0, [r5, #0]
     5a6:	2101      	movs	r1, #1
     5a8:	68c3      	ldr	r3, [r0, #12]
     5aa:	2223      	movs	r2, #35	; 0x23
     5ac:	4814      	ldr	r0, [pc, #80]	; (600 <main+0xa8>)
     5ae:	f001 fdf9 	bl	21a4 <fwrite>
     5b2:	4814      	ldr	r0, [pc, #80]	; (604 <main+0xac>)
     5b4:	f002 f8c2 	bl	273c <puts>
     5b8:	480c      	ldr	r0, [pc, #48]	; (5ec <main+0x94>)
     5ba:	f002 f86f 	bl	269c <printf>
     5be:	682b      	ldr	r3, [r5, #0]
     5c0:	490c      	ldr	r1, [pc, #48]	; (5f4 <main+0x9c>)
     5c2:	4622      	mov	r2, r4
     5c4:	6858      	ldr	r0, [r3, #4]
     5c6:	f001 fc49 	bl	1e5c <fscanf>
     5ca:	480b      	ldr	r0, [pc, #44]	; (5f8 <main+0xa0>)
     5cc:	9901      	ldr	r1, [sp, #4]
     5ce:	f002 f865 	bl	269c <printf>
     5d2:	480d      	ldr	r0, [pc, #52]	; (608 <main+0xb0>)
     5d4:	f002 f8b2 	bl	273c <puts>
     5d8:	e7fe      	b.n	5d8 <main+0x80>
     5da:	bf00      	nop
     5dc:	0000bddc 	.word	0x0000bddc
     5e0:	0000bdf8 	.word	0x0000bdf8
     5e4:	0000be14 	.word	0x0000be14
     5e8:	0000be2c 	.word	0x0000be2c
     5ec:	0000be44 	.word	0x0000be44
     5f0:	1000010c 	.word	0x1000010c
     5f4:	0000be68 	.word	0x0000be68
     5f8:	0000be6c 	.word	0x0000be6c
     5fc:	0000be88 	.word	0x0000be88
     600:	0000beac 	.word	0x0000beac
     604:	0000bed0 	.word	0x0000bed0
     608:	0000bef4 	.word	0x0000bef4

0000060c <Reset_Handler>:
     60c:	4806      	ldr	r0, [pc, #24]	; (628 <ADC_IRQHandler+0x2>)
     60e:	4780      	blx	r0
     610:	4806      	ldr	r0, [pc, #24]	; (62c <ADC_IRQHandler+0x6>)
     612:	4700      	bx	r0

00000614 <NMI_Handler>:
     614:	e7fe      	b.n	614 <NMI_Handler>

00000616 <HardFault_Handler>:
     616:	e7fe      	b.n	616 <HardFault_Handler>

00000618 <MemManage_Handler>:
     618:	e7fe      	b.n	618 <MemManage_Handler>

0000061a <BusFault_Handler>:
     61a:	e7fe      	b.n	61a <BusFault_Handler>

0000061c <UsageFault_Handler>:
     61c:	e7fe      	b.n	61c <UsageFault_Handler>

0000061e <SVC_Handler>:
     61e:	e7fe      	b.n	61e <SVC_Handler>

00000620 <DebugMon_Handler>:
     620:	e7fe      	b.n	620 <DebugMon_Handler>

00000622 <PendSV_Handler>:
     622:	e7fe      	b.n	622 <PendSV_Handler>

00000624 <SysTick_Handler>:
     624:	e7fe      	b.n	624 <SysTick_Handler>

00000626 <ADC_IRQHandler>:
     626:	e7fe      	b.n	626 <ADC_IRQHandler>
     628:	000001cd 	.word	0x000001cd
     62c:	000000c5 	.word	0x000000c5

00000630 <_ZNK10__cxxabiv117__class_type_info20__do_find_public_srcEiPKvPKS0_S2_>:
     630:	9800      	ldr	r0, [sp, #0]
     632:	4290      	cmp	r0, r2
     634:	bf14      	ite	ne
     636:	2001      	movne	r0, #1
     638:	2006      	moveq	r0, #6
     63a:	4770      	bx	lr

0000063c <_ZNK10__cxxabiv117__class_type_info11__do_upcastEPKS0_PKvRNS0_15__upcast_resultE>:
     63c:	b538      	push	{r3, r4, r5, lr}
     63e:	4614      	mov	r4, r2
     640:	461d      	mov	r5, r3
     642:	f000 f992 	bl	96a <_ZNKSt9type_infoeqERKS_>
     646:	b128      	cbz	r0, 654 <_ZNK10__cxxabiv117__class_type_info11__do_upcastEPKS0_PKvRNS0_15__upcast_resultE+0x18>
     648:	2001      	movs	r0, #1
     64a:	2308      	movs	r3, #8
     64c:	602c      	str	r4, [r5, #0]
     64e:	60eb      	str	r3, [r5, #12]
     650:	3b02      	subs	r3, #2
     652:	712b      	strb	r3, [r5, #4]
     654:	bd38      	pop	{r3, r4, r5, pc}

00000656 <_ZNK10__cxxabiv117__class_type_info12__do_dyncastEiNS0_10__sub_kindEPKS0_PKvS3_S5_RNS0_16__dyncast_resultE>:
     656:	e92d 41f0 	stmdb	sp!, {r4, r5, r6, r7, r8, lr}
     65a:	4698      	mov	r8, r3
     65c:	9f06      	ldr	r7, [sp, #24]
     65e:	4604      	mov	r4, r0
     660:	9b08      	ldr	r3, [sp, #32]
     662:	4615      	mov	r5, r2
     664:	9e09      	ldr	r6, [sp, #36]	; 0x24
     666:	429f      	cmp	r7, r3
     668:	d10c      	bne.n	684 <_ZNK10__cxxabiv117__class_type_info12__do_dyncastEiNS0_10__sub_kindEPKS0_PKvS3_S5_RNS0_16__dyncast_resultE+0x2e>
     66a:	9907      	ldr	r1, [sp, #28]
     66c:	f000 f97d 	bl	96a <_ZNKSt9type_infoeqERKS_>
     670:	b140      	cbz	r0, 684 <_ZNK10__cxxabiv117__class_type_info12__do_dyncastEiNS0_10__sub_kindEPKS0_PKvS3_S5_RNS0_16__dyncast_resultE+0x2e>
     672:	7175      	strb	r5, [r6, #5]
     674:	e003      	b.n	67e <_ZNK10__cxxabiv117__class_type_info12__do_dyncastEiNS0_10__sub_kindEPKS0_PKvS3_S5_RNS0_16__dyncast_resultE+0x28>
     676:	2301      	movs	r3, #1
     678:	6037      	str	r7, [r6, #0]
     67a:	7135      	strb	r5, [r6, #4]
     67c:	71b3      	strb	r3, [r6, #6]
     67e:	2000      	movs	r0, #0
     680:	e8bd 81f0 	ldmia.w	sp!, {r4, r5, r6, r7, r8, pc}
     684:	4620      	mov	r0, r4
     686:	4641      	mov	r1, r8
     688:	f000 f96f 	bl	96a <_ZNKSt9type_infoeqERKS_>
     68c:	2800      	cmp	r0, #0
     68e:	d1f2      	bne.n	676 <_ZNK10__cxxabiv117__class_type_info12__do_dyncastEiNS0_10__sub_kindEPKS0_PKvS3_S5_RNS0_16__dyncast_resultE+0x20>
     690:	e7f5      	b.n	67e <_ZNK10__cxxabiv117__class_type_info12__do_dyncastEiNS0_10__sub_kindEPKS0_PKvS3_S5_RNS0_16__dyncast_resultE+0x28>

00000692 <_ZNK10__cxxabiv117__class_type_info10__do_catchEPKSt9type_infoPPvj>:
     692:	b5f8      	push	{r3, r4, r5, r6, r7, lr}
     694:	4605      	mov	r5, r0
     696:	460c      	mov	r4, r1
     698:	4616      	mov	r6, r2
     69a:	461f      	mov	r7, r3
     69c:	f000 f965 	bl	96a <_ZNKSt9type_infoeqERKS_>
     6a0:	b940      	cbnz	r0, 6b4 <_ZNK10__cxxabiv117__class_type_info10__do_catchEPKSt9type_infoPPvj+0x22>
     6a2:	2f03      	cmp	r7, #3
     6a4:	d807      	bhi.n	6b6 <_ZNK10__cxxabiv117__class_type_info10__do_catchEPKSt9type_infoPPvj+0x24>
     6a6:	6823      	ldr	r3, [r4, #0]
     6a8:	4620      	mov	r0, r4
     6aa:	4629      	mov	r1, r5
     6ac:	4632      	mov	r2, r6
     6ae:	695b      	ldr	r3, [r3, #20]
     6b0:	4798      	blx	r3
     6b2:	bdf8      	pop	{r3, r4, r5, r6, r7, pc}
     6b4:	2001      	movs	r0, #1
     6b6:	bdf8      	pop	{r3, r4, r5, r6, r7, pc}

000006b8 <_ZN10__cxxabiv117__class_type_infoD1Ev>:
     6b8:	4b03      	ldr	r3, [pc, #12]	; (6c8 <_ZN10__cxxabiv117__class_type_infoD1Ev+0x10>)
     6ba:	b510      	push	{r4, lr}
     6bc:	4604      	mov	r4, r0
     6be:	6003      	str	r3, [r0, #0]
     6c0:	f000 f938 	bl	934 <_ZNSt9type_infoD1Ev>
     6c4:	4620      	mov	r0, r4
     6c6:	bd10      	pop	{r4, pc}
     6c8:	0000bf10 	.word	0x0000bf10

000006cc <_ZN10__cxxabiv117__class_type_infoD0Ev>:
     6cc:	b510      	push	{r4, lr}
     6ce:	4604      	mov	r4, r0
     6d0:	f7ff fff2 	bl	6b8 <_ZN10__cxxabiv117__class_type_infoD1Ev>
     6d4:	4620      	mov	r0, r4
     6d6:	f000 f825 	bl	724 <_ZdlPv>
     6da:	4620      	mov	r0, r4
     6dc:	bd10      	pop	{r4, pc}

000006de <_ZN10__cxxabiv117__class_type_info15__upcast_resultC1Ei>:
     6de:	2200      	movs	r2, #0
     6e0:	6081      	str	r1, [r0, #8]
     6e2:	6002      	str	r2, [r0, #0]
     6e4:	7102      	strb	r2, [r0, #4]
     6e6:	60c2      	str	r2, [r0, #12]
     6e8:	4770      	bx	lr

000006ea <_ZNK10__cxxabiv117__class_type_info11__do_upcastEPKS0_PPv>:
     6ea:	b5f0      	push	{r4, r5, r6, r7, lr}
     6ec:	4606      	mov	r6, r0
     6ee:	b085      	sub	sp, #20
     6f0:	460f      	mov	r7, r1
     6f2:	4668      	mov	r0, sp
     6f4:	2110      	movs	r1, #16
     6f6:	4614      	mov	r4, r2
     6f8:	f7ff fff1 	bl	6de <_ZN10__cxxabiv117__class_type_info15__upcast_resultC1Ei>
     6fc:	6833      	ldr	r3, [r6, #0]
     6fe:	4630      	mov	r0, r6
     700:	4639      	mov	r1, r7
     702:	6822      	ldr	r2, [r4, #0]
     704:	699d      	ldr	r5, [r3, #24]
     706:	466b      	mov	r3, sp
     708:	47a8      	blx	r5
     70a:	f89d 3004 	ldrb.w	r3, [sp, #4]
     70e:	f003 0306 	and.w	r3, r3, #6
     712:	2b06      	cmp	r3, #6
     714:	d103      	bne.n	71e <_ZNK10__cxxabiv117__class_type_info11__do_upcastEPKS0_PPv+0x34>
     716:	9b00      	ldr	r3, [sp, #0]
     718:	2001      	movs	r0, #1
     71a:	6023      	str	r3, [r4, #0]
     71c:	e000      	b.n	720 <_ZNK10__cxxabiv117__class_type_info11__do_upcastEPKS0_PPv+0x36>
     71e:	2000      	movs	r0, #0
     720:	b005      	add	sp, #20
     722:	bdf0      	pop	{r4, r5, r6, r7, pc}

00000724 <_ZdlPv>:
     724:	b108      	cbz	r0, 72a <_ZdlPv+0x6>
     726:	f001 bd79 	b.w	221c <free>
     72a:	4770      	bx	lr

0000072c <_ZdaPv>:
     72c:	f7ff bffa 	b.w	724 <_ZdlPv>

00000730 <_ZN10__cxxabiv112_GLOBAL__N_118contained_public_pENS_17__class_type_info10__sub_kindE>:
     730:	f000 0006 	and.w	r0, r0, #6
     734:	f1a0 0306 	sub.w	r3, r0, #6
     738:	4258      	negs	r0, r3
     73a:	eb40 0003 	adc.w	r0, r0, r3
     73e:	4770      	bx	lr

00000740 <_ZN10__cxxabiv112_GLOBAL__N_114adjust_pointerIvEEPKT_PKvi>:
     740:	1840      	adds	r0, r0, r1
     742:	4770      	bx	lr

00000744 <_ZN10__cxxabiv117__class_type_info16__dyncast_resultC1Ei>:
     744:	2200      	movs	r2, #0
     746:	6081      	str	r1, [r0, #8]
     748:	6002      	str	r2, [r0, #0]
     74a:	7102      	strb	r2, [r0, #4]
     74c:	7142      	strb	r2, [r0, #5]
     74e:	7182      	strb	r2, [r0, #6]
     750:	4770      	bx	lr

00000752 <_ZNK10__cxxabiv117__class_type_info17__find_public_srcEiPKvPKS0_S2_>:
     752:	b5f7      	push	{r0, r1, r2, r4, r5, r6, r7, lr}
     754:	1e0e      	subs	r6, r1, #0
     756:	9c08      	ldr	r4, [sp, #32]
     758:	db07      	blt.n	76a <_ZNK10__cxxabiv117__class_type_info17__find_public_srcEiPKvPKS0_S2_+0x18>
     75a:	4610      	mov	r0, r2
     75c:	f7ff fff0 	bl	740 <_ZN10__cxxabiv112_GLOBAL__N_114adjust_pointerIvEEPKT_PKvi>
     760:	4284      	cmp	r4, r0
     762:	bf14      	ite	ne
     764:	2001      	movne	r0, #1
     766:	2006      	moveq	r0, #6
     768:	e008      	b.n	77c <_ZNK10__cxxabiv117__class_type_info17__find_public_srcEiPKvPKS0_S2_+0x2a>
     76a:	f116 0f02 	cmn.w	r6, #2
     76e:	d004      	beq.n	77a <_ZNK10__cxxabiv117__class_type_info17__find_public_srcEiPKvPKS0_S2_+0x28>
     770:	6805      	ldr	r5, [r0, #0]
     772:	9400      	str	r4, [sp, #0]
     774:	6a2c      	ldr	r4, [r5, #32]
     776:	47a0      	blx	r4
     778:	e000      	b.n	77c <_ZNK10__cxxabiv117__class_type_info17__find_public_srcEiPKvPKS0_S2_+0x2a>
     77a:	2001      	movs	r0, #1
     77c:	bdfe      	pop	{r1, r2, r3, r4, r5, r6, r7, pc}

0000077e <__dynamic_cast>:
     77e:	e92d 47f0 	stmdb	sp!, {r4, r5, r6, r7, r8, r9, sl, lr}
     782:	461d      	mov	r5, r3
     784:	6803      	ldr	r3, [r0, #0]
     786:	b088      	sub	sp, #32
     788:	4688      	mov	r8, r1
     78a:	4616      	mov	r6, r2
     78c:	f1a3 0708 	sub.w	r7, r3, #8
     790:	4604      	mov	r4, r0
     792:	f853 1c08 	ldr.w	r1, [r3, #-8]
     796:	f7ff ffd3 	bl	740 <_ZN10__cxxabiv112_GLOBAL__N_114adjust_pointerIvEEPKT_PKvi>
     79a:	f8d7 9004 	ldr.w	r9, [r7, #4]
     79e:	af05      	add	r7, sp, #20
     7a0:	2110      	movs	r1, #16
     7a2:	4682      	mov	sl, r0
     7a4:	4638      	mov	r0, r7
     7a6:	f7ff ffcd 	bl	744 <_ZN10__cxxabiv117__class_type_info16__dyncast_resultC1Ei>
     7aa:	f8d9 3000 	ldr.w	r3, [r9]
     7ae:	4648      	mov	r0, r9
     7b0:	f8cd a000 	str.w	sl, [sp]
     7b4:	f8cd 8004 	str.w	r8, [sp, #4]
     7b8:	4629      	mov	r1, r5
     7ba:	9402      	str	r4, [sp, #8]
     7bc:	2206      	movs	r2, #6
     7be:	9703      	str	r7, [sp, #12]
     7c0:	69df      	ldr	r7, [r3, #28]
     7c2:	4633      	mov	r3, r6
     7c4:	47b8      	blx	r7
     7c6:	9f05      	ldr	r7, [sp, #20]
     7c8:	b33f      	cbz	r7, 81a <__dynamic_cast+0x9c>
     7ca:	f89d 901a 	ldrb.w	r9, [sp, #26]
     7ce:	4648      	mov	r0, r9
     7d0:	f7ff ffae 	bl	730 <_ZN10__cxxabiv112_GLOBAL__N_118contained_public_pENS_17__class_type_info10__sub_kindE>
     7d4:	bb08      	cbnz	r0, 81a <__dynamic_cast+0x9c>
     7d6:	f89d a019 	ldrb.w	sl, [sp, #25]
     7da:	f89d 0018 	ldrb.w	r0, [sp, #24]
     7de:	ea0a 0000 	and.w	r0, sl, r0
     7e2:	f7ff ffa5 	bl	730 <_ZN10__cxxabiv112_GLOBAL__N_118contained_public_pENS_17__class_type_info10__sub_kindE>
     7e6:	b9c0      	cbnz	r0, 81a <__dynamic_cast+0x9c>
     7e8:	f00a 0a05 	and.w	sl, sl, #5
     7ec:	f1ba 0f04 	cmp.w	sl, #4
     7f0:	d012      	beq.n	818 <__dynamic_cast+0x9a>
     7f2:	f1b9 0f00 	cmp.w	r9, #0
     7f6:	d108      	bne.n	80a <__dynamic_cast+0x8c>
     7f8:	4630      	mov	r0, r6
     7fa:	4629      	mov	r1, r5
     7fc:	463a      	mov	r2, r7
     7fe:	4643      	mov	r3, r8
     800:	9400      	str	r4, [sp, #0]
     802:	f7ff ffa6 	bl	752 <_ZNK10__cxxabiv117__class_type_info17__find_public_srcEiPKvPKS0_S2_>
     806:	f88d 001a 	strb.w	r0, [sp, #26]
     80a:	f89d 001a 	ldrb.w	r0, [sp, #26]
     80e:	f7ff ff8f 	bl	730 <_ZN10__cxxabiv112_GLOBAL__N_118contained_public_pENS_17__class_type_info10__sub_kindE>
     812:	b108      	cbz	r0, 818 <__dynamic_cast+0x9a>
     814:	9f05      	ldr	r7, [sp, #20]
     816:	e000      	b.n	81a <__dynamic_cast+0x9c>
     818:	4607      	mov	r7, r0
     81a:	4638      	mov	r0, r7
     81c:	b008      	add	sp, #32
     81e:	e8bd 87f0 	ldmia.w	sp!, {r4, r5, r6, r7, r8, r9, sl, pc}

00000822 <_ZNK10__cxxabiv120__si_class_type_info11__do_upcastEPKNS_17__class_type_infoEPKvRNS1_15__upcast_resultE>:
     822:	b5f8      	push	{r3, r4, r5, r6, r7, lr}
     824:	4604      	mov	r4, r0
     826:	460f      	mov	r7, r1
     828:	4616      	mov	r6, r2
     82a:	461d      	mov	r5, r3
     82c:	f7ff ff06 	bl	63c <_ZNK10__cxxabiv117__class_type_info11__do_upcastEPKS0_PKvRNS0_15__upcast_resultE>
     830:	b938      	cbnz	r0, 842 <_ZNK10__cxxabiv120__si_class_type_info11__do_upcastEPKNS_17__class_type_infoEPKvRNS1_15__upcast_resultE+0x20>
     832:	68a0      	ldr	r0, [r4, #8]
     834:	4639      	mov	r1, r7
     836:	4632      	mov	r2, r6
     838:	6803      	ldr	r3, [r0, #0]
     83a:	699c      	ldr	r4, [r3, #24]
     83c:	462b      	mov	r3, r5
     83e:	47a0      	blx	r4
     840:	bdf8      	pop	{r3, r4, r5, r6, r7, pc}
     842:	2001      	movs	r0, #1
     844:	bdf8      	pop	{r3, r4, r5, r6, r7, pc}

00000846 <_ZNK10__cxxabiv120__si_class_type_info12__do_dyncastEiNS_17__class_type_info10__sub_kindEPKS1_PKvS4_S6_RNS1_16__dyncast_resultE>:
     846:	e92d 4ff0 	stmdb	sp!, {r4, r5, r6, r7, r8, r9, sl, fp, lr}
     84a:	b085      	sub	sp, #20
     84c:	460c      	mov	r4, r1
     84e:	4619      	mov	r1, r3
     850:	4605      	mov	r5, r0
     852:	4616      	mov	r6, r2
     854:	461f      	mov	r7, r3
     856:	f8dd 9038 	ldr.w	r9, [sp, #56]	; 0x38
     85a:	f8dd a040 	ldr.w	sl, [sp, #64]	; 0x40
     85e:	f8dd 8044 	ldr.w	r8, [sp, #68]	; 0x44
     862:	f000 f882 	bl	96a <_ZNKSt9type_infoeqERKS_>
     866:	4683      	mov	fp, r0
     868:	b1b0      	cbz	r0, 898 <_ZNK10__cxxabiv120__si_class_type_info12__do_dyncastEiNS_17__class_type_info10__sub_kindEPKS1_PKvS4_S6_RNS1_16__dyncast_resultE+0x52>
     86a:	2c00      	cmp	r4, #0
     86c:	f8c8 9000 	str.w	r9, [r8]
     870:	f888 6004 	strb.w	r6, [r8, #4]
     874:	db09      	blt.n	88a <_ZNK10__cxxabiv120__si_class_type_info12__do_dyncastEiNS_17__class_type_info10__sub_kindEPKS1_PKvS4_S6_RNS1_16__dyncast_resultE+0x44>
     876:	444c      	add	r4, r9
     878:	45a2      	cmp	sl, r4
     87a:	bf14      	ite	ne
     87c:	f04f 0a01 	movne.w	sl, #1
     880:	f04f 0a06 	moveq.w	sl, #6
     884:	f888 a006 	strb.w	sl, [r8, #6]
     888:	e011      	b.n	8ae <_ZNK10__cxxabiv120__si_class_type_info12__do_dyncastEiNS_17__class_type_info10__sub_kindEPKS1_PKvS4_S6_RNS1_16__dyncast_resultE+0x68>
     88a:	f114 0f02 	cmn.w	r4, #2
     88e:	d10e      	bne.n	8ae <_ZNK10__cxxabiv120__si_class_type_info12__do_dyncastEiNS_17__class_type_info10__sub_kindEPKS1_PKvS4_S6_RNS1_16__dyncast_resultE+0x68>
     890:	2301      	movs	r3, #1
     892:	f888 3006 	strb.w	r3, [r8, #6]
     896:	e00a      	b.n	8ae <_ZNK10__cxxabiv120__si_class_type_info12__do_dyncastEiNS_17__class_type_info10__sub_kindEPKS1_PKvS4_S6_RNS1_16__dyncast_resultE+0x68>
     898:	45d1      	cmp	r9, sl
     89a:	d10c      	bne.n	8b6 <_ZNK10__cxxabiv120__si_class_type_info12__do_dyncastEiNS_17__class_type_info10__sub_kindEPKS1_PKvS4_S6_RNS1_16__dyncast_resultE+0x70>
     89c:	4628      	mov	r0, r5
     89e:	990f      	ldr	r1, [sp, #60]	; 0x3c
     8a0:	f000 f863 	bl	96a <_ZNKSt9type_infoeqERKS_>
     8a4:	b138      	cbz	r0, 8b6 <_ZNK10__cxxabiv120__si_class_type_info12__do_dyncastEiNS_17__class_type_info10__sub_kindEPKS1_PKvS4_S6_RNS1_16__dyncast_resultE+0x70>
     8a6:	f888 6005 	strb.w	r6, [r8, #5]
     8aa:	4658      	mov	r0, fp
     8ac:	e000      	b.n	8b0 <_ZNK10__cxxabiv120__si_class_type_info12__do_dyncastEiNS_17__class_type_info10__sub_kindEPKS1_PKvS4_S6_RNS1_16__dyncast_resultE+0x6a>
     8ae:	2000      	movs	r0, #0
     8b0:	b005      	add	sp, #20
     8b2:	e8bd 8ff0 	ldmia.w	sp!, {r4, r5, r6, r7, r8, r9, sl, fp, pc}
     8b6:	68a8      	ldr	r0, [r5, #8]
     8b8:	4621      	mov	r1, r4
     8ba:	9a0f      	ldr	r2, [sp, #60]	; 0x3c
     8bc:	6803      	ldr	r3, [r0, #0]
     8be:	9201      	str	r2, [sp, #4]
     8c0:	4632      	mov	r2, r6
     8c2:	f8cd 9000 	str.w	r9, [sp]
     8c6:	f8cd a008 	str.w	sl, [sp, #8]
     8ca:	f8cd 800c 	str.w	r8, [sp, #12]
     8ce:	69dd      	ldr	r5, [r3, #28]
     8d0:	463b      	mov	r3, r7
     8d2:	47a8      	blx	r5
     8d4:	e7ec      	b.n	8b0 <_ZNK10__cxxabiv120__si_class_type_info12__do_dyncastEiNS_17__class_type_info10__sub_kindEPKS1_PKvS4_S6_RNS1_16__dyncast_resultE+0x6a>

000008d6 <_ZNK10__cxxabiv120__si_class_type_info20__do_find_public_srcEiPKvPKNS_17__class_type_infoES2_>:
     8d6:	e92d 41f3 	stmdb	sp!, {r0, r1, r4, r5, r6, r7, r8, lr}
     8da:	4604      	mov	r4, r0
     8dc:	f8dd 8020 	ldr.w	r8, [sp, #32]
     8e0:	460d      	mov	r5, r1
     8e2:	4617      	mov	r7, r2
     8e4:	461e      	mov	r6, r3
     8e6:	4590      	cmp	r8, r2
     8e8:	d106      	bne.n	8f8 <_ZNK10__cxxabiv120__si_class_type_info20__do_find_public_srcEiPKvPKNS_17__class_type_infoES2_+0x22>
     8ea:	4619      	mov	r1, r3
     8ec:	f000 f83d 	bl	96a <_ZNKSt9type_infoeqERKS_>
     8f0:	b110      	cbz	r0, 8f8 <_ZNK10__cxxabiv120__si_class_type_info20__do_find_public_srcEiPKvPKNS_17__class_type_infoES2_+0x22>
     8f2:	2006      	movs	r0, #6
     8f4:	e8bd 81fc 	ldmia.w	sp!, {r2, r3, r4, r5, r6, r7, r8, pc}
     8f8:	68a0      	ldr	r0, [r4, #8]
     8fa:	4629      	mov	r1, r5
     8fc:	463a      	mov	r2, r7
     8fe:	6803      	ldr	r3, [r0, #0]
     900:	f8cd 8000 	str.w	r8, [sp]
     904:	6a1c      	ldr	r4, [r3, #32]
     906:	4633      	mov	r3, r6
     908:	47a0      	blx	r4
     90a:	e7f3      	b.n	8f4 <_ZNK10__cxxabiv120__si_class_type_info20__do_find_public_srcEiPKvPKNS_17__class_type_infoES2_+0x1e>

0000090c <_ZN10__cxxabiv120__si_class_type_infoD1Ev>:
     90c:	4b03      	ldr	r3, [pc, #12]	; (91c <_ZN10__cxxabiv120__si_class_type_infoD1Ev+0x10>)
     90e:	b510      	push	{r4, lr}
     910:	4604      	mov	r4, r0
     912:	6003      	str	r3, [r0, #0]
     914:	f7ff fed0 	bl	6b8 <_ZN10__cxxabiv117__class_type_infoD1Ev>
     918:	4620      	mov	r0, r4
     91a:	bd10      	pop	{r4, pc}
     91c:	0000bf70 	.word	0x0000bf70

00000920 <_ZN10__cxxabiv120__si_class_type_infoD0Ev>:
     920:	b510      	push	{r4, lr}
     922:	4604      	mov	r4, r0
     924:	f7ff fff2 	bl	90c <_ZN10__cxxabiv120__si_class_type_infoD1Ev>
     928:	4620      	mov	r0, r4
     92a:	f7ff fefb 	bl	724 <_ZdlPv>
     92e:	4620      	mov	r0, r4
     930:	bd10      	pop	{r4, pc}
	...

00000934 <_ZNSt9type_infoD1Ev>:
     934:	4b01      	ldr	r3, [pc, #4]	; (93c <_ZNSt9type_infoD1Ev+0x8>)
     936:	6003      	str	r3, [r0, #0]
     938:	4770      	bx	lr
     93a:	bf00      	nop
     93c:	0000bff0 	.word	0x0000bff0

00000940 <_ZNKSt9type_info14__is_pointer_pEv>:
     940:	2000      	movs	r0, #0
     942:	4770      	bx	lr

00000944 <_ZNKSt9type_info15__is_function_pEv>:
     944:	2000      	movs	r0, #0
     946:	4770      	bx	lr

00000948 <_ZNKSt9type_info11__do_upcastEPKN10__cxxabiv117__class_type_infoEPPv>:
     948:	2000      	movs	r0, #0
     94a:	4770      	bx	lr

0000094c <_ZNSt9type_infoD0Ev>:
     94c:	b510      	push	{r4, lr}
     94e:	4604      	mov	r4, r0
     950:	f7ff fff0 	bl	934 <_ZNSt9type_infoD1Ev>
     954:	4620      	mov	r0, r4
     956:	f7ff fee5 	bl	724 <_ZdlPv>
     95a:	4620      	mov	r0, r4
     95c:	bd10      	pop	{r4, pc}

0000095e <_ZNKSt9type_info4nameEv>:
     95e:	6840      	ldr	r0, [r0, #4]
     960:	7803      	ldrb	r3, [r0, #0]
     962:	2b2a      	cmp	r3, #42	; 0x2a
     964:	bf08      	it	eq
     966:	3001      	addeq	r0, #1
     968:	4770      	bx	lr

0000096a <_ZNKSt9type_infoeqERKS_>:
     96a:	4281      	cmp	r1, r0
     96c:	b538      	push	{r3, r4, r5, lr}
     96e:	460d      	mov	r5, r1
     970:	d011      	beq.n	996 <_ZNKSt9type_infoeqERKS_+0x2c>
     972:	f7ff fff4 	bl	95e <_ZNKSt9type_info4nameEv>
     976:	7803      	ldrb	r3, [r0, #0]
     978:	4604      	mov	r4, r0
     97a:	2b2a      	cmp	r3, #42	; 0x2a
     97c:	d00d      	beq.n	99a <_ZNKSt9type_infoeqERKS_+0x30>
     97e:	4628      	mov	r0, r5
     980:	f7ff ffed 	bl	95e <_ZNKSt9type_info4nameEv>
     984:	4601      	mov	r1, r0
     986:	4620      	mov	r0, r4
     988:	f002 f961 	bl	2c4e <strcmp>
     98c:	f1d0 0001 	rsbs	r0, r0, #1
     990:	bf38      	it	cc
     992:	2000      	movcc	r0, #0
     994:	bd38      	pop	{r3, r4, r5, pc}
     996:	2001      	movs	r0, #1
     998:	bd38      	pop	{r3, r4, r5, pc}
     99a:	2000      	movs	r0, #0
     99c:	bd38      	pop	{r3, r4, r5, pc}

0000099e <_ZNKSt9type_info10__do_catchEPKS_PPvj>:
     99e:	f7ff bfe4 	b.w	96a <_ZNKSt9type_infoeqERKS_>

000009a2 <_ZN10__cxxabiv112_GLOBAL__N_111contained_pENS_17__class_type_info10__sub_kindE>:
     9a2:	2803      	cmp	r0, #3
     9a4:	bf94      	ite	ls
     9a6:	2000      	movls	r0, #0
     9a8:	2001      	movhi	r0, #1
     9aa:	4770      	bx	lr

000009ac <_ZN10__cxxabiv112_GLOBAL__N_19virtual_pENS_17__class_type_info10__sub_kindE>:
     9ac:	f000 0001 	and.w	r0, r0, #1
     9b0:	4770      	bx	lr

000009b2 <_ZN10__cxxabiv112_GLOBAL__N_114adjust_pointerIvEEPKT_PKvi>:
     9b2:	1840      	adds	r0, r0, r1
     9b4:	4770      	bx	lr

000009b6 <_ZN10__cxxabiv112_GLOBAL__N_115convert_to_baseEPKvbi>:
     9b6:	b109      	cbz	r1, 9bc <_ZN10__cxxabiv112_GLOBAL__N_115convert_to_baseEPKvbi+0x6>
     9b8:	6803      	ldr	r3, [r0, #0]
     9ba:	589a      	ldr	r2, [r3, r2]
     9bc:	4611      	mov	r1, r2
     9be:	f7ff bff8 	b.w	9b2 <_ZN10__cxxabiv112_GLOBAL__N_114adjust_pointerIvEEPKT_PKvi>
	...

000009c4 <_ZN10__cxxabiv121__vmi_class_type_infoD1Ev>:
     9c4:	4b03      	ldr	r3, [pc, #12]	; (9d4 <_ZN10__cxxabiv121__vmi_class_type_infoD1Ev+0x10>)
     9c6:	b510      	push	{r4, lr}
     9c8:	4604      	mov	r4, r0
     9ca:	6003      	str	r3, [r0, #0]
     9cc:	f7ff fe74 	bl	6b8 <_ZN10__cxxabiv117__class_type_infoD1Ev>
     9d0:	4620      	mov	r0, r4
     9d2:	bd10      	pop	{r4, pc}
     9d4:	0000c048 	.word	0x0000c048

000009d8 <_ZN10__cxxabiv121__vmi_class_type_infoD0Ev>:
     9d8:	b510      	push	{r4, lr}
     9da:	4604      	mov	r4, r0
     9dc:	f7ff fff2 	bl	9c4 <_ZN10__cxxabiv121__vmi_class_type_infoD1Ev>
     9e0:	4620      	mov	r0, r4
     9e2:	f7ff fe9f 	bl	724 <_ZdlPv>
     9e6:	4620      	mov	r0, r4
     9e8:	bd10      	pop	{r4, pc}

000009ea <_ZNK10__cxxabiv122__base_class_type_info14__is_virtual_pEv>:
     9ea:	6840      	ldr	r0, [r0, #4]
     9ec:	f000 0001 	and.w	r0, r0, #1
     9f0:	4770      	bx	lr

000009f2 <_ZNK10__cxxabiv122__base_class_type_info13__is_public_pEv>:
     9f2:	6840      	ldr	r0, [r0, #4]
     9f4:	f3c0 0040 	ubfx	r0, r0, #1, #1
     9f8:	4770      	bx	lr

000009fa <_ZNK10__cxxabiv122__base_class_type_info8__offsetEv>:
     9fa:	6840      	ldr	r0, [r0, #4]
     9fc:	1200      	asrs	r0, r0, #8
     9fe:	4770      	bx	lr

00000a00 <_ZNK10__cxxabiv121__vmi_class_type_info20__do_find_public_srcEiPKvPKNS_17__class_type_infoES2_>:
     a00:	e92d 4ff7 	stmdb	sp!, {r0, r1, r2, r4, r5, r6, r7, r8, r9, sl, fp, lr}
     a04:	468b      	mov	fp, r1
     a06:	990c      	ldr	r1, [sp, #48]	; 0x30
     a08:	4605      	mov	r5, r0
     a0a:	4692      	mov	sl, r2
     a0c:	4699      	mov	r9, r3
     a0e:	428a      	cmp	r2, r1
     a10:	d13b      	bne.n	a8a <_ZNK10__cxxabiv121__vmi_class_type_info20__do_find_public_srcEiPKvPKNS_17__class_type_infoES2_+0x8a>
     a12:	4619      	mov	r1, r3
     a14:	f7ff ffa9 	bl	96a <_ZNKSt9type_infoeqERKS_>
     a18:	2800      	cmp	r0, #0
     a1a:	d132      	bne.n	a82 <_ZNK10__cxxabiv121__vmi_class_type_info20__do_find_public_srcEiPKvPKNS_17__class_type_infoES2_+0x82>
     a1c:	e035      	b.n	a8a <_ZNK10__cxxabiv121__vmi_class_type_info20__do_find_public_srcEiPKvPKNS_17__class_type_infoES2_+0x8a>
     a1e:	3c01      	subs	r4, #1
     a20:	1ca6      	adds	r6, r4, #2
     a22:	eb05 06c6 	add.w	r6, r5, r6, lsl #3
     a26:	4630      	mov	r0, r6
     a28:	f7ff ffe3 	bl	9f2 <_ZNK10__cxxabiv122__base_class_type_info13__is_public_pEv>
     a2c:	b318      	cbz	r0, a76 <_ZNK10__cxxabiv121__vmi_class_type_info20__do_find_public_srcEiPKvPKNS_17__class_type_infoES2_+0x76>
     a2e:	4630      	mov	r0, r6
     a30:	f7ff ffe3 	bl	9fa <_ZNK10__cxxabiv122__base_class_type_info8__offsetEv>
     a34:	4607      	mov	r7, r0
     a36:	4630      	mov	r0, r6
     a38:	f7ff ffd7 	bl	9ea <_ZNK10__cxxabiv122__base_class_type_info14__is_virtual_pEv>
     a3c:	4606      	mov	r6, r0
     a3e:	b110      	cbz	r0, a46 <_ZNK10__cxxabiv121__vmi_class_type_info20__do_find_public_srcEiPKvPKNS_17__class_type_infoES2_+0x46>
     a40:	f11b 0f03 	cmn.w	fp, #3
     a44:	d017      	beq.n	a76 <_ZNK10__cxxabiv121__vmi_class_type_info20__do_find_public_srcEiPKvPKNS_17__class_type_infoES2_+0x76>
     a46:	463a      	mov	r2, r7
     a48:	4631      	mov	r1, r6
     a4a:	4650      	mov	r0, sl
     a4c:	f7ff ffb3 	bl	9b6 <_ZN10__cxxabiv112_GLOBAL__N_115convert_to_baseEPKvbi>
     a50:	990c      	ldr	r1, [sp, #48]	; 0x30
     a52:	4602      	mov	r2, r0
     a54:	f858 0c08 	ldr.w	r0, [r8, #-8]
     a58:	6803      	ldr	r3, [r0, #0]
     a5a:	9100      	str	r1, [sp, #0]
     a5c:	4659      	mov	r1, fp
     a5e:	6a1f      	ldr	r7, [r3, #32]
     a60:	464b      	mov	r3, r9
     a62:	47b8      	blx	r7
     a64:	4607      	mov	r7, r0
     a66:	f7ff ff9c 	bl	9a2 <_ZN10__cxxabiv112_GLOBAL__N_111contained_pENS_17__class_type_info10__sub_kindE>
     a6a:	b120      	cbz	r0, a76 <_ZNK10__cxxabiv121__vmi_class_type_info20__do_find_public_srcEiPKvPKNS_17__class_type_infoES2_+0x76>
     a6c:	b156      	cbz	r6, a84 <_ZNK10__cxxabiv121__vmi_class_type_info20__do_find_public_srcEiPKvPKNS_17__class_type_infoES2_+0x84>
     a6e:	f047 0701 	orr.w	r7, r7, #1
     a72:	b2ff      	uxtb	r7, r7
     a74:	e006      	b.n	a84 <_ZNK10__cxxabiv121__vmi_class_type_info20__do_find_public_srcEiPKvPKNS_17__class_type_infoES2_+0x84>
     a76:	f1a8 0808 	sub.w	r8, r8, #8
     a7a:	2c00      	cmp	r4, #0
     a7c:	d1cf      	bne.n	a1e <_ZNK10__cxxabiv121__vmi_class_type_info20__do_find_public_srcEiPKvPKNS_17__class_type_infoES2_+0x1e>
     a7e:	2701      	movs	r7, #1
     a80:	e000      	b.n	a84 <_ZNK10__cxxabiv121__vmi_class_type_info20__do_find_public_srcEiPKvPKNS_17__class_type_infoES2_+0x84>
     a82:	2706      	movs	r7, #6
     a84:	4638      	mov	r0, r7
     a86:	e8bd 8ffe 	ldmia.w	sp!, {r1, r2, r3, r4, r5, r6, r7, r8, r9, sl, fp, pc}
     a8a:	68ec      	ldr	r4, [r5, #12]
     a8c:	f104 0802 	add.w	r8, r4, #2
     a90:	eb05 08c8 	add.w	r8, r5, r8, lsl #3
     a94:	e7f1      	b.n	a7a <_ZNK10__cxxabiv121__vmi_class_type_info20__do_find_public_srcEiPKvPKNS_17__class_type_infoES2_+0x7a>

00000a96 <_ZNK10__cxxabiv121__vmi_class_type_info11__do_upcastEPKNS_17__class_type_infoEPKvRNS1_15__upcast_resultE>:
     a96:	e92d 4ff0 	stmdb	sp!, {r4, r5, r6, r7, r8, r9, sl, fp, lr}
     a9a:	b089      	sub	sp, #36	; 0x24
     a9c:	4605      	mov	r5, r0
     a9e:	4692      	mov	sl, r2
     aa0:	9103      	str	r1, [sp, #12]
     aa2:	461c      	mov	r4, r3
     aa4:	f7ff fdca 	bl	63c <_ZNK10__cxxabiv117__class_type_info11__do_upcastEPKS0_PKvRNS0_15__upcast_resultE>
     aa8:	2800      	cmp	r0, #0
     aaa:	f040 808d 	bne.w	bc8 <_ZNK10__cxxabiv121__vmi_class_type_info11__do_upcastEPKNS_17__class_type_infoEPKvRNS1_15__upcast_resultE+0x132>
     aae:	f8d4 9008 	ldr.w	r9, [r4, #8]
     ab2:	f8d5 800c 	ldr.w	r8, [r5, #12]
     ab6:	f019 0f10 	tst.w	r9, #16
     aba:	f108 0602 	add.w	r6, r8, #2
     abe:	bf18      	it	ne
     ac0:	f8d5 9008 	ldrne.w	r9, [r5, #8]
     ac4:	eb05 06c6 	add.w	r6, r5, r6, lsl #3
     ac8:	e076      	b.n	bb8 <_ZNK10__cxxabiv121__vmi_class_type_info11__do_upcastEPKNS_17__class_type_infoEPKvRNS1_15__upcast_resultE+0x122>
     aca:	4649      	mov	r1, r9
     acc:	f108 38ff 	add.w	r8, r8, #4294967295
     ad0:	a804      	add	r0, sp, #16
     ad2:	f7ff fe04 	bl	6de <_ZN10__cxxabiv117__class_type_info15__upcast_resultC1Ei>
     ad6:	f108 0302 	add.w	r3, r8, #2
     ada:	eb05 03c3 	add.w	r3, r5, r3, lsl #3
     ade:	9301      	str	r3, [sp, #4]
     ae0:	4618      	mov	r0, r3
     ae2:	f7ff ff8a 	bl	9fa <_ZNK10__cxxabiv122__base_class_type_info8__offsetEv>
     ae6:	9b01      	ldr	r3, [sp, #4]
     ae8:	4607      	mov	r7, r0
     aea:	4618      	mov	r0, r3
     aec:	f7ff ff7d 	bl	9ea <_ZNK10__cxxabiv122__base_class_type_info14__is_virtual_pEv>
     af0:	9b01      	ldr	r3, [sp, #4]
     af2:	4683      	mov	fp, r0
     af4:	4618      	mov	r0, r3
     af6:	f7ff ff7c 	bl	9f2 <_ZNK10__cxxabiv122__base_class_type_info13__is_public_pEv>
     afa:	9002      	str	r0, [sp, #8]
     afc:	b910      	cbnz	r0, b04 <_ZNK10__cxxabiv121__vmi_class_type_info11__do_upcastEPKNS_17__class_type_infoEPKvRNS1_15__upcast_resultE+0x6e>
     afe:	f019 0f01 	tst.w	r9, #1
     b02:	d058      	beq.n	bb6 <_ZNK10__cxxabiv121__vmi_class_type_info11__do_upcastEPKNS_17__class_type_infoEPKvRNS1_15__upcast_resultE+0x120>
     b04:	f1ba 0f00 	cmp.w	sl, #0
     b08:	d006      	beq.n	b18 <_ZNK10__cxxabiv121__vmi_class_type_info11__do_upcastEPKNS_17__class_type_infoEPKvRNS1_15__upcast_resultE+0x82>
     b0a:	463a      	mov	r2, r7
     b0c:	4650      	mov	r0, sl
     b0e:	4659      	mov	r1, fp
     b10:	f7ff ff51 	bl	9b6 <_ZN10__cxxabiv112_GLOBAL__N_115convert_to_baseEPKvbi>
     b14:	4602      	mov	r2, r0
     b16:	e000      	b.n	b1a <_ZNK10__cxxabiv121__vmi_class_type_info11__do_upcastEPKNS_17__class_type_infoEPKvRNS1_15__upcast_resultE+0x84>
     b18:	4652      	mov	r2, sl
     b1a:	f856 0c08 	ldr.w	r0, [r6, #-8]
     b1e:	9903      	ldr	r1, [sp, #12]
     b20:	6803      	ldr	r3, [r0, #0]
     b22:	699f      	ldr	r7, [r3, #24]
     b24:	ab04      	add	r3, sp, #16
     b26:	47b8      	blx	r7
     b28:	2800      	cmp	r0, #0
     b2a:	d044      	beq.n	bb6 <_ZNK10__cxxabiv121__vmi_class_type_info11__do_upcastEPKNS_17__class_type_infoEPKvRNS1_15__upcast_resultE+0x120>
     b2c:	9b07      	ldr	r3, [sp, #28]
     b2e:	2b08      	cmp	r3, #8
     b30:	d105      	bne.n	b3e <_ZNK10__cxxabiv121__vmi_class_type_info11__do_upcastEPKNS_17__class_type_infoEPKvRNS1_15__upcast_resultE+0xa8>
     b32:	f1bb 0f00 	cmp.w	fp, #0
     b36:	d002      	beq.n	b3e <_ZNK10__cxxabiv121__vmi_class_type_info11__do_upcastEPKNS_17__class_type_infoEPKvRNS1_15__upcast_resultE+0xa8>
     b38:	f856 3c08 	ldr.w	r3, [r6, #-8]
     b3c:	9307      	str	r3, [sp, #28]
     b3e:	f89d 7014 	ldrb.w	r7, [sp, #20]
     b42:	4638      	mov	r0, r7
     b44:	f7ff ff2d 	bl	9a2 <_ZN10__cxxabiv112_GLOBAL__N_111contained_pENS_17__class_type_info10__sub_kindE>
     b48:	b128      	cbz	r0, b56 <_ZNK10__cxxabiv121__vmi_class_type_info11__do_upcastEPKNS_17__class_type_infoEPKvRNS1_15__upcast_resultE+0xc0>
     b4a:	9b02      	ldr	r3, [sp, #8]
     b4c:	b91b      	cbnz	r3, b56 <_ZNK10__cxxabiv121__vmi_class_type_info11__do_upcastEPKNS_17__class_type_infoEPKvRNS1_15__upcast_resultE+0xc0>
     b4e:	f027 0702 	bic.w	r7, r7, #2
     b52:	f88d 7014 	strb.w	r7, [sp, #20]
     b56:	68e1      	ldr	r1, [r4, #12]
     b58:	b9c9      	cbnz	r1, b8e <_ZNK10__cxxabiv121__vmi_class_type_info11__do_upcastEPKNS_17__class_type_infoEPKvRNS1_15__upcast_resultE+0xf8>
     b5a:	ab04      	add	r3, sp, #16
     b5c:	cb0f      	ldmia	r3, {r0, r1, r2, r3}
     b5e:	e884 000f 	stmia.w	r4, {r0, r1, r2, r3}
     b62:	7927      	ldrb	r7, [r4, #4]
     b64:	4638      	mov	r0, r7
     b66:	f7ff ff1c 	bl	9a2 <_ZN10__cxxabiv112_GLOBAL__N_111contained_pENS_17__class_type_info10__sub_kindE>
     b6a:	2800      	cmp	r0, #0
     b6c:	d02c      	beq.n	bc8 <_ZNK10__cxxabiv121__vmi_class_type_info11__do_upcastEPKNS_17__class_type_infoEPKvRNS1_15__upcast_resultE+0x132>
     b6e:	f017 0f02 	tst.w	r7, #2
     b72:	d003      	beq.n	b7c <_ZNK10__cxxabiv121__vmi_class_type_info11__do_upcastEPKNS_17__class_type_infoEPKvRNS1_15__upcast_resultE+0xe6>
     b74:	68ab      	ldr	r3, [r5, #8]
     b76:	f013 0f01 	tst.w	r3, #1
     b7a:	e006      	b.n	b8a <_ZNK10__cxxabiv121__vmi_class_type_info11__do_upcastEPKNS_17__class_type_infoEPKvRNS1_15__upcast_resultE+0xf4>
     b7c:	4638      	mov	r0, r7
     b7e:	f7ff ff15 	bl	9ac <_ZN10__cxxabiv112_GLOBAL__N_19virtual_pENS_17__class_type_info10__sub_kindE>
     b82:	b308      	cbz	r0, bc8 <_ZNK10__cxxabiv121__vmi_class_type_info11__do_upcastEPKNS_17__class_type_infoEPKvRNS1_15__upcast_resultE+0x132>
     b84:	68ab      	ldr	r3, [r5, #8]
     b86:	f013 0f02 	tst.w	r3, #2
     b8a:	d114      	bne.n	bb6 <_ZNK10__cxxabiv121__vmi_class_type_info11__do_upcastEPKNS_17__class_type_infoEPKvRNS1_15__upcast_resultE+0x120>
     b8c:	e01c      	b.n	bc8 <_ZNK10__cxxabiv121__vmi_class_type_info11__do_upcastEPKNS_17__class_type_infoEPKvRNS1_15__upcast_resultE+0x132>
     b8e:	6823      	ldr	r3, [r4, #0]
     b90:	9a04      	ldr	r2, [sp, #16]
     b92:	4293      	cmp	r3, r2
     b94:	d003      	beq.n	b9e <_ZNK10__cxxabiv121__vmi_class_type_info11__do_upcastEPKNS_17__class_type_infoEPKvRNS1_15__upcast_resultE+0x108>
     b96:	2300      	movs	r3, #0
     b98:	6023      	str	r3, [r4, #0]
     b9a:	3302      	adds	r3, #2
     b9c:	e009      	b.n	bb2 <_ZNK10__cxxabiv121__vmi_class_type_info11__do_upcastEPKNS_17__class_type_infoEPKvRNS1_15__upcast_resultE+0x11c>
     b9e:	b9bb      	cbnz	r3, bd0 <_ZNK10__cxxabiv121__vmi_class_type_info11__do_upcastEPKNS_17__class_type_infoEPKvRNS1_15__upcast_resultE+0x13a>
     ba0:	9807      	ldr	r0, [sp, #28]
     ba2:	2808      	cmp	r0, #8
     ba4:	d004      	beq.n	bb0 <_ZNK10__cxxabiv121__vmi_class_type_info11__do_upcastEPKNS_17__class_type_infoEPKvRNS1_15__upcast_resultE+0x11a>
     ba6:	2908      	cmp	r1, #8
     ba8:	d002      	beq.n	bb0 <_ZNK10__cxxabiv121__vmi_class_type_info11__do_upcastEPKNS_17__class_type_infoEPKvRNS1_15__upcast_resultE+0x11a>
     baa:	f7ff fede 	bl	96a <_ZNKSt9type_infoeqERKS_>
     bae:	b978      	cbnz	r0, bd0 <_ZNK10__cxxabiv121__vmi_class_type_info11__do_upcastEPKNS_17__class_type_infoEPKvRNS1_15__upcast_resultE+0x13a>
     bb0:	2302      	movs	r3, #2
     bb2:	7123      	strb	r3, [r4, #4]
     bb4:	e008      	b.n	bc8 <_ZNK10__cxxabiv121__vmi_class_type_info11__do_upcastEPKNS_17__class_type_infoEPKvRNS1_15__upcast_resultE+0x132>
     bb6:	3e08      	subs	r6, #8
     bb8:	f1b8 0f00 	cmp.w	r8, #0
     bbc:	d185      	bne.n	aca <_ZNK10__cxxabiv121__vmi_class_type_info11__do_upcastEPKNS_17__class_type_infoEPKvRNS1_15__upcast_resultE+0x34>
     bbe:	7920      	ldrb	r0, [r4, #4]
     bc0:	3800      	subs	r0, #0
     bc2:	bf18      	it	ne
     bc4:	2001      	movne	r0, #1
     bc6:	e000      	b.n	bca <_ZNK10__cxxabiv121__vmi_class_type_info11__do_upcastEPKNS_17__class_type_infoEPKvRNS1_15__upcast_resultE+0x134>
     bc8:	2001      	movs	r0, #1
     bca:	b009      	add	sp, #36	; 0x24
     bcc:	e8bd 8ff0 	ldmia.w	sp!, {r4, r5, r6, r7, r8, r9, sl, fp, pc}
     bd0:	7923      	ldrb	r3, [r4, #4]
     bd2:	f89d 2014 	ldrb.w	r2, [sp, #20]
     bd6:	ea42 0303 	orr.w	r3, r2, r3
     bda:	7123      	strb	r3, [r4, #4]
     bdc:	e7eb      	b.n	bb6 <_ZNK10__cxxabiv121__vmi_class_type_info11__do_upcastEPKNS_17__class_type_infoEPKvRNS1_15__upcast_resultE+0x120>

00000bde <_ZNK10__cxxabiv121__vmi_class_type_info12__do_dyncastEiNS_17__class_type_info10__sub_kindEPKS1_PKvS4_S6_RNS1_16__dyncast_resultE>:
     bde:	e92d 4ff0 	stmdb	sp!, {r4, r5, r6, r7, r8, r9, sl, fp, lr}
     be2:	b091      	sub	sp, #68	; 0x44
     be4:	4607      	mov	r7, r0
     be6:	4689      	mov	r9, r1
     be8:	9c1d      	ldr	r4, [sp, #116]	; 0x74
     bea:	9307      	str	r3, [sp, #28]
     bec:	9206      	str	r2, [sp, #24]
     bee:	68a3      	ldr	r3, [r4, #8]
     bf0:	9a1a      	ldr	r2, [sp, #104]	; 0x68
     bf2:	f013 0f10 	tst.w	r3, #16
     bf6:	bf1c      	itt	ne
     bf8:	6883      	ldrne	r3, [r0, #8]
     bfa:	60a3      	strne	r3, [r4, #8]
     bfc:	9b1c      	ldr	r3, [sp, #112]	; 0x70
     bfe:	429a      	cmp	r2, r3
     c00:	f040 813e 	bne.w	e80 <_ZNK10__cxxabiv121__vmi_class_type_info12__do_dyncastEiNS_17__class_type_info10__sub_kindEPKS1_PKvS4_S6_RNS1_16__dyncast_resultE+0x2a2>
     c04:	991b      	ldr	r1, [sp, #108]	; 0x6c
     c06:	f7ff feb0 	bl	96a <_ZNKSt9type_infoeqERKS_>
     c0a:	2800      	cmp	r0, #0
     c0c:	f000 8138 	beq.w	e80 <_ZNK10__cxxabiv121__vmi_class_type_info12__do_dyncastEiNS_17__class_type_info10__sub_kindEPKS1_PKvS4_S6_RNS1_16__dyncast_resultE+0x2a2>
     c10:	9a06      	ldr	r2, [sp, #24]
     c12:	7162      	strb	r2, [r4, #5]
     c14:	e12e      	b.n	e74 <_ZNK10__cxxabiv121__vmi_class_type_info12__do_dyncastEiNS_17__class_type_info10__sub_kindEPKS1_PKvS4_S6_RNS1_16__dyncast_resultE+0x296>
     c16:	9b1a      	ldr	r3, [sp, #104]	; 0x68
     c18:	f1b9 0f00 	cmp.w	r9, #0
     c1c:	9a06      	ldr	r2, [sp, #24]
     c1e:	6023      	str	r3, [r4, #0]
     c20:	7122      	strb	r2, [r4, #4]
     c22:	db0a      	blt.n	c3a <_ZNK10__cxxabiv121__vmi_class_type_info12__do_dyncastEiNS_17__class_type_info10__sub_kindEPKS1_PKvS4_S6_RNS1_16__dyncast_resultE+0x5c>
     c24:	4618      	mov	r0, r3
     c26:	4649      	mov	r1, r9
     c28:	f7ff fec3 	bl	9b2 <_ZN10__cxxabiv112_GLOBAL__N_114adjust_pointerIvEEPKT_PKvi>
     c2c:	9b1c      	ldr	r3, [sp, #112]	; 0x70
     c2e:	4283      	cmp	r3, r0
     c30:	bf14      	ite	ne
     c32:	2001      	movne	r0, #1
     c34:	2006      	moveq	r0, #6
     c36:	71a0      	strb	r0, [r4, #6]
     c38:	e11c      	b.n	e74 <_ZNK10__cxxabiv121__vmi_class_type_info12__do_dyncastEiNS_17__class_type_info10__sub_kindEPKS1_PKvS4_S6_RNS1_16__dyncast_resultE+0x296>
     c3a:	f119 0f02 	cmn.w	r9, #2
     c3e:	f040 8119 	bne.w	e74 <_ZNK10__cxxabiv121__vmi_class_type_info12__do_dyncastEiNS_17__class_type_info10__sub_kindEPKS1_PKvS4_S6_RNS1_16__dyncast_resultE+0x296>
     c42:	2301      	movs	r3, #1
     c44:	71a3      	strb	r3, [r4, #6]
     c46:	e115      	b.n	e74 <_ZNK10__cxxabiv121__vmi_class_type_info12__do_dyncastEiNS_17__class_type_info10__sub_kindEPKS1_PKvS4_S6_RNS1_16__dyncast_resultE+0x296>
     c48:	f1b9 0f00 	cmp.w	r9, #0
     c4c:	db04      	blt.n	c58 <_ZNK10__cxxabiv121__vmi_class_type_info12__do_dyncastEiNS_17__class_type_info10__sub_kindEPKS1_PKvS4_S6_RNS1_16__dyncast_resultE+0x7a>
     c4e:	981c      	ldr	r0, [sp, #112]	; 0x70
     c50:	f1c9 0100 	rsb	r1, r9, #0
     c54:	f7ff fead 	bl	9b2 <_ZN10__cxxabiv112_GLOBAL__N_114adjust_pointerIvEEPKT_PKvi>
     c58:	f04f 0800 	mov.w	r8, #0
     c5c:	2201      	movs	r2, #1
     c5e:	9008      	str	r0, [sp, #32]
     c60:	f8cd 802c 	str.w	r8, [sp, #44]	; 0x2c
     c64:	9209      	str	r2, [sp, #36]	; 0x24
     c66:	e001      	b.n	c6c <_ZNK10__cxxabiv121__vmi_class_type_info12__do_dyncastEiNS_17__class_type_info10__sub_kindEPKS1_PKvS4_S6_RNS1_16__dyncast_resultE+0x8e>
     c68:	f8cd a024 	str.w	sl, [sp, #36]	; 0x24
     c6c:	f8d7 a00c 	ldr.w	sl, [r7, #12]
     c70:	f10a 0302 	add.w	r3, sl, #2
     c74:	eb07 03c3 	add.w	r3, r7, r3, lsl #3
     c78:	930a      	str	r3, [sp, #40]	; 0x28
     c7a:	e0f0      	b.n	e5e <_ZNK10__cxxabiv121__vmi_class_type_info12__do_dyncastEiNS_17__class_type_info10__sub_kindEPKS1_PKvS4_S6_RNS1_16__dyncast_resultE+0x280>
     c7c:	f10a 3aff 	add.w	sl, sl, #4294967295
     c80:	68a1      	ldr	r1, [r4, #8]
     c82:	f10a 0502 	add.w	r5, sl, #2
     c86:	a80d      	add	r0, sp, #52	; 0x34
     c88:	f7ff fd5c 	bl	744 <_ZN10__cxxabiv117__class_type_info16__dyncast_resultC1Ei>
     c8c:	eb07 05c5 	add.w	r5, r7, r5, lsl #3
     c90:	4628      	mov	r0, r5
     c92:	f7ff feb2 	bl	9fa <_ZNK10__cxxabiv122__base_class_type_info8__offsetEv>
     c96:	4683      	mov	fp, r0
     c98:	4628      	mov	r0, r5
     c9a:	f7ff fea6 	bl	9ea <_ZNK10__cxxabiv122__base_class_type_info14__is_virtual_pEv>
     c9e:	4601      	mov	r1, r0
     ca0:	b118      	cbz	r0, caa <_ZNK10__cxxabiv121__vmi_class_type_info12__do_dyncastEiNS_17__class_type_info10__sub_kindEPKS1_PKvS4_S6_RNS1_16__dyncast_resultE+0xcc>
     ca2:	9b06      	ldr	r3, [sp, #24]
     ca4:	f043 0601 	orr.w	r6, r3, #1
     ca8:	e000      	b.n	cac <_ZNK10__cxxabiv121__vmi_class_type_info12__do_dyncastEiNS_17__class_type_info10__sub_kindEPKS1_PKvS4_S6_RNS1_16__dyncast_resultE+0xce>
     caa:	9e06      	ldr	r6, [sp, #24]
     cac:	465a      	mov	r2, fp
     cae:	981a      	ldr	r0, [sp, #104]	; 0x68
     cb0:	f7ff fe81 	bl	9b6 <_ZN10__cxxabiv112_GLOBAL__N_115convert_to_baseEPKvbi>
     cb4:	9a08      	ldr	r2, [sp, #32]
     cb6:	4683      	mov	fp, r0
     cb8:	b13a      	cbz	r2, cca <_ZNK10__cxxabiv121__vmi_class_type_info12__do_dyncastEiNS_17__class_type_info10__sub_kindEPKS1_PKvS4_S6_RNS1_16__dyncast_resultE+0xec>
     cba:	4290      	cmp	r0, r2
     cbc:	9a09      	ldr	r2, [sp, #36]	; 0x24
     cbe:	bf94      	ite	ls
     cc0:	2300      	movls	r3, #0
     cc2:	2301      	movhi	r3, #1
     cc4:	4293      	cmp	r3, r2
     cc6:	f000 80c5 	beq.w	e54 <_ZNK10__cxxabiv121__vmi_class_type_info12__do_dyncastEiNS_17__class_type_info10__sub_kindEPKS1_PKvS4_S6_RNS1_16__dyncast_resultE+0x276>
     cca:	4628      	mov	r0, r5
     ccc:	f7ff fe91 	bl	9f2 <_ZNK10__cxxabiv122__base_class_type_info13__is_public_pEv>
     cd0:	b948      	cbnz	r0, ce6 <_ZNK10__cxxabiv121__vmi_class_type_info12__do_dyncastEiNS_17__class_type_info10__sub_kindEPKS1_PKvS4_S6_RNS1_16__dyncast_resultE+0x108>
     cd2:	f119 0f02 	cmn.w	r9, #2
     cd6:	d104      	bne.n	ce2 <_ZNK10__cxxabiv121__vmi_class_type_info12__do_dyncastEiNS_17__class_type_info10__sub_kindEPKS1_PKvS4_S6_RNS1_16__dyncast_resultE+0x104>
     cd8:	68a3      	ldr	r3, [r4, #8]
     cda:	f013 0f03 	tst.w	r3, #3
     cde:	f000 80bb 	beq.w	e58 <_ZNK10__cxxabiv121__vmi_class_type_info12__do_dyncastEiNS_17__class_type_info10__sub_kindEPKS1_PKvS4_S6_RNS1_16__dyncast_resultE+0x27a>
     ce2:	f006 06fd 	and.w	r6, r6, #253	; 0xfd
     ce6:	9b0a      	ldr	r3, [sp, #40]	; 0x28
     ce8:	4649      	mov	r1, r9
     cea:	9a1b      	ldr	r2, [sp, #108]	; 0x6c
     cec:	f853 0c08 	ldr.w	r0, [r3, #-8]
     cf0:	6803      	ldr	r3, [r0, #0]
     cf2:	9201      	str	r2, [sp, #4]
     cf4:	9a1c      	ldr	r2, [sp, #112]	; 0x70
     cf6:	f8cd b000 	str.w	fp, [sp]
     cfa:	9202      	str	r2, [sp, #8]
     cfc:	aa0d      	add	r2, sp, #52	; 0x34
     cfe:	9203      	str	r2, [sp, #12]
     d00:	4632      	mov	r2, r6
     d02:	69dd      	ldr	r5, [r3, #28]
     d04:	9b07      	ldr	r3, [sp, #28]
     d06:	47a8      	blx	r5
     d08:	f89d 503a 	ldrb.w	r5, [sp, #58]	; 0x3a
     d0c:	7963      	ldrb	r3, [r4, #5]
     d0e:	f89d 2039 	ldrb.w	r2, [sp, #57]	; 0x39
     d12:	2d06      	cmp	r5, #6
     d14:	ea42 0303 	orr.w	r3, r2, r3
     d18:	7163      	strb	r3, [r4, #5]
     d1a:	d001      	beq.n	d20 <_ZNK10__cxxabiv121__vmi_class_type_info12__do_dyncastEiNS_17__class_type_info10__sub_kindEPKS1_PKvS4_S6_RNS1_16__dyncast_resultE+0x142>
     d1c:	2d02      	cmp	r5, #2
     d1e:	d106      	bne.n	d2e <_ZNK10__cxxabiv121__vmi_class_type_info12__do_dyncastEiNS_17__class_type_info10__sub_kindEPKS1_PKvS4_S6_RNS1_16__dyncast_resultE+0x150>
     d20:	9b0d      	ldr	r3, [sp, #52]	; 0x34
     d22:	71a5      	strb	r5, [r4, #6]
     d24:	6023      	str	r3, [r4, #0]
     d26:	f89d 3038 	ldrb.w	r3, [sp, #56]	; 0x38
     d2a:	7123      	strb	r3, [r4, #4]
     d2c:	e0a5      	b.n	e7a <_ZNK10__cxxabiv121__vmi_class_type_info12__do_dyncastEiNS_17__class_type_info10__sub_kindEPKS1_PKvS4_S6_RNS1_16__dyncast_resultE+0x29c>
     d2e:	f8d4 b000 	ldr.w	fp, [r4]
     d32:	f1b8 0f00 	cmp.w	r8, #0
     d36:	d110      	bne.n	d5a <_ZNK10__cxxabiv121__vmi_class_type_info12__do_dyncastEiNS_17__class_type_info10__sub_kindEPKS1_PKvS4_S6_RNS1_16__dyncast_resultE+0x17c>
     d38:	f1bb 0f00 	cmp.w	fp, #0
     d3c:	d10d      	bne.n	d5a <_ZNK10__cxxabiv121__vmi_class_type_info12__do_dyncastEiNS_17__class_type_info10__sub_kindEPKS1_PKvS4_S6_RNS1_16__dyncast_resultE+0x17c>
     d3e:	9a0d      	ldr	r2, [sp, #52]	; 0x34
     d40:	f89d 1038 	ldrb.w	r1, [sp, #56]	; 0x38
     d44:	6022      	str	r2, [r4, #0]
     d46:	7121      	strb	r1, [r4, #4]
     d48:	2a00      	cmp	r2, #0
     d4a:	d07e      	beq.n	e4a <_ZNK10__cxxabiv121__vmi_class_type_info12__do_dyncastEiNS_17__class_type_info10__sub_kindEPKS1_PKvS4_S6_RNS1_16__dyncast_resultE+0x26c>
     d4c:	2b00      	cmp	r3, #0
     d4e:	d07c      	beq.n	e4a <_ZNK10__cxxabiv121__vmi_class_type_info12__do_dyncastEiNS_17__class_type_info10__sub_kindEPKS1_PKvS4_S6_RNS1_16__dyncast_resultE+0x26c>
     d50:	68bb      	ldr	r3, [r7, #8]
     d52:	f013 0f01 	tst.w	r3, #1
     d56:	d178      	bne.n	e4a <_ZNK10__cxxabiv121__vmi_class_type_info12__do_dyncastEiNS_17__class_type_info10__sub_kindEPKS1_PKvS4_S6_RNS1_16__dyncast_resultE+0x26c>
     d58:	e08f      	b.n	e7a <_ZNK10__cxxabiv121__vmi_class_type_info12__do_dyncastEiNS_17__class_type_info10__sub_kindEPKS1_PKvS4_S6_RNS1_16__dyncast_resultE+0x29c>
     d5a:	f1bb 0f00 	cmp.w	fp, #0
     d5e:	d00b      	beq.n	d78 <_ZNK10__cxxabiv121__vmi_class_type_info12__do_dyncastEiNS_17__class_type_info10__sub_kindEPKS1_PKvS4_S6_RNS1_16__dyncast_resultE+0x19a>
     d60:	9a0d      	ldr	r2, [sp, #52]	; 0x34
     d62:	4593      	cmp	fp, r2
     d64:	d106      	bne.n	d74 <_ZNK10__cxxabiv121__vmi_class_type_info12__do_dyncastEiNS_17__class_type_info10__sub_kindEPKS1_PKvS4_S6_RNS1_16__dyncast_resultE+0x196>
     d66:	7923      	ldrb	r3, [r4, #4]
     d68:	f89d 2038 	ldrb.w	r2, [sp, #56]	; 0x38
     d6c:	ea42 0303 	orr.w	r3, r2, r3
     d70:	7123      	strb	r3, [r4, #4]
     d72:	e06b      	b.n	e4c <_ZNK10__cxxabiv121__vmi_class_type_info12__do_dyncastEiNS_17__class_type_info10__sub_kindEPKS1_PKvS4_S6_RNS1_16__dyncast_resultE+0x26e>
     d74:	b932      	cbnz	r2, d84 <_ZNK10__cxxabiv121__vmi_class_type_info12__do_dyncastEiNS_17__class_type_info10__sub_kindEPKS1_PKvS4_S6_RNS1_16__dyncast_resultE+0x1a6>
     d76:	b928      	cbnz	r0, d84 <_ZNK10__cxxabiv121__vmi_class_type_info12__do_dyncastEiNS_17__class_type_info10__sub_kindEPKS1_PKvS4_S6_RNS1_16__dyncast_resultE+0x1a6>
     d78:	9a0d      	ldr	r2, [sp, #52]	; 0x34
     d7a:	2a00      	cmp	r2, #0
     d7c:	d066      	beq.n	e4c <_ZNK10__cxxabiv121__vmi_class_type_info12__do_dyncastEiNS_17__class_type_info10__sub_kindEPKS1_PKvS4_S6_RNS1_16__dyncast_resultE+0x26e>
     d7e:	f1b8 0f00 	cmp.w	r8, #0
     d82:	d063      	beq.n	e4c <_ZNK10__cxxabiv121__vmi_class_type_info12__do_dyncastEiNS_17__class_type_info10__sub_kindEPKS1_PKvS4_S6_RNS1_16__dyncast_resultE+0x26e>
     d84:	4618      	mov	r0, r3
     d86:	79a6      	ldrb	r6, [r4, #6]
     d88:	9305      	str	r3, [sp, #20]
     d8a:	f7ff fe0a 	bl	9a2 <_ZN10__cxxabiv112_GLOBAL__N_111contained_pENS_17__class_type_info10__sub_kindE>
     d8e:	9b05      	ldr	r3, [sp, #20]
     d90:	2800      	cmp	r0, #0
     d92:	d07d      	beq.n	e90 <_ZNK10__cxxabiv121__vmi_class_type_info12__do_dyncastEiNS_17__class_type_info10__sub_kindEPKS1_PKvS4_S6_RNS1_16__dyncast_resultE+0x2b2>
     d94:	4618      	mov	r0, r3
     d96:	f7ff fe09 	bl	9ac <_ZN10__cxxabiv112_GLOBAL__N_19virtual_pENS_17__class_type_info10__sub_kindE>
     d9a:	b118      	cbz	r0, da4 <_ZNK10__cxxabiv121__vmi_class_type_info12__do_dyncastEiNS_17__class_type_info10__sub_kindEPKS1_PKvS4_S6_RNS1_16__dyncast_resultE+0x1c6>
     d9c:	68a3      	ldr	r3, [r4, #8]
     d9e:	f013 0f02 	tst.w	r3, #2
     da2:	d175      	bne.n	e90 <_ZNK10__cxxabiv121__vmi_class_type_info12__do_dyncastEiNS_17__class_type_info10__sub_kindEPKS1_PKvS4_S6_RNS1_16__dyncast_resultE+0x2b2>
     da4:	2e00      	cmp	r6, #0
     da6:	bf08      	it	eq
     da8:	2601      	moveq	r6, #1
     daa:	2d00      	cmp	r5, #0
     dac:	bf08      	it	eq
     dae:	2501      	moveq	r5, #1
     db0:	e01e      	b.n	df0 <_ZNK10__cxxabiv121__vmi_class_type_info12__do_dyncastEiNS_17__class_type_info10__sub_kindEPKS1_PKvS4_S6_RNS1_16__dyncast_resultE+0x212>
     db2:	4628      	mov	r0, r5
     db4:	f7ff fdf5 	bl	9a2 <_ZN10__cxxabiv112_GLOBAL__N_111contained_pENS_17__class_type_info10__sub_kindE>
     db8:	2800      	cmp	r0, #0
     dba:	d06c      	beq.n	e96 <_ZNK10__cxxabiv121__vmi_class_type_info12__do_dyncastEiNS_17__class_type_info10__sub_kindEPKS1_PKvS4_S6_RNS1_16__dyncast_resultE+0x2b8>
     dbc:	4628      	mov	r0, r5
     dbe:	f7ff fdf5 	bl	9ac <_ZN10__cxxabiv112_GLOBAL__N_19virtual_pENS_17__class_type_info10__sub_kindE>
     dc2:	b118      	cbz	r0, dcc <_ZNK10__cxxabiv121__vmi_class_type_info12__do_dyncastEiNS_17__class_type_info10__sub_kindEPKS1_PKvS4_S6_RNS1_16__dyncast_resultE+0x1ee>
     dc4:	68bb      	ldr	r3, [r7, #8]
     dc6:	f013 0f02 	tst.w	r3, #2
     dca:	d164      	bne.n	e96 <_ZNK10__cxxabiv121__vmi_class_type_info12__do_dyncastEiNS_17__class_type_info10__sub_kindEPKS1_PKvS4_S6_RNS1_16__dyncast_resultE+0x2b8>
     dcc:	2601      	movs	r6, #1
     dce:	b97d      	cbnz	r5, df0 <_ZNK10__cxxabiv121__vmi_class_type_info12__do_dyncastEiNS_17__class_type_info10__sub_kindEPKS1_PKvS4_S6_RNS1_16__dyncast_resultE+0x212>
     dd0:	4630      	mov	r0, r6
     dd2:	f7ff fde6 	bl	9a2 <_ZN10__cxxabiv112_GLOBAL__N_111contained_pENS_17__class_type_info10__sub_kindE>
     dd6:	2800      	cmp	r0, #0
     dd8:	d067      	beq.n	eaa <_ZNK10__cxxabiv121__vmi_class_type_info12__do_dyncastEiNS_17__class_type_info10__sub_kindEPKS1_PKvS4_S6_RNS1_16__dyncast_resultE+0x2cc>
     dda:	4630      	mov	r0, r6
     ddc:	f7ff fde6 	bl	9ac <_ZN10__cxxabiv112_GLOBAL__N_19virtual_pENS_17__class_type_info10__sub_kindE>
     de0:	b128      	cbz	r0, dee <_ZNK10__cxxabiv121__vmi_class_type_info12__do_dyncastEiNS_17__class_type_info10__sub_kindEPKS1_PKvS4_S6_RNS1_16__dyncast_resultE+0x210>
     de2:	68bb      	ldr	r3, [r7, #8]
     de4:	f013 0f02 	tst.w	r3, #2
     de8:	d15f      	bne.n	eaa <_ZNK10__cxxabiv121__vmi_class_type_info12__do_dyncastEiNS_17__class_type_info10__sub_kindEPKS1_PKvS4_S6_RNS1_16__dyncast_resultE+0x2cc>
     dea:	3501      	adds	r5, #1
     dec:	e000      	b.n	df0 <_ZNK10__cxxabiv121__vmi_class_type_info12__do_dyncastEiNS_17__class_type_info10__sub_kindEPKS1_PKvS4_S6_RNS1_16__dyncast_resultE+0x212>
     dee:	2501      	movs	r5, #1
     df0:	ea86 0005 	eor.w	r0, r6, r5
     df4:	b2c0      	uxtb	r0, r0
     df6:	f7ff fdd4 	bl	9a2 <_ZN10__cxxabiv112_GLOBAL__N_111contained_pENS_17__class_type_info10__sub_kindE>
     dfa:	4683      	mov	fp, r0
     dfc:	b1a0      	cbz	r0, e28 <_ZNK10__cxxabiv121__vmi_class_type_info12__do_dyncastEiNS_17__class_type_info10__sub_kindEPKS1_PKvS4_S6_RNS1_16__dyncast_resultE+0x24a>
     dfe:	4628      	mov	r0, r5
     e00:	f7ff fdcf 	bl	9a2 <_ZN10__cxxabiv112_GLOBAL__N_111contained_pENS_17__class_type_info10__sub_kindE>
     e04:	b138      	cbz	r0, e16 <_ZNK10__cxxabiv121__vmi_class_type_info12__do_dyncastEiNS_17__class_type_info10__sub_kindEPKS1_PKvS4_S6_RNS1_16__dyncast_resultE+0x238>
     e06:	9b0d      	ldr	r3, [sp, #52]	; 0x34
     e08:	462e      	mov	r6, r5
     e0a:	f04f 0800 	mov.w	r8, #0
     e0e:	6023      	str	r3, [r4, #0]
     e10:	f89d 3038 	ldrb.w	r3, [sp, #56]	; 0x38
     e14:	7123      	strb	r3, [r4, #4]
     e16:	f016 0f02 	tst.w	r6, #2
     e1a:	71a6      	strb	r6, [r4, #6]
     e1c:	d12a      	bne.n	e74 <_ZNK10__cxxabiv121__vmi_class_type_info12__do_dyncastEiNS_17__class_type_info10__sub_kindEPKS1_PKvS4_S6_RNS1_16__dyncast_resultE+0x296>
     e1e:	4630      	mov	r0, r6
     e20:	f7ff fdc4 	bl	9ac <_ZN10__cxxabiv112_GLOBAL__N_19virtual_pENS_17__class_type_info10__sub_kindE>
     e24:	b990      	cbnz	r0, e4c <_ZNK10__cxxabiv121__vmi_class_type_info12__do_dyncastEiNS_17__class_type_info10__sub_kindEPKS1_PKvS4_S6_RNS1_16__dyncast_resultE+0x26e>
     e26:	e028      	b.n	e7a <_ZNK10__cxxabiv121__vmi_class_type_info12__do_dyncastEiNS_17__class_type_info10__sub_kindEPKS1_PKvS4_S6_RNS1_16__dyncast_resultE+0x29c>
     e28:	ea06 0505 	and.w	r5, r6, r5
     e2c:	f04f 0801 	mov.w	r8, #1
     e30:	b2e8      	uxtb	r0, r5
     e32:	f7ff fdb6 	bl	9a2 <_ZN10__cxxabiv112_GLOBAL__N_111contained_pENS_17__class_type_info10__sub_kindE>
     e36:	b120      	cbz	r0, e42 <_ZNK10__cxxabiv121__vmi_class_type_info12__do_dyncastEiNS_17__class_type_info10__sub_kindEPKS1_PKvS4_S6_RNS1_16__dyncast_resultE+0x264>
     e38:	2302      	movs	r3, #2
     e3a:	f8c4 b000 	str.w	fp, [r4]
     e3e:	71a3      	strb	r3, [r4, #6]
     e40:	e01a      	b.n	e78 <_ZNK10__cxxabiv121__vmi_class_type_info12__do_dyncastEiNS_17__class_type_info10__sub_kindEPKS1_PKvS4_S6_RNS1_16__dyncast_resultE+0x29a>
     e42:	6020      	str	r0, [r4, #0]
     e44:	f884 8006 	strb.w	r8, [r4, #6]
     e48:	e000      	b.n	e4c <_ZNK10__cxxabiv121__vmi_class_type_info12__do_dyncastEiNS_17__class_type_info10__sub_kindEPKS1_PKvS4_S6_RNS1_16__dyncast_resultE+0x26e>
     e4a:	4680      	mov	r8, r0
     e4c:	7963      	ldrb	r3, [r4, #5]
     e4e:	2b04      	cmp	r3, #4
     e50:	d102      	bne.n	e58 <_ZNK10__cxxabiv121__vmi_class_type_info12__do_dyncastEiNS_17__class_type_info10__sub_kindEPKS1_PKvS4_S6_RNS1_16__dyncast_resultE+0x27a>
     e52:	e011      	b.n	e78 <_ZNK10__cxxabiv121__vmi_class_type_info12__do_dyncastEiNS_17__class_type_info10__sub_kindEPKS1_PKvS4_S6_RNS1_16__dyncast_resultE+0x29a>
     e54:	2301      	movs	r3, #1
     e56:	930b      	str	r3, [sp, #44]	; 0x2c
     e58:	9a0a      	ldr	r2, [sp, #40]	; 0x28
     e5a:	3a08      	subs	r2, #8
     e5c:	920a      	str	r2, [sp, #40]	; 0x28
     e5e:	f1ba 0f00 	cmp.w	sl, #0
     e62:	f47f af0b 	bne.w	c7c <_ZNK10__cxxabiv121__vmi_class_type_info12__do_dyncastEiNS_17__class_type_info10__sub_kindEPKS1_PKvS4_S6_RNS1_16__dyncast_resultE+0x9e>
     e66:	9b0b      	ldr	r3, [sp, #44]	; 0x2c
     e68:	b133      	cbz	r3, e78 <_ZNK10__cxxabiv121__vmi_class_type_info12__do_dyncastEiNS_17__class_type_info10__sub_kindEPKS1_PKvS4_S6_RNS1_16__dyncast_resultE+0x29a>
     e6a:	9a09      	ldr	r2, [sp, #36]	; 0x24
     e6c:	2a00      	cmp	r2, #0
     e6e:	f47f aefb 	bne.w	c68 <_ZNK10__cxxabiv121__vmi_class_type_info12__do_dyncastEiNS_17__class_type_info10__sub_kindEPKS1_PKvS4_S6_RNS1_16__dyncast_resultE+0x8a>
     e72:	e001      	b.n	e78 <_ZNK10__cxxabiv121__vmi_class_type_info12__do_dyncastEiNS_17__class_type_info10__sub_kindEPKS1_PKvS4_S6_RNS1_16__dyncast_resultE+0x29a>
     e74:	2000      	movs	r0, #0
     e76:	e000      	b.n	e7a <_ZNK10__cxxabiv121__vmi_class_type_info12__do_dyncastEiNS_17__class_type_info10__sub_kindEPKS1_PKvS4_S6_RNS1_16__dyncast_resultE+0x29c>
     e78:	4640      	mov	r0, r8
     e7a:	b011      	add	sp, #68	; 0x44
     e7c:	e8bd 8ff0 	ldmia.w	sp!, {r4, r5, r6, r7, r8, r9, sl, fp, pc}
     e80:	4638      	mov	r0, r7
     e82:	9907      	ldr	r1, [sp, #28]
     e84:	f7ff fd71 	bl	96a <_ZNKSt9type_infoeqERKS_>
     e88:	2800      	cmp	r0, #0
     e8a:	f47f aec4 	bne.w	c16 <_ZNK10__cxxabiv121__vmi_class_type_info12__do_dyncastEiNS_17__class_type_info10__sub_kindEPKS1_PKvS4_S6_RNS1_16__dyncast_resultE+0x38>
     e8e:	e6db      	b.n	c48 <_ZNK10__cxxabiv121__vmi_class_type_info12__do_dyncastEiNS_17__class_type_info10__sub_kindEPKS1_PKvS4_S6_RNS1_16__dyncast_resultE+0x6a>
     e90:	2e00      	cmp	r6, #0
     e92:	d19c      	bne.n	dce <_ZNK10__cxxabiv121__vmi_class_type_info12__do_dyncastEiNS_17__class_type_info10__sub_kindEPKS1_PKvS4_S6_RNS1_16__dyncast_resultE+0x1f0>
     e94:	e78d      	b.n	db2 <_ZNK10__cxxabiv121__vmi_class_type_info12__do_dyncastEiNS_17__class_type_info10__sub_kindEPKS1_PKvS4_S6_RNS1_16__dyncast_resultE+0x1d4>
     e96:	9b1c      	ldr	r3, [sp, #112]	; 0x70
     e98:	4649      	mov	r1, r9
     e9a:	9807      	ldr	r0, [sp, #28]
     e9c:	465a      	mov	r2, fp
     e9e:	9300      	str	r3, [sp, #0]
     ea0:	9b1b      	ldr	r3, [sp, #108]	; 0x6c
     ea2:	f7ff fc56 	bl	752 <_ZNK10__cxxabiv117__class_type_info17__find_public_srcEiPKvPKS0_S2_>
     ea6:	4606      	mov	r6, r0
     ea8:	e791      	b.n	dce <_ZNK10__cxxabiv121__vmi_class_type_info12__do_dyncastEiNS_17__class_type_info10__sub_kindEPKS1_PKvS4_S6_RNS1_16__dyncast_resultE+0x1f0>
     eaa:	9a1c      	ldr	r2, [sp, #112]	; 0x70
     eac:	4649      	mov	r1, r9
     eae:	9807      	ldr	r0, [sp, #28]
     eb0:	9b1b      	ldr	r3, [sp, #108]	; 0x6c
     eb2:	9200      	str	r2, [sp, #0]
     eb4:	9a0d      	ldr	r2, [sp, #52]	; 0x34
     eb6:	f7ff fc4c 	bl	752 <_ZNK10__cxxabiv117__class_type_info17__find_public_srcEiPKvPKS0_S2_>
     eba:	4605      	mov	r5, r0
     ebc:	e798      	b.n	df0 <_ZNK10__cxxabiv121__vmi_class_type_info12__do_dyncastEiNS_17__class_type_info10__sub_kindEPKS1_PKvS4_S6_RNS1_16__dyncast_resultE+0x212>
	...

00000ec0 <scalbn>:
     ec0:	b5f8      	push	{r3, r4, r5, r6, r7, lr}
     ec2:	4604      	mov	r4, r0
     ec4:	4b38      	ldr	r3, [pc, #224]	; (fa8 <scalbn+0xe8>)
     ec6:	460d      	mov	r5, r1
     ec8:	4616      	mov	r6, r2
     eca:	460f      	mov	r7, r1
     ecc:	ea01 0303 	and.w	r3, r1, r3
     ed0:	ea4f 5c23 	mov.w	ip, r3, asr #20
     ed4:	b96b      	cbnz	r3, ef2 <scalbn+0x32>
     ed6:	f021 4700 	bic.w	r7, r1, #2147483648	; 0x80000000
     eda:	4307      	orrs	r7, r0
     edc:	d056      	beq.n	f8c <scalbn+0xcc>
     ede:	2200      	movs	r2, #0
     ee0:	4b32      	ldr	r3, [pc, #200]	; (fac <scalbn+0xec>)
     ee2:	f000 fa29 	bl	1338 <__aeabi_dmul>
     ee6:	4f32      	ldr	r7, [pc, #200]	; (fb0 <scalbn+0xf0>)
     ee8:	42be      	cmp	r6, r7
     eea:	4604      	mov	r4, r0
     eec:	460d      	mov	r5, r1
     eee:	da09      	bge.n	f04 <scalbn+0x44>
     ef0:	e038      	b.n	f64 <scalbn+0xa4>
     ef2:	f240 73ff 	movw	r3, #2047	; 0x7ff
     ef6:	459c      	cmp	ip, r3
     ef8:	d10c      	bne.n	f14 <scalbn+0x54>
     efa:	4602      	mov	r2, r0
     efc:	460b      	mov	r3, r1
     efe:	f000 f869 	bl	fd4 <__adddf3>
     f02:	e041      	b.n	f88 <scalbn+0xc8>
     f04:	4b28      	ldr	r3, [pc, #160]	; (fa8 <scalbn+0xe8>)
     f06:	460f      	mov	r7, r1
     f08:	ea01 0303 	and.w	r3, r1, r3
     f0c:	ea4f 5c23 	mov.w	ip, r3, asr #20
     f10:	f1ac 0c36 	sub.w	ip, ip, #54	; 0x36
     f14:	44b4      	add	ip, r6
     f16:	f240 73fe 	movw	r3, #2046	; 0x7fe
     f1a:	459c      	cmp	ip, r3
     f1c:	dc10      	bgt.n	f40 <scalbn+0x80>
     f1e:	f1bc 0f00 	cmp.w	ip, #0
     f22:	dd06      	ble.n	f32 <scalbn+0x72>
     f24:	f027 47fe 	bic.w	r7, r7, #2130706432	; 0x7f000000
     f28:	f427 0770 	bic.w	r7, r7, #15728640	; 0xf00000
     f2c:	ea47 550c 	orr.w	r5, r7, ip, lsl #20
     f30:	e02c      	b.n	f8c <scalbn+0xcc>
     f32:	f11c 0f35 	cmn.w	ip, #53	; 0x35
     f36:	da19      	bge.n	f6c <scalbn+0xac>
     f38:	f24c 3350 	movw	r3, #50000	; 0xc350
     f3c:	429e      	cmp	r6, r3
     f3e:	dd0a      	ble.n	f56 <scalbn+0x96>
     f40:	4622      	mov	r2, r4
     f42:	462b      	mov	r3, r5
     f44:	a114      	add	r1, pc, #80	; (adr r1, f98 <scalbn+0xd8>)
     f46:	e9d1 0100 	ldrd	r0, r1, [r1]
     f4a:	f000 f835 	bl	fb8 <copysign>
     f4e:	a312      	add	r3, pc, #72	; (adr r3, f98 <scalbn+0xd8>)
     f50:	e9d3 2300 	ldrd	r2, r3, [r3]
     f54:	e016      	b.n	f84 <scalbn+0xc4>
     f56:	a112      	add	r1, pc, #72	; (adr r1, fa0 <scalbn+0xe0>)
     f58:	e9d1 0100 	ldrd	r0, r1, [r1]
     f5c:	4622      	mov	r2, r4
     f5e:	462b      	mov	r3, r5
     f60:	f000 f82a 	bl	fb8 <copysign>
     f64:	a30e      	add	r3, pc, #56	; (adr r3, fa0 <scalbn+0xe0>)
     f66:	e9d3 2300 	ldrd	r2, r3, [r3]
     f6a:	e00b      	b.n	f84 <scalbn+0xc4>
     f6c:	f10c 0c36 	add.w	ip, ip, #54	; 0x36
     f70:	f027 47fe 	bic.w	r7, r7, #2130706432	; 0x7f000000
     f74:	f427 0770 	bic.w	r7, r7, #15728640	; 0xf00000
     f78:	4b0e      	ldr	r3, [pc, #56]	; (fb4 <scalbn+0xf4>)
     f7a:	ea47 550c 	orr.w	r5, r7, ip, lsl #20
     f7e:	4620      	mov	r0, r4
     f80:	4629      	mov	r1, r5
     f82:	2200      	movs	r2, #0
     f84:	f000 f9d8 	bl	1338 <__aeabi_dmul>
     f88:	4604      	mov	r4, r0
     f8a:	460d      	mov	r5, r1
     f8c:	4620      	mov	r0, r4
     f8e:	4629      	mov	r1, r5
     f90:	bdf8      	pop	{r3, r4, r5, r6, r7, pc}
     f92:	bf00      	nop
     f94:	f3af 8000 	nop.w
     f98:	8800759c 	.word	0x8800759c
     f9c:	7e37e43c 	.word	0x7e37e43c
     fa0:	c2f8f359 	.word	0xc2f8f359
     fa4:	01a56e1f 	.word	0x01a56e1f
     fa8:	7ff00000 	.word	0x7ff00000
     fac:	43500000 	.word	0x43500000
     fb0:	ffff3cb0 	.word	0xffff3cb0
     fb4:	3c900000 	.word	0x3c900000

00000fb8 <copysign>:
     fb8:	f003 4300 	and.w	r3, r3, #2147483648	; 0x80000000
     fbc:	f021 4200 	bic.w	r2, r1, #2147483648	; 0x80000000
     fc0:	b530      	push	{r4, r5, lr}
     fc2:	ea43 0102 	orr.w	r1, r3, r2
     fc6:	bd30      	pop	{r4, r5, pc}

00000fc8 <__aeabi_drsub>:
     fc8:	f081 4100 	eor.w	r1, r1, #2147483648	; 0x80000000
     fcc:	e002      	b.n	fd4 <__adddf3>
     fce:	bf00      	nop

00000fd0 <__aeabi_dsub>:
     fd0:	f083 4300 	eor.w	r3, r3, #2147483648	; 0x80000000

00000fd4 <__adddf3>:
     fd4:	b530      	push	{r4, r5, lr}
     fd6:	ea4f 0441 	mov.w	r4, r1, lsl #1
     fda:	ea4f 0543 	mov.w	r5, r3, lsl #1
     fde:	ea94 0f05 	teq	r4, r5
     fe2:	bf08      	it	eq
     fe4:	ea90 0f02 	teqeq	r0, r2
     fe8:	bf1f      	itttt	ne
     fea:	ea54 0c00 	orrsne.w	ip, r4, r0
     fee:	ea55 0c02 	orrsne.w	ip, r5, r2
     ff2:	ea7f 5c64 	mvnsne.w	ip, r4, asr #21
     ff6:	ea7f 5c65 	mvnsne.w	ip, r5, asr #21
     ffa:	f000 80e2 	beq.w	11c2 <__adddf3+0x1ee>
     ffe:	ea4f 5454 	mov.w	r4, r4, lsr #21
    1002:	ebd4 5555 	rsbs	r5, r4, r5, lsr #21
    1006:	bfb8      	it	lt
    1008:	426d      	neglt	r5, r5
    100a:	dd0c      	ble.n	1026 <__adddf3+0x52>
    100c:	442c      	add	r4, r5
    100e:	ea80 0202 	eor.w	r2, r0, r2
    1012:	ea81 0303 	eor.w	r3, r1, r3
    1016:	ea82 0000 	eor.w	r0, r2, r0
    101a:	ea83 0101 	eor.w	r1, r3, r1
    101e:	ea80 0202 	eor.w	r2, r0, r2
    1022:	ea81 0303 	eor.w	r3, r1, r3
    1026:	2d36      	cmp	r5, #54	; 0x36
    1028:	bf88      	it	hi
    102a:	bd30      	pophi	{r4, r5, pc}
    102c:	f011 4f00 	tst.w	r1, #2147483648	; 0x80000000
    1030:	ea4f 3101 	mov.w	r1, r1, lsl #12
    1034:	f44f 1c80 	mov.w	ip, #1048576	; 0x100000
    1038:	ea4c 3111 	orr.w	r1, ip, r1, lsr #12
    103c:	d002      	beq.n	1044 <__adddf3+0x70>
    103e:	4240      	negs	r0, r0
    1040:	eb61 0141 	sbc.w	r1, r1, r1, lsl #1
    1044:	f013 4f00 	tst.w	r3, #2147483648	; 0x80000000
    1048:	ea4f 3303 	mov.w	r3, r3, lsl #12
    104c:	ea4c 3313 	orr.w	r3, ip, r3, lsr #12
    1050:	d002      	beq.n	1058 <__adddf3+0x84>
    1052:	4252      	negs	r2, r2
    1054:	eb63 0343 	sbc.w	r3, r3, r3, lsl #1
    1058:	ea94 0f05 	teq	r4, r5
    105c:	f000 80a7 	beq.w	11ae <__adddf3+0x1da>
    1060:	f1a4 0401 	sub.w	r4, r4, #1
    1064:	f1d5 0e20 	rsbs	lr, r5, #32
    1068:	db0d      	blt.n	1086 <__adddf3+0xb2>
    106a:	fa02 fc0e 	lsl.w	ip, r2, lr
    106e:	fa22 f205 	lsr.w	r2, r2, r5
    1072:	1880      	adds	r0, r0, r2
    1074:	f141 0100 	adc.w	r1, r1, #0
    1078:	fa03 f20e 	lsl.w	r2, r3, lr
    107c:	1880      	adds	r0, r0, r2
    107e:	fa43 f305 	asr.w	r3, r3, r5
    1082:	4159      	adcs	r1, r3
    1084:	e00e      	b.n	10a4 <__adddf3+0xd0>
    1086:	f1a5 0520 	sub.w	r5, r5, #32
    108a:	f10e 0e20 	add.w	lr, lr, #32
    108e:	2a01      	cmp	r2, #1
    1090:	fa03 fc0e 	lsl.w	ip, r3, lr
    1094:	bf28      	it	cs
    1096:	f04c 0c02 	orrcs.w	ip, ip, #2
    109a:	fa43 f305 	asr.w	r3, r3, r5
    109e:	18c0      	adds	r0, r0, r3
    10a0:	eb51 71e3 	adcs.w	r1, r1, r3, asr #31
    10a4:	f001 4500 	and.w	r5, r1, #2147483648	; 0x80000000
    10a8:	d507      	bpl.n	10ba <__adddf3+0xe6>
    10aa:	f04f 0e00 	mov.w	lr, #0
    10ae:	f1dc 0c00 	rsbs	ip, ip, #0
    10b2:	eb7e 0000 	sbcs.w	r0, lr, r0
    10b6:	eb6e 0101 	sbc.w	r1, lr, r1
    10ba:	f5b1 1f80 	cmp.w	r1, #1048576	; 0x100000
    10be:	d31b      	bcc.n	10f8 <__adddf3+0x124>
    10c0:	f5b1 1f00 	cmp.w	r1, #2097152	; 0x200000
    10c4:	d30c      	bcc.n	10e0 <__adddf3+0x10c>
    10c6:	0849      	lsrs	r1, r1, #1
    10c8:	ea5f 0030 	movs.w	r0, r0, rrx
    10cc:	ea4f 0c3c 	mov.w	ip, ip, rrx
    10d0:	f104 0401 	add.w	r4, r4, #1
    10d4:	ea4f 5244 	mov.w	r2, r4, lsl #21
    10d8:	f512 0f80 	cmn.w	r2, #4194304	; 0x400000
    10dc:	f080 809a 	bcs.w	1214 <__adddf3+0x240>
    10e0:	f1bc 4f00 	cmp.w	ip, #2147483648	; 0x80000000
    10e4:	bf08      	it	eq
    10e6:	ea5f 0c50 	movseq.w	ip, r0, lsr #1
    10ea:	f150 0000 	adcs.w	r0, r0, #0
    10ee:	eb41 5104 	adc.w	r1, r1, r4, lsl #20
    10f2:	ea41 0105 	orr.w	r1, r1, r5
    10f6:	bd30      	pop	{r4, r5, pc}
    10f8:	ea5f 0c4c 	movs.w	ip, ip, lsl #1
    10fc:	4140      	adcs	r0, r0
    10fe:	eb41 0101 	adc.w	r1, r1, r1
    1102:	f411 1f80 	tst.w	r1, #1048576	; 0x100000
    1106:	f1a4 0401 	sub.w	r4, r4, #1
    110a:	d1e9      	bne.n	10e0 <__adddf3+0x10c>
    110c:	f091 0f00 	teq	r1, #0
    1110:	bf04      	itt	eq
    1112:	4601      	moveq	r1, r0
    1114:	2000      	moveq	r0, #0
    1116:	fab1 f381 	clz	r3, r1
    111a:	bf08      	it	eq
    111c:	3320      	addeq	r3, #32
    111e:	f1a3 030b 	sub.w	r3, r3, #11
    1122:	f1b3 0220 	subs.w	r2, r3, #32
    1126:	da0c      	bge.n	1142 <__adddf3+0x16e>
    1128:	320c      	adds	r2, #12
    112a:	dd08      	ble.n	113e <__adddf3+0x16a>
    112c:	f102 0c14 	add.w	ip, r2, #20
    1130:	f1c2 020c 	rsb	r2, r2, #12
    1134:	fa01 f00c 	lsl.w	r0, r1, ip
    1138:	fa21 f102 	lsr.w	r1, r1, r2
    113c:	e00c      	b.n	1158 <__adddf3+0x184>
    113e:	f102 0214 	add.w	r2, r2, #20
    1142:	bfd8      	it	le
    1144:	f1c2 0c20 	rsble	ip, r2, #32
    1148:	fa01 f102 	lsl.w	r1, r1, r2
    114c:	fa20 fc0c 	lsr.w	ip, r0, ip
    1150:	bfdc      	itt	le
    1152:	ea41 010c 	orrle.w	r1, r1, ip
    1156:	4090      	lslle	r0, r2
    1158:	1ae4      	subs	r4, r4, r3
    115a:	bfa2      	ittt	ge
    115c:	eb01 5104 	addge.w	r1, r1, r4, lsl #20
    1160:	4329      	orrge	r1, r5
    1162:	bd30      	popge	{r4, r5, pc}
    1164:	ea6f 0404 	mvn.w	r4, r4
    1168:	3c1f      	subs	r4, #31
    116a:	da1c      	bge.n	11a6 <__adddf3+0x1d2>
    116c:	340c      	adds	r4, #12
    116e:	dc0e      	bgt.n	118e <__adddf3+0x1ba>
    1170:	f104 0414 	add.w	r4, r4, #20
    1174:	f1c4 0220 	rsb	r2, r4, #32
    1178:	fa20 f004 	lsr.w	r0, r0, r4
    117c:	fa01 f302 	lsl.w	r3, r1, r2
    1180:	ea40 0003 	orr.w	r0, r0, r3
    1184:	fa21 f304 	lsr.w	r3, r1, r4
    1188:	ea45 0103 	orr.w	r1, r5, r3
    118c:	bd30      	pop	{r4, r5, pc}
    118e:	f1c4 040c 	rsb	r4, r4, #12
    1192:	f1c4 0220 	rsb	r2, r4, #32
    1196:	fa20 f002 	lsr.w	r0, r0, r2
    119a:	fa01 f304 	lsl.w	r3, r1, r4
    119e:	ea40 0003 	orr.w	r0, r0, r3
    11a2:	4629      	mov	r1, r5
    11a4:	bd30      	pop	{r4, r5, pc}
    11a6:	fa21 f004 	lsr.w	r0, r1, r4
    11aa:	4629      	mov	r1, r5
    11ac:	bd30      	pop	{r4, r5, pc}
    11ae:	f094 0f00 	teq	r4, #0
    11b2:	f483 1380 	eor.w	r3, r3, #1048576	; 0x100000
    11b6:	bf06      	itte	eq
    11b8:	f481 1180 	eoreq.w	r1, r1, #1048576	; 0x100000
    11bc:	3401      	addeq	r4, #1
    11be:	3d01      	subne	r5, #1
    11c0:	e74e      	b.n	1060 <__adddf3+0x8c>
    11c2:	ea7f 5c64 	mvns.w	ip, r4, asr #21
    11c6:	bf18      	it	ne
    11c8:	ea7f 5c65 	mvnsne.w	ip, r5, asr #21
    11cc:	d029      	beq.n	1222 <__adddf3+0x24e>
    11ce:	ea94 0f05 	teq	r4, r5
    11d2:	bf08      	it	eq
    11d4:	ea90 0f02 	teqeq	r0, r2
    11d8:	d005      	beq.n	11e6 <__adddf3+0x212>
    11da:	ea54 0c00 	orrs.w	ip, r4, r0
    11de:	bf04      	itt	eq
    11e0:	4619      	moveq	r1, r3
    11e2:	4610      	moveq	r0, r2
    11e4:	bd30      	pop	{r4, r5, pc}
    11e6:	ea91 0f03 	teq	r1, r3
    11ea:	bf1e      	ittt	ne
    11ec:	2100      	movne	r1, #0
    11ee:	2000      	movne	r0, #0
    11f0:	bd30      	popne	{r4, r5, pc}
    11f2:	ea5f 5c54 	movs.w	ip, r4, lsr #21
    11f6:	d105      	bne.n	1204 <__adddf3+0x230>
    11f8:	0040      	lsls	r0, r0, #1
    11fa:	4149      	adcs	r1, r1
    11fc:	bf28      	it	cs
    11fe:	f041 4100 	orrcs.w	r1, r1, #2147483648	; 0x80000000
    1202:	bd30      	pop	{r4, r5, pc}
    1204:	f514 0480 	adds.w	r4, r4, #4194304	; 0x400000
    1208:	bf3c      	itt	cc
    120a:	f501 1180 	addcc.w	r1, r1, #1048576	; 0x100000
    120e:	bd30      	popcc	{r4, r5, pc}
    1210:	f001 4500 	and.w	r5, r1, #2147483648	; 0x80000000
    1214:	f045 41fe 	orr.w	r1, r5, #2130706432	; 0x7f000000
    1218:	f441 0170 	orr.w	r1, r1, #15728640	; 0xf00000
    121c:	f04f 0000 	mov.w	r0, #0
    1220:	bd30      	pop	{r4, r5, pc}
    1222:	ea7f 5c64 	mvns.w	ip, r4, asr #21
    1226:	bf1a      	itte	ne
    1228:	4619      	movne	r1, r3
    122a:	4610      	movne	r0, r2
    122c:	ea7f 5c65 	mvnseq.w	ip, r5, asr #21
    1230:	bf1c      	itt	ne
    1232:	460b      	movne	r3, r1
    1234:	4602      	movne	r2, r0
    1236:	ea50 3401 	orrs.w	r4, r0, r1, lsl #12
    123a:	bf06      	itte	eq
    123c:	ea52 3503 	orrseq.w	r5, r2, r3, lsl #12
    1240:	ea91 0f03 	teqeq	r1, r3
    1244:	f441 2100 	orrne.w	r1, r1, #524288	; 0x80000
    1248:	bd30      	pop	{r4, r5, pc}
    124a:	bf00      	nop

0000124c <__aeabi_ui2d>:
    124c:	f090 0f00 	teq	r0, #0
    1250:	bf04      	itt	eq
    1252:	2100      	moveq	r1, #0
    1254:	4770      	bxeq	lr
    1256:	b530      	push	{r4, r5, lr}
    1258:	f44f 6480 	mov.w	r4, #1024	; 0x400
    125c:	f104 0432 	add.w	r4, r4, #50	; 0x32
    1260:	f04f 0500 	mov.w	r5, #0
    1264:	f04f 0100 	mov.w	r1, #0
    1268:	e750      	b.n	110c <__adddf3+0x138>
    126a:	bf00      	nop

0000126c <__aeabi_i2d>:
    126c:	f090 0f00 	teq	r0, #0
    1270:	bf04      	itt	eq
    1272:	2100      	moveq	r1, #0
    1274:	4770      	bxeq	lr
    1276:	b530      	push	{r4, r5, lr}
    1278:	f44f 6480 	mov.w	r4, #1024	; 0x400
    127c:	f104 0432 	add.w	r4, r4, #50	; 0x32
    1280:	f010 4500 	ands.w	r5, r0, #2147483648	; 0x80000000
    1284:	bf48      	it	mi
    1286:	4240      	negmi	r0, r0
    1288:	f04f 0100 	mov.w	r1, #0
    128c:	e73e      	b.n	110c <__adddf3+0x138>
    128e:	bf00      	nop

00001290 <__aeabi_f2d>:
    1290:	0042      	lsls	r2, r0, #1
    1292:	ea4f 01e2 	mov.w	r1, r2, asr #3
    1296:	ea4f 0131 	mov.w	r1, r1, rrx
    129a:	ea4f 7002 	mov.w	r0, r2, lsl #28
    129e:	bf1f      	itttt	ne
    12a0:	f012 437f 	andsne.w	r3, r2, #4278190080	; 0xff000000
    12a4:	f093 4f7f 	teqne	r3, #4278190080	; 0xff000000
    12a8:	f081 5160 	eorne.w	r1, r1, #939524096	; 0x38000000
    12ac:	4770      	bxne	lr
    12ae:	f092 0f00 	teq	r2, #0
    12b2:	bf14      	ite	ne
    12b4:	f093 4f7f 	teqne	r3, #4278190080	; 0xff000000
    12b8:	4770      	bxeq	lr
    12ba:	b530      	push	{r4, r5, lr}
    12bc:	f44f 7460 	mov.w	r4, #896	; 0x380
    12c0:	f001 4500 	and.w	r5, r1, #2147483648	; 0x80000000
    12c4:	f021 4100 	bic.w	r1, r1, #2147483648	; 0x80000000
    12c8:	e720      	b.n	110c <__adddf3+0x138>
    12ca:	bf00      	nop

000012cc <__aeabi_ul2d>:
    12cc:	ea50 0201 	orrs.w	r2, r0, r1
    12d0:	bf08      	it	eq
    12d2:	4770      	bxeq	lr
    12d4:	b530      	push	{r4, r5, lr}
    12d6:	f04f 0500 	mov.w	r5, #0
    12da:	e00a      	b.n	12f2 <__aeabi_l2d+0x16>

000012dc <__aeabi_l2d>:
    12dc:	ea50 0201 	orrs.w	r2, r0, r1
    12e0:	bf08      	it	eq
    12e2:	4770      	bxeq	lr
    12e4:	b530      	push	{r4, r5, lr}
    12e6:	f011 4500 	ands.w	r5, r1, #2147483648	; 0x80000000
    12ea:	d502      	bpl.n	12f2 <__aeabi_l2d+0x16>
    12ec:	4240      	negs	r0, r0
    12ee:	eb61 0141 	sbc.w	r1, r1, r1, lsl #1
    12f2:	f44f 6480 	mov.w	r4, #1024	; 0x400
    12f6:	f104 0432 	add.w	r4, r4, #50	; 0x32
    12fa:	ea5f 5c91 	movs.w	ip, r1, lsr #22
    12fe:	f43f aedc 	beq.w	10ba <__adddf3+0xe6>
    1302:	f04f 0203 	mov.w	r2, #3
    1306:	ea5f 0cdc 	movs.w	ip, ip, lsr #3
    130a:	bf18      	it	ne
    130c:	3203      	addne	r2, #3
    130e:	ea5f 0cdc 	movs.w	ip, ip, lsr #3
    1312:	bf18      	it	ne
    1314:	3203      	addne	r2, #3
    1316:	eb02 02dc 	add.w	r2, r2, ip, lsr #3
    131a:	f1c2 0320 	rsb	r3, r2, #32
    131e:	fa00 fc03 	lsl.w	ip, r0, r3
    1322:	fa20 f002 	lsr.w	r0, r0, r2
    1326:	fa01 fe03 	lsl.w	lr, r1, r3
    132a:	ea40 000e 	orr.w	r0, r0, lr
    132e:	fa21 f102 	lsr.w	r1, r1, r2
    1332:	4414      	add	r4, r2
    1334:	e6c1      	b.n	10ba <__adddf3+0xe6>
    1336:	bf00      	nop

00001338 <__aeabi_dmul>:
    1338:	b570      	push	{r4, r5, r6, lr}
    133a:	f04f 0cff 	mov.w	ip, #255	; 0xff
    133e:	f44c 6ce0 	orr.w	ip, ip, #1792	; 0x700
    1342:	ea1c 5411 	ands.w	r4, ip, r1, lsr #20
    1346:	bf1d      	ittte	ne
    1348:	ea1c 5513 	andsne.w	r5, ip, r3, lsr #20
    134c:	ea94 0f0c 	teqne	r4, ip
    1350:	ea95 0f0c 	teqne	r5, ip
    1354:	f000 f8de 	bleq	1514 <__aeabi_dmul+0x1dc>
    1358:	442c      	add	r4, r5
    135a:	ea81 0603 	eor.w	r6, r1, r3
    135e:	ea21 514c 	bic.w	r1, r1, ip, lsl #21
    1362:	ea23 534c 	bic.w	r3, r3, ip, lsl #21
    1366:	ea50 3501 	orrs.w	r5, r0, r1, lsl #12
    136a:	bf18      	it	ne
    136c:	ea52 3503 	orrsne.w	r5, r2, r3, lsl #12
    1370:	f441 1180 	orr.w	r1, r1, #1048576	; 0x100000
    1374:	f443 1380 	orr.w	r3, r3, #1048576	; 0x100000
    1378:	d038      	beq.n	13ec <__aeabi_dmul+0xb4>
    137a:	fba0 ce02 	umull	ip, lr, r0, r2
    137e:	f04f 0500 	mov.w	r5, #0
    1382:	fbe1 e502 	umlal	lr, r5, r1, r2
    1386:	f006 4200 	and.w	r2, r6, #2147483648	; 0x80000000
    138a:	fbe0 e503 	umlal	lr, r5, r0, r3
    138e:	f04f 0600 	mov.w	r6, #0
    1392:	fbe1 5603 	umlal	r5, r6, r1, r3
    1396:	f09c 0f00 	teq	ip, #0
    139a:	bf18      	it	ne
    139c:	f04e 0e01 	orrne.w	lr, lr, #1
    13a0:	f1a4 04ff 	sub.w	r4, r4, #255	; 0xff
    13a4:	f5b6 7f00 	cmp.w	r6, #512	; 0x200
    13a8:	f564 7440 	sbc.w	r4, r4, #768	; 0x300
    13ac:	d204      	bcs.n	13b8 <__aeabi_dmul+0x80>
    13ae:	ea5f 0e4e 	movs.w	lr, lr, lsl #1
    13b2:	416d      	adcs	r5, r5
    13b4:	eb46 0606 	adc.w	r6, r6, r6
    13b8:	ea42 21c6 	orr.w	r1, r2, r6, lsl #11
    13bc:	ea41 5155 	orr.w	r1, r1, r5, lsr #21
    13c0:	ea4f 20c5 	mov.w	r0, r5, lsl #11
    13c4:	ea40 505e 	orr.w	r0, r0, lr, lsr #21
    13c8:	ea4f 2ece 	mov.w	lr, lr, lsl #11
    13cc:	f1b4 0cfd 	subs.w	ip, r4, #253	; 0xfd
    13d0:	bf88      	it	hi
    13d2:	f5bc 6fe0 	cmphi.w	ip, #1792	; 0x700
    13d6:	d81e      	bhi.n	1416 <__aeabi_dmul+0xde>
    13d8:	f1be 4f00 	cmp.w	lr, #2147483648	; 0x80000000
    13dc:	bf08      	it	eq
    13de:	ea5f 0e50 	movseq.w	lr, r0, lsr #1
    13e2:	f150 0000 	adcs.w	r0, r0, #0
    13e6:	eb41 5104 	adc.w	r1, r1, r4, lsl #20
    13ea:	bd70      	pop	{r4, r5, r6, pc}
    13ec:	f006 4600 	and.w	r6, r6, #2147483648	; 0x80000000
    13f0:	ea46 0101 	orr.w	r1, r6, r1
    13f4:	ea40 0002 	orr.w	r0, r0, r2
    13f8:	ea81 0103 	eor.w	r1, r1, r3
    13fc:	ebb4 045c 	subs.w	r4, r4, ip, lsr #1
    1400:	bfc2      	ittt	gt
    1402:	ebd4 050c 	rsbsgt	r5, r4, ip
    1406:	ea41 5104 	orrgt.w	r1, r1, r4, lsl #20
    140a:	bd70      	popgt	{r4, r5, r6, pc}
    140c:	f441 1180 	orr.w	r1, r1, #1048576	; 0x100000
    1410:	f04f 0e00 	mov.w	lr, #0
    1414:	3c01      	subs	r4, #1
    1416:	f300 80ab 	bgt.w	1570 <__aeabi_dmul+0x238>
    141a:	f114 0f36 	cmn.w	r4, #54	; 0x36
    141e:	bfde      	ittt	le
    1420:	2000      	movle	r0, #0
    1422:	f001 4100 	andle.w	r1, r1, #2147483648	; 0x80000000
    1426:	bd70      	pople	{r4, r5, r6, pc}
    1428:	f1c4 0400 	rsb	r4, r4, #0
    142c:	3c20      	subs	r4, #32
    142e:	da35      	bge.n	149c <__aeabi_dmul+0x164>
    1430:	340c      	adds	r4, #12
    1432:	dc1b      	bgt.n	146c <__aeabi_dmul+0x134>
    1434:	f104 0414 	add.w	r4, r4, #20
    1438:	f1c4 0520 	rsb	r5, r4, #32
    143c:	fa00 f305 	lsl.w	r3, r0, r5
    1440:	fa20 f004 	lsr.w	r0, r0, r4
    1444:	fa01 f205 	lsl.w	r2, r1, r5
    1448:	ea40 0002 	orr.w	r0, r0, r2
    144c:	f001 4200 	and.w	r2, r1, #2147483648	; 0x80000000
    1450:	f021 4100 	bic.w	r1, r1, #2147483648	; 0x80000000
    1454:	eb10 70d3 	adds.w	r0, r0, r3, lsr #31
    1458:	fa21 f604 	lsr.w	r6, r1, r4
    145c:	eb42 0106 	adc.w	r1, r2, r6
    1460:	ea5e 0e43 	orrs.w	lr, lr, r3, lsl #1
    1464:	bf08      	it	eq
    1466:	ea20 70d3 	biceq.w	r0, r0, r3, lsr #31
    146a:	bd70      	pop	{r4, r5, r6, pc}
    146c:	f1c4 040c 	rsb	r4, r4, #12
    1470:	f1c4 0520 	rsb	r5, r4, #32
    1474:	fa00 f304 	lsl.w	r3, r0, r4
    1478:	fa20 f005 	lsr.w	r0, r0, r5
    147c:	fa01 f204 	lsl.w	r2, r1, r4
    1480:	ea40 0002 	orr.w	r0, r0, r2
    1484:	f001 4100 	and.w	r1, r1, #2147483648	; 0x80000000
    1488:	eb10 70d3 	adds.w	r0, r0, r3, lsr #31
    148c:	f141 0100 	adc.w	r1, r1, #0
    1490:	ea5e 0e43 	orrs.w	lr, lr, r3, lsl #1
    1494:	bf08      	it	eq
    1496:	ea20 70d3 	biceq.w	r0, r0, r3, lsr #31
    149a:	bd70      	pop	{r4, r5, r6, pc}
    149c:	f1c4 0520 	rsb	r5, r4, #32
    14a0:	fa00 f205 	lsl.w	r2, r0, r5
    14a4:	ea4e 0e02 	orr.w	lr, lr, r2
    14a8:	fa20 f304 	lsr.w	r3, r0, r4
    14ac:	fa01 f205 	lsl.w	r2, r1, r5
    14b0:	ea43 0302 	orr.w	r3, r3, r2
    14b4:	fa21 f004 	lsr.w	r0, r1, r4
    14b8:	f001 4100 	and.w	r1, r1, #2147483648	; 0x80000000
    14bc:	fa21 f204 	lsr.w	r2, r1, r4
    14c0:	ea20 0002 	bic.w	r0, r0, r2
    14c4:	eb00 70d3 	add.w	r0, r0, r3, lsr #31
    14c8:	ea5e 0e43 	orrs.w	lr, lr, r3, lsl #1
    14cc:	bf08      	it	eq
    14ce:	ea20 70d3 	biceq.w	r0, r0, r3, lsr #31
    14d2:	bd70      	pop	{r4, r5, r6, pc}
    14d4:	f094 0f00 	teq	r4, #0
    14d8:	d10f      	bne.n	14fa <__aeabi_dmul+0x1c2>
    14da:	f001 4600 	and.w	r6, r1, #2147483648	; 0x80000000
    14de:	0040      	lsls	r0, r0, #1
    14e0:	eb41 0101 	adc.w	r1, r1, r1
    14e4:	f411 1f80 	tst.w	r1, #1048576	; 0x100000
    14e8:	bf08      	it	eq
    14ea:	3c01      	subeq	r4, #1
    14ec:	d0f7      	beq.n	14de <__aeabi_dmul+0x1a6>
    14ee:	ea41 0106 	orr.w	r1, r1, r6
    14f2:	f095 0f00 	teq	r5, #0
    14f6:	bf18      	it	ne
    14f8:	4770      	bxne	lr
    14fa:	f003 4600 	and.w	r6, r3, #2147483648	; 0x80000000
    14fe:	0052      	lsls	r2, r2, #1
    1500:	eb43 0303 	adc.w	r3, r3, r3
    1504:	f413 1f80 	tst.w	r3, #1048576	; 0x100000
    1508:	bf08      	it	eq
    150a:	3d01      	subeq	r5, #1
    150c:	d0f7      	beq.n	14fe <__aeabi_dmul+0x1c6>
    150e:	ea43 0306 	orr.w	r3, r3, r6
    1512:	4770      	bx	lr
    1514:	ea94 0f0c 	teq	r4, ip
    1518:	ea0c 5513 	and.w	r5, ip, r3, lsr #20
    151c:	bf18      	it	ne
    151e:	ea95 0f0c 	teqne	r5, ip
    1522:	d00c      	beq.n	153e <__aeabi_dmul+0x206>
    1524:	ea50 0641 	orrs.w	r6, r0, r1, lsl #1
    1528:	bf18      	it	ne
    152a:	ea52 0643 	orrsne.w	r6, r2, r3, lsl #1
    152e:	d1d1      	bne.n	14d4 <__aeabi_dmul+0x19c>
    1530:	ea81 0103 	eor.w	r1, r1, r3
    1534:	f001 4100 	and.w	r1, r1, #2147483648	; 0x80000000
    1538:	f04f 0000 	mov.w	r0, #0
    153c:	bd70      	pop	{r4, r5, r6, pc}
    153e:	ea50 0641 	orrs.w	r6, r0, r1, lsl #1
    1542:	bf06      	itte	eq
    1544:	4610      	moveq	r0, r2
    1546:	4619      	moveq	r1, r3
    1548:	ea52 0643 	orrsne.w	r6, r2, r3, lsl #1
    154c:	d019      	beq.n	1582 <__aeabi_dmul+0x24a>
    154e:	ea94 0f0c 	teq	r4, ip
    1552:	d102      	bne.n	155a <__aeabi_dmul+0x222>
    1554:	ea50 3601 	orrs.w	r6, r0, r1, lsl #12
    1558:	d113      	bne.n	1582 <__aeabi_dmul+0x24a>
    155a:	ea95 0f0c 	teq	r5, ip
    155e:	d105      	bne.n	156c <__aeabi_dmul+0x234>
    1560:	ea52 3603 	orrs.w	r6, r2, r3, lsl #12
    1564:	bf1c      	itt	ne
    1566:	4610      	movne	r0, r2
    1568:	4619      	movne	r1, r3
    156a:	d10a      	bne.n	1582 <__aeabi_dmul+0x24a>
    156c:	ea81 0103 	eor.w	r1, r1, r3
    1570:	f001 4100 	and.w	r1, r1, #2147483648	; 0x80000000
    1574:	f041 41fe 	orr.w	r1, r1, #2130706432	; 0x7f000000
    1578:	f441 0170 	orr.w	r1, r1, #15728640	; 0xf00000
    157c:	f04f 0000 	mov.w	r0, #0
    1580:	bd70      	pop	{r4, r5, r6, pc}
    1582:	f041 41fe 	orr.w	r1, r1, #2130706432	; 0x7f000000
    1586:	f441 0178 	orr.w	r1, r1, #16252928	; 0xf80000
    158a:	bd70      	pop	{r4, r5, r6, pc}

0000158c <__aeabi_ddiv>:
    158c:	b570      	push	{r4, r5, r6, lr}
    158e:	f04f 0cff 	mov.w	ip, #255	; 0xff
    1592:	f44c 6ce0 	orr.w	ip, ip, #1792	; 0x700
    1596:	ea1c 5411 	ands.w	r4, ip, r1, lsr #20
    159a:	bf1d      	ittte	ne
    159c:	ea1c 5513 	andsne.w	r5, ip, r3, lsr #20
    15a0:	ea94 0f0c 	teqne	r4, ip
    15a4:	ea95 0f0c 	teqne	r5, ip
    15a8:	f000 f8a7 	bleq	16fa <__aeabi_ddiv+0x16e>
    15ac:	eba4 0405 	sub.w	r4, r4, r5
    15b0:	ea81 0e03 	eor.w	lr, r1, r3
    15b4:	ea52 3503 	orrs.w	r5, r2, r3, lsl #12
    15b8:	ea4f 3101 	mov.w	r1, r1, lsl #12
    15bc:	f000 8088 	beq.w	16d0 <__aeabi_ddiv+0x144>
    15c0:	ea4f 3303 	mov.w	r3, r3, lsl #12
    15c4:	f04f 5580 	mov.w	r5, #268435456	; 0x10000000
    15c8:	ea45 1313 	orr.w	r3, r5, r3, lsr #4
    15cc:	ea43 6312 	orr.w	r3, r3, r2, lsr #24
    15d0:	ea4f 2202 	mov.w	r2, r2, lsl #8
    15d4:	ea45 1511 	orr.w	r5, r5, r1, lsr #4
    15d8:	ea45 6510 	orr.w	r5, r5, r0, lsr #24
    15dc:	ea4f 2600 	mov.w	r6, r0, lsl #8
    15e0:	f00e 4100 	and.w	r1, lr, #2147483648	; 0x80000000
    15e4:	429d      	cmp	r5, r3
    15e6:	bf08      	it	eq
    15e8:	4296      	cmpeq	r6, r2
    15ea:	f144 04fd 	adc.w	r4, r4, #253	; 0xfd
    15ee:	f504 7440 	add.w	r4, r4, #768	; 0x300
    15f2:	d202      	bcs.n	15fa <__aeabi_ddiv+0x6e>
    15f4:	085b      	lsrs	r3, r3, #1
    15f6:	ea4f 0232 	mov.w	r2, r2, rrx
    15fa:	1ab6      	subs	r6, r6, r2
    15fc:	eb65 0503 	sbc.w	r5, r5, r3
    1600:	085b      	lsrs	r3, r3, #1
    1602:	ea4f 0232 	mov.w	r2, r2, rrx
    1606:	f44f 1080 	mov.w	r0, #1048576	; 0x100000
    160a:	f44f 2c00 	mov.w	ip, #524288	; 0x80000
    160e:	ebb6 0e02 	subs.w	lr, r6, r2
    1612:	eb75 0e03 	sbcs.w	lr, r5, r3
    1616:	bf22      	ittt	cs
    1618:	1ab6      	subcs	r6, r6, r2
    161a:	4675      	movcs	r5, lr
    161c:	ea40 000c 	orrcs.w	r0, r0, ip
    1620:	085b      	lsrs	r3, r3, #1
    1622:	ea4f 0232 	mov.w	r2, r2, rrx
    1626:	ebb6 0e02 	subs.w	lr, r6, r2
    162a:	eb75 0e03 	sbcs.w	lr, r5, r3
    162e:	bf22      	ittt	cs
    1630:	1ab6      	subcs	r6, r6, r2
    1632:	4675      	movcs	r5, lr
    1634:	ea40 005c 	orrcs.w	r0, r0, ip, lsr #1
    1638:	085b      	lsrs	r3, r3, #1
    163a:	ea4f 0232 	mov.w	r2, r2, rrx
    163e:	ebb6 0e02 	subs.w	lr, r6, r2
    1642:	eb75 0e03 	sbcs.w	lr, r5, r3
    1646:	bf22      	ittt	cs
    1648:	1ab6      	subcs	r6, r6, r2
    164a:	4675      	movcs	r5, lr
    164c:	ea40 009c 	orrcs.w	r0, r0, ip, lsr #2
    1650:	085b      	lsrs	r3, r3, #1
    1652:	ea4f 0232 	mov.w	r2, r2, rrx
    1656:	ebb6 0e02 	subs.w	lr, r6, r2
    165a:	eb75 0e03 	sbcs.w	lr, r5, r3
    165e:	bf22      	ittt	cs
    1660:	1ab6      	subcs	r6, r6, r2
    1662:	4675      	movcs	r5, lr
    1664:	ea40 00dc 	orrcs.w	r0, r0, ip, lsr #3
    1668:	ea55 0e06 	orrs.w	lr, r5, r6
    166c:	d018      	beq.n	16a0 <__aeabi_ddiv+0x114>
    166e:	ea4f 1505 	mov.w	r5, r5, lsl #4
    1672:	ea45 7516 	orr.w	r5, r5, r6, lsr #28
    1676:	ea4f 1606 	mov.w	r6, r6, lsl #4
    167a:	ea4f 03c3 	mov.w	r3, r3, lsl #3
    167e:	ea43 7352 	orr.w	r3, r3, r2, lsr #29
    1682:	ea4f 02c2 	mov.w	r2, r2, lsl #3
    1686:	ea5f 1c1c 	movs.w	ip, ip, lsr #4
    168a:	d1c0      	bne.n	160e <__aeabi_ddiv+0x82>
    168c:	f411 1f80 	tst.w	r1, #1048576	; 0x100000
    1690:	d10b      	bne.n	16aa <__aeabi_ddiv+0x11e>
    1692:	ea41 0100 	orr.w	r1, r1, r0
    1696:	f04f 0000 	mov.w	r0, #0
    169a:	f04f 4c00 	mov.w	ip, #2147483648	; 0x80000000
    169e:	e7b6      	b.n	160e <__aeabi_ddiv+0x82>
    16a0:	f411 1f80 	tst.w	r1, #1048576	; 0x100000
    16a4:	bf04      	itt	eq
    16a6:	4301      	orreq	r1, r0
    16a8:	2000      	moveq	r0, #0
    16aa:	f1b4 0cfd 	subs.w	ip, r4, #253	; 0xfd
    16ae:	bf88      	it	hi
    16b0:	f5bc 6fe0 	cmphi.w	ip, #1792	; 0x700
    16b4:	f63f aeaf 	bhi.w	1416 <__aeabi_dmul+0xde>
    16b8:	ebb5 0c03 	subs.w	ip, r5, r3
    16bc:	bf04      	itt	eq
    16be:	ebb6 0c02 	subseq.w	ip, r6, r2
    16c2:	ea5f 0c50 	movseq.w	ip, r0, lsr #1
    16c6:	f150 0000 	adcs.w	r0, r0, #0
    16ca:	eb41 5104 	adc.w	r1, r1, r4, lsl #20
    16ce:	bd70      	pop	{r4, r5, r6, pc}
    16d0:	f00e 4e00 	and.w	lr, lr, #2147483648	; 0x80000000
    16d4:	ea4e 3111 	orr.w	r1, lr, r1, lsr #12
    16d8:	eb14 045c 	adds.w	r4, r4, ip, lsr #1
    16dc:	bfc2      	ittt	gt
    16de:	ebd4 050c 	rsbsgt	r5, r4, ip
    16e2:	ea41 5104 	orrgt.w	r1, r1, r4, lsl #20
    16e6:	bd70      	popgt	{r4, r5, r6, pc}
    16e8:	f441 1180 	orr.w	r1, r1, #1048576	; 0x100000
    16ec:	f04f 0e00 	mov.w	lr, #0
    16f0:	3c01      	subs	r4, #1
    16f2:	e690      	b.n	1416 <__aeabi_dmul+0xde>
    16f4:	ea45 0e06 	orr.w	lr, r5, r6
    16f8:	e68d      	b.n	1416 <__aeabi_dmul+0xde>
    16fa:	ea0c 5513 	and.w	r5, ip, r3, lsr #20
    16fe:	ea94 0f0c 	teq	r4, ip
    1702:	bf08      	it	eq
    1704:	ea95 0f0c 	teqeq	r5, ip
    1708:	f43f af3b 	beq.w	1582 <__aeabi_dmul+0x24a>
    170c:	ea94 0f0c 	teq	r4, ip
    1710:	d10a      	bne.n	1728 <__aeabi_ddiv+0x19c>
    1712:	ea50 3401 	orrs.w	r4, r0, r1, lsl #12
    1716:	f47f af34 	bne.w	1582 <__aeabi_dmul+0x24a>
    171a:	ea95 0f0c 	teq	r5, ip
    171e:	f47f af25 	bne.w	156c <__aeabi_dmul+0x234>
    1722:	4610      	mov	r0, r2
    1724:	4619      	mov	r1, r3
    1726:	e72c      	b.n	1582 <__aeabi_dmul+0x24a>
    1728:	ea95 0f0c 	teq	r5, ip
    172c:	d106      	bne.n	173c <__aeabi_ddiv+0x1b0>
    172e:	ea52 3503 	orrs.w	r5, r2, r3, lsl #12
    1732:	f43f aefd 	beq.w	1530 <__aeabi_dmul+0x1f8>
    1736:	4610      	mov	r0, r2
    1738:	4619      	mov	r1, r3
    173a:	e722      	b.n	1582 <__aeabi_dmul+0x24a>
    173c:	ea50 0641 	orrs.w	r6, r0, r1, lsl #1
    1740:	bf18      	it	ne
    1742:	ea52 0643 	orrsne.w	r6, r2, r3, lsl #1
    1746:	f47f aec5 	bne.w	14d4 <__aeabi_dmul+0x19c>
    174a:	ea50 0441 	orrs.w	r4, r0, r1, lsl #1
    174e:	f47f af0d 	bne.w	156c <__aeabi_dmul+0x234>
    1752:	ea52 0543 	orrs.w	r5, r2, r3, lsl #1
    1756:	f47f aeeb 	bne.w	1530 <__aeabi_dmul+0x1f8>
    175a:	e712      	b.n	1582 <__aeabi_dmul+0x24a>

0000175c <__aeabi_d2iz>:
    175c:	ea4f 0241 	mov.w	r2, r1, lsl #1
    1760:	f512 1200 	adds.w	r2, r2, #2097152	; 0x200000
    1764:	d215      	bcs.n	1792 <__aeabi_d2iz+0x36>
    1766:	d511      	bpl.n	178c <__aeabi_d2iz+0x30>
    1768:	f46f 7378 	mvn.w	r3, #992	; 0x3e0
    176c:	ebb3 5262 	subs.w	r2, r3, r2, asr #21
    1770:	d912      	bls.n	1798 <__aeabi_d2iz+0x3c>
    1772:	ea4f 23c1 	mov.w	r3, r1, lsl #11
    1776:	f043 4300 	orr.w	r3, r3, #2147483648	; 0x80000000
    177a:	ea43 5350 	orr.w	r3, r3, r0, lsr #21
    177e:	f011 4f00 	tst.w	r1, #2147483648	; 0x80000000
    1782:	fa23 f002 	lsr.w	r0, r3, r2
    1786:	bf18      	it	ne
    1788:	4240      	negne	r0, r0
    178a:	4770      	bx	lr
    178c:	f04f 0000 	mov.w	r0, #0
    1790:	4770      	bx	lr
    1792:	ea50 3001 	orrs.w	r0, r0, r1, lsl #12
    1796:	d105      	bne.n	17a4 <__aeabi_d2iz+0x48>
    1798:	f011 4000 	ands.w	r0, r1, #2147483648	; 0x80000000
    179c:	bf08      	it	eq
    179e:	f06f 4000 	mvneq.w	r0, #2147483648	; 0x80000000
    17a2:	4770      	bx	lr
    17a4:	f04f 0000 	mov.w	r0, #0
    17a8:	4770      	bx	lr
    17aa:	bf00      	nop

000017ac <__aeabi_d2f>:
    17ac:	ea4f 0241 	mov.w	r2, r1, lsl #1
    17b0:	f1b2 43e0 	subs.w	r3, r2, #1879048192	; 0x70000000
    17b4:	bf24      	itt	cs
    17b6:	f5b3 1c00 	subscs.w	ip, r3, #2097152	; 0x200000
    17ba:	f1dc 5cfe 	rsbscs	ip, ip, #532676608	; 0x1fc00000
    17be:	d90d      	bls.n	17dc <__aeabi_d2f+0x30>
    17c0:	f001 4c00 	and.w	ip, r1, #2147483648	; 0x80000000
    17c4:	ea4f 02c0 	mov.w	r2, r0, lsl #3
    17c8:	ea4c 7050 	orr.w	r0, ip, r0, lsr #29
    17cc:	f1b2 4f00 	cmp.w	r2, #2147483648	; 0x80000000
    17d0:	eb40 0083 	adc.w	r0, r0, r3, lsl #2
    17d4:	bf08      	it	eq
    17d6:	f020 0001 	biceq.w	r0, r0, #1
    17da:	4770      	bx	lr
    17dc:	f011 4f80 	tst.w	r1, #1073741824	; 0x40000000
    17e0:	d121      	bne.n	1826 <__aeabi_d2f+0x7a>
    17e2:	f113 7238 	adds.w	r2, r3, #48234496	; 0x2e00000
    17e6:	bfbc      	itt	lt
    17e8:	f001 4000 	andlt.w	r0, r1, #2147483648	; 0x80000000
    17ec:	4770      	bxlt	lr
    17ee:	f441 1180 	orr.w	r1, r1, #1048576	; 0x100000
    17f2:	ea4f 5252 	mov.w	r2, r2, lsr #21
    17f6:	f1c2 0218 	rsb	r2, r2, #24
    17fa:	f1c2 0c20 	rsb	ip, r2, #32
    17fe:	fa10 f30c 	lsls.w	r3, r0, ip
    1802:	fa20 f002 	lsr.w	r0, r0, r2
    1806:	bf18      	it	ne
    1808:	f040 0001 	orrne.w	r0, r0, #1
    180c:	ea4f 23c1 	mov.w	r3, r1, lsl #11
    1810:	ea4f 23d3 	mov.w	r3, r3, lsr #11
    1814:	fa03 fc0c 	lsl.w	ip, r3, ip
    1818:	ea40 000c 	orr.w	r0, r0, ip
    181c:	fa23 f302 	lsr.w	r3, r3, r2
    1820:	ea4f 0343 	mov.w	r3, r3, lsl #1
    1824:	e7cc      	b.n	17c0 <__aeabi_d2f+0x14>
    1826:	ea7f 5362 	mvns.w	r3, r2, asr #21
    182a:	d107      	bne.n	183c <__aeabi_d2f+0x90>
    182c:	ea50 3301 	orrs.w	r3, r0, r1, lsl #12
    1830:	bf1e      	ittt	ne
    1832:	f04f 40fe 	movne.w	r0, #2130706432	; 0x7f000000
    1836:	f440 0040 	orrne.w	r0, r0, #12582912	; 0xc00000
    183a:	4770      	bxne	lr
    183c:	f001 4000 	and.w	r0, r1, #2147483648	; 0x80000000
    1840:	f040 40fe 	orr.w	r0, r0, #2130706432	; 0x7f000000
    1844:	f440 0000 	orr.w	r0, r0, #8388608	; 0x800000
    1848:	4770      	bx	lr
    184a:	bf00      	nop

0000184c <__aeabi_frsub>:
    184c:	f080 4000 	eor.w	r0, r0, #2147483648	; 0x80000000
    1850:	e002      	b.n	1858 <__addsf3>
    1852:	bf00      	nop

00001854 <__aeabi_fsub>:
    1854:	f081 4100 	eor.w	r1, r1, #2147483648	; 0x80000000

00001858 <__addsf3>:
    1858:	0042      	lsls	r2, r0, #1
    185a:	bf1f      	itttt	ne
    185c:	ea5f 0341 	movsne.w	r3, r1, lsl #1
    1860:	ea92 0f03 	teqne	r2, r3
    1864:	ea7f 6c22 	mvnsne.w	ip, r2, asr #24
    1868:	ea7f 6c23 	mvnsne.w	ip, r3, asr #24
    186c:	d06a      	beq.n	1944 <__addsf3+0xec>
    186e:	ea4f 6212 	mov.w	r2, r2, lsr #24
    1872:	ebd2 6313 	rsbs	r3, r2, r3, lsr #24
    1876:	bfc1      	itttt	gt
    1878:	18d2      	addgt	r2, r2, r3
    187a:	4041      	eorgt	r1, r0
    187c:	4048      	eorgt	r0, r1
    187e:	4041      	eorgt	r1, r0
    1880:	bfb8      	it	lt
    1882:	425b      	neglt	r3, r3
    1884:	2b19      	cmp	r3, #25
    1886:	bf88      	it	hi
    1888:	4770      	bxhi	lr
    188a:	f010 4f00 	tst.w	r0, #2147483648	; 0x80000000
    188e:	f440 0000 	orr.w	r0, r0, #8388608	; 0x800000
    1892:	f020 407f 	bic.w	r0, r0, #4278190080	; 0xff000000
    1896:	bf18      	it	ne
    1898:	4240      	negne	r0, r0
    189a:	f011 4f00 	tst.w	r1, #2147483648	; 0x80000000
    189e:	f441 0100 	orr.w	r1, r1, #8388608	; 0x800000
    18a2:	f021 417f 	bic.w	r1, r1, #4278190080	; 0xff000000
    18a6:	bf18      	it	ne
    18a8:	4249      	negne	r1, r1
    18aa:	ea92 0f03 	teq	r2, r3
    18ae:	d03f      	beq.n	1930 <__addsf3+0xd8>
    18b0:	f1a2 0201 	sub.w	r2, r2, #1
    18b4:	fa41 fc03 	asr.w	ip, r1, r3
    18b8:	eb10 000c 	adds.w	r0, r0, ip
    18bc:	f1c3 0320 	rsb	r3, r3, #32
    18c0:	fa01 f103 	lsl.w	r1, r1, r3
    18c4:	f000 4300 	and.w	r3, r0, #2147483648	; 0x80000000
    18c8:	d502      	bpl.n	18d0 <__addsf3+0x78>
    18ca:	4249      	negs	r1, r1
    18cc:	eb60 0040 	sbc.w	r0, r0, r0, lsl #1
    18d0:	f5b0 0f00 	cmp.w	r0, #8388608	; 0x800000
    18d4:	d313      	bcc.n	18fe <__addsf3+0xa6>
    18d6:	f1b0 7f80 	cmp.w	r0, #16777216	; 0x1000000
    18da:	d306      	bcc.n	18ea <__addsf3+0x92>
    18dc:	0840      	lsrs	r0, r0, #1
    18de:	ea4f 0131 	mov.w	r1, r1, rrx
    18e2:	f102 0201 	add.w	r2, r2, #1
    18e6:	2afe      	cmp	r2, #254	; 0xfe
    18e8:	d251      	bcs.n	198e <__addsf3+0x136>
    18ea:	f1b1 4f00 	cmp.w	r1, #2147483648	; 0x80000000
    18ee:	eb40 50c2 	adc.w	r0, r0, r2, lsl #23
    18f2:	bf08      	it	eq
    18f4:	f020 0001 	biceq.w	r0, r0, #1
    18f8:	ea40 0003 	orr.w	r0, r0, r3
    18fc:	4770      	bx	lr
    18fe:	0049      	lsls	r1, r1, #1
    1900:	eb40 0000 	adc.w	r0, r0, r0
    1904:	f410 0f00 	tst.w	r0, #8388608	; 0x800000
    1908:	f1a2 0201 	sub.w	r2, r2, #1
    190c:	d1ed      	bne.n	18ea <__addsf3+0x92>
    190e:	fab0 fc80 	clz	ip, r0
    1912:	f1ac 0c08 	sub.w	ip, ip, #8
    1916:	ebb2 020c 	subs.w	r2, r2, ip
    191a:	fa00 f00c 	lsl.w	r0, r0, ip
    191e:	bfaa      	itet	ge
    1920:	eb00 50c2 	addge.w	r0, r0, r2, lsl #23
    1924:	4252      	neglt	r2, r2
    1926:	4318      	orrge	r0, r3
    1928:	bfbc      	itt	lt
    192a:	40d0      	lsrlt	r0, r2
    192c:	4318      	orrlt	r0, r3
    192e:	4770      	bx	lr
    1930:	f092 0f00 	teq	r2, #0
    1934:	f481 0100 	eor.w	r1, r1, #8388608	; 0x800000
    1938:	bf06      	itte	eq
    193a:	f480 0000 	eoreq.w	r0, r0, #8388608	; 0x800000
    193e:	3201      	addeq	r2, #1
    1940:	3b01      	subne	r3, #1
    1942:	e7b5      	b.n	18b0 <__addsf3+0x58>
    1944:	ea4f 0341 	mov.w	r3, r1, lsl #1
    1948:	ea7f 6c22 	mvns.w	ip, r2, asr #24
    194c:	bf18      	it	ne
    194e:	ea7f 6c23 	mvnsne.w	ip, r3, asr #24
    1952:	d021      	beq.n	1998 <__addsf3+0x140>
    1954:	ea92 0f03 	teq	r2, r3
    1958:	d004      	beq.n	1964 <__addsf3+0x10c>
    195a:	f092 0f00 	teq	r2, #0
    195e:	bf08      	it	eq
    1960:	4608      	moveq	r0, r1
    1962:	4770      	bx	lr
    1964:	ea90 0f01 	teq	r0, r1
    1968:	bf1c      	itt	ne
    196a:	2000      	movne	r0, #0
    196c:	4770      	bxne	lr
    196e:	f012 4f7f 	tst.w	r2, #4278190080	; 0xff000000
    1972:	d104      	bne.n	197e <__addsf3+0x126>
    1974:	0040      	lsls	r0, r0, #1
    1976:	bf28      	it	cs
    1978:	f040 4000 	orrcs.w	r0, r0, #2147483648	; 0x80000000
    197c:	4770      	bx	lr
    197e:	f112 7200 	adds.w	r2, r2, #33554432	; 0x2000000
    1982:	bf3c      	itt	cc
    1984:	f500 0000 	addcc.w	r0, r0, #8388608	; 0x800000
    1988:	4770      	bxcc	lr
    198a:	f000 4300 	and.w	r3, r0, #2147483648	; 0x80000000
    198e:	f043 40fe 	orr.w	r0, r3, #2130706432	; 0x7f000000
    1992:	f440 0000 	orr.w	r0, r0, #8388608	; 0x800000
    1996:	4770      	bx	lr
    1998:	ea7f 6222 	mvns.w	r2, r2, asr #24
    199c:	bf16      	itet	ne
    199e:	4608      	movne	r0, r1
    19a0:	ea7f 6323 	mvnseq.w	r3, r3, asr #24
    19a4:	4601      	movne	r1, r0
    19a6:	0242      	lsls	r2, r0, #9
    19a8:	bf06      	itte	eq
    19aa:	ea5f 2341 	movseq.w	r3, r1, lsl #9
    19ae:	ea90 0f01 	teqeq	r0, r1
    19b2:	f440 0080 	orrne.w	r0, r0, #4194304	; 0x400000
    19b6:	4770      	bx	lr

000019b8 <__aeabi_ui2f>:
    19b8:	f04f 0300 	mov.w	r3, #0
    19bc:	e004      	b.n	19c8 <__aeabi_i2f+0x8>
    19be:	bf00      	nop

000019c0 <__aeabi_i2f>:
    19c0:	f010 4300 	ands.w	r3, r0, #2147483648	; 0x80000000
    19c4:	bf48      	it	mi
    19c6:	4240      	negmi	r0, r0
    19c8:	ea5f 0c00 	movs.w	ip, r0
    19cc:	bf08      	it	eq
    19ce:	4770      	bxeq	lr
    19d0:	f043 4396 	orr.w	r3, r3, #1258291200	; 0x4b000000
    19d4:	4601      	mov	r1, r0
    19d6:	f04f 0000 	mov.w	r0, #0
    19da:	e01c      	b.n	1a16 <__aeabi_l2f+0x2a>

000019dc <__aeabi_ul2f>:
    19dc:	ea50 0201 	orrs.w	r2, r0, r1
    19e0:	bf08      	it	eq
    19e2:	4770      	bxeq	lr
    19e4:	f04f 0300 	mov.w	r3, #0
    19e8:	e00a      	b.n	1a00 <__aeabi_l2f+0x14>
    19ea:	bf00      	nop

000019ec <__aeabi_l2f>:
    19ec:	ea50 0201 	orrs.w	r2, r0, r1
    19f0:	bf08      	it	eq
    19f2:	4770      	bxeq	lr
    19f4:	f011 4300 	ands.w	r3, r1, #2147483648	; 0x80000000
    19f8:	d502      	bpl.n	1a00 <__aeabi_l2f+0x14>
    19fa:	4240      	negs	r0, r0
    19fc:	eb61 0141 	sbc.w	r1, r1, r1, lsl #1
    1a00:	ea5f 0c01 	movs.w	ip, r1
    1a04:	bf02      	ittt	eq
    1a06:	4684      	moveq	ip, r0
    1a08:	4601      	moveq	r1, r0
    1a0a:	2000      	moveq	r0, #0
    1a0c:	f043 43b6 	orr.w	r3, r3, #1526726656	; 0x5b000000
    1a10:	bf08      	it	eq
    1a12:	f1a3 5380 	subeq.w	r3, r3, #268435456	; 0x10000000
    1a16:	f5a3 0300 	sub.w	r3, r3, #8388608	; 0x800000
    1a1a:	fabc f28c 	clz	r2, ip
    1a1e:	3a08      	subs	r2, #8
    1a20:	eba3 53c2 	sub.w	r3, r3, r2, lsl #23
    1a24:	db10      	blt.n	1a48 <__aeabi_l2f+0x5c>
    1a26:	fa01 fc02 	lsl.w	ip, r1, r2
    1a2a:	4463      	add	r3, ip
    1a2c:	fa00 fc02 	lsl.w	ip, r0, r2
    1a30:	f1c2 0220 	rsb	r2, r2, #32
    1a34:	f1bc 4f00 	cmp.w	ip, #2147483648	; 0x80000000
    1a38:	fa20 f202 	lsr.w	r2, r0, r2
    1a3c:	eb43 0002 	adc.w	r0, r3, r2
    1a40:	bf08      	it	eq
    1a42:	f020 0001 	biceq.w	r0, r0, #1
    1a46:	4770      	bx	lr
    1a48:	f102 0220 	add.w	r2, r2, #32
    1a4c:	fa01 fc02 	lsl.w	ip, r1, r2
    1a50:	f1c2 0220 	rsb	r2, r2, #32
    1a54:	ea50 004c 	orrs.w	r0, r0, ip, lsl #1
    1a58:	fa21 f202 	lsr.w	r2, r1, r2
    1a5c:	eb43 0002 	adc.w	r0, r3, r2
    1a60:	bf08      	it	eq
    1a62:	ea20 70dc 	biceq.w	r0, r0, ip, lsr #31
    1a66:	4770      	bx	lr

00001a68 <__aeabi_fmul>:
    1a68:	f04f 0cff 	mov.w	ip, #255	; 0xff
    1a6c:	ea1c 52d0 	ands.w	r2, ip, r0, lsr #23
    1a70:	bf1e      	ittt	ne
    1a72:	ea1c 53d1 	andsne.w	r3, ip, r1, lsr #23
    1a76:	ea92 0f0c 	teqne	r2, ip
    1a7a:	ea93 0f0c 	teqne	r3, ip
    1a7e:	d06f      	beq.n	1b60 <__aeabi_fmul+0xf8>
    1a80:	441a      	add	r2, r3
    1a82:	ea80 0c01 	eor.w	ip, r0, r1
    1a86:	0240      	lsls	r0, r0, #9
    1a88:	bf18      	it	ne
    1a8a:	ea5f 2141 	movsne.w	r1, r1, lsl #9
    1a8e:	d01e      	beq.n	1ace <__aeabi_fmul+0x66>
    1a90:	f04f 6300 	mov.w	r3, #134217728	; 0x8000000
    1a94:	ea43 1050 	orr.w	r0, r3, r0, lsr #5
    1a98:	ea43 1151 	orr.w	r1, r3, r1, lsr #5
    1a9c:	fba0 3101 	umull	r3, r1, r0, r1
    1aa0:	f00c 4000 	and.w	r0, ip, #2147483648	; 0x80000000
    1aa4:	f5b1 0f00 	cmp.w	r1, #8388608	; 0x800000
    1aa8:	bf3e      	ittt	cc
    1aaa:	0049      	lslcc	r1, r1, #1
    1aac:	ea41 71d3 	orrcc.w	r1, r1, r3, lsr #31
    1ab0:	005b      	lslcc	r3, r3, #1
    1ab2:	ea40 0001 	orr.w	r0, r0, r1
    1ab6:	f162 027f 	sbc.w	r2, r2, #127	; 0x7f
    1aba:	2afd      	cmp	r2, #253	; 0xfd
    1abc:	d81d      	bhi.n	1afa <__aeabi_fmul+0x92>
    1abe:	f1b3 4f00 	cmp.w	r3, #2147483648	; 0x80000000
    1ac2:	eb40 50c2 	adc.w	r0, r0, r2, lsl #23
    1ac6:	bf08      	it	eq
    1ac8:	f020 0001 	biceq.w	r0, r0, #1
    1acc:	4770      	bx	lr
    1ace:	f090 0f00 	teq	r0, #0
    1ad2:	f00c 4c00 	and.w	ip, ip, #2147483648	; 0x80000000
    1ad6:	bf08      	it	eq
    1ad8:	0249      	lsleq	r1, r1, #9
    1ada:	ea4c 2050 	orr.w	r0, ip, r0, lsr #9
    1ade:	ea40 2051 	orr.w	r0, r0, r1, lsr #9
    1ae2:	3a7f      	subs	r2, #127	; 0x7f
    1ae4:	bfc2      	ittt	gt
    1ae6:	f1d2 03ff 	rsbsgt	r3, r2, #255	; 0xff
    1aea:	ea40 50c2 	orrgt.w	r0, r0, r2, lsl #23
    1aee:	4770      	bxgt	lr
    1af0:	f440 0000 	orr.w	r0, r0, #8388608	; 0x800000
    1af4:	f04f 0300 	mov.w	r3, #0
    1af8:	3a01      	subs	r2, #1
    1afa:	dc5d      	bgt.n	1bb8 <__aeabi_fmul+0x150>
    1afc:	f112 0f19 	cmn.w	r2, #25
    1b00:	bfdc      	itt	le
    1b02:	f000 4000 	andle.w	r0, r0, #2147483648	; 0x80000000
    1b06:	4770      	bxle	lr
    1b08:	f1c2 0200 	rsb	r2, r2, #0
    1b0c:	0041      	lsls	r1, r0, #1
    1b0e:	fa21 f102 	lsr.w	r1, r1, r2
    1b12:	f1c2 0220 	rsb	r2, r2, #32
    1b16:	fa00 fc02 	lsl.w	ip, r0, r2
    1b1a:	ea5f 0031 	movs.w	r0, r1, rrx
    1b1e:	f140 0000 	adc.w	r0, r0, #0
    1b22:	ea53 034c 	orrs.w	r3, r3, ip, lsl #1
    1b26:	bf08      	it	eq
    1b28:	ea20 70dc 	biceq.w	r0, r0, ip, lsr #31
    1b2c:	4770      	bx	lr
    1b2e:	f092 0f00 	teq	r2, #0
    1b32:	f000 4c00 	and.w	ip, r0, #2147483648	; 0x80000000
    1b36:	bf02      	ittt	eq
    1b38:	0040      	lsleq	r0, r0, #1
    1b3a:	f410 0f00 	tsteq.w	r0, #8388608	; 0x800000
    1b3e:	3a01      	subeq	r2, #1
    1b40:	d0f9      	beq.n	1b36 <__aeabi_fmul+0xce>
    1b42:	ea40 000c 	orr.w	r0, r0, ip
    1b46:	f093 0f00 	teq	r3, #0
    1b4a:	f001 4c00 	and.w	ip, r1, #2147483648	; 0x80000000
    1b4e:	bf02      	ittt	eq
    1b50:	0049      	lsleq	r1, r1, #1
    1b52:	f411 0f00 	tsteq.w	r1, #8388608	; 0x800000
    1b56:	3b01      	subeq	r3, #1
    1b58:	d0f9      	beq.n	1b4e <__aeabi_fmul+0xe6>
    1b5a:	ea41 010c 	orr.w	r1, r1, ip
    1b5e:	e78f      	b.n	1a80 <__aeabi_fmul+0x18>
    1b60:	ea0c 53d1 	and.w	r3, ip, r1, lsr #23
    1b64:	ea92 0f0c 	teq	r2, ip
    1b68:	bf18      	it	ne
    1b6a:	ea93 0f0c 	teqne	r3, ip
    1b6e:	d00a      	beq.n	1b86 <__aeabi_fmul+0x11e>
    1b70:	f030 4c00 	bics.w	ip, r0, #2147483648	; 0x80000000
    1b74:	bf18      	it	ne
    1b76:	f031 4c00 	bicsne.w	ip, r1, #2147483648	; 0x80000000
    1b7a:	d1d8      	bne.n	1b2e <__aeabi_fmul+0xc6>
    1b7c:	ea80 0001 	eor.w	r0, r0, r1
    1b80:	f000 4000 	and.w	r0, r0, #2147483648	; 0x80000000
    1b84:	4770      	bx	lr
    1b86:	f090 0f00 	teq	r0, #0
    1b8a:	bf17      	itett	ne
    1b8c:	f090 4f00 	teqne	r0, #2147483648	; 0x80000000
    1b90:	4608      	moveq	r0, r1
    1b92:	f091 0f00 	teqne	r1, #0
    1b96:	f091 4f00 	teqne	r1, #2147483648	; 0x80000000
    1b9a:	d014      	beq.n	1bc6 <__aeabi_fmul+0x15e>
    1b9c:	ea92 0f0c 	teq	r2, ip
    1ba0:	d101      	bne.n	1ba6 <__aeabi_fmul+0x13e>
    1ba2:	0242      	lsls	r2, r0, #9
    1ba4:	d10f      	bne.n	1bc6 <__aeabi_fmul+0x15e>
    1ba6:	ea93 0f0c 	teq	r3, ip
    1baa:	d103      	bne.n	1bb4 <__aeabi_fmul+0x14c>
    1bac:	024b      	lsls	r3, r1, #9
    1bae:	bf18      	it	ne
    1bb0:	4608      	movne	r0, r1
    1bb2:	d108      	bne.n	1bc6 <__aeabi_fmul+0x15e>
    1bb4:	ea80 0001 	eor.w	r0, r0, r1
    1bb8:	f000 4000 	and.w	r0, r0, #2147483648	; 0x80000000
    1bbc:	f040 40fe 	orr.w	r0, r0, #2130706432	; 0x7f000000
    1bc0:	f440 0000 	orr.w	r0, r0, #8388608	; 0x800000
    1bc4:	4770      	bx	lr
    1bc6:	f040 40fe 	orr.w	r0, r0, #2130706432	; 0x7f000000
    1bca:	f440 0040 	orr.w	r0, r0, #12582912	; 0xc00000
    1bce:	4770      	bx	lr

00001bd0 <__aeabi_fdiv>:
    1bd0:	f04f 0cff 	mov.w	ip, #255	; 0xff
    1bd4:	ea1c 52d0 	ands.w	r2, ip, r0, lsr #23
    1bd8:	bf1e      	ittt	ne
    1bda:	ea1c 53d1 	andsne.w	r3, ip, r1, lsr #23
    1bde:	ea92 0f0c 	teqne	r2, ip
    1be2:	ea93 0f0c 	teqne	r3, ip
    1be6:	d069      	beq.n	1cbc <__aeabi_fdiv+0xec>
    1be8:	eba2 0203 	sub.w	r2, r2, r3
    1bec:	ea80 0c01 	eor.w	ip, r0, r1
    1bf0:	0249      	lsls	r1, r1, #9
    1bf2:	ea4f 2040 	mov.w	r0, r0, lsl #9
    1bf6:	d037      	beq.n	1c68 <__aeabi_fdiv+0x98>
    1bf8:	f04f 5380 	mov.w	r3, #268435456	; 0x10000000
    1bfc:	ea43 1111 	orr.w	r1, r3, r1, lsr #4
    1c00:	ea43 1310 	orr.w	r3, r3, r0, lsr #4
    1c04:	f00c 4000 	and.w	r0, ip, #2147483648	; 0x80000000
    1c08:	428b      	cmp	r3, r1
    1c0a:	bf38      	it	cc
    1c0c:	005b      	lslcc	r3, r3, #1
    1c0e:	f142 027d 	adc.w	r2, r2, #125	; 0x7d
    1c12:	f44f 0c00 	mov.w	ip, #8388608	; 0x800000
    1c16:	428b      	cmp	r3, r1
    1c18:	bf24      	itt	cs
    1c1a:	1a5b      	subcs	r3, r3, r1
    1c1c:	ea40 000c 	orrcs.w	r0, r0, ip
    1c20:	ebb3 0f51 	cmp.w	r3, r1, lsr #1
    1c24:	bf24      	itt	cs
    1c26:	eba3 0351 	subcs.w	r3, r3, r1, lsr #1
    1c2a:	ea40 005c 	orrcs.w	r0, r0, ip, lsr #1
    1c2e:	ebb3 0f91 	cmp.w	r3, r1, lsr #2
    1c32:	bf24      	itt	cs
    1c34:	eba3 0391 	subcs.w	r3, r3, r1, lsr #2
    1c38:	ea40 009c 	orrcs.w	r0, r0, ip, lsr #2
    1c3c:	ebb3 0fd1 	cmp.w	r3, r1, lsr #3
    1c40:	bf24      	itt	cs
    1c42:	eba3 03d1 	subcs.w	r3, r3, r1, lsr #3
    1c46:	ea40 00dc 	orrcs.w	r0, r0, ip, lsr #3
    1c4a:	011b      	lsls	r3, r3, #4
    1c4c:	bf18      	it	ne
    1c4e:	ea5f 1c1c 	movsne.w	ip, ip, lsr #4
    1c52:	d1e0      	bne.n	1c16 <__aeabi_fdiv+0x46>
    1c54:	2afd      	cmp	r2, #253	; 0xfd
    1c56:	f63f af50 	bhi.w	1afa <__aeabi_fmul+0x92>
    1c5a:	428b      	cmp	r3, r1
    1c5c:	eb40 50c2 	adc.w	r0, r0, r2, lsl #23
    1c60:	bf08      	it	eq
    1c62:	f020 0001 	biceq.w	r0, r0, #1
    1c66:	4770      	bx	lr
    1c68:	f00c 4c00 	and.w	ip, ip, #2147483648	; 0x80000000
    1c6c:	ea4c 2050 	orr.w	r0, ip, r0, lsr #9
    1c70:	327f      	adds	r2, #127	; 0x7f
    1c72:	bfc2      	ittt	gt
    1c74:	f1d2 03ff 	rsbsgt	r3, r2, #255	; 0xff
    1c78:	ea40 50c2 	orrgt.w	r0, r0, r2, lsl #23
    1c7c:	4770      	bxgt	lr
    1c7e:	f440 0000 	orr.w	r0, r0, #8388608	; 0x800000
    1c82:	f04f 0300 	mov.w	r3, #0
    1c86:	3a01      	subs	r2, #1
    1c88:	e737      	b.n	1afa <__aeabi_fmul+0x92>
    1c8a:	f092 0f00 	teq	r2, #0
    1c8e:	f000 4c00 	and.w	ip, r0, #2147483648	; 0x80000000
    1c92:	bf02      	ittt	eq
    1c94:	0040      	lsleq	r0, r0, #1
    1c96:	f410 0f00 	tsteq.w	r0, #8388608	; 0x800000
    1c9a:	3a01      	subeq	r2, #1
    1c9c:	d0f9      	beq.n	1c92 <__aeabi_fdiv+0xc2>
    1c9e:	ea40 000c 	orr.w	r0, r0, ip
    1ca2:	f093 0f00 	teq	r3, #0
    1ca6:	f001 4c00 	and.w	ip, r1, #2147483648	; 0x80000000
    1caa:	bf02      	ittt	eq
    1cac:	0049      	lsleq	r1, r1, #1
    1cae:	f411 0f00 	tsteq.w	r1, #8388608	; 0x800000
    1cb2:	3b01      	subeq	r3, #1
    1cb4:	d0f9      	beq.n	1caa <__aeabi_fdiv+0xda>
    1cb6:	ea41 010c 	orr.w	r1, r1, ip
    1cba:	e795      	b.n	1be8 <__aeabi_fdiv+0x18>
    1cbc:	ea0c 53d1 	and.w	r3, ip, r1, lsr #23
    1cc0:	ea92 0f0c 	teq	r2, ip
    1cc4:	d108      	bne.n	1cd8 <__aeabi_fdiv+0x108>
    1cc6:	0242      	lsls	r2, r0, #9
    1cc8:	f47f af7d 	bne.w	1bc6 <__aeabi_fmul+0x15e>
    1ccc:	ea93 0f0c 	teq	r3, ip
    1cd0:	f47f af70 	bne.w	1bb4 <__aeabi_fmul+0x14c>
    1cd4:	4608      	mov	r0, r1
    1cd6:	e776      	b.n	1bc6 <__aeabi_fmul+0x15e>
    1cd8:	ea93 0f0c 	teq	r3, ip
    1cdc:	d104      	bne.n	1ce8 <__aeabi_fdiv+0x118>
    1cde:	024b      	lsls	r3, r1, #9
    1ce0:	f43f af4c 	beq.w	1b7c <__aeabi_fmul+0x114>
    1ce4:	4608      	mov	r0, r1
    1ce6:	e76e      	b.n	1bc6 <__aeabi_fmul+0x15e>
    1ce8:	f030 4c00 	bics.w	ip, r0, #2147483648	; 0x80000000
    1cec:	bf18      	it	ne
    1cee:	f031 4c00 	bicsne.w	ip, r1, #2147483648	; 0x80000000
    1cf2:	d1ca      	bne.n	1c8a <__aeabi_fdiv+0xba>
    1cf4:	f030 4200 	bics.w	r2, r0, #2147483648	; 0x80000000
    1cf8:	f47f af5c 	bne.w	1bb4 <__aeabi_fmul+0x14c>
    1cfc:	f031 4300 	bics.w	r3, r1, #2147483648	; 0x80000000
    1d00:	f47f af3c 	bne.w	1b7c <__aeabi_fmul+0x114>
    1d04:	e75f      	b.n	1bc6 <__aeabi_fmul+0x15e>
    1d06:	bf00      	nop

00001d08 <__gesf2>:
    1d08:	f04f 3cff 	mov.w	ip, #4294967295
    1d0c:	e006      	b.n	1d1c <__cmpsf2+0x4>
    1d0e:	bf00      	nop

00001d10 <__lesf2>:
    1d10:	f04f 0c01 	mov.w	ip, #1
    1d14:	e002      	b.n	1d1c <__cmpsf2+0x4>
    1d16:	bf00      	nop

00001d18 <__cmpsf2>:
    1d18:	f04f 0c01 	mov.w	ip, #1
    1d1c:	f84d cd04 	str.w	ip, [sp, #-4]!
    1d20:	ea4f 0240 	mov.w	r2, r0, lsl #1
    1d24:	ea4f 0341 	mov.w	r3, r1, lsl #1
    1d28:	ea7f 6c22 	mvns.w	ip, r2, asr #24
    1d2c:	bf18      	it	ne
    1d2e:	ea7f 6c23 	mvnsne.w	ip, r3, asr #24
    1d32:	d011      	beq.n	1d58 <__cmpsf2+0x40>
    1d34:	b001      	add	sp, #4
    1d36:	ea52 0c53 	orrs.w	ip, r2, r3, lsr #1
    1d3a:	bf18      	it	ne
    1d3c:	ea90 0f01 	teqne	r0, r1
    1d40:	bf58      	it	pl
    1d42:	ebb2 0003 	subspl.w	r0, r2, r3
    1d46:	bf88      	it	hi
    1d48:	17c8      	asrhi	r0, r1, #31
    1d4a:	bf38      	it	cc
    1d4c:	ea6f 70e1 	mvncc.w	r0, r1, asr #31
    1d50:	bf18      	it	ne
    1d52:	f040 0001 	orrne.w	r0, r0, #1
    1d56:	4770      	bx	lr
    1d58:	ea7f 6c22 	mvns.w	ip, r2, asr #24
    1d5c:	d102      	bne.n	1d64 <__cmpsf2+0x4c>
    1d5e:	ea5f 2c40 	movs.w	ip, r0, lsl #9
    1d62:	d105      	bne.n	1d70 <__cmpsf2+0x58>
    1d64:	ea7f 6c23 	mvns.w	ip, r3, asr #24
    1d68:	d1e4      	bne.n	1d34 <__cmpsf2+0x1c>
    1d6a:	ea5f 2c41 	movs.w	ip, r1, lsl #9
    1d6e:	d0e1      	beq.n	1d34 <__cmpsf2+0x1c>
    1d70:	f85d 0b04 	ldr.w	r0, [sp], #4
    1d74:	4770      	bx	lr
    1d76:	bf00      	nop

00001d78 <__aeabi_cfrcmple>:
    1d78:	4684      	mov	ip, r0
    1d7a:	4608      	mov	r0, r1
    1d7c:	4661      	mov	r1, ip
    1d7e:	e7ff      	b.n	1d80 <__aeabi_cfcmpeq>

00001d80 <__aeabi_cfcmpeq>:
    1d80:	b50f      	push	{r0, r1, r2, r3, lr}
    1d82:	f7ff ffc9 	bl	1d18 <__cmpsf2>
    1d86:	2800      	cmp	r0, #0
    1d88:	bf48      	it	mi
    1d8a:	f110 0f00 	cmnmi.w	r0, #0
    1d8e:	bd0f      	pop	{r0, r1, r2, r3, pc}

00001d90 <__aeabi_fcmpeq>:
    1d90:	f84d ed08 	str.w	lr, [sp, #-8]!
    1d94:	f7ff fff4 	bl	1d80 <__aeabi_cfcmpeq>
    1d98:	bf0c      	ite	eq
    1d9a:	2001      	moveq	r0, #1
    1d9c:	2000      	movne	r0, #0
    1d9e:	f85d fb08 	ldr.w	pc, [sp], #8
    1da2:	bf00      	nop

00001da4 <__aeabi_fcmplt>:
    1da4:	f84d ed08 	str.w	lr, [sp, #-8]!
    1da8:	f7ff ffea 	bl	1d80 <__aeabi_cfcmpeq>
    1dac:	bf34      	ite	cc
    1dae:	2001      	movcc	r0, #1
    1db0:	2000      	movcs	r0, #0
    1db2:	f85d fb08 	ldr.w	pc, [sp], #8
    1db6:	bf00      	nop

00001db8 <__aeabi_fcmple>:
    1db8:	f84d ed08 	str.w	lr, [sp, #-8]!
    1dbc:	f7ff ffe0 	bl	1d80 <__aeabi_cfcmpeq>
    1dc0:	bf94      	ite	ls
    1dc2:	2001      	movls	r0, #1
    1dc4:	2000      	movhi	r0, #0
    1dc6:	f85d fb08 	ldr.w	pc, [sp], #8
    1dca:	bf00      	nop

00001dcc <__aeabi_fcmpge>:
    1dcc:	f84d ed08 	str.w	lr, [sp, #-8]!
    1dd0:	f7ff ffd2 	bl	1d78 <__aeabi_cfrcmple>
    1dd4:	bf94      	ite	ls
    1dd6:	2001      	movls	r0, #1
    1dd8:	2000      	movhi	r0, #0
    1dda:	f85d fb08 	ldr.w	pc, [sp], #8
    1dde:	bf00      	nop

00001de0 <__aeabi_fcmpgt>:
    1de0:	f84d ed08 	str.w	lr, [sp, #-8]!
    1de4:	f7ff ffc8 	bl	1d78 <__aeabi_cfrcmple>
    1de8:	bf34      	ite	cc
    1dea:	2001      	movcc	r0, #1
    1dec:	2000      	movcs	r0, #0
    1dee:	f85d fb08 	ldr.w	pc, [sp], #8
    1df2:	bf00      	nop

00001df4 <abort>:
    1df4:	b508      	push	{r3, lr}
    1df6:	2006      	movs	r0, #6
    1df8:	f000 fe78 	bl	2aec <raise>
    1dfc:	2001      	movs	r0, #1
    1dfe:	f7fe fab9 	bl	374 <_exit>

00001e02 <__aeabi_assert>:
    1e02:	b508      	push	{r3, lr}
    1e04:	4603      	mov	r3, r0
    1e06:	4608      	mov	r0, r1
    1e08:	4611      	mov	r1, r2
    1e0a:	461a      	mov	r2, r3
    1e0c:	f004 fd28 	bl	6860 <__assert>

00001e10 <setup_aeabi_stdio>:
    1e10:	4b05      	ldr	r3, [pc, #20]	; (1e28 <setup_aeabi_stdio+0x18>)
    1e12:	4a06      	ldr	r2, [pc, #24]	; (1e2c <setup_aeabi_stdio+0x1c>)
    1e14:	681b      	ldr	r3, [r3, #0]
    1e16:	6859      	ldr	r1, [r3, #4]
    1e18:	6011      	str	r1, [r2, #0]
    1e1a:	6899      	ldr	r1, [r3, #8]
    1e1c:	4a04      	ldr	r2, [pc, #16]	; (1e30 <setup_aeabi_stdio+0x20>)
    1e1e:	6011      	str	r1, [r2, #0]
    1e20:	68da      	ldr	r2, [r3, #12]
    1e22:	4b04      	ldr	r3, [pc, #16]	; (1e34 <setup_aeabi_stdio+0x24>)
    1e24:	601a      	str	r2, [r3, #0]
    1e26:	4770      	bx	lr
    1e28:	1000010c 	.word	0x1000010c
    1e2c:	10000634 	.word	0x10000634
    1e30:	10000638 	.word	0x10000638
    1e34:	1000063c 	.word	0x1000063c

00001e38 <fprintf>:
    1e38:	b40e      	push	{r1, r2, r3}
    1e3a:	b503      	push	{r0, r1, lr}
    1e3c:	ab03      	add	r3, sp, #12
    1e3e:	4601      	mov	r1, r0
    1e40:	4805      	ldr	r0, [pc, #20]	; (1e58 <fprintf+0x20>)
    1e42:	f853 2b04 	ldr.w	r2, [r3], #4
    1e46:	6800      	ldr	r0, [r0, #0]
    1e48:	9301      	str	r3, [sp, #4]
    1e4a:	f002 fd97 	bl	497c <_vfprintf_r>
    1e4e:	e8bd 400c 	ldmia.w	sp!, {r2, r3, lr}
    1e52:	b003      	add	sp, #12
    1e54:	4770      	bx	lr
    1e56:	bf00      	nop
    1e58:	1000010c 	.word	0x1000010c

00001e5c <fscanf>:
    1e5c:	b40e      	push	{r1, r2, r3}
    1e5e:	b503      	push	{r0, r1, lr}
    1e60:	ab03      	add	r3, sp, #12
    1e62:	4601      	mov	r1, r0
    1e64:	4805      	ldr	r0, [pc, #20]	; (1e7c <fscanf+0x20>)
    1e66:	f853 2b04 	ldr.w	r2, [r3], #4
    1e6a:	6800      	ldr	r0, [r0, #0]
    1e6c:	9301      	str	r3, [sp, #4]
    1e6e:	f003 fe6b 	bl	5b48 <__svfscanf_r>
    1e72:	e8bd 400c 	ldmia.w	sp!, {r2, r3, lr}
    1e76:	b003      	add	sp, #12
    1e78:	4770      	bx	lr
    1e7a:	bf00      	nop
    1e7c:	1000010c 	.word	0x1000010c

00001e80 <__sfvwrite_r>:
    1e80:	e92d 4ff7 	stmdb	sp!, {r0, r1, r2, r4, r5, r6, r7, r8, r9, sl, fp, lr}
    1e84:	4606      	mov	r6, r0
    1e86:	6890      	ldr	r0, [r2, #8]
    1e88:	460c      	mov	r4, r1
    1e8a:	4692      	mov	sl, r2
    1e8c:	2800      	cmp	r0, #0
    1e8e:	f000 813f 	beq.w	2110 <__sfvwrite_r+0x290>
    1e92:	898b      	ldrh	r3, [r1, #12]
    1e94:	f013 0f08 	tst.w	r3, #8
    1e98:	d001      	beq.n	1e9e <__sfvwrite_r+0x1e>
    1e9a:	690b      	ldr	r3, [r1, #16]
    1e9c:	b95b      	cbnz	r3, 1eb6 <__sfvwrite_r+0x36>
    1e9e:	4630      	mov	r0, r6
    1ea0:	4621      	mov	r1, r4
    1ea2:	f004 fc53 	bl	674c <__swsetup_r>
    1ea6:	b130      	cbz	r0, 1eb6 <__sfvwrite_r+0x36>
    1ea8:	89a3      	ldrh	r3, [r4, #12]
    1eaa:	f043 0340 	orr.w	r3, r3, #64	; 0x40
    1eae:	81a3      	strh	r3, [r4, #12]
    1eb0:	2309      	movs	r3, #9
    1eb2:	6033      	str	r3, [r6, #0]
    1eb4:	e12a      	b.n	210c <__sfvwrite_r+0x28c>
    1eb6:	f8b4 900c 	ldrh.w	r9, [r4, #12]
    1eba:	f8da 8000 	ldr.w	r8, [sl]
    1ebe:	f019 0702 	ands.w	r7, r9, #2
    1ec2:	d024      	beq.n	1f0e <__sfvwrite_r+0x8e>
    1ec4:	2700      	movs	r7, #0
    1ec6:	46b9      	mov	r9, r7
    1ec8:	e005      	b.n	1ed6 <__sfvwrite_r+0x56>
    1eca:	f8d8 7000 	ldr.w	r7, [r8]
    1ece:	f8d8 9004 	ldr.w	r9, [r8, #4]
    1ed2:	f108 0808 	add.w	r8, r8, #8
    1ed6:	f1b9 0f00 	cmp.w	r9, #0
    1eda:	d0f6      	beq.n	1eca <__sfvwrite_r+0x4a>
    1edc:	f1b9 0f80 	cmp.w	r9, #128	; 0x80
    1ee0:	bf34      	ite	cc
    1ee2:	464b      	movcc	r3, r9
    1ee4:	2380      	movcs	r3, #128	; 0x80
    1ee6:	6aa5      	ldr	r5, [r4, #40]	; 0x28
    1ee8:	4630      	mov	r0, r6
    1eea:	6a21      	ldr	r1, [r4, #32]
    1eec:	463a      	mov	r2, r7
    1eee:	47a8      	blx	r5
    1ef0:	1e03      	subs	r3, r0, #0
    1ef2:	f340 8107 	ble.w	2104 <__sfvwrite_r+0x284>
    1ef6:	f8da 0008 	ldr.w	r0, [sl, #8]
    1efa:	1ac0      	subs	r0, r0, r3
    1efc:	f8ca 0008 	str.w	r0, [sl, #8]
    1f00:	2800      	cmp	r0, #0
    1f02:	f000 8105 	beq.w	2110 <__sfvwrite_r+0x290>
    1f06:	18ff      	adds	r7, r7, r3
    1f08:	ebc3 0909 	rsb	r9, r3, r9
    1f0c:	e7e3      	b.n	1ed6 <__sfvwrite_r+0x56>
    1f0e:	f019 0901 	ands.w	r9, r9, #1
    1f12:	d003      	beq.n	1f1c <__sfvwrite_r+0x9c>
    1f14:	9701      	str	r7, [sp, #4]
    1f16:	46b9      	mov	r9, r7
    1f18:	9700      	str	r7, [sp, #0]
    1f1a:	e09b      	b.n	2054 <__sfvwrite_r+0x1d4>
    1f1c:	464d      	mov	r5, r9
    1f1e:	e005      	b.n	1f2c <__sfvwrite_r+0xac>
    1f20:	f8d8 9000 	ldr.w	r9, [r8]
    1f24:	f8d8 5004 	ldr.w	r5, [r8, #4]
    1f28:	f108 0808 	add.w	r8, r8, #8
    1f2c:	2d00      	cmp	r5, #0
    1f2e:	d0f7      	beq.n	1f20 <__sfvwrite_r+0xa0>
    1f30:	89a3      	ldrh	r3, [r4, #12]
    1f32:	68a7      	ldr	r7, [r4, #8]
    1f34:	f413 7f00 	tst.w	r3, #512	; 0x200
    1f38:	d050      	beq.n	1fdc <__sfvwrite_r+0x15c>
    1f3a:	42bd      	cmp	r5, r7
    1f3c:	d340      	bcc.n	1fc0 <__sfvwrite_r+0x140>
    1f3e:	f413 6f90 	tst.w	r3, #1152	; 0x480
    1f42:	d03b      	beq.n	1fbc <__sfvwrite_r+0x13c>
    1f44:	6921      	ldr	r1, [r4, #16]
    1f46:	6822      	ldr	r2, [r4, #0]
    1f48:	1a52      	subs	r2, r2, r1
    1f4a:	9200      	str	r2, [sp, #0]
    1f4c:	6962      	ldr	r2, [r4, #20]
    1f4e:	9800      	ldr	r0, [sp, #0]
    1f50:	eb02 0b42 	add.w	fp, r2, r2, lsl #1
    1f54:	1c42      	adds	r2, r0, #1
    1f56:	1952      	adds	r2, r2, r5
    1f58:	eb0b 7bdb 	add.w	fp, fp, fp, lsr #31
    1f5c:	ea4f 0b6b 	mov.w	fp, fp, asr #1
    1f60:	4593      	cmp	fp, r2
    1f62:	bf38      	it	cc
    1f64:	4693      	movcc	fp, r2
    1f66:	f413 6f80 	tst.w	r3, #1024	; 0x400
    1f6a:	d010      	beq.n	1f8e <__sfvwrite_r+0x10e>
    1f6c:	4630      	mov	r0, r6
    1f6e:	4659      	mov	r1, fp
    1f70:	f000 f95c 	bl	222c <_malloc_r>
    1f74:	4607      	mov	r7, r0
    1f76:	b1a0      	cbz	r0, 1fa2 <__sfvwrite_r+0x122>
    1f78:	6921      	ldr	r1, [r4, #16]
    1f7a:	9a00      	ldr	r2, [sp, #0]
    1f7c:	f000 fb68 	bl	2650 <memcpy>
    1f80:	89a3      	ldrh	r3, [r4, #12]
    1f82:	f423 6390 	bic.w	r3, r3, #1152	; 0x480
    1f86:	f043 0380 	orr.w	r3, r3, #128	; 0x80
    1f8a:	81a3      	strh	r3, [r4, #12]
    1f8c:	e00c      	b.n	1fa8 <__sfvwrite_r+0x128>
    1f8e:	4630      	mov	r0, r6
    1f90:	465a      	mov	r2, fp
    1f92:	f000 fbdb 	bl	274c <_realloc_r>
    1f96:	4607      	mov	r7, r0
    1f98:	b930      	cbnz	r0, 1fa8 <__sfvwrite_r+0x128>
    1f9a:	4630      	mov	r0, r6
    1f9c:	6921      	ldr	r1, [r4, #16]
    1f9e:	f005 fd49 	bl	7a34 <_free_r>
    1fa2:	230c      	movs	r3, #12
    1fa4:	6033      	str	r3, [r6, #0]
    1fa6:	e0ad      	b.n	2104 <__sfvwrite_r+0x284>
    1fa8:	9a00      	ldr	r2, [sp, #0]
    1faa:	6127      	str	r7, [r4, #16]
    1fac:	18bf      	adds	r7, r7, r2
    1fae:	6027      	str	r7, [r4, #0]
    1fb0:	462f      	mov	r7, r5
    1fb2:	ebc2 030b 	rsb	r3, r2, fp
    1fb6:	f8c4 b014 	str.w	fp, [r4, #20]
    1fba:	60a3      	str	r3, [r4, #8]
    1fbc:	42bd      	cmp	r5, r7
    1fbe:	d200      	bcs.n	1fc2 <__sfvwrite_r+0x142>
    1fc0:	462f      	mov	r7, r5
    1fc2:	463a      	mov	r2, r7
    1fc4:	6820      	ldr	r0, [r4, #0]
    1fc6:	4649      	mov	r1, r9
    1fc8:	f000 fb4d 	bl	2666 <memmove>
    1fcc:	68a3      	ldr	r3, [r4, #8]
    1fce:	1bdb      	subs	r3, r3, r7
    1fd0:	60a3      	str	r3, [r4, #8]
    1fd2:	6823      	ldr	r3, [r4, #0]
    1fd4:	19df      	adds	r7, r3, r7
    1fd6:	6027      	str	r7, [r4, #0]
    1fd8:	462f      	mov	r7, r5
    1fda:	e028      	b.n	202e <__sfvwrite_r+0x1ae>
    1fdc:	6820      	ldr	r0, [r4, #0]
    1fde:	6923      	ldr	r3, [r4, #16]
    1fe0:	4298      	cmp	r0, r3
    1fe2:	d90e      	bls.n	2002 <__sfvwrite_r+0x182>
    1fe4:	42bd      	cmp	r5, r7
    1fe6:	d90c      	bls.n	2002 <__sfvwrite_r+0x182>
    1fe8:	4649      	mov	r1, r9
    1fea:	463a      	mov	r2, r7
    1fec:	f000 fb3b 	bl	2666 <memmove>
    1ff0:	6823      	ldr	r3, [r4, #0]
    1ff2:	4630      	mov	r0, r6
    1ff4:	4621      	mov	r1, r4
    1ff6:	19db      	adds	r3, r3, r7
    1ff8:	6023      	str	r3, [r4, #0]
    1ffa:	f005 fae1 	bl	75c0 <_fflush_r>
    1ffe:	b1b0      	cbz	r0, 202e <__sfvwrite_r+0x1ae>
    2000:	e080      	b.n	2104 <__sfvwrite_r+0x284>
    2002:	6963      	ldr	r3, [r4, #20]
    2004:	429d      	cmp	r5, r3
    2006:	d307      	bcc.n	2018 <__sfvwrite_r+0x198>
    2008:	6aa7      	ldr	r7, [r4, #40]	; 0x28
    200a:	4630      	mov	r0, r6
    200c:	6a21      	ldr	r1, [r4, #32]
    200e:	464a      	mov	r2, r9
    2010:	47b8      	blx	r7
    2012:	1e07      	subs	r7, r0, #0
    2014:	dc0b      	bgt.n	202e <__sfvwrite_r+0x1ae>
    2016:	e075      	b.n	2104 <__sfvwrite_r+0x284>
    2018:	4649      	mov	r1, r9
    201a:	462a      	mov	r2, r5
    201c:	f000 fb23 	bl	2666 <memmove>
    2020:	68a3      	ldr	r3, [r4, #8]
    2022:	462f      	mov	r7, r5
    2024:	1b5b      	subs	r3, r3, r5
    2026:	60a3      	str	r3, [r4, #8]
    2028:	6823      	ldr	r3, [r4, #0]
    202a:	195b      	adds	r3, r3, r5
    202c:	6023      	str	r3, [r4, #0]
    202e:	f8da 0008 	ldr.w	r0, [sl, #8]
    2032:	1bc0      	subs	r0, r0, r7
    2034:	f8ca 0008 	str.w	r0, [sl, #8]
    2038:	2800      	cmp	r0, #0
    203a:	d069      	beq.n	2110 <__sfvwrite_r+0x290>
    203c:	44b9      	add	r9, r7
    203e:	1bed      	subs	r5, r5, r7
    2040:	e774      	b.n	1f2c <__sfvwrite_r+0xac>
    2042:	f8d8 3004 	ldr.w	r3, [r8, #4]
    2046:	2000      	movs	r0, #0
    2048:	f8d8 9000 	ldr.w	r9, [r8]
    204c:	f108 0808 	add.w	r8, r8, #8
    2050:	9001      	str	r0, [sp, #4]
    2052:	9300      	str	r3, [sp, #0]
    2054:	9a00      	ldr	r2, [sp, #0]
    2056:	2a00      	cmp	r2, #0
    2058:	d0f3      	beq.n	2042 <__sfvwrite_r+0x1c2>
    205a:	9b01      	ldr	r3, [sp, #4]
    205c:	b973      	cbnz	r3, 207c <__sfvwrite_r+0x1fc>
    205e:	4648      	mov	r0, r9
    2060:	210a      	movs	r1, #10
    2062:	f000 fae7 	bl	2634 <memchr>
    2066:	b128      	cbz	r0, 2074 <__sfvwrite_r+0x1f4>
    2068:	1c47      	adds	r7, r0, #1
    206a:	2001      	movs	r0, #1
    206c:	ebc9 0707 	rsb	r7, r9, r7
    2070:	9001      	str	r0, [sp, #4]
    2072:	e003      	b.n	207c <__sfvwrite_r+0x1fc>
    2074:	9a00      	ldr	r2, [sp, #0]
    2076:	2301      	movs	r3, #1
    2078:	9301      	str	r3, [sp, #4]
    207a:	1c57      	adds	r7, r2, #1
    207c:	f8dd b000 	ldr.w	fp, [sp]
    2080:	6820      	ldr	r0, [r4, #0]
    2082:	6922      	ldr	r2, [r4, #16]
    2084:	455f      	cmp	r7, fp
    2086:	bf38      	it	cc
    2088:	46bb      	movcc	fp, r7
    208a:	68a5      	ldr	r5, [r4, #8]
    208c:	4290      	cmp	r0, r2
    208e:	6963      	ldr	r3, [r4, #20]
    2090:	d90f      	bls.n	20b2 <__sfvwrite_r+0x232>
    2092:	195d      	adds	r5, r3, r5
    2094:	45ab      	cmp	fp, r5
    2096:	dd0c      	ble.n	20b2 <__sfvwrite_r+0x232>
    2098:	4649      	mov	r1, r9
    209a:	462a      	mov	r2, r5
    209c:	f000 fae3 	bl	2666 <memmove>
    20a0:	6823      	ldr	r3, [r4, #0]
    20a2:	4630      	mov	r0, r6
    20a4:	4621      	mov	r1, r4
    20a6:	195b      	adds	r3, r3, r5
    20a8:	6023      	str	r3, [r4, #0]
    20aa:	f005 fa89 	bl	75c0 <_fflush_r>
    20ae:	b1b0      	cbz	r0, 20de <__sfvwrite_r+0x25e>
    20b0:	e028      	b.n	2104 <__sfvwrite_r+0x284>
    20b2:	459b      	cmp	fp, r3
    20b4:	db07      	blt.n	20c6 <__sfvwrite_r+0x246>
    20b6:	6aa5      	ldr	r5, [r4, #40]	; 0x28
    20b8:	4630      	mov	r0, r6
    20ba:	6a21      	ldr	r1, [r4, #32]
    20bc:	464a      	mov	r2, r9
    20be:	47a8      	blx	r5
    20c0:	1e05      	subs	r5, r0, #0
    20c2:	dc0c      	bgt.n	20de <__sfvwrite_r+0x25e>
    20c4:	e01e      	b.n	2104 <__sfvwrite_r+0x284>
    20c6:	4649      	mov	r1, r9
    20c8:	465a      	mov	r2, fp
    20ca:	f000 facc 	bl	2666 <memmove>
    20ce:	68a3      	ldr	r3, [r4, #8]
    20d0:	465d      	mov	r5, fp
    20d2:	ebcb 0303 	rsb	r3, fp, r3
    20d6:	60a3      	str	r3, [r4, #8]
    20d8:	6823      	ldr	r3, [r4, #0]
    20da:	445b      	add	r3, fp
    20dc:	6023      	str	r3, [r4, #0]
    20de:	1b7f      	subs	r7, r7, r5
    20e0:	d105      	bne.n	20ee <__sfvwrite_r+0x26e>
    20e2:	4630      	mov	r0, r6
    20e4:	4621      	mov	r1, r4
    20e6:	f005 fa6b 	bl	75c0 <_fflush_r>
    20ea:	b958      	cbnz	r0, 2104 <__sfvwrite_r+0x284>
    20ec:	9701      	str	r7, [sp, #4]
    20ee:	f8da 0008 	ldr.w	r0, [sl, #8]
    20f2:	1b40      	subs	r0, r0, r5
    20f4:	f8ca 0008 	str.w	r0, [sl, #8]
    20f8:	b150      	cbz	r0, 2110 <__sfvwrite_r+0x290>
    20fa:	9800      	ldr	r0, [sp, #0]
    20fc:	44a9      	add	r9, r5
    20fe:	1b40      	subs	r0, r0, r5
    2100:	9000      	str	r0, [sp, #0]
    2102:	e7a7      	b.n	2054 <__sfvwrite_r+0x1d4>
    2104:	89a3      	ldrh	r3, [r4, #12]
    2106:	f043 0340 	orr.w	r3, r3, #64	; 0x40
    210a:	81a3      	strh	r3, [r4, #12]
    210c:	f04f 30ff 	mov.w	r0, #4294967295
    2110:	e8bd 8ffe 	ldmia.w	sp!, {r1, r2, r3, r4, r5, r6, r7, r8, r9, sl, fp, pc}

00002114 <_fwrite_r>:
    2114:	e92d 41f0 	stmdb	sp!, {r4, r5, r6, r7, r8, lr}
    2118:	b086      	sub	sp, #24
    211a:	fb02 f603 	mul.w	r6, r2, r3
    211e:	461d      	mov	r5, r3
    2120:	4614      	mov	r4, r2
    2122:	ab04      	add	r3, sp, #16
    2124:	9f0c      	ldr	r7, [sp, #48]	; 0x30
    2126:	4680      	mov	r8, r0
    2128:	9301      	str	r3, [sp, #4]
    212a:	2301      	movs	r3, #1
    212c:	9104      	str	r1, [sp, #16]
    212e:	9605      	str	r6, [sp, #20]
    2130:	9603      	str	r6, [sp, #12]
    2132:	9302      	str	r3, [sp, #8]
    2134:	b118      	cbz	r0, 213e <_fwrite_r+0x2a>
    2136:	6983      	ldr	r3, [r0, #24]
    2138:	b90b      	cbnz	r3, 213e <_fwrite_r+0x2a>
    213a:	f005 fb4b 	bl	77d4 <__sinit>
    213e:	4b16      	ldr	r3, [pc, #88]	; (2198 <_fwrite_r+0x84>)
    2140:	429f      	cmp	r7, r3
    2142:	d102      	bne.n	214a <_fwrite_r+0x36>
    2144:	f8d8 7004 	ldr.w	r7, [r8, #4]
    2148:	e00a      	b.n	2160 <_fwrite_r+0x4c>
    214a:	4b14      	ldr	r3, [pc, #80]	; (219c <_fwrite_r+0x88>)
    214c:	429f      	cmp	r7, r3
    214e:	d102      	bne.n	2156 <_fwrite_r+0x42>
    2150:	f8d8 7008 	ldr.w	r7, [r8, #8]
    2154:	e004      	b.n	2160 <_fwrite_r+0x4c>
    2156:	4b12      	ldr	r3, [pc, #72]	; (21a0 <_fwrite_r+0x8c>)
    2158:	429f      	cmp	r7, r3
    215a:	bf08      	it	eq
    215c:	f8d8 700c 	ldreq.w	r7, [r8, #12]
    2160:	89bb      	ldrh	r3, [r7, #12]
    2162:	f413 5f00 	tst.w	r3, #8192	; 0x2000
    2166:	d106      	bne.n	2176 <_fwrite_r+0x62>
    2168:	f443 5300 	orr.w	r3, r3, #8192	; 0x2000
    216c:	81bb      	strh	r3, [r7, #12]
    216e:	6e7b      	ldr	r3, [r7, #100]	; 0x64
    2170:	f423 5300 	bic.w	r3, r3, #8192	; 0x2000
    2174:	667b      	str	r3, [r7, #100]	; 0x64
    2176:	4640      	mov	r0, r8
    2178:	4639      	mov	r1, r7
    217a:	aa01      	add	r2, sp, #4
    217c:	f7ff fe80 	bl	1e80 <__sfvwrite_r>
    2180:	b128      	cbz	r0, 218e <_fwrite_r+0x7a>
    2182:	9803      	ldr	r0, [sp, #12]
    2184:	4621      	mov	r1, r4
    2186:	1a30      	subs	r0, r6, r0
    2188:	f008 ff2e 	bl	afe8 <__aeabi_uidiv>
    218c:	4605      	mov	r5, r0
    218e:	4628      	mov	r0, r5
    2190:	b006      	add	sp, #24
    2192:	e8bd 81f0 	ldmia.w	sp!, {r4, r5, r6, r7, r8, pc}
    2196:	bf00      	nop
    2198:	0000c280 	.word	0x0000c280
    219c:	0000c2a0 	.word	0x0000c2a0
    21a0:	0000c2c0 	.word	0x0000c2c0

000021a4 <fwrite>:
    21a4:	b573      	push	{r0, r1, r4, r5, r6, lr}
    21a6:	4606      	mov	r6, r0
    21a8:	9300      	str	r3, [sp, #0]
    21aa:	460d      	mov	r5, r1
    21ac:	4b04      	ldr	r3, [pc, #16]	; (21c0 <fwrite+0x1c>)
    21ae:	4614      	mov	r4, r2
    21b0:	4631      	mov	r1, r6
    21b2:	462a      	mov	r2, r5
    21b4:	6818      	ldr	r0, [r3, #0]
    21b6:	4623      	mov	r3, r4
    21b8:	f7ff ffac 	bl	2114 <_fwrite_r>
    21bc:	bd7c      	pop	{r2, r3, r4, r5, r6, pc}
    21be:	bf00      	nop
    21c0:	1000010c 	.word	0x1000010c

000021c4 <__libc_init_array>:
    21c4:	b570      	push	{r4, r5, r6, lr}
    21c6:	2400      	movs	r4, #0
    21c8:	4d0c      	ldr	r5, [pc, #48]	; (21fc <__libc_init_array+0x38>)
    21ca:	4e0d      	ldr	r6, [pc, #52]	; (2200 <__libc_init_array+0x3c>)
    21cc:	1b76      	subs	r6, r6, r5
    21ce:	10b6      	asrs	r6, r6, #2
    21d0:	e003      	b.n	21da <__libc_init_array+0x16>
    21d2:	f855 3b04 	ldr.w	r3, [r5], #4
    21d6:	3401      	adds	r4, #1
    21d8:	4798      	blx	r3
    21da:	42b4      	cmp	r4, r6
    21dc:	d1f9      	bne.n	21d2 <__libc_init_array+0xe>
    21de:	4d09      	ldr	r5, [pc, #36]	; (2204 <__libc_init_array+0x40>)
    21e0:	f00a f92c 	bl	c43c <_init>
    21e4:	4e08      	ldr	r6, [pc, #32]	; (2208 <__libc_init_array+0x44>)
    21e6:	2400      	movs	r4, #0
    21e8:	1b76      	subs	r6, r6, r5
    21ea:	10b6      	asrs	r6, r6, #2
    21ec:	e003      	b.n	21f6 <__libc_init_array+0x32>
    21ee:	f855 3b04 	ldr.w	r3, [r5], #4
    21f2:	3401      	adds	r4, #1
    21f4:	4798      	blx	r3
    21f6:	42b4      	cmp	r4, r6
    21f8:	d1f9      	bne.n	21ee <__libc_init_array+0x2a>
    21fa:	bd70      	pop	{r4, r5, r6, pc}
    21fc:	0000c448 	.word	0x0000c448
    2200:	0000c44c 	.word	0x0000c44c
    2204:	0000c44c 	.word	0x0000c44c
    2208:	0000c450 	.word	0x0000c450

0000220c <malloc>:
    220c:	4b02      	ldr	r3, [pc, #8]	; (2218 <malloc+0xc>)
    220e:	4601      	mov	r1, r0
    2210:	6818      	ldr	r0, [r3, #0]
    2212:	f000 b80b 	b.w	222c <_malloc_r>
    2216:	bf00      	nop
    2218:	1000010c 	.word	0x1000010c

0000221c <free>:
    221c:	4b02      	ldr	r3, [pc, #8]	; (2228 <free+0xc>)
    221e:	4601      	mov	r1, r0
    2220:	6818      	ldr	r0, [r3, #0]
    2222:	f005 bc07 	b.w	7a34 <_free_r>
    2226:	bf00      	nop
    2228:	1000010c 	.word	0x1000010c

0000222c <_malloc_r>:
    222c:	e92d 4ff7 	stmdb	sp!, {r0, r1, r2, r4, r5, r6, r7, r8, r9, sl, fp, lr}
    2230:	f101 040b 	add.w	r4, r1, #11
    2234:	2c16      	cmp	r4, #22
    2236:	4607      	mov	r7, r0
    2238:	d903      	bls.n	2242 <_malloc_r+0x16>
    223a:	f034 0407 	bics.w	r4, r4, #7
    223e:	d501      	bpl.n	2244 <_malloc_r+0x18>
    2240:	e002      	b.n	2248 <_malloc_r+0x1c>
    2242:	2410      	movs	r4, #16
    2244:	428c      	cmp	r4, r1
    2246:	d202      	bcs.n	224e <_malloc_r+0x22>
    2248:	230c      	movs	r3, #12
    224a:	603b      	str	r3, [r7, #0]
    224c:	e1d6      	b.n	25fc <_malloc_r+0x3d0>
    224e:	4638      	mov	r0, r7
    2250:	f000 fa21 	bl	2696 <__malloc_lock>
    2254:	f5b4 7ffc 	cmp.w	r4, #504	; 0x1f8
    2258:	4a97      	ldr	r2, [pc, #604]	; (24b8 <_malloc_r+0x28c>)
    225a:	d210      	bcs.n	227e <_malloc_r+0x52>
    225c:	08e1      	lsrs	r1, r4, #3
    225e:	eb02 02c1 	add.w	r2, r2, r1, lsl #3
    2262:	68d6      	ldr	r6, [r2, #12]
    2264:	4296      	cmp	r6, r2
    2266:	d104      	bne.n	2272 <_malloc_r+0x46>
    2268:	f106 0308 	add.w	r3, r6, #8
    226c:	6976      	ldr	r6, [r6, #20]
    226e:	429e      	cmp	r6, r3
    2270:	d003      	beq.n	227a <_malloc_r+0x4e>
    2272:	6873      	ldr	r3, [r6, #4]
    2274:	f023 0303 	bic.w	r3, r3, #3
    2278:	e02f      	b.n	22da <_malloc_r+0xae>
    227a:	3102      	adds	r1, #2
    227c:	e036      	b.n	22ec <_malloc_r+0xc0>
    227e:	0a61      	lsrs	r1, r4, #9
    2280:	d101      	bne.n	2286 <_malloc_r+0x5a>
    2282:	08e1      	lsrs	r1, r4, #3
    2284:	e01b      	b.n	22be <_malloc_r+0x92>
    2286:	2904      	cmp	r1, #4
    2288:	d802      	bhi.n	2290 <_malloc_r+0x64>
    228a:	09a1      	lsrs	r1, r4, #6
    228c:	3138      	adds	r1, #56	; 0x38
    228e:	e016      	b.n	22be <_malloc_r+0x92>
    2290:	2914      	cmp	r1, #20
    2292:	d801      	bhi.n	2298 <_malloc_r+0x6c>
    2294:	315b      	adds	r1, #91	; 0x5b
    2296:	e012      	b.n	22be <_malloc_r+0x92>
    2298:	2954      	cmp	r1, #84	; 0x54
    229a:	d802      	bhi.n	22a2 <_malloc_r+0x76>
    229c:	0b21      	lsrs	r1, r4, #12
    229e:	316e      	adds	r1, #110	; 0x6e
    22a0:	e00d      	b.n	22be <_malloc_r+0x92>
    22a2:	f5b1 7faa 	cmp.w	r1, #340	; 0x154
    22a6:	d802      	bhi.n	22ae <_malloc_r+0x82>
    22a8:	0be1      	lsrs	r1, r4, #15
    22aa:	3177      	adds	r1, #119	; 0x77
    22ac:	e007      	b.n	22be <_malloc_r+0x92>
    22ae:	f240 5354 	movw	r3, #1364	; 0x554
    22b2:	4299      	cmp	r1, r3
    22b4:	d802      	bhi.n	22bc <_malloc_r+0x90>
    22b6:	0ca1      	lsrs	r1, r4, #18
    22b8:	317c      	adds	r1, #124	; 0x7c
    22ba:	e000      	b.n	22be <_malloc_r+0x92>
    22bc:	217e      	movs	r1, #126	; 0x7e
    22be:	eb02 02c1 	add.w	r2, r2, r1, lsl #3
    22c2:	68d6      	ldr	r6, [r2, #12]
    22c4:	e00f      	b.n	22e6 <_malloc_r+0xba>
    22c6:	6873      	ldr	r3, [r6, #4]
    22c8:	f023 0303 	bic.w	r3, r3, #3
    22cc:	1b18      	subs	r0, r3, r4
    22ce:	280f      	cmp	r0, #15
    22d0:	dd01      	ble.n	22d6 <_malloc_r+0xaa>
    22d2:	3901      	subs	r1, #1
    22d4:	e009      	b.n	22ea <_malloc_r+0xbe>
    22d6:	2800      	cmp	r0, #0
    22d8:	db04      	blt.n	22e4 <_malloc_r+0xb8>
    22da:	68f2      	ldr	r2, [r6, #12]
    22dc:	68b1      	ldr	r1, [r6, #8]
    22de:	60ca      	str	r2, [r1, #12]
    22e0:	6091      	str	r1, [r2, #8]
    22e2:	e020      	b.n	2326 <_malloc_r+0xfa>
    22e4:	68f6      	ldr	r6, [r6, #12]
    22e6:	4296      	cmp	r6, r2
    22e8:	d1ed      	bne.n	22c6 <_malloc_r+0x9a>
    22ea:	3101      	adds	r1, #1
    22ec:	4d72      	ldr	r5, [pc, #456]	; (24b8 <_malloc_r+0x28c>)
    22ee:	f105 0208 	add.w	r2, r5, #8
    22f2:	6896      	ldr	r6, [r2, #8]
    22f4:	4296      	cmp	r6, r2
    22f6:	d077      	beq.n	23e8 <_malloc_r+0x1bc>
    22f8:	6873      	ldr	r3, [r6, #4]
    22fa:	f023 0303 	bic.w	r3, r3, #3
    22fe:	1b18      	subs	r0, r3, r4
    2300:	280f      	cmp	r0, #15
    2302:	dd0c      	ble.n	231e <_malloc_r+0xf2>
    2304:	1933      	adds	r3, r6, r4
    2306:	f044 0401 	orr.w	r4, r4, #1
    230a:	60d3      	str	r3, [r2, #12]
    230c:	6093      	str	r3, [r2, #8]
    230e:	6074      	str	r4, [r6, #4]
    2310:	60da      	str	r2, [r3, #12]
    2312:	609a      	str	r2, [r3, #8]
    2314:	f040 0201 	orr.w	r2, r0, #1
    2318:	5018      	str	r0, [r3, r0]
    231a:	605a      	str	r2, [r3, #4]
    231c:	e179      	b.n	2612 <_malloc_r+0x3e6>
    231e:	2800      	cmp	r0, #0
    2320:	60d2      	str	r2, [r2, #12]
    2322:	6092      	str	r2, [r2, #8]
    2324:	db05      	blt.n	2332 <_malloc_r+0x106>
    2326:	18f3      	adds	r3, r6, r3
    2328:	685a      	ldr	r2, [r3, #4]
    232a:	f042 0201 	orr.w	r2, r2, #1
    232e:	605a      	str	r2, [r3, #4]
    2330:	e16f      	b.n	2612 <_malloc_r+0x3e6>
    2332:	f5b3 7f00 	cmp.w	r3, #512	; 0x200
    2336:	d20e      	bcs.n	2356 <_malloc_r+0x12a>
    2338:	08db      	lsrs	r3, r3, #3
    233a:	f04f 0e01 	mov.w	lr, #1
    233e:	1098      	asrs	r0, r3, #2
    2340:	eb05 03c3 	add.w	r3, r5, r3, lsl #3
    2344:	fa0e f000 	lsl.w	r0, lr, r0
    2348:	f8d5 e004 	ldr.w	lr, [r5, #4]
    234c:	ea4e 0000 	orr.w	r0, lr, r0
    2350:	6068      	str	r0, [r5, #4]
    2352:	6898      	ldr	r0, [r3, #8]
    2354:	e044      	b.n	23e0 <_malloc_r+0x1b4>
    2356:	ea4f 2e53 	mov.w	lr, r3, lsr #9
    235a:	f1be 0f04 	cmp.w	lr, #4
    235e:	d804      	bhi.n	236a <_malloc_r+0x13e>
    2360:	ea4f 1e93 	mov.w	lr, r3, lsr #6
    2364:	f10e 0e38 	add.w	lr, lr, #56	; 0x38
    2368:	e01f      	b.n	23aa <_malloc_r+0x17e>
    236a:	f1be 0f14 	cmp.w	lr, #20
    236e:	d802      	bhi.n	2376 <_malloc_r+0x14a>
    2370:	f10e 0e5b 	add.w	lr, lr, #91	; 0x5b
    2374:	e019      	b.n	23aa <_malloc_r+0x17e>
    2376:	f1be 0f54 	cmp.w	lr, #84	; 0x54
    237a:	d804      	bhi.n	2386 <_malloc_r+0x15a>
    237c:	ea4f 3e13 	mov.w	lr, r3, lsr #12
    2380:	f10e 0e6e 	add.w	lr, lr, #110	; 0x6e
    2384:	e011      	b.n	23aa <_malloc_r+0x17e>
    2386:	f5be 7faa 	cmp.w	lr, #340	; 0x154
    238a:	d804      	bhi.n	2396 <_malloc_r+0x16a>
    238c:	ea4f 3ed3 	mov.w	lr, r3, lsr #15
    2390:	f10e 0e77 	add.w	lr, lr, #119	; 0x77
    2394:	e009      	b.n	23aa <_malloc_r+0x17e>
    2396:	f240 5054 	movw	r0, #1364	; 0x554
    239a:	4586      	cmp	lr, r0
    239c:	bf96      	itet	ls
    239e:	ea4f 4e93 	movls.w	lr, r3, lsr #18
    23a2:	f04f 0e7e 	movhi.w	lr, #126	; 0x7e
    23a6:	f10e 0e7c 	addls.w	lr, lr, #124	; 0x7c
    23aa:	eb05 0cce 	add.w	ip, r5, lr, lsl #3
    23ae:	f8dc 0008 	ldr.w	r0, [ip, #8]
    23b2:	4560      	cmp	r0, ip
    23b4:	d10d      	bne.n	23d2 <_malloc_r+0x1a6>
    23b6:	2301      	movs	r3, #1
    23b8:	ea4f 0eae 	mov.w	lr, lr, asr #2
    23bc:	fa03 fe0e 	lsl.w	lr, r3, lr
    23c0:	686b      	ldr	r3, [r5, #4]
    23c2:	ea43 030e 	orr.w	r3, r3, lr
    23c6:	606b      	str	r3, [r5, #4]
    23c8:	4603      	mov	r3, r0
    23ca:	e009      	b.n	23e0 <_malloc_r+0x1b4>
    23cc:	6880      	ldr	r0, [r0, #8]
    23ce:	4560      	cmp	r0, ip
    23d0:	d005      	beq.n	23de <_malloc_r+0x1b2>
    23d2:	f8d0 e004 	ldr.w	lr, [r0, #4]
    23d6:	f02e 0e03 	bic.w	lr, lr, #3
    23da:	4573      	cmp	r3, lr
    23dc:	d3f6      	bcc.n	23cc <_malloc_r+0x1a0>
    23de:	68c3      	ldr	r3, [r0, #12]
    23e0:	60f3      	str	r3, [r6, #12]
    23e2:	60b0      	str	r0, [r6, #8]
    23e4:	609e      	str	r6, [r3, #8]
    23e6:	60c6      	str	r6, [r0, #12]
    23e8:	2001      	movs	r0, #1
    23ea:	108b      	asrs	r3, r1, #2
    23ec:	fa10 f303 	lsls.w	r3, r0, r3
    23f0:	6868      	ldr	r0, [r5, #4]
    23f2:	4283      	cmp	r3, r0
    23f4:	d862      	bhi.n	24bc <_malloc_r+0x290>
    23f6:	4203      	tst	r3, r0
    23f8:	d105      	bne.n	2406 <_malloc_r+0x1da>
    23fa:	f021 0103 	bic.w	r1, r1, #3
    23fe:	005b      	lsls	r3, r3, #1
    2400:	3104      	adds	r1, #4
    2402:	4203      	tst	r3, r0
    2404:	d0fb      	beq.n	23fe <_malloc_r+0x1d2>
    2406:	eb05 09c1 	add.w	r9, r5, r1, lsl #3
    240a:	468e      	mov	lr, r1
    240c:	46cc      	mov	ip, r9
    240e:	f8dc 600c 	ldr.w	r6, [ip, #12]
    2412:	e02a      	b.n	246a <_malloc_r+0x23e>
    2414:	6870      	ldr	r0, [r6, #4]
    2416:	f020 0803 	bic.w	r8, r0, #3
    241a:	ebc4 0008 	rsb	r0, r4, r8
    241e:	280f      	cmp	r0, #15
    2420:	dd11      	ble.n	2446 <_malloc_r+0x21a>
    2422:	1933      	adds	r3, r6, r4
    2424:	68f1      	ldr	r1, [r6, #12]
    2426:	f044 0401 	orr.w	r4, r4, #1
    242a:	6074      	str	r4, [r6, #4]
    242c:	f856 4f08 	ldr.w	r4, [r6, #8]!
    2430:	5018      	str	r0, [r3, r0]
    2432:	60e1      	str	r1, [r4, #12]
    2434:	608c      	str	r4, [r1, #8]
    2436:	60d3      	str	r3, [r2, #12]
    2438:	6093      	str	r3, [r2, #8]
    243a:	60da      	str	r2, [r3, #12]
    243c:	609a      	str	r2, [r3, #8]
    243e:	f040 0201 	orr.w	r2, r0, #1
    2442:	605a      	str	r2, [r3, #4]
    2444:	e00c      	b.n	2460 <_malloc_r+0x234>
    2446:	2800      	cmp	r0, #0
    2448:	db0e      	blt.n	2468 <_malloc_r+0x23c>
    244a:	eb06 0308 	add.w	r3, r6, r8
    244e:	685a      	ldr	r2, [r3, #4]
    2450:	f042 0201 	orr.w	r2, r2, #1
    2454:	605a      	str	r2, [r3, #4]
    2456:	68f3      	ldr	r3, [r6, #12]
    2458:	f856 2f08 	ldr.w	r2, [r6, #8]!
    245c:	60d3      	str	r3, [r2, #12]
    245e:	609a      	str	r2, [r3, #8]
    2460:	4638      	mov	r0, r7
    2462:	f000 f919 	bl	2698 <__malloc_unlock>
    2466:	e0d8      	b.n	261a <_malloc_r+0x3ee>
    2468:	68f6      	ldr	r6, [r6, #12]
    246a:	4566      	cmp	r6, ip
    246c:	d1d2      	bne.n	2414 <_malloc_r+0x1e8>
    246e:	f10e 0e01 	add.w	lr, lr, #1
    2472:	f01e 0f03 	tst.w	lr, #3
    2476:	d101      	bne.n	247c <_malloc_r+0x250>
    2478:	4648      	mov	r0, r9
    247a:	e002      	b.n	2482 <_malloc_r+0x256>
    247c:	f10c 0c08 	add.w	ip, ip, #8
    2480:	e7c5      	b.n	240e <_malloc_r+0x1e2>
    2482:	f011 0f03 	tst.w	r1, #3
    2486:	d104      	bne.n	2492 <_malloc_r+0x266>
    2488:	6869      	ldr	r1, [r5, #4]
    248a:	ea21 0103 	bic.w	r1, r1, r3
    248e:	6069      	str	r1, [r5, #4]
    2490:	e006      	b.n	24a0 <_malloc_r+0x274>
    2492:	4606      	mov	r6, r0
    2494:	f856 0908 	ldr.w	r0, [r6], #-8
    2498:	42b0      	cmp	r0, r6
    249a:	d101      	bne.n	24a0 <_malloc_r+0x274>
    249c:	3901      	subs	r1, #1
    249e:	e7f0      	b.n	2482 <_malloc_r+0x256>
    24a0:	6868      	ldr	r0, [r5, #4]
    24a2:	005b      	lsls	r3, r3, #1
    24a4:	4283      	cmp	r3, r0
    24a6:	d809      	bhi.n	24bc <_malloc_r+0x290>
    24a8:	b143      	cbz	r3, 24bc <_malloc_r+0x290>
    24aa:	4671      	mov	r1, lr
    24ac:	e001      	b.n	24b2 <_malloc_r+0x286>
    24ae:	3104      	adds	r1, #4
    24b0:	005b      	lsls	r3, r3, #1
    24b2:	4203      	tst	r3, r0
    24b4:	d1a7      	bne.n	2406 <_malloc_r+0x1da>
    24b6:	e7fa      	b.n	24ae <_malloc_r+0x282>
    24b8:	10000110 	.word	0x10000110
    24bc:	f8d5 8008 	ldr.w	r8, [r5, #8]
    24c0:	f8d8 3004 	ldr.w	r3, [r8, #4]
    24c4:	f023 0903 	bic.w	r9, r3, #3
    24c8:	45a1      	cmp	r9, r4
    24ca:	d304      	bcc.n	24d6 <_malloc_r+0x2aa>
    24cc:	ebc4 0309 	rsb	r3, r4, r9
    24d0:	2b0f      	cmp	r3, #15
    24d2:	f300 8095 	bgt.w	2600 <_malloc_r+0x3d4>
    24d6:	4b52      	ldr	r3, [pc, #328]	; (2620 <_malloc_r+0x3f4>)
    24d8:	4638      	mov	r0, r7
    24da:	681b      	ldr	r3, [r3, #0]
    24dc:	f103 0a10 	add.w	sl, r3, #16
    24e0:	4b50      	ldr	r3, [pc, #320]	; (2624 <_malloc_r+0x3f8>)
    24e2:	44a2      	add	sl, r4
    24e4:	681a      	ldr	r2, [r3, #0]
    24e6:	9301      	str	r3, [sp, #4]
    24e8:	f1b2 3fff 	cmp.w	r2, #4294967295
    24ec:	bf1c      	itt	ne
    24ee:	f10a 0a7f 	addne.w	sl, sl, #127	; 0x7f
    24f2:	f02a 0a7f 	bicne.w	sl, sl, #127	; 0x7f
    24f6:	4651      	mov	r1, sl
    24f8:	f000 faa4 	bl	2a44 <_sbrk_r>
    24fc:	9b01      	ldr	r3, [sp, #4]
    24fe:	f1b0 3fff 	cmp.w	r0, #4294967295
    2502:	4606      	mov	r6, r0
    2504:	d06e      	beq.n	25e4 <_malloc_r+0x3b8>
    2506:	eb08 0209 	add.w	r2, r8, r9
    250a:	4290      	cmp	r0, r2
    250c:	d201      	bcs.n	2512 <_malloc_r+0x2e6>
    250e:	45a8      	cmp	r8, r5
    2510:	d168      	bne.n	25e4 <_malloc_r+0x3b8>
    2512:	4945      	ldr	r1, [pc, #276]	; (2628 <_malloc_r+0x3fc>)
    2514:	4296      	cmp	r6, r2
    2516:	468b      	mov	fp, r1
    2518:	6808      	ldr	r0, [r1, #0]
    251a:	4450      	add	r0, sl
    251c:	6008      	str	r0, [r1, #0]
    251e:	d108      	bne.n	2532 <_malloc_r+0x306>
    2520:	f016 0f7f 	tst.w	r6, #127	; 0x7f
    2524:	d105      	bne.n	2532 <_malloc_r+0x306>
    2526:	68ab      	ldr	r3, [r5, #8]
    2528:	44d1      	add	r9, sl
    252a:	f049 0201 	orr.w	r2, r9, #1
    252e:	605a      	str	r2, [r3, #4]
    2530:	e04c      	b.n	25cc <_malloc_r+0x3a0>
    2532:	681b      	ldr	r3, [r3, #0]
    2534:	f1b3 3fff 	cmp.w	r3, #4294967295
    2538:	d102      	bne.n	2540 <_malloc_r+0x314>
    253a:	4b3a      	ldr	r3, [pc, #232]	; (2624 <_malloc_r+0x3f8>)
    253c:	601e      	str	r6, [r3, #0]
    253e:	e003      	b.n	2548 <_malloc_r+0x31c>
    2540:	1830      	adds	r0, r6, r0
    2542:	1a82      	subs	r2, r0, r2
    2544:	f8cb 2000 	str.w	r2, [fp]
    2548:	f016 0307 	ands.w	r3, r6, #7
    254c:	4638      	mov	r0, r7
    254e:	bf1c      	itt	ne
    2550:	f1c3 0308 	rsbne	r3, r3, #8
    2554:	18f6      	addne	r6, r6, r3
    2556:	3380      	adds	r3, #128	; 0x80
    2558:	44b2      	add	sl, r6
    255a:	f00a 0a7f 	and.w	sl, sl, #127	; 0x7f
    255e:	ebca 0a03 	rsb	sl, sl, r3
    2562:	4651      	mov	r1, sl
    2564:	f000 fa6e 	bl	2a44 <_sbrk_r>
    2568:	f8db 3000 	ldr.w	r3, [fp]
    256c:	60ae      	str	r6, [r5, #8]
    256e:	f1b0 3fff 	cmp.w	r0, #4294967295
    2572:	bf04      	itt	eq
    2574:	4630      	moveq	r0, r6
    2576:	f04f 0a00 	moveq.w	sl, #0
    257a:	1b80      	subs	r0, r0, r6
    257c:	45a8      	cmp	r8, r5
    257e:	4450      	add	r0, sl
    2580:	4453      	add	r3, sl
    2582:	f040 0001 	orr.w	r0, r0, #1
    2586:	f8cb 3000 	str.w	r3, [fp]
    258a:	6070      	str	r0, [r6, #4]
    258c:	d01e      	beq.n	25cc <_malloc_r+0x3a0>
    258e:	f1b9 0f0f 	cmp.w	r9, #15
    2592:	d802      	bhi.n	259a <_malloc_r+0x36e>
    2594:	2301      	movs	r3, #1
    2596:	6073      	str	r3, [r6, #4]
    2598:	e024      	b.n	25e4 <_malloc_r+0x3b8>
    259a:	f8d8 3004 	ldr.w	r3, [r8, #4]
    259e:	f1a9 090c 	sub.w	r9, r9, #12
    25a2:	f029 0907 	bic.w	r9, r9, #7
    25a6:	2205      	movs	r2, #5
    25a8:	f003 0301 	and.w	r3, r3, #1
    25ac:	f1b9 0f0f 	cmp.w	r9, #15
    25b0:	ea49 0303 	orr.w	r3, r9, r3
    25b4:	f8c8 3004 	str.w	r3, [r8, #4]
    25b8:	eb08 0309 	add.w	r3, r8, r9
    25bc:	605a      	str	r2, [r3, #4]
    25be:	609a      	str	r2, [r3, #8]
    25c0:	d904      	bls.n	25cc <_malloc_r+0x3a0>
    25c2:	4638      	mov	r0, r7
    25c4:	f108 0108 	add.w	r1, r8, #8
    25c8:	f005 fa34 	bl	7a34 <_free_r>
    25cc:	4a17      	ldr	r2, [pc, #92]	; (262c <_malloc_r+0x400>)
    25ce:	f8db 3000 	ldr.w	r3, [fp]
    25d2:	6811      	ldr	r1, [r2, #0]
    25d4:	428b      	cmp	r3, r1
    25d6:	bf88      	it	hi
    25d8:	6013      	strhi	r3, [r2, #0]
    25da:	4a15      	ldr	r2, [pc, #84]	; (2630 <_malloc_r+0x404>)
    25dc:	6811      	ldr	r1, [r2, #0]
    25de:	428b      	cmp	r3, r1
    25e0:	bf88      	it	hi
    25e2:	6013      	strhi	r3, [r2, #0]
    25e4:	68ab      	ldr	r3, [r5, #8]
    25e6:	685b      	ldr	r3, [r3, #4]
    25e8:	f023 0303 	bic.w	r3, r3, #3
    25ec:	42a3      	cmp	r3, r4
    25ee:	d302      	bcc.n	25f6 <_malloc_r+0x3ca>
    25f0:	1b1b      	subs	r3, r3, r4
    25f2:	2b0f      	cmp	r3, #15
    25f4:	dc04      	bgt.n	2600 <_malloc_r+0x3d4>
    25f6:	4638      	mov	r0, r7
    25f8:	f000 f84e 	bl	2698 <__malloc_unlock>
    25fc:	2600      	movs	r6, #0
    25fe:	e00c      	b.n	261a <_malloc_r+0x3ee>
    2600:	68ae      	ldr	r6, [r5, #8]
    2602:	f044 0201 	orr.w	r2, r4, #1
    2606:	f043 0301 	orr.w	r3, r3, #1
    260a:	1934      	adds	r4, r6, r4
    260c:	60ac      	str	r4, [r5, #8]
    260e:	6072      	str	r2, [r6, #4]
    2610:	6063      	str	r3, [r4, #4]
    2612:	4638      	mov	r0, r7
    2614:	3608      	adds	r6, #8
    2616:	f000 f83f 	bl	2698 <__malloc_unlock>
    261a:	4630      	mov	r0, r6
    261c:	e8bd 8ffe 	ldmia.w	sp!, {r1, r2, r3, r4, r5, r6, r7, r8, r9, sl, fp, pc}
    2620:	10000608 	.word	0x10000608
    2624:	1000051c 	.word	0x1000051c
    2628:	1000060c 	.word	0x1000060c
    262c:	10000604 	.word	0x10000604
    2630:	10000600 	.word	0x10000600

00002634 <memchr>:
    2634:	b510      	push	{r4, lr}
    2636:	b2c9      	uxtb	r1, r1
    2638:	e003      	b.n	2642 <memchr+0xe>
    263a:	f810 4b01 	ldrb.w	r4, [r0], #1
    263e:	428c      	cmp	r4, r1
    2640:	d004      	beq.n	264c <memchr+0x18>
    2642:	3a01      	subs	r2, #1
    2644:	4603      	mov	r3, r0
    2646:	d2f8      	bcs.n	263a <memchr+0x6>
    2648:	2000      	movs	r0, #0
    264a:	bd10      	pop	{r4, pc}
    264c:	4618      	mov	r0, r3
    264e:	bd10      	pop	{r4, pc}

00002650 <memcpy>:
    2650:	b510      	push	{r4, lr}
    2652:	1882      	adds	r2, r0, r2
    2654:	4603      	mov	r3, r0
    2656:	e003      	b.n	2660 <memcpy+0x10>
    2658:	f811 4b01 	ldrb.w	r4, [r1], #1
    265c:	f803 4b01 	strb.w	r4, [r3], #1
    2660:	4293      	cmp	r3, r2
    2662:	d3f9      	bcc.n	2658 <memcpy+0x8>
    2664:	bd10      	pop	{r4, pc}

00002666 <memmove>:
    2666:	4281      	cmp	r1, r0
    2668:	b510      	push	{r4, lr}
    266a:	4604      	mov	r4, r0
    266c:	d210      	bcs.n	2690 <memmove+0x2a>
    266e:	188b      	adds	r3, r1, r2
    2670:	4298      	cmp	r0, r3
    2672:	d20d      	bcs.n	2690 <memmove+0x2a>
    2674:	4619      	mov	r1, r3
    2676:	1883      	adds	r3, r0, r2
    2678:	e003      	b.n	2682 <memmove+0x1c>
    267a:	f811 4d01 	ldrb.w	r4, [r1, #-1]!
    267e:	f803 4d01 	strb.w	r4, [r3, #-1]!
    2682:	3a01      	subs	r2, #1
    2684:	d2f9      	bcs.n	267a <memmove+0x14>
    2686:	bd10      	pop	{r4, pc}
    2688:	f811 3b01 	ldrb.w	r3, [r1], #1
    268c:	f804 3b01 	strb.w	r3, [r4], #1
    2690:	3a01      	subs	r2, #1
    2692:	d2f9      	bcs.n	2688 <memmove+0x22>
    2694:	bd10      	pop	{r4, pc}

00002696 <__malloc_lock>:
    2696:	4770      	bx	lr

00002698 <__malloc_unlock>:
    2698:	4770      	bx	lr
	...

0000269c <printf>:
    269c:	b40f      	push	{r0, r1, r2, r3}
    269e:	4b0a      	ldr	r3, [pc, #40]	; (26c8 <printf+0x2c>)
    26a0:	b513      	push	{r0, r1, r4, lr}
    26a2:	681c      	ldr	r4, [r3, #0]
    26a4:	b124      	cbz	r4, 26b0 <printf+0x14>
    26a6:	69a3      	ldr	r3, [r4, #24]
    26a8:	b913      	cbnz	r3, 26b0 <printf+0x14>
    26aa:	4620      	mov	r0, r4
    26ac:	f005 f892 	bl	77d4 <__sinit>
    26b0:	ab05      	add	r3, sp, #20
    26b2:	4620      	mov	r0, r4
    26b4:	68a1      	ldr	r1, [r4, #8]
    26b6:	9a04      	ldr	r2, [sp, #16]
    26b8:	9301      	str	r3, [sp, #4]
    26ba:	f002 f95f 	bl	497c <_vfprintf_r>
    26be:	e8bd 401c 	ldmia.w	sp!, {r2, r3, r4, lr}
    26c2:	b004      	add	sp, #16
    26c4:	4770      	bx	lr
    26c6:	bf00      	nop
    26c8:	1000010c 	.word	0x1000010c

000026cc <_puts_r>:
    26cc:	b530      	push	{r4, r5, lr}
    26ce:	4604      	mov	r4, r0
    26d0:	b089      	sub	sp, #36	; 0x24
    26d2:	4608      	mov	r0, r1
    26d4:	460d      	mov	r5, r1
    26d6:	f000 fac5 	bl	2c64 <strlen>
    26da:	4b16      	ldr	r3, [pc, #88]	; (2734 <_puts_r+0x68>)
    26dc:	9501      	str	r5, [sp, #4]
    26de:	9303      	str	r3, [sp, #12]
    26e0:	2301      	movs	r3, #1
    26e2:	9304      	str	r3, [sp, #16]
    26e4:	9002      	str	r0, [sp, #8]
    26e6:	18c0      	adds	r0, r0, r3
    26e8:	ab01      	add	r3, sp, #4
    26ea:	9007      	str	r0, [sp, #28]
    26ec:	9305      	str	r3, [sp, #20]
    26ee:	2302      	movs	r3, #2
    26f0:	9306      	str	r3, [sp, #24]
    26f2:	b124      	cbz	r4, 26fe <_puts_r+0x32>
    26f4:	69a3      	ldr	r3, [r4, #24]
    26f6:	b913      	cbnz	r3, 26fe <_puts_r+0x32>
    26f8:	4620      	mov	r0, r4
    26fa:	f005 f86b 	bl	77d4 <__sinit>
    26fe:	4b0e      	ldr	r3, [pc, #56]	; (2738 <_puts_r+0x6c>)
    2700:	681b      	ldr	r3, [r3, #0]
    2702:	689b      	ldr	r3, [r3, #8]
    2704:	899a      	ldrh	r2, [r3, #12]
    2706:	f412 5f00 	tst.w	r2, #8192	; 0x2000
    270a:	d106      	bne.n	271a <_puts_r+0x4e>
    270c:	f442 5200 	orr.w	r2, r2, #8192	; 0x2000
    2710:	819a      	strh	r2, [r3, #12]
    2712:	6e5a      	ldr	r2, [r3, #100]	; 0x64
    2714:	f422 5200 	bic.w	r2, r2, #8192	; 0x2000
    2718:	665a      	str	r2, [r3, #100]	; 0x64
    271a:	4620      	mov	r0, r4
    271c:	68a1      	ldr	r1, [r4, #8]
    271e:	aa05      	add	r2, sp, #20
    2720:	f7ff fbae 	bl	1e80 <__sfvwrite_r>
    2724:	2800      	cmp	r0, #0
    2726:	bf0c      	ite	eq
    2728:	200a      	moveq	r0, #10
    272a:	f04f 30ff 	movne.w	r0, #4294967295
    272e:	b009      	add	sp, #36	; 0x24
    2730:	bd30      	pop	{r4, r5, pc}
    2732:	bf00      	nop
    2734:	0000c170 	.word	0x0000c170
    2738:	1000010c 	.word	0x1000010c

0000273c <puts>:
    273c:	4b02      	ldr	r3, [pc, #8]	; (2748 <puts+0xc>)
    273e:	4601      	mov	r1, r0
    2740:	6818      	ldr	r0, [r3, #0]
    2742:	f7ff bfc3 	b.w	26cc <_puts_r>
    2746:	bf00      	nop
    2748:	1000010c 	.word	0x1000010c

0000274c <_realloc_r>:
    274c:	e92d 4ff7 	stmdb	sp!, {r0, r1, r2, r4, r5, r6, r7, r8, r9, sl, fp, lr}
    2750:	4681      	mov	r9, r0
    2752:	4617      	mov	r7, r2
    2754:	460e      	mov	r6, r1
    2756:	b929      	cbnz	r1, 2764 <_realloc_r+0x18>
    2758:	4611      	mov	r1, r2
    275a:	b003      	add	sp, #12
    275c:	e8bd 4ff0 	ldmia.w	sp!, {r4, r5, r6, r7, r8, r9, sl, fp, lr}
    2760:	f7ff bd64 	b.w	222c <_malloc_r>
    2764:	f107 050b 	add.w	r5, r7, #11
    2768:	f7ff ff95 	bl	2696 <__malloc_lock>
    276c:	f1a6 0a08 	sub.w	sl, r6, #8
    2770:	2d16      	cmp	r5, #22
    2772:	f8da 2004 	ldr.w	r2, [sl, #4]
    2776:	d903      	bls.n	2780 <_realloc_r+0x34>
    2778:	f035 0507 	bics.w	r5, r5, #7
    277c:	d501      	bpl.n	2782 <_realloc_r+0x36>
    277e:	e002      	b.n	2786 <_realloc_r+0x3a>
    2780:	2510      	movs	r5, #16
    2782:	42bd      	cmp	r5, r7
    2784:	d204      	bcs.n	2790 <_realloc_r+0x44>
    2786:	230c      	movs	r3, #12
    2788:	2700      	movs	r7, #0
    278a:	f8c9 3000 	str.w	r3, [r9]
    278e:	e155      	b.n	2a3c <_realloc_r+0x2f0>
    2790:	f022 0b03 	bic.w	fp, r2, #3
    2794:	45ab      	cmp	fp, r5
    2796:	f280 8126 	bge.w	29e6 <_realloc_r+0x29a>
    279a:	4b9f      	ldr	r3, [pc, #636]	; (2a18 <_realloc_r+0x2cc>)
    279c:	eb0a 010b 	add.w	r1, sl, fp
    27a0:	f8d3 e008 	ldr.w	lr, [r3, #8]
    27a4:	4571      	cmp	r1, lr
    27a6:	d007      	beq.n	27b8 <_realloc_r+0x6c>
    27a8:	6848      	ldr	r0, [r1, #4]
    27aa:	f020 0001 	bic.w	r0, r0, #1
    27ae:	1808      	adds	r0, r1, r0
    27b0:	6840      	ldr	r0, [r0, #4]
    27b2:	f010 0f01 	tst.w	r0, #1
    27b6:	d125      	bne.n	2804 <_realloc_r+0xb8>
    27b8:	6848      	ldr	r0, [r1, #4]
    27ba:	4571      	cmp	r1, lr
    27bc:	f020 0003 	bic.w	r0, r0, #3
    27c0:	eb00 080b 	add.w	r8, r0, fp
    27c4:	d117      	bne.n	27f6 <_realloc_r+0xaa>
    27c6:	f105 0410 	add.w	r4, r5, #16
    27ca:	45a0      	cmp	r8, r4
    27cc:	db1c      	blt.n	2808 <_realloc_r+0xbc>
    27ce:	eb0a 0205 	add.w	r2, sl, r5
    27d2:	ebc5 0808 	rsb	r8, r5, r8
    27d6:	609a      	str	r2, [r3, #8]
    27d8:	f048 0301 	orr.w	r3, r8, #1
    27dc:	6053      	str	r3, [r2, #4]
    27de:	4648      	mov	r0, r9
    27e0:	f8da 3004 	ldr.w	r3, [sl, #4]
    27e4:	4637      	mov	r7, r6
    27e6:	f003 0301 	and.w	r3, r3, #1
    27ea:	431d      	orrs	r5, r3
    27ec:	f8ca 5004 	str.w	r5, [sl, #4]
    27f0:	f7ff ff52 	bl	2698 <__malloc_unlock>
    27f4:	e122      	b.n	2a3c <_realloc_r+0x2f0>
    27f6:	45a8      	cmp	r8, r5
    27f8:	db06      	blt.n	2808 <_realloc_r+0xbc>
    27fa:	68cb      	ldr	r3, [r1, #12]
    27fc:	688a      	ldr	r2, [r1, #8]
    27fe:	60d3      	str	r3, [r2, #12]
    2800:	609a      	str	r2, [r3, #8]
    2802:	e0f1      	b.n	29e8 <_realloc_r+0x29c>
    2804:	2000      	movs	r0, #0
    2806:	4601      	mov	r1, r0
    2808:	f012 0f01 	tst.w	r2, #1
    280c:	f040 809c 	bne.w	2948 <_realloc_r+0x1fc>
    2810:	f856 4c08 	ldr.w	r4, [r6, #-8]
    2814:	ebc4 040a 	rsb	r4, r4, sl
    2818:	6862      	ldr	r2, [r4, #4]
    281a:	f022 0203 	bic.w	r2, r2, #3
    281e:	2900      	cmp	r1, #0
    2820:	d057      	beq.n	28d2 <_realloc_r+0x186>
    2822:	4571      	cmp	r1, lr
    2824:	eb02 080b 	add.w	r8, r2, fp
    2828:	d14b      	bne.n	28c2 <_realloc_r+0x176>
    282a:	4480      	add	r8, r0
    282c:	f105 0110 	add.w	r1, r5, #16
    2830:	4588      	cmp	r8, r1
    2832:	db4e      	blt.n	28d2 <_realloc_r+0x186>
    2834:	4627      	mov	r7, r4
    2836:	68e2      	ldr	r2, [r4, #12]
    2838:	f857 1f08 	ldr.w	r1, [r7, #8]!
    283c:	60ca      	str	r2, [r1, #12]
    283e:	6091      	str	r1, [r2, #8]
    2840:	f1ab 0204 	sub.w	r2, fp, #4
    2844:	2a24      	cmp	r2, #36	; 0x24
    2846:	d829      	bhi.n	289c <_realloc_r+0x150>
    2848:	2a13      	cmp	r2, #19
    284a:	4639      	mov	r1, r7
    284c:	d91b      	bls.n	2886 <_realloc_r+0x13a>
    284e:	4630      	mov	r0, r6
    2850:	f850 1b04 	ldr.w	r1, [r0], #4
    2854:	60a1      	str	r1, [r4, #8]
    2856:	6871      	ldr	r1, [r6, #4]
    2858:	1d06      	adds	r6, r0, #4
    285a:	2a1b      	cmp	r2, #27
    285c:	60e1      	str	r1, [r4, #12]
    285e:	f104 0110 	add.w	r1, r4, #16
    2862:	d910      	bls.n	2886 <_realloc_r+0x13a>
    2864:	6841      	ldr	r1, [r0, #4]
    2866:	1d30      	adds	r0, r6, #4
    2868:	6121      	str	r1, [r4, #16]
    286a:	6871      	ldr	r1, [r6, #4]
    286c:	3608      	adds	r6, #8
    286e:	2a24      	cmp	r2, #36	; 0x24
    2870:	6161      	str	r1, [r4, #20]
    2872:	f104 0118 	add.w	r1, r4, #24
    2876:	d106      	bne.n	2886 <_realloc_r+0x13a>
    2878:	6842      	ldr	r2, [r0, #4]
    287a:	f104 0120 	add.w	r1, r4, #32
    287e:	61a2      	str	r2, [r4, #24]
    2880:	6872      	ldr	r2, [r6, #4]
    2882:	3608      	adds	r6, #8
    2884:	61e2      	str	r2, [r4, #28]
    2886:	4630      	mov	r0, r6
    2888:	460a      	mov	r2, r1
    288a:	f850 eb04 	ldr.w	lr, [r0], #4
    288e:	f842 eb04 	str.w	lr, [r2], #4
    2892:	6876      	ldr	r6, [r6, #4]
    2894:	604e      	str	r6, [r1, #4]
    2896:	6841      	ldr	r1, [r0, #4]
    2898:	6051      	str	r1, [r2, #4]
    289a:	e005      	b.n	28a8 <_realloc_r+0x15c>
    289c:	4638      	mov	r0, r7
    289e:	4631      	mov	r1, r6
    28a0:	9301      	str	r3, [sp, #4]
    28a2:	f7ff fee0 	bl	2666 <memmove>
    28a6:	9b01      	ldr	r3, [sp, #4]
    28a8:	1962      	adds	r2, r4, r5
    28aa:	ebc5 0808 	rsb	r8, r5, r8
    28ae:	609a      	str	r2, [r3, #8]
    28b0:	f048 0301 	orr.w	r3, r8, #1
    28b4:	6053      	str	r3, [r2, #4]
    28b6:	6863      	ldr	r3, [r4, #4]
    28b8:	f003 0301 	and.w	r3, r3, #1
    28bc:	431d      	orrs	r5, r3
    28be:	6065      	str	r5, [r4, #4]
    28c0:	e08d      	b.n	29de <_realloc_r+0x292>
    28c2:	4480      	add	r8, r0
    28c4:	45a8      	cmp	r8, r5
    28c6:	db04      	blt.n	28d2 <_realloc_r+0x186>
    28c8:	68cb      	ldr	r3, [r1, #12]
    28ca:	688a      	ldr	r2, [r1, #8]
    28cc:	60d3      	str	r3, [r2, #12]
    28ce:	609a      	str	r2, [r3, #8]
    28d0:	e003      	b.n	28da <_realloc_r+0x18e>
    28d2:	eb02 080b 	add.w	r8, r2, fp
    28d6:	45a8      	cmp	r8, r5
    28d8:	db36      	blt.n	2948 <_realloc_r+0x1fc>
    28da:	4620      	mov	r0, r4
    28dc:	68e3      	ldr	r3, [r4, #12]
    28de:	f850 2f08 	ldr.w	r2, [r0, #8]!
    28e2:	60d3      	str	r3, [r2, #12]
    28e4:	609a      	str	r2, [r3, #8]
    28e6:	f1ab 0204 	sub.w	r2, fp, #4
    28ea:	2a24      	cmp	r2, #36	; 0x24
    28ec:	d828      	bhi.n	2940 <_realloc_r+0x1f4>
    28ee:	2a13      	cmp	r2, #19
    28f0:	d91b      	bls.n	292a <_realloc_r+0x1de>
    28f2:	4633      	mov	r3, r6
    28f4:	f104 0010 	add.w	r0, r4, #16
    28f8:	f853 1b04 	ldr.w	r1, [r3], #4
    28fc:	60a1      	str	r1, [r4, #8]
    28fe:	6871      	ldr	r1, [r6, #4]
    2900:	1d1e      	adds	r6, r3, #4
    2902:	2a1b      	cmp	r2, #27
    2904:	60e1      	str	r1, [r4, #12]
    2906:	d910      	bls.n	292a <_realloc_r+0x1de>
    2908:	685b      	ldr	r3, [r3, #4]
    290a:	f104 0018 	add.w	r0, r4, #24
    290e:	6123      	str	r3, [r4, #16]
    2910:	1d33      	adds	r3, r6, #4
    2912:	6871      	ldr	r1, [r6, #4]
    2914:	3608      	adds	r6, #8
    2916:	2a24      	cmp	r2, #36	; 0x24
    2918:	6161      	str	r1, [r4, #20]
    291a:	d106      	bne.n	292a <_realloc_r+0x1de>
    291c:	685b      	ldr	r3, [r3, #4]
    291e:	f104 0020 	add.w	r0, r4, #32
    2922:	61a3      	str	r3, [r4, #24]
    2924:	6873      	ldr	r3, [r6, #4]
    2926:	3608      	adds	r6, #8
    2928:	61e3      	str	r3, [r4, #28]
    292a:	4632      	mov	r2, r6
    292c:	4603      	mov	r3, r0
    292e:	f852 1b04 	ldr.w	r1, [r2], #4
    2932:	f843 1b04 	str.w	r1, [r3], #4
    2936:	6871      	ldr	r1, [r6, #4]
    2938:	6041      	str	r1, [r0, #4]
    293a:	6852      	ldr	r2, [r2, #4]
    293c:	605a      	str	r2, [r3, #4]
    293e:	e054      	b.n	29ea <_realloc_r+0x29e>
    2940:	4631      	mov	r1, r6
    2942:	f7ff fe90 	bl	2666 <memmove>
    2946:	e050      	b.n	29ea <_realloc_r+0x29e>
    2948:	4639      	mov	r1, r7
    294a:	4648      	mov	r0, r9
    294c:	f7ff fc6e 	bl	222c <_malloc_r>
    2950:	4607      	mov	r7, r0
    2952:	2800      	cmp	r0, #0
    2954:	d043      	beq.n	29de <_realloc_r+0x292>
    2956:	f8da 2004 	ldr.w	r2, [sl, #4]
    295a:	f1a0 0308 	sub.w	r3, r0, #8
    295e:	f022 0201 	bic.w	r2, r2, #1
    2962:	4452      	add	r2, sl
    2964:	4293      	cmp	r3, r2
    2966:	d105      	bne.n	2974 <_realloc_r+0x228>
    2968:	f850 3c04 	ldr.w	r3, [r0, #-4]
    296c:	f023 0803 	bic.w	r8, r3, #3
    2970:	44d8      	add	r8, fp
    2972:	e039      	b.n	29e8 <_realloc_r+0x29c>
    2974:	f1ab 0204 	sub.w	r2, fp, #4
    2978:	2a24      	cmp	r2, #36	; 0x24
    297a:	d829      	bhi.n	29d0 <_realloc_r+0x284>
    297c:	2a13      	cmp	r2, #19
    297e:	4631      	mov	r1, r6
    2980:	4603      	mov	r3, r0
    2982:	d91a      	bls.n	29ba <_realloc_r+0x26e>
    2984:	4634      	mov	r4, r6
    2986:	f854 3b04 	ldr.w	r3, [r4], #4
    298a:	1d21      	adds	r1, r4, #4
    298c:	f840 3b04 	str.w	r3, [r0], #4
    2990:	6873      	ldr	r3, [r6, #4]
    2992:	607b      	str	r3, [r7, #4]
    2994:	1d03      	adds	r3, r0, #4
    2996:	2a1b      	cmp	r2, #27
    2998:	d90f      	bls.n	29ba <_realloc_r+0x26e>
    299a:	6864      	ldr	r4, [r4, #4]
    299c:	6044      	str	r4, [r0, #4]
    299e:	1d0c      	adds	r4, r1, #4
    29a0:	6849      	ldr	r1, [r1, #4]
    29a2:	1d18      	adds	r0, r3, #4
    29a4:	6059      	str	r1, [r3, #4]
    29a6:	3308      	adds	r3, #8
    29a8:	1d21      	adds	r1, r4, #4
    29aa:	2a24      	cmp	r2, #36	; 0x24
    29ac:	d105      	bne.n	29ba <_realloc_r+0x26e>
    29ae:	6862      	ldr	r2, [r4, #4]
    29b0:	6042      	str	r2, [r0, #4]
    29b2:	684a      	ldr	r2, [r1, #4]
    29b4:	3108      	adds	r1, #8
    29b6:	605a      	str	r2, [r3, #4]
    29b8:	3308      	adds	r3, #8
    29ba:	4608      	mov	r0, r1
    29bc:	461a      	mov	r2, r3
    29be:	f850 4b04 	ldr.w	r4, [r0], #4
    29c2:	f842 4b04 	str.w	r4, [r2], #4
    29c6:	6849      	ldr	r1, [r1, #4]
    29c8:	6059      	str	r1, [r3, #4]
    29ca:	6843      	ldr	r3, [r0, #4]
    29cc:	6053      	str	r3, [r2, #4]
    29ce:	e002      	b.n	29d6 <_realloc_r+0x28a>
    29d0:	4631      	mov	r1, r6
    29d2:	f7ff fe48 	bl	2666 <memmove>
    29d6:	4648      	mov	r0, r9
    29d8:	4631      	mov	r1, r6
    29da:	f005 f82b 	bl	7a34 <_free_r>
    29de:	4648      	mov	r0, r9
    29e0:	f7ff fe5a 	bl	2698 <__malloc_unlock>
    29e4:	e02a      	b.n	2a3c <_realloc_r+0x2f0>
    29e6:	46d8      	mov	r8, fp
    29e8:	4654      	mov	r4, sl
    29ea:	ebc5 0308 	rsb	r3, r5, r8
    29ee:	6862      	ldr	r2, [r4, #4]
    29f0:	2b0f      	cmp	r3, #15
    29f2:	d913      	bls.n	2a1c <_realloc_r+0x2d0>
    29f4:	1961      	adds	r1, r4, r5
    29f6:	f002 0201 	and.w	r2, r2, #1
    29fa:	4315      	orrs	r5, r2
    29fc:	f043 0201 	orr.w	r2, r3, #1
    2a00:	18cb      	adds	r3, r1, r3
    2a02:	6065      	str	r5, [r4, #4]
    2a04:	604a      	str	r2, [r1, #4]
    2a06:	4648      	mov	r0, r9
    2a08:	685a      	ldr	r2, [r3, #4]
    2a0a:	3108      	adds	r1, #8
    2a0c:	f042 0201 	orr.w	r2, r2, #1
    2a10:	605a      	str	r2, [r3, #4]
    2a12:	f005 f80f 	bl	7a34 <_free_r>
    2a16:	e00c      	b.n	2a32 <_realloc_r+0x2e6>
    2a18:	10000110 	.word	0x10000110
    2a1c:	eb04 0308 	add.w	r3, r4, r8
    2a20:	f002 0201 	and.w	r2, r2, #1
    2a24:	ea48 0202 	orr.w	r2, r8, r2
    2a28:	6062      	str	r2, [r4, #4]
    2a2a:	685a      	ldr	r2, [r3, #4]
    2a2c:	f042 0201 	orr.w	r2, r2, #1
    2a30:	605a      	str	r2, [r3, #4]
    2a32:	4648      	mov	r0, r9
    2a34:	f104 0708 	add.w	r7, r4, #8
    2a38:	f7ff fe2e 	bl	2698 <__malloc_unlock>
    2a3c:	4638      	mov	r0, r7
    2a3e:	b003      	add	sp, #12
    2a40:	e8bd 8ff0 	ldmia.w	sp!, {r4, r5, r6, r7, r8, r9, sl, fp, pc}

00002a44 <_sbrk_r>:
    2a44:	b538      	push	{r3, r4, r5, lr}
    2a46:	4605      	mov	r5, r0
    2a48:	4c06      	ldr	r4, [pc, #24]	; (2a64 <_sbrk_r+0x20>)
    2a4a:	4608      	mov	r0, r1
    2a4c:	2300      	movs	r3, #0
    2a4e:	6023      	str	r3, [r4, #0]
    2a50:	f7fd fc96 	bl	380 <_sbrk>
    2a54:	f1b0 3fff 	cmp.w	r0, #4294967295
    2a58:	d102      	bne.n	2a60 <_sbrk_r+0x1c>
    2a5a:	6823      	ldr	r3, [r4, #0]
    2a5c:	b103      	cbz	r3, 2a60 <_sbrk_r+0x1c>
    2a5e:	602b      	str	r3, [r5, #0]
    2a60:	bd38      	pop	{r3, r4, r5, pc}
    2a62:	bf00      	nop
    2a64:	10000640 	.word	0x10000640

00002a68 <scanf>:
    2a68:	b40f      	push	{r0, r1, r2, r3}
    2a6a:	b513      	push	{r0, r1, r4, lr}
    2a6c:	4c08      	ldr	r4, [pc, #32]	; (2a90 <scanf+0x28>)
    2a6e:	6820      	ldr	r0, [r4, #0]
    2a70:	b118      	cbz	r0, 2a7a <scanf+0x12>
    2a72:	6983      	ldr	r3, [r0, #24]
    2a74:	b90b      	cbnz	r3, 2a7a <scanf+0x12>
    2a76:	f004 fead 	bl	77d4 <__sinit>
    2a7a:	6820      	ldr	r0, [r4, #0]
    2a7c:	ab05      	add	r3, sp, #20
    2a7e:	9a04      	ldr	r2, [sp, #16]
    2a80:	9301      	str	r3, [sp, #4]
    2a82:	6841      	ldr	r1, [r0, #4]
    2a84:	f003 f860 	bl	5b48 <__svfscanf_r>
    2a88:	e8bd 401c 	ldmia.w	sp!, {r2, r3, r4, lr}
    2a8c:	b004      	add	sp, #16
    2a8e:	4770      	bx	lr
    2a90:	1000010c 	.word	0x1000010c

00002a94 <_raise_r>:
    2a94:	291f      	cmp	r1, #31
    2a96:	b570      	push	{r4, r5, r6, lr}
    2a98:	4605      	mov	r5, r0
    2a9a:	460c      	mov	r4, r1
    2a9c:	d904      	bls.n	2aa8 <_raise_r+0x14>
    2a9e:	2316      	movs	r3, #22
    2aa0:	6003      	str	r3, [r0, #0]
    2aa2:	f04f 30ff 	mov.w	r0, #4294967295
    2aa6:	bd70      	pop	{r4, r5, r6, pc}
    2aa8:	6c42      	ldr	r2, [r0, #68]	; 0x44
    2aaa:	b112      	cbz	r2, 2ab2 <_raise_r+0x1e>
    2aac:	f852 3021 	ldr.w	r3, [r2, r1, lsl #2]
    2ab0:	b94b      	cbnz	r3, 2ac6 <_raise_r+0x32>
    2ab2:	4628      	mov	r0, r5
    2ab4:	f000 f834 	bl	2b20 <_getpid_r>
    2ab8:	4622      	mov	r2, r4
    2aba:	4601      	mov	r1, r0
    2abc:	4628      	mov	r0, r5
    2abe:	e8bd 4070 	ldmia.w	sp!, {r4, r5, r6, lr}
    2ac2:	f000 b81b 	b.w	2afc <_kill_r>
    2ac6:	2b01      	cmp	r3, #1
    2ac8:	d00d      	beq.n	2ae6 <_raise_r+0x52>
    2aca:	f1b3 3fff 	cmp.w	r3, #4294967295
    2ace:	d103      	bne.n	2ad8 <_raise_r+0x44>
    2ad0:	3317      	adds	r3, #23
    2ad2:	6003      	str	r3, [r0, #0]
    2ad4:	2001      	movs	r0, #1
    2ad6:	bd70      	pop	{r4, r5, r6, pc}
    2ad8:	2500      	movs	r5, #0
    2ada:	4608      	mov	r0, r1
    2adc:	f842 5021 	str.w	r5, [r2, r1, lsl #2]
    2ae0:	4798      	blx	r3
    2ae2:	4628      	mov	r0, r5
    2ae4:	bd70      	pop	{r4, r5, r6, pc}
    2ae6:	2000      	movs	r0, #0
    2ae8:	bd70      	pop	{r4, r5, r6, pc}
	...

00002aec <raise>:
    2aec:	4b02      	ldr	r3, [pc, #8]	; (2af8 <raise+0xc>)
    2aee:	4601      	mov	r1, r0
    2af0:	6818      	ldr	r0, [r3, #0]
    2af2:	f7ff bfcf 	b.w	2a94 <_raise_r>
    2af6:	bf00      	nop
    2af8:	1000010c 	.word	0x1000010c

00002afc <_kill_r>:
    2afc:	b538      	push	{r3, r4, r5, lr}
    2afe:	4605      	mov	r5, r0
    2b00:	4c06      	ldr	r4, [pc, #24]	; (2b1c <_kill_r+0x20>)
    2b02:	4608      	mov	r0, r1
    2b04:	4611      	mov	r1, r2
    2b06:	2300      	movs	r3, #0
    2b08:	6023      	str	r3, [r4, #0]
    2b0a:	f7fd fc2b 	bl	364 <_kill>
    2b0e:	f1b0 3fff 	cmp.w	r0, #4294967295
    2b12:	d102      	bne.n	2b1a <_kill_r+0x1e>
    2b14:	6823      	ldr	r3, [r4, #0]
    2b16:	b103      	cbz	r3, 2b1a <_kill_r+0x1e>
    2b18:	602b      	str	r3, [r5, #0]
    2b1a:	bd38      	pop	{r3, r4, r5, pc}
    2b1c:	10000640 	.word	0x10000640

00002b20 <_getpid_r>:
    2b20:	f7fd bc2c 	b.w	37c <_getpid>

00002b24 <sprintf>:
    2b24:	b40e      	push	{r1, r2, r3}
    2b26:	f44f 7102 	mov.w	r1, #520	; 0x208
    2b2a:	b500      	push	{lr}
    2b2c:	b09c      	sub	sp, #112	; 0x70
    2b2e:	ab1d      	add	r3, sp, #116	; 0x74
    2b30:	f8ad 1010 	strh.w	r1, [sp, #16]
    2b34:	f06f 4100 	mvn.w	r1, #2147483648	; 0x80000000
    2b38:	9103      	str	r1, [sp, #12]
    2b3a:	9106      	str	r1, [sp, #24]
    2b3c:	f04f 31ff 	mov.w	r1, #4294967295
    2b40:	f8ad 1012 	strh.w	r1, [sp, #18]
    2b44:	4908      	ldr	r1, [pc, #32]	; (2b68 <sprintf+0x44>)
    2b46:	f853 2b04 	ldr.w	r2, [r3], #4
    2b4a:	9001      	str	r0, [sp, #4]
    2b4c:	9005      	str	r0, [sp, #20]
    2b4e:	6808      	ldr	r0, [r1, #0]
    2b50:	a901      	add	r1, sp, #4
    2b52:	931b      	str	r3, [sp, #108]	; 0x6c
    2b54:	f000 f8a4 	bl	2ca0 <_svfprintf_r>
    2b58:	9b01      	ldr	r3, [sp, #4]
    2b5a:	2200      	movs	r2, #0
    2b5c:	701a      	strb	r2, [r3, #0]
    2b5e:	b01c      	add	sp, #112	; 0x70
    2b60:	f85d eb04 	ldr.w	lr, [sp], #4
    2b64:	b003      	add	sp, #12
    2b66:	4770      	bx	lr
    2b68:	1000010c 	.word	0x1000010c

00002b6c <sscanf>:
    2b6c:	b40e      	push	{r1, r2, r3}
    2b6e:	f44f 7201 	mov.w	r2, #516	; 0x204
    2b72:	b530      	push	{r4, r5, lr}
    2b74:	b09c      	sub	sp, #112	; 0x70
    2b76:	ac1f      	add	r4, sp, #124	; 0x7c
    2b78:	f8ad 2010 	strh.w	r2, [sp, #16]
    2b7c:	f854 5b04 	ldr.w	r5, [r4], #4
    2b80:	9001      	str	r0, [sp, #4]
    2b82:	9005      	str	r0, [sp, #20]
    2b84:	f000 f86e 	bl	2c64 <strlen>
    2b88:	4b0b      	ldr	r3, [pc, #44]	; (2bb8 <sscanf+0x4c>)
    2b8a:	a901      	add	r1, sp, #4
    2b8c:	462a      	mov	r2, r5
    2b8e:	941b      	str	r4, [sp, #108]	; 0x6c
    2b90:	930a      	str	r3, [sp, #40]	; 0x28
    2b92:	2300      	movs	r3, #0
    2b94:	930e      	str	r3, [sp, #56]	; 0x38
    2b96:	9313      	str	r3, [sp, #76]	; 0x4c
    2b98:	f04f 33ff 	mov.w	r3, #4294967295
    2b9c:	f8ad 3012 	strh.w	r3, [sp, #18]
    2ba0:	4b06      	ldr	r3, [pc, #24]	; (2bbc <sscanf+0x50>)
    2ba2:	9002      	str	r0, [sp, #8]
    2ba4:	9006      	str	r0, [sp, #24]
    2ba6:	6818      	ldr	r0, [r3, #0]
    2ba8:	4623      	mov	r3, r4
    2baa:	f001 f8f9 	bl	3da0 <__ssvfscanf_r>
    2bae:	b01c      	add	sp, #112	; 0x70
    2bb0:	e8bd 4030 	ldmia.w	sp!, {r4, r5, lr}
    2bb4:	b003      	add	sp, #12
    2bb6:	4770      	bx	lr
    2bb8:	00002be3 	.word	0x00002be3
    2bbc:	1000010c 	.word	0x1000010c

00002bc0 <__sread>:
    2bc0:	b510      	push	{r4, lr}
    2bc2:	460c      	mov	r4, r1
    2bc4:	f9b1 100e 	ldrsh.w	r1, [r1, #14]
    2bc8:	f005 fd1e 	bl	8608 <_read_r>
    2bcc:	2800      	cmp	r0, #0
    2bce:	db03      	blt.n	2bd8 <__sread+0x18>
    2bd0:	6d63      	ldr	r3, [r4, #84]	; 0x54
    2bd2:	181b      	adds	r3, r3, r0
    2bd4:	6563      	str	r3, [r4, #84]	; 0x54
    2bd6:	bd10      	pop	{r4, pc}
    2bd8:	89a3      	ldrh	r3, [r4, #12]
    2bda:	f423 5380 	bic.w	r3, r3, #4096	; 0x1000
    2bde:	81a3      	strh	r3, [r4, #12]
    2be0:	bd10      	pop	{r4, pc}

00002be2 <__seofread>:
    2be2:	2000      	movs	r0, #0
    2be4:	4770      	bx	lr

00002be6 <__swrite>:
    2be6:	e92d 41f0 	stmdb	sp!, {r4, r5, r6, r7, r8, lr}
    2bea:	461d      	mov	r5, r3
    2bec:	898b      	ldrh	r3, [r1, #12]
    2bee:	4607      	mov	r7, r0
    2bf0:	460c      	mov	r4, r1
    2bf2:	4616      	mov	r6, r2
    2bf4:	f413 7f80 	tst.w	r3, #256	; 0x100
    2bf8:	d005      	beq.n	2c06 <__swrite+0x20>
    2bfa:	f9b1 100e 	ldrsh.w	r1, [r1, #14]
    2bfe:	2200      	movs	r2, #0
    2c00:	2302      	movs	r3, #2
    2c02:	f005 f839 	bl	7c78 <_lseek_r>
    2c06:	89a3      	ldrh	r3, [r4, #12]
    2c08:	4638      	mov	r0, r7
    2c0a:	f9b4 100e 	ldrsh.w	r1, [r4, #14]
    2c0e:	4632      	mov	r2, r6
    2c10:	f423 5380 	bic.w	r3, r3, #4096	; 0x1000
    2c14:	81a3      	strh	r3, [r4, #12]
    2c16:	462b      	mov	r3, r5
    2c18:	e8bd 41f0 	ldmia.w	sp!, {r4, r5, r6, r7, r8, lr}
    2c1c:	f003 bd82 	b.w	6724 <_write_r>

00002c20 <__sseek>:
    2c20:	b510      	push	{r4, lr}
    2c22:	460c      	mov	r4, r1
    2c24:	f9b1 100e 	ldrsh.w	r1, [r1, #14]
    2c28:	f005 f826 	bl	7c78 <_lseek_r>
    2c2c:	89a3      	ldrh	r3, [r4, #12]
    2c2e:	f1b0 3fff 	cmp.w	r0, #4294967295
    2c32:	d103      	bne.n	2c3c <__sseek+0x1c>
    2c34:	f423 5380 	bic.w	r3, r3, #4096	; 0x1000
    2c38:	81a3      	strh	r3, [r4, #12]
    2c3a:	bd10      	pop	{r4, pc}
    2c3c:	f443 5380 	orr.w	r3, r3, #4096	; 0x1000
    2c40:	6560      	str	r0, [r4, #84]	; 0x54
    2c42:	81a3      	strh	r3, [r4, #12]
    2c44:	bd10      	pop	{r4, pc}

00002c46 <__sclose>:
    2c46:	f9b1 100e 	ldrsh.w	r1, [r1, #14]
    2c4a:	f003 be0f 	b.w	686c <_close_r>

00002c4e <strcmp>:
    2c4e:	f810 2b01 	ldrb.w	r2, [r0], #1
    2c52:	f811 3b01 	ldrb.w	r3, [r1], #1
    2c56:	2a01      	cmp	r2, #1
    2c58:	bf28      	it	cs
    2c5a:	429a      	cmpcs	r2, r3
    2c5c:	d0f7      	beq.n	2c4e <strcmp>
    2c5e:	eba2 0003 	sub.w	r0, r2, r3
    2c62:	4770      	bx	lr

00002c64 <strlen>:
    2c64:	4603      	mov	r3, r0
    2c66:	43c0      	mvns	r0, r0
    2c68:	f813 2b01 	ldrb.w	r2, [r3], #1
    2c6c:	2a00      	cmp	r2, #0
    2c6e:	d1fb      	bne.n	2c68 <strlen+0x4>
    2c70:	1818      	adds	r0, r3, r0
    2c72:	4770      	bx	lr

00002c74 <strncmp>:
    2c74:	b570      	push	{r4, r5, r6, lr}
    2c76:	b91a      	cbnz	r2, 2c80 <strncmp+0xc>
    2c78:	e00f      	b.n	2c9a <strncmp+0x26>
    2c7a:	3a01      	subs	r2, #1
    2c7c:	d009      	beq.n	2c92 <strncmp+0x1e>
    2c7e:	b143      	cbz	r3, 2c92 <strncmp+0x1e>
    2c80:	460c      	mov	r4, r1
    2c82:	4605      	mov	r5, r0
    2c84:	b12a      	cbz	r2, 2c92 <strncmp+0x1e>
    2c86:	f810 3b01 	ldrb.w	r3, [r0], #1
    2c8a:	f811 6b01 	ldrb.w	r6, [r1], #1
    2c8e:	42b3      	cmp	r3, r6
    2c90:	d0f3      	beq.n	2c7a <strncmp+0x6>
    2c92:	7828      	ldrb	r0, [r5, #0]
    2c94:	7823      	ldrb	r3, [r4, #0]
    2c96:	1ac0      	subs	r0, r0, r3
    2c98:	bd70      	pop	{r4, r5, r6, pc}
    2c9a:	4610      	mov	r0, r2
    2c9c:	bd70      	pop	{r4, r5, r6, pc}
	...

00002ca0 <_svfprintf_r>:
    2ca0:	e92d 4ff0 	stmdb	sp!, {r4, r5, r6, r7, r8, r9, sl, fp, lr}
    2ca4:	b0bf      	sub	sp, #252	; 0xfc
    2ca6:	460f      	mov	r7, r1
    2ca8:	461e      	mov	r6, r3
    2caa:	4615      	mov	r5, r2
    2cac:	4680      	mov	r8, r0
    2cae:	f004 ffdf 	bl	7c70 <_localeconv_r>
    2cb2:	6800      	ldr	r0, [r0, #0]
    2cb4:	9013      	str	r0, [sp, #76]	; 0x4c
    2cb6:	f7ff ffd5 	bl	2c64 <strlen>
    2cba:	89bb      	ldrh	r3, [r7, #12]
    2cbc:	f013 0f80 	tst.w	r3, #128	; 0x80
    2cc0:	9012      	str	r0, [sp, #72]	; 0x48
    2cc2:	d011      	beq.n	2ce8 <_svfprintf_r+0x48>
    2cc4:	693b      	ldr	r3, [r7, #16]
    2cc6:	b97b      	cbnz	r3, 2ce8 <_svfprintf_r+0x48>
    2cc8:	4640      	mov	r0, r8
    2cca:	2140      	movs	r1, #64	; 0x40
    2ccc:	f7ff faae 	bl	222c <_malloc_r>
    2cd0:	6038      	str	r0, [r7, #0]
    2cd2:	6138      	str	r0, [r7, #16]
    2cd4:	b930      	cbnz	r0, 2ce4 <_svfprintf_r+0x44>
    2cd6:	230c      	movs	r3, #12
    2cd8:	3801      	subs	r0, #1
    2cda:	f8c8 3000 	str.w	r3, [r8]
    2cde:	900f      	str	r0, [sp, #60]	; 0x3c
    2ce0:	f001 b856 	b.w	3d90 <_svfprintf_r+0x10f0>
    2ce4:	2340      	movs	r3, #64	; 0x40
    2ce6:	617b      	str	r3, [r7, #20]
    2ce8:	2300      	movs	r3, #0
    2cea:	ac19      	add	r4, sp, #100	; 0x64
    2cec:	9335      	str	r3, [sp, #212]	; 0xd4
    2cee:	9433      	str	r4, [sp, #204]	; 0xcc
    2cf0:	9334      	str	r3, [sp, #208]	; 0xd0
    2cf2:	950c      	str	r5, [sp, #48]	; 0x30
    2cf4:	930b      	str	r3, [sp, #44]	; 0x2c
    2cf6:	9310      	str	r3, [sp, #64]	; 0x40
    2cf8:	9311      	str	r3, [sp, #68]	; 0x44
    2cfa:	9316      	str	r3, [sp, #88]	; 0x58
    2cfc:	9315      	str	r3, [sp, #84]	; 0x54
    2cfe:	930f      	str	r3, [sp, #60]	; 0x3c
    2d00:	9b0c      	ldr	r3, [sp, #48]	; 0x30
    2d02:	461d      	mov	r5, r3
    2d04:	f813 2b01 	ldrb.w	r2, [r3], #1
    2d08:	b10a      	cbz	r2, 2d0e <_svfprintf_r+0x6e>
    2d0a:	2a25      	cmp	r2, #37	; 0x25
    2d0c:	d1f9      	bne.n	2d02 <_svfprintf_r+0x62>
    2d0e:	990c      	ldr	r1, [sp, #48]	; 0x30
    2d10:	ebb5 0901 	subs.w	r9, r5, r1
    2d14:	d018      	beq.n	2d48 <_svfprintf_r+0xa8>
    2d16:	9b35      	ldr	r3, [sp, #212]	; 0xd4
    2d18:	6021      	str	r1, [r4, #0]
    2d1a:	f8c4 9004 	str.w	r9, [r4, #4]
    2d1e:	444b      	add	r3, r9
    2d20:	9335      	str	r3, [sp, #212]	; 0xd4
    2d22:	9b34      	ldr	r3, [sp, #208]	; 0xd0
    2d24:	3301      	adds	r3, #1
    2d26:	9334      	str	r3, [sp, #208]	; 0xd0
    2d28:	2b07      	cmp	r3, #7
    2d2a:	dc01      	bgt.n	2d30 <_svfprintf_r+0x90>
    2d2c:	3408      	adds	r4, #8
    2d2e:	e008      	b.n	2d42 <_svfprintf_r+0xa2>
    2d30:	4640      	mov	r0, r8
    2d32:	4639      	mov	r1, r7
    2d34:	aa33      	add	r2, sp, #204	; 0xcc
    2d36:	f006 fdeb 	bl	9910 <__ssprint_r>
    2d3a:	2800      	cmp	r0, #0
    2d3c:	f041 801f 	bne.w	3d7e <_svfprintf_r+0x10de>
    2d40:	ac19      	add	r4, sp, #100	; 0x64
    2d42:	9a0f      	ldr	r2, [sp, #60]	; 0x3c
    2d44:	444a      	add	r2, r9
    2d46:	920f      	str	r2, [sp, #60]	; 0x3c
    2d48:	782b      	ldrb	r3, [r5, #0]
    2d4a:	2b00      	cmp	r3, #0
    2d4c:	f001 8010 	beq.w	3d70 <_svfprintf_r+0x10d0>
    2d50:	2300      	movs	r3, #0
    2d52:	3501      	adds	r5, #1
    2d54:	950c      	str	r5, [sp, #48]	; 0x30
    2d56:	461d      	mov	r5, r3
    2d58:	f88d 30f7 	strb.w	r3, [sp, #247]	; 0xf7
    2d5c:	f04f 3cff 	mov.w	ip, #4294967295
    2d60:	930d      	str	r3, [sp, #52]	; 0x34
    2d62:	462a      	mov	r2, r5
    2d64:	9b0c      	ldr	r3, [sp, #48]	; 0x30
    2d66:	e005      	b.n	2d74 <_svfprintf_r+0xd4>
    2d68:	460e      	mov	r6, r1
    2d6a:	e003      	b.n	2d74 <_svfprintf_r+0xd4>
    2d6c:	461e      	mov	r6, r3
    2d6e:	f04f 3cff 	mov.w	ip, #4294967295
    2d72:	460b      	mov	r3, r1
    2d74:	f813 9b01 	ldrb.w	r9, [r3], #1
    2d78:	f1a9 0120 	sub.w	r1, r9, #32
    2d7c:	2958      	cmp	r1, #88	; 0x58
    2d7e:	f200 8412 	bhi.w	35a6 <_svfprintf_r+0x906>
    2d82:	e8df f011 	tbh	[pc, r1, lsl #1]
    2d86:	0059      	.short	0x0059
    2d88:	04100410 	.word	0x04100410
    2d8c:	0410005f 	.word	0x0410005f
    2d90:	04100410 	.word	0x04100410
    2d94:	04100410 	.word	0x04100410
    2d98:	00620410 	.word	0x00620410
    2d9c:	0410006b 	.word	0x0410006b
    2da0:	006f0068 	.word	0x006f0068
    2da4:	00920410 	.word	0x00920410
    2da8:	00950095 	.word	0x00950095
    2dac:	00950095 	.word	0x00950095
    2db0:	00950095 	.word	0x00950095
    2db4:	00950095 	.word	0x00950095
    2db8:	04100095 	.word	0x04100095
    2dbc:	04100410 	.word	0x04100410
    2dc0:	04100410 	.word	0x04100410
    2dc4:	04100410 	.word	0x04100410
    2dc8:	04100410 	.word	0x04100410
    2dcc:	00c00410 	.word	0x00c00410
    2dd0:	041000fd 	.word	0x041000fd
    2dd4:	041000fd 	.word	0x041000fd
    2dd8:	04100410 	.word	0x04100410
    2ddc:	00a40410 	.word	0x00a40410
    2de0:	04100410 	.word	0x04100410
    2de4:	041002a8 	.word	0x041002a8
    2de8:	04100410 	.word	0x04100410
    2dec:	04100410 	.word	0x04100410
    2df0:	04100313 	.word	0x04100313
    2df4:	03450410 	.word	0x03450410
    2df8:	04100410 	.word	0x04100410
    2dfc:	04100410 	.word	0x04100410
    2e00:	04100410 	.word	0x04100410
    2e04:	04100410 	.word	0x04100410
    2e08:	04100410 	.word	0x04100410
    2e0c:	00c500b5 	.word	0x00c500b5
    2e10:	00fd00fd 	.word	0x00fd00fd
    2e14:	00a700fd 	.word	0x00a700fd
    2e18:	041000c5 	.word	0x041000c5
    2e1c:	00aa0410 	.word	0x00aa0410
    2e20:	028a0410 	.word	0x028a0410
    2e24:	02d902ad 	.word	0x02d902ad
    2e28:	041000b2 	.word	0x041000b2
    2e2c:	041002ed 	.word	0x041002ed
    2e30:	04100318 	.word	0x04100318
    2e34:	03400410 	.word	0x03400410
    2e38:	f89d 10f7 	ldrb.w	r1, [sp, #247]	; 0xf7
    2e3c:	2900      	cmp	r1, #0
    2e3e:	d199      	bne.n	2d74 <_svfprintf_r+0xd4>
    2e40:	3120      	adds	r1, #32
    2e42:	e00c      	b.n	2e5e <_svfprintf_r+0x1be>
    2e44:	f045 0501 	orr.w	r5, r5, #1
    2e48:	e794      	b.n	2d74 <_svfprintf_r+0xd4>
    2e4a:	6832      	ldr	r2, [r6, #0]
    2e4c:	1d31      	adds	r1, r6, #4
    2e4e:	2a00      	cmp	r2, #0
    2e50:	da8a      	bge.n	2d68 <_svfprintf_r+0xc8>
    2e52:	4252      	negs	r2, r2
    2e54:	460e      	mov	r6, r1
    2e56:	f045 0504 	orr.w	r5, r5, #4
    2e5a:	e78b      	b.n	2d74 <_svfprintf_r+0xd4>
    2e5c:	212b      	movs	r1, #43	; 0x2b
    2e5e:	f88d 10f7 	strb.w	r1, [sp, #247]	; 0xf7
    2e62:	e787      	b.n	2d74 <_svfprintf_r+0xd4>
    2e64:	4619      	mov	r1, r3
    2e66:	f811 9b01 	ldrb.w	r9, [r1], #1
    2e6a:	f1b9 0f2a 	cmp.w	r9, #42	; 0x2a
    2e6e:	d003      	beq.n	2e78 <_svfprintf_r+0x1d8>
    2e70:	4619      	mov	r1, r3
    2e72:	f04f 0c00 	mov.w	ip, #0
    2e76:	e010      	b.n	2e9a <_svfprintf_r+0x1fa>
    2e78:	f8d6 c000 	ldr.w	ip, [r6]
    2e7c:	1d33      	adds	r3, r6, #4
    2e7e:	f1bc 0f00 	cmp.w	ip, #0
    2e82:	f6ff af73 	blt.w	2d6c <_svfprintf_r+0xcc>
    2e86:	461e      	mov	r6, r3
    2e88:	460b      	mov	r3, r1
    2e8a:	e773      	b.n	2d74 <_svfprintf_r+0xd4>
    2e8c:	f04f 090a 	mov.w	r9, #10
    2e90:	fb09 0c0c 	mla	ip, r9, ip, r0
    2e94:	f891 9001 	ldrb.w	r9, [r1, #1]
    2e98:	4619      	mov	r1, r3
    2e9a:	f1a9 0030 	sub.w	r0, r9, #48	; 0x30
    2e9e:	3301      	adds	r3, #1
    2ea0:	2809      	cmp	r0, #9
    2ea2:	d9f3      	bls.n	2e8c <_svfprintf_r+0x1ec>
    2ea4:	ea4c 7cec 	orr.w	ip, ip, ip, asr #31
    2ea8:	e766      	b.n	2d78 <_svfprintf_r+0xd8>
    2eaa:	f045 0580 	orr.w	r5, r5, #128	; 0x80
    2eae:	e761      	b.n	2d74 <_svfprintf_r+0xd4>
    2eb0:	4619      	mov	r1, r3
    2eb2:	2200      	movs	r2, #0
    2eb4:	230a      	movs	r3, #10
    2eb6:	f1a9 0930 	sub.w	r9, r9, #48	; 0x30
    2eba:	fb03 9202 	mla	r2, r3, r2, r9
    2ebe:	f811 9b01 	ldrb.w	r9, [r1], #1
    2ec2:	f1a9 0030 	sub.w	r0, r9, #48	; 0x30
    2ec6:	460b      	mov	r3, r1
    2ec8:	2809      	cmp	r0, #9
    2eca:	d9f3      	bls.n	2eb4 <_svfprintf_r+0x214>
    2ecc:	e754      	b.n	2d78 <_svfprintf_r+0xd8>
    2ece:	f045 0508 	orr.w	r5, r5, #8
    2ed2:	e74f      	b.n	2d74 <_svfprintf_r+0xd4>
    2ed4:	f045 0540 	orr.w	r5, r5, #64	; 0x40
    2ed8:	e74c      	b.n	2d74 <_svfprintf_r+0xd4>
    2eda:	7819      	ldrb	r1, [r3, #0]
    2edc:	296c      	cmp	r1, #108	; 0x6c
    2ede:	d101      	bne.n	2ee4 <_svfprintf_r+0x244>
    2ee0:	3301      	adds	r3, #1
    2ee2:	e002      	b.n	2eea <_svfprintf_r+0x24a>
    2ee4:	f045 0510 	orr.w	r5, r5, #16
    2ee8:	e744      	b.n	2d74 <_svfprintf_r+0xd4>
    2eea:	f045 0520 	orr.w	r5, r5, #32
    2eee:	e741      	b.n	2d74 <_svfprintf_r+0xd4>
    2ef0:	930c      	str	r3, [sp, #48]	; 0x30
    2ef2:	f04f 0c00 	mov.w	ip, #0
    2ef6:	6833      	ldr	r3, [r6, #0]
    2ef8:	3604      	adds	r6, #4
    2efa:	920d      	str	r2, [sp, #52]	; 0x34
    2efc:	f88d c0f7 	strb.w	ip, [sp, #247]	; 0xf7
    2f00:	f88d 30a4 	strb.w	r3, [sp, #164]	; 0xa4
    2f04:	e35b      	b.n	35be <_svfprintf_r+0x91e>
    2f06:	930c      	str	r3, [sp, #48]	; 0x30
    2f08:	f045 0510 	orr.w	r5, r5, #16
    2f0c:	920d      	str	r2, [sp, #52]	; 0x34
    2f0e:	e001      	b.n	2f14 <_svfprintf_r+0x274>
    2f10:	930c      	str	r3, [sp, #48]	; 0x30
    2f12:	920d      	str	r2, [sp, #52]	; 0x34
    2f14:	f015 0f20 	tst.w	r5, #32
    2f18:	d009      	beq.n	2f2e <_svfprintf_r+0x28e>
    2f1a:	3607      	adds	r6, #7
    2f1c:	f026 0307 	bic.w	r3, r6, #7
    2f20:	f103 0608 	add.w	r6, r3, #8
    2f24:	e9d3 0100 	ldrd	r0, r1, [r3]
    2f28:	e9cd 0108 	strd	r0, r1, [sp, #32]
    2f2c:	e016      	b.n	2f5c <_svfprintf_r+0x2bc>
    2f2e:	f015 0f10 	tst.w	r5, #16
    2f32:	f106 0304 	add.w	r3, r6, #4
    2f36:	d001      	beq.n	2f3c <_svfprintf_r+0x29c>
    2f38:	6832      	ldr	r2, [r6, #0]
    2f3a:	e009      	b.n	2f50 <_svfprintf_r+0x2b0>
    2f3c:	f015 0f40 	tst.w	r5, #64	; 0x40
    2f40:	6832      	ldr	r2, [r6, #0]
    2f42:	d005      	beq.n	2f50 <_svfprintf_r+0x2b0>
    2f44:	b212      	sxth	r2, r2
    2f46:	4610      	mov	r0, r2
    2f48:	17d1      	asrs	r1, r2, #31
    2f4a:	e9cd 0108 	strd	r0, r1, [sp, #32]
    2f4e:	e004      	b.n	2f5a <_svfprintf_r+0x2ba>
    2f50:	4692      	mov	sl, r2
    2f52:	ea4f 7be2 	mov.w	fp, r2, asr #31
    2f56:	e9cd ab08 	strd	sl, fp, [sp, #32]
    2f5a:	461e      	mov	r6, r3
    2f5c:	e9dd 0108 	ldrd	r0, r1, [sp, #32]
    2f60:	2800      	cmp	r0, #0
    2f62:	f171 0100 	sbcs.w	r1, r1, #0
    2f66:	f280 828e 	bge.w	3486 <_svfprintf_r+0x7e6>
    2f6a:	e9dd 2308 	ldrd	r2, r3, [sp, #32]
    2f6e:	4252      	negs	r2, r2
    2f70:	eb63 0343 	sbc.w	r3, r3, r3, lsl #1
    2f74:	e9cd 2308 	strd	r2, r3, [sp, #32]
    2f78:	232d      	movs	r3, #45	; 0x2d
    2f7a:	f88d 30f7 	strb.w	r3, [sp, #247]	; 0xf7
    2f7e:	e282      	b.n	3486 <_svfprintf_r+0x7e6>
    2f80:	930c      	str	r3, [sp, #48]	; 0x30
    2f82:	1df3      	adds	r3, r6, #7
    2f84:	f015 0f08 	tst.w	r5, #8
    2f88:	f023 0307 	bic.w	r3, r3, #7
    2f8c:	920d      	str	r2, [sp, #52]	; 0x34
    2f8e:	f103 0608 	add.w	r6, r3, #8
    2f92:	bf14      	ite	ne
    2f94:	6818      	ldrne	r0, [r3, #0]
    2f96:	6819      	ldreq	r1, [r3, #0]
    2f98:	f8cd 9038 	str.w	r9, [sp, #56]	; 0x38
    2f9c:	bf14      	ite	ne
    2f9e:	9010      	strne	r0, [sp, #64]	; 0x40
    2fa0:	9110      	streq	r1, [sp, #64]	; 0x40
    2fa2:	685b      	ldr	r3, [r3, #4]
    2fa4:	9810      	ldr	r0, [sp, #64]	; 0x40
    2fa6:	f8cd c018 	str.w	ip, [sp, #24]
    2faa:	9311      	str	r3, [sp, #68]	; 0x44
    2fac:	9911      	ldr	r1, [sp, #68]	; 0x44
    2fae:	f005 fbd5 	bl	875c <__fpclassifyd>
    2fb2:	f8dd c018 	ldr.w	ip, [sp, #24]
    2fb6:	2801      	cmp	r0, #1
    2fb8:	d119      	bne.n	2fee <_svfprintf_r+0x34e>
    2fba:	9810      	ldr	r0, [sp, #64]	; 0x40
    2fbc:	2200      	movs	r2, #0
    2fbe:	9911      	ldr	r1, [sp, #68]	; 0x44
    2fc0:	2300      	movs	r3, #0
    2fc2:	f008 fb07 	bl	b5d4 <__aeabi_dcmplt>
    2fc6:	b110      	cbz	r0, 2fce <_svfprintf_r+0x32e>
    2fc8:	232d      	movs	r3, #45	; 0x2d
    2fca:	f88d 30f7 	strb.w	r3, [sp, #247]	; 0xf7
    2fce:	4ba9      	ldr	r3, [pc, #676]	; (3274 <_svfprintf_r+0x5d4>)
    2fd0:	f04f 0c00 	mov.w	ip, #0
    2fd4:	4aa8      	ldr	r2, [pc, #672]	; (3278 <_svfprintf_r+0x5d8>)
    2fd6:	f025 0580 	bic.w	r5, r5, #128	; 0x80
    2fda:	f04f 0b03 	mov.w	fp, #3
    2fde:	f8cd c020 	str.w	ip, [sp, #32]
    2fe2:	f1b9 0f47 	cmp.w	r9, #71	; 0x47
    2fe6:	bfcc      	ite	gt
    2fe8:	4692      	movgt	sl, r2
    2fea:	469a      	movle	sl, r3
    2fec:	e2fd      	b.n	35ea <_svfprintf_r+0x94a>
    2fee:	9810      	ldr	r0, [sp, #64]	; 0x40
    2ff0:	9911      	ldr	r1, [sp, #68]	; 0x44
    2ff2:	f8cd c018 	str.w	ip, [sp, #24]
    2ff6:	f005 fbb1 	bl	875c <__fpclassifyd>
    2ffa:	f8dd c018 	ldr.w	ip, [sp, #24]
    2ffe:	b958      	cbnz	r0, 3018 <_svfprintf_r+0x378>
    3000:	4b9e      	ldr	r3, [pc, #632]	; (327c <_svfprintf_r+0x5dc>)
    3002:	f025 0580 	bic.w	r5, r5, #128	; 0x80
    3006:	4a9e      	ldr	r2, [pc, #632]	; (3280 <_svfprintf_r+0x5e0>)
    3008:	f04f 0b03 	mov.w	fp, #3
    300c:	f1b9 0f47 	cmp.w	r9, #71	; 0x47
    3010:	bfcc      	ite	gt
    3012:	4692      	movgt	sl, r2
    3014:	469a      	movle	sl, r3
    3016:	e2dd      	b.n	35d4 <_svfprintf_r+0x934>
    3018:	f1bc 3fff 	cmp.w	ip, #4294967295
    301c:	d00b      	beq.n	3036 <_svfprintf_r+0x396>
    301e:	f1b9 0f67 	cmp.w	r9, #103	; 0x67
    3022:	d002      	beq.n	302a <_svfprintf_r+0x38a>
    3024:	f1b9 0f47 	cmp.w	r9, #71	; 0x47
    3028:	d107      	bne.n	303a <_svfprintf_r+0x39a>
    302a:	f1bc 0f00 	cmp.w	ip, #0
    302e:	bf08      	it	eq
    3030:	f04f 0c01 	moveq.w	ip, #1
    3034:	e001      	b.n	303a <_svfprintf_r+0x39a>
    3036:	f04f 0c06 	mov.w	ip, #6
    303a:	9b11      	ldr	r3, [sp, #68]	; 0x44
    303c:	f445 7580 	orr.w	r5, r5, #256	; 0x100
    3040:	2b00      	cmp	r3, #0
    3042:	da05      	bge.n	3050 <_svfprintf_r+0x3b0>
    3044:	f103 4200 	add.w	r2, r3, #2147483648	; 0x80000000
    3048:	232d      	movs	r3, #45	; 0x2d
    304a:	920b      	str	r2, [sp, #44]	; 0x2c
    304c:	9314      	str	r3, [sp, #80]	; 0x50
    304e:	e003      	b.n	3058 <_svfprintf_r+0x3b8>
    3050:	9811      	ldr	r0, [sp, #68]	; 0x44
    3052:	2100      	movs	r1, #0
    3054:	9114      	str	r1, [sp, #80]	; 0x50
    3056:	900b      	str	r0, [sp, #44]	; 0x2c
    3058:	f1b9 0f66 	cmp.w	r9, #102	; 0x66
    305c:	d00b      	beq.n	3076 <_svfprintf_r+0x3d6>
    305e:	f1b9 0f46 	cmp.w	r9, #70	; 0x46
    3062:	d008      	beq.n	3076 <_svfprintf_r+0x3d6>
    3064:	f1b9 0f65 	cmp.w	r9, #101	; 0x65
    3068:	d002      	beq.n	3070 <_svfprintf_r+0x3d0>
    306a:	f1b9 0f45 	cmp.w	r9, #69	; 0x45
    306e:	d105      	bne.n	307c <_svfprintf_r+0x3dc>
    3070:	f10c 0b01 	add.w	fp, ip, #1
    3074:	e003      	b.n	307e <_svfprintf_r+0x3de>
    3076:	46e3      	mov	fp, ip
    3078:	2303      	movs	r3, #3
    307a:	e001      	b.n	3080 <_svfprintf_r+0x3e0>
    307c:	46e3      	mov	fp, ip
    307e:	2302      	movs	r3, #2
    3080:	9300      	str	r3, [sp, #0]
    3082:	4640      	mov	r0, r8
    3084:	ab3c      	add	r3, sp, #240	; 0xf0
    3086:	9a10      	ldr	r2, [sp, #64]	; 0x40
    3088:	9302      	str	r3, [sp, #8]
    308a:	ab3b      	add	r3, sp, #236	; 0xec
    308c:	9303      	str	r3, [sp, #12]
    308e:	ab3a      	add	r3, sp, #232	; 0xe8
    3090:	9304      	str	r3, [sp, #16]
    3092:	9b0b      	ldr	r3, [sp, #44]	; 0x2c
    3094:	f8cd c018 	str.w	ip, [sp, #24]
    3098:	f8cd b004 	str.w	fp, [sp, #4]
    309c:	f003 fc8c 	bl	69b8 <_dtoa_r>
    30a0:	f1b9 0f67 	cmp.w	r9, #103	; 0x67
    30a4:	f8dd c018 	ldr.w	ip, [sp, #24]
    30a8:	4682      	mov	sl, r0
    30aa:	d002      	beq.n	30b2 <_svfprintf_r+0x412>
    30ac:	f1b9 0f47 	cmp.w	r9, #71	; 0x47
    30b0:	d102      	bne.n	30b8 <_svfprintf_r+0x418>
    30b2:	f015 0f01 	tst.w	r5, #1
    30b6:	d034      	beq.n	3122 <_svfprintf_r+0x482>
    30b8:	f1b9 0f66 	cmp.w	r9, #102	; 0x66
    30bc:	eb0a 020b 	add.w	r2, sl, fp
    30c0:	9208      	str	r2, [sp, #32]
    30c2:	d002      	beq.n	30ca <_svfprintf_r+0x42a>
    30c4:	f1b9 0f46 	cmp.w	r9, #70	; 0x46
    30c8:	d115      	bne.n	30f6 <_svfprintf_r+0x456>
    30ca:	f89a 3000 	ldrb.w	r3, [sl]
    30ce:	2b30      	cmp	r3, #48	; 0x30
    30d0:	d10d      	bne.n	30ee <_svfprintf_r+0x44e>
    30d2:	9810      	ldr	r0, [sp, #64]	; 0x40
    30d4:	2200      	movs	r2, #0
    30d6:	990b      	ldr	r1, [sp, #44]	; 0x2c
    30d8:	2300      	movs	r3, #0
    30da:	f8cd c018 	str.w	ip, [sp, #24]
    30de:	f008 fa6f 	bl	b5c0 <__aeabi_dcmpeq>
    30e2:	f8dd c018 	ldr.w	ip, [sp, #24]
    30e6:	b910      	cbnz	r0, 30ee <_svfprintf_r+0x44e>
    30e8:	f1cb 0301 	rsb	r3, fp, #1
    30ec:	933c      	str	r3, [sp, #240]	; 0xf0
    30ee:	9808      	ldr	r0, [sp, #32]
    30f0:	9b3c      	ldr	r3, [sp, #240]	; 0xf0
    30f2:	18c0      	adds	r0, r0, r3
    30f4:	9008      	str	r0, [sp, #32]
    30f6:	9810      	ldr	r0, [sp, #64]	; 0x40
    30f8:	2200      	movs	r2, #0
    30fa:	990b      	ldr	r1, [sp, #44]	; 0x2c
    30fc:	2300      	movs	r3, #0
    30fe:	f8cd c018 	str.w	ip, [sp, #24]
    3102:	f008 fa5d 	bl	b5c0 <__aeabi_dcmpeq>
    3106:	f8dd c018 	ldr.w	ip, [sp, #24]
    310a:	b130      	cbz	r0, 311a <_svfprintf_r+0x47a>
    310c:	9908      	ldr	r1, [sp, #32]
    310e:	913a      	str	r1, [sp, #232]	; 0xe8
    3110:	e003      	b.n	311a <_svfprintf_r+0x47a>
    3112:	2230      	movs	r2, #48	; 0x30
    3114:	f803 2b01 	strb.w	r2, [r3], #1
    3118:	933a      	str	r3, [sp, #232]	; 0xe8
    311a:	9b3a      	ldr	r3, [sp, #232]	; 0xe8
    311c:	9a08      	ldr	r2, [sp, #32]
    311e:	4293      	cmp	r3, r2
    3120:	d3f7      	bcc.n	3112 <_svfprintf_r+0x472>
    3122:	9b3a      	ldr	r3, [sp, #232]	; 0xe8
    3124:	f1b9 0f67 	cmp.w	r9, #103	; 0x67
    3128:	ebca 0303 	rsb	r3, sl, r3
    312c:	930b      	str	r3, [sp, #44]	; 0x2c
    312e:	9b3c      	ldr	r3, [sp, #240]	; 0xf0
    3130:	d002      	beq.n	3138 <_svfprintf_r+0x498>
    3132:	f1b9 0f47 	cmp.w	r9, #71	; 0x47
    3136:	d108      	bne.n	314a <_svfprintf_r+0x4aa>
    3138:	f113 0f03 	cmn.w	r3, #3
    313c:	469b      	mov	fp, r3
    313e:	db01      	blt.n	3144 <_svfprintf_r+0x4a4>
    3140:	4563      	cmp	r3, ip
    3142:	dd75      	ble.n	3230 <_svfprintf_r+0x590>
    3144:	f1a9 0902 	sub.w	r9, r9, #2
    3148:	e002      	b.n	3150 <_svfprintf_r+0x4b0>
    314a:	f1b9 0f66 	cmp.w	r9, #102	; 0x66
    314e:	d059      	beq.n	3204 <_svfprintf_r+0x564>
    3150:	f103 3bff 	add.w	fp, r3, #4294967295
    3154:	f88d 90e0 	strb.w	r9, [sp, #224]	; 0xe0
    3158:	f1bb 0f00 	cmp.w	fp, #0
    315c:	f8cd b0f0 	str.w	fp, [sp, #240]	; 0xf0
    3160:	da03      	bge.n	316a <_svfprintf_r+0x4ca>
    3162:	f1cb 0b00 	rsb	fp, fp, #0
    3166:	232d      	movs	r3, #45	; 0x2d
    3168:	e000      	b.n	316c <_svfprintf_r+0x4cc>
    316a:	232b      	movs	r3, #43	; 0x2b
    316c:	f1bb 0f09 	cmp.w	fp, #9
    3170:	f88d 30e1 	strb.w	r3, [sp, #225]	; 0xe1
    3174:	dd2f      	ble.n	31d6 <_svfprintf_r+0x536>
    3176:	f10d 03de 	add.w	r3, sp, #222	; 0xde
    317a:	4652      	mov	r2, sl
    317c:	46cc      	mov	ip, r9
    317e:	46a2      	mov	sl, r4
    3180:	461c      	mov	r4, r3
    3182:	4658      	mov	r0, fp
    3184:	210a      	movs	r1, #10
    3186:	9207      	str	r2, [sp, #28]
    3188:	46a1      	mov	r9, r4
    318a:	f8cd c018 	str.w	ip, [sp, #24]
    318e:	f008 f9b1 	bl	b4f4 <__aeabi_idivmod>
    3192:	4658      	mov	r0, fp
    3194:	3130      	adds	r1, #48	; 0x30
    3196:	f804 1901 	strb.w	r1, [r4], #-1
    319a:	210a      	movs	r1, #10
    319c:	f008 f860 	bl	b260 <__aeabi_idiv>
    31a0:	9a07      	ldr	r2, [sp, #28]
    31a2:	f8dd c018 	ldr.w	ip, [sp, #24]
    31a6:	2809      	cmp	r0, #9
    31a8:	4683      	mov	fp, r0
    31aa:	dcea      	bgt.n	3182 <_svfprintf_r+0x4e2>
    31ac:	4654      	mov	r4, sl
    31ae:	4692      	mov	sl, r2
    31b0:	464a      	mov	r2, r9
    31b2:	f100 0b30 	add.w	fp, r0, #48	; 0x30
    31b6:	46e1      	mov	r9, ip
    31b8:	f10d 03e2 	add.w	r3, sp, #226	; 0xe2
    31bc:	f802 bc01 	strb.w	fp, [r2, #-1]
    31c0:	3a01      	subs	r2, #1
    31c2:	e003      	b.n	31cc <_svfprintf_r+0x52c>
    31c4:	f812 1b01 	ldrb.w	r1, [r2], #1
    31c8:	f803 1b01 	strb.w	r1, [r3], #1
    31cc:	f10d 01df 	add.w	r1, sp, #223	; 0xdf
    31d0:	428a      	cmp	r2, r1
    31d2:	d3f7      	bcc.n	31c4 <_svfprintf_r+0x524>
    31d4:	e006      	b.n	31e4 <_svfprintf_r+0x544>
    31d6:	2330      	movs	r3, #48	; 0x30
    31d8:	f88d 30e2 	strb.w	r3, [sp, #226]	; 0xe2
    31dc:	449b      	add	fp, r3
    31de:	ab39      	add	r3, sp, #228	; 0xe4
    31e0:	f88d b0e3 	strb.w	fp, [sp, #227]	; 0xe3
    31e4:	aa38      	add	r2, sp, #224	; 0xe0
    31e6:	1a9a      	subs	r2, r3, r2
    31e8:	9b0b      	ldr	r3, [sp, #44]	; 0x2c
    31ea:	9215      	str	r2, [sp, #84]	; 0x54
    31ec:	2b01      	cmp	r3, #1
    31ee:	eb02 0b03 	add.w	fp, r2, r3
    31f2:	dc02      	bgt.n	31fa <_svfprintf_r+0x55a>
    31f4:	f015 0301 	ands.w	r3, r5, #1
    31f8:	d044      	beq.n	3284 <_svfprintf_r+0x5e4>
    31fa:	2000      	movs	r0, #0
    31fc:	f10b 0b01 	add.w	fp, fp, #1
    3200:	9008      	str	r0, [sp, #32]
    3202:	e040      	b.n	3286 <_svfprintf_r+0x5e6>
    3204:	2b00      	cmp	r3, #0
    3206:	469b      	mov	fp, r3
    3208:	dd09      	ble.n	321e <_svfprintf_r+0x57e>
    320a:	f1bc 0f00 	cmp.w	ip, #0
    320e:	d102      	bne.n	3216 <_svfprintf_r+0x576>
    3210:	f015 0f01 	tst.w	r5, #1
    3214:	d028      	beq.n	3268 <_svfprintf_r+0x5c8>
    3216:	f103 0b01 	add.w	fp, r3, #1
    321a:	44e3      	add	fp, ip
    321c:	e024      	b.n	3268 <_svfprintf_r+0x5c8>
    321e:	f1bc 0f00 	cmp.w	ip, #0
    3222:	d102      	bne.n	322a <_svfprintf_r+0x58a>
    3224:	f015 0f01 	tst.w	r5, #1
    3228:	d019      	beq.n	325e <_svfprintf_r+0x5be>
    322a:	f10c 0b02 	add.w	fp, ip, #2
    322e:	e01b      	b.n	3268 <_svfprintf_r+0x5c8>
    3230:	990b      	ldr	r1, [sp, #44]	; 0x2c
    3232:	428b      	cmp	r3, r1
    3234:	db07      	blt.n	3246 <_svfprintf_r+0x5a6>
    3236:	f015 0f01 	tst.w	r5, #1
    323a:	d013      	beq.n	3264 <_svfprintf_r+0x5c4>
    323c:	2267      	movs	r2, #103	; 0x67
    323e:	f103 0b01 	add.w	fp, r3, #1
    3242:	920e      	str	r2, [sp, #56]	; 0x38
    3244:	e010      	b.n	3268 <_svfprintf_r+0x5c8>
    3246:	2b00      	cmp	r3, #0
    3248:	bfd8      	it	le
    324a:	f1c3 0b02 	rsble	fp, r3, #2
    324e:	9b0b      	ldr	r3, [sp, #44]	; 0x2c
    3250:	bfc8      	it	gt
    3252:	f04f 0b01 	movgt.w	fp, #1
    3256:	2067      	movs	r0, #103	; 0x67
    3258:	449b      	add	fp, r3
    325a:	900e      	str	r0, [sp, #56]	; 0x38
    325c:	e004      	b.n	3268 <_svfprintf_r+0x5c8>
    325e:	f04f 0b01 	mov.w	fp, #1
    3262:	e001      	b.n	3268 <_svfprintf_r+0x5c8>
    3264:	2167      	movs	r1, #103	; 0x67
    3266:	910e      	str	r1, [sp, #56]	; 0x38
    3268:	9a3c      	ldr	r2, [sp, #240]	; 0xf0
    326a:	f8dd 9038 	ldr.w	r9, [sp, #56]	; 0x38
    326e:	9208      	str	r2, [sp, #32]
    3270:	e009      	b.n	3286 <_svfprintf_r+0x5e6>
    3272:	bf00      	nop
    3274:	0000c088 	.word	0x0000c088
    3278:	0000c08c 	.word	0x0000c08c
    327c:	0000c090 	.word	0x0000c090
    3280:	0000c094 	.word	0x0000c094
    3284:	9308      	str	r3, [sp, #32]
    3286:	9b14      	ldr	r3, [sp, #80]	; 0x50
    3288:	2b00      	cmp	r3, #0
    328a:	f000 819f 	beq.w	35cc <_svfprintf_r+0x92c>
    328e:	232d      	movs	r3, #45	; 0x2d
    3290:	f04f 0c00 	mov.w	ip, #0
    3294:	f88d 30f7 	strb.w	r3, [sp, #247]	; 0xf7
    3298:	e1a7      	b.n	35ea <_svfprintf_r+0x94a>
    329a:	f015 0f20 	tst.w	r5, #32
    329e:	930c      	str	r3, [sp, #48]	; 0x30
    32a0:	f106 0104 	add.w	r1, r6, #4
    32a4:	d006      	beq.n	32b4 <_svfprintf_r+0x614>
    32a6:	9d0f      	ldr	r5, [sp, #60]	; 0x3c
    32a8:	6830      	ldr	r0, [r6, #0]
    32aa:	462a      	mov	r2, r5
    32ac:	17eb      	asrs	r3, r5, #31
    32ae:	e9c0 2300 	strd	r2, r3, [r0]
    32b2:	e00e      	b.n	32d2 <_svfprintf_r+0x632>
    32b4:	f015 0f10 	tst.w	r5, #16
    32b8:	d003      	beq.n	32c2 <_svfprintf_r+0x622>
    32ba:	6833      	ldr	r3, [r6, #0]
    32bc:	980f      	ldr	r0, [sp, #60]	; 0x3c
    32be:	6018      	str	r0, [r3, #0]
    32c0:	e007      	b.n	32d2 <_svfprintf_r+0x632>
    32c2:	f015 0f40 	tst.w	r5, #64	; 0x40
    32c6:	6833      	ldr	r3, [r6, #0]
    32c8:	bf15      	itete	ne
    32ca:	9a0f      	ldrne	r2, [sp, #60]	; 0x3c
    32cc:	9d0f      	ldreq	r5, [sp, #60]	; 0x3c
    32ce:	801a      	strhne	r2, [r3, #0]
    32d0:	601d      	streq	r5, [r3, #0]
    32d2:	460e      	mov	r6, r1
    32d4:	e514      	b.n	2d00 <_svfprintf_r+0x60>
    32d6:	930c      	str	r3, [sp, #48]	; 0x30
    32d8:	f045 0510 	orr.w	r5, r5, #16
    32dc:	920d      	str	r2, [sp, #52]	; 0x34
    32de:	e001      	b.n	32e4 <_svfprintf_r+0x644>
    32e0:	930c      	str	r3, [sp, #48]	; 0x30
    32e2:	920d      	str	r2, [sp, #52]	; 0x34
    32e4:	f015 0220 	ands.w	r2, r5, #32
    32e8:	d00a      	beq.n	3300 <_svfprintf_r+0x660>
    32ea:	3607      	adds	r6, #7
    32ec:	2200      	movs	r2, #0
    32ee:	f026 0307 	bic.w	r3, r6, #7
    32f2:	f103 0608 	add.w	r6, r3, #8
    32f6:	e9d3 ab00 	ldrd	sl, fp, [r3]
    32fa:	e9cd ab08 	strd	sl, fp, [sp, #32]
    32fe:	e0be      	b.n	347e <_svfprintf_r+0x7de>
    3300:	f015 0110 	ands.w	r1, r5, #16
    3304:	f106 0304 	add.w	r3, r6, #4
    3308:	d002      	beq.n	3310 <_svfprintf_r+0x670>
    330a:	6831      	ldr	r1, [r6, #0]
    330c:	468a      	mov	sl, r1
    330e:	e00d      	b.n	332c <_svfprintf_r+0x68c>
    3310:	f015 0240 	ands.w	r2, r5, #64	; 0x40
    3314:	6830      	ldr	r0, [r6, #0]
    3316:	d008      	beq.n	332a <_svfprintf_r+0x68a>
    3318:	b280      	uxth	r0, r0
    331a:	f04f 0b00 	mov.w	fp, #0
    331e:	4682      	mov	sl, r0
    3320:	461e      	mov	r6, r3
    3322:	e9cd ab08 	strd	sl, fp, [sp, #32]
    3326:	460a      	mov	r2, r1
    3328:	e0a9      	b.n	347e <_svfprintf_r+0x7de>
    332a:	4682      	mov	sl, r0
    332c:	f04f 0b00 	mov.w	fp, #0
    3330:	461e      	mov	r6, r3
    3332:	e9cd ab08 	strd	sl, fp, [sp, #32]
    3336:	e0a2      	b.n	347e <_svfprintf_r+0x7de>
    3338:	930c      	str	r3, [sp, #48]	; 0x30
    333a:	2100      	movs	r1, #0
    333c:	6833      	ldr	r3, [r6, #0]
    333e:	f04f 0978 	mov.w	r9, #120	; 0x78
    3342:	920d      	str	r2, [sp, #52]	; 0x34
    3344:	f045 0502 	orr.w	r5, r5, #2
    3348:	4618      	mov	r0, r3
    334a:	e9cd 0108 	strd	r0, r1, [sp, #32]
    334e:	49a3      	ldr	r1, [pc, #652]	; (35dc <_svfprintf_r+0x93c>)
    3350:	2330      	movs	r3, #48	; 0x30
    3352:	f88d 90f5 	strb.w	r9, [sp, #245]	; 0xf5
    3356:	3604      	adds	r6, #4
    3358:	f88d 30f4 	strb.w	r3, [sp, #244]	; 0xf4
    335c:	9116      	str	r1, [sp, #88]	; 0x58
    335e:	e08d      	b.n	347c <_svfprintf_r+0x7dc>
    3360:	930c      	str	r3, [sp, #48]	; 0x30
    3362:	2300      	movs	r3, #0
    3364:	920d      	str	r2, [sp, #52]	; 0x34
    3366:	4632      	mov	r2, r6
    3368:	3604      	adds	r6, #4
    336a:	459c      	cmp	ip, r3
    336c:	f88d 30f7 	strb.w	r3, [sp, #247]	; 0xf7
    3370:	f8d2 a000 	ldr.w	sl, [r2]
    3374:	db13      	blt.n	339e <_svfprintf_r+0x6fe>
    3376:	4619      	mov	r1, r3
    3378:	4662      	mov	r2, ip
    337a:	4650      	mov	r0, sl
    337c:	9307      	str	r3, [sp, #28]
    337e:	f8cd c018 	str.w	ip, [sp, #24]
    3382:	f7ff f957 	bl	2634 <memchr>
    3386:	9b07      	ldr	r3, [sp, #28]
    3388:	f8dd c018 	ldr.w	ip, [sp, #24]
    338c:	2800      	cmp	r0, #0
    338e:	f000 8120 	beq.w	35d2 <_svfprintf_r+0x932>
    3392:	ebca 0b00 	rsb	fp, sl, r0
    3396:	45e3      	cmp	fp, ip
    3398:	f300 8124 	bgt.w	35e4 <_svfprintf_r+0x944>
    339c:	e123      	b.n	35e6 <_svfprintf_r+0x946>
    339e:	4650      	mov	r0, sl
    33a0:	9307      	str	r3, [sp, #28]
    33a2:	f7ff fc5f 	bl	2c64 <strlen>
    33a6:	9b07      	ldr	r3, [sp, #28]
    33a8:	4683      	mov	fp, r0
    33aa:	e11c      	b.n	35e6 <_svfprintf_r+0x946>
    33ac:	930c      	str	r3, [sp, #48]	; 0x30
    33ae:	f045 0510 	orr.w	r5, r5, #16
    33b2:	920d      	str	r2, [sp, #52]	; 0x34
    33b4:	e001      	b.n	33ba <_svfprintf_r+0x71a>
    33b6:	930c      	str	r3, [sp, #48]	; 0x30
    33b8:	920d      	str	r2, [sp, #52]	; 0x34
    33ba:	f015 0f20 	tst.w	r5, #32
    33be:	d009      	beq.n	33d4 <_svfprintf_r+0x734>
    33c0:	3607      	adds	r6, #7
    33c2:	f026 0307 	bic.w	r3, r6, #7
    33c6:	f103 0608 	add.w	r6, r3, #8
    33ca:	e9d3 ab00 	ldrd	sl, fp, [r3]
    33ce:	e9cd ab08 	strd	sl, fp, [sp, #32]
    33d2:	e016      	b.n	3402 <_svfprintf_r+0x762>
    33d4:	f015 0f10 	tst.w	r5, #16
    33d8:	f106 0304 	add.w	r3, r6, #4
    33dc:	d001      	beq.n	33e2 <_svfprintf_r+0x742>
    33de:	6832      	ldr	r2, [r6, #0]
    33e0:	e00a      	b.n	33f8 <_svfprintf_r+0x758>
    33e2:	f015 0f40 	tst.w	r5, #64	; 0x40
    33e6:	6832      	ldr	r2, [r6, #0]
    33e8:	d006      	beq.n	33f8 <_svfprintf_r+0x758>
    33ea:	b292      	uxth	r2, r2
    33ec:	f04f 0b00 	mov.w	fp, #0
    33f0:	4692      	mov	sl, r2
    33f2:	e9cd ab08 	strd	sl, fp, [sp, #32]
    33f6:	e003      	b.n	3400 <_svfprintf_r+0x760>
    33f8:	4610      	mov	r0, r2
    33fa:	2100      	movs	r1, #0
    33fc:	e9cd 0108 	strd	r0, r1, [sp, #32]
    3400:	461e      	mov	r6, r3
    3402:	2201      	movs	r2, #1
    3404:	e03b      	b.n	347e <_svfprintf_r+0x7de>
    3406:	4975      	ldr	r1, [pc, #468]	; (35dc <_svfprintf_r+0x93c>)
    3408:	930c      	str	r3, [sp, #48]	; 0x30
    340a:	920d      	str	r2, [sp, #52]	; 0x34
    340c:	9116      	str	r1, [sp, #88]	; 0x58
    340e:	e003      	b.n	3418 <_svfprintf_r+0x778>
    3410:	920d      	str	r2, [sp, #52]	; 0x34
    3412:	4a73      	ldr	r2, [pc, #460]	; (35e0 <_svfprintf_r+0x940>)
    3414:	930c      	str	r3, [sp, #48]	; 0x30
    3416:	9216      	str	r2, [sp, #88]	; 0x58
    3418:	f015 0f20 	tst.w	r5, #32
    341c:	d009      	beq.n	3432 <_svfprintf_r+0x792>
    341e:	3607      	adds	r6, #7
    3420:	f026 0307 	bic.w	r3, r6, #7
    3424:	f103 0608 	add.w	r6, r3, #8
    3428:	e9d3 ab00 	ldrd	sl, fp, [r3]
    342c:	e9cd ab08 	strd	sl, fp, [sp, #32]
    3430:	e016      	b.n	3460 <_svfprintf_r+0x7c0>
    3432:	f015 0f10 	tst.w	r5, #16
    3436:	f106 0304 	add.w	r3, r6, #4
    343a:	d001      	beq.n	3440 <_svfprintf_r+0x7a0>
    343c:	6832      	ldr	r2, [r6, #0]
    343e:	e00a      	b.n	3456 <_svfprintf_r+0x7b6>
    3440:	f015 0f40 	tst.w	r5, #64	; 0x40
    3444:	6832      	ldr	r2, [r6, #0]
    3446:	d006      	beq.n	3456 <_svfprintf_r+0x7b6>
    3448:	b292      	uxth	r2, r2
    344a:	f04f 0b00 	mov.w	fp, #0
    344e:	4692      	mov	sl, r2
    3450:	e9cd ab08 	strd	sl, fp, [sp, #32]
    3454:	e003      	b.n	345e <_svfprintf_r+0x7be>
    3456:	4610      	mov	r0, r2
    3458:	2100      	movs	r1, #0
    345a:	e9cd 0108 	strd	r0, r1, [sp, #32]
    345e:	461e      	mov	r6, r3
    3460:	f015 0f01 	tst.w	r5, #1
    3464:	d00a      	beq.n	347c <_svfprintf_r+0x7dc>
    3466:	e9dd 2308 	ldrd	r2, r3, [sp, #32]
    346a:	4313      	orrs	r3, r2
    346c:	d006      	beq.n	347c <_svfprintf_r+0x7dc>
    346e:	f045 0502 	orr.w	r5, r5, #2
    3472:	2330      	movs	r3, #48	; 0x30
    3474:	f88d 90f5 	strb.w	r9, [sp, #245]	; 0xf5
    3478:	f88d 30f4 	strb.w	r3, [sp, #244]	; 0xf4
    347c:	2202      	movs	r2, #2
    347e:	2300      	movs	r3, #0
    3480:	f88d 30f7 	strb.w	r3, [sp, #247]	; 0xf7
    3484:	e000      	b.n	3488 <_svfprintf_r+0x7e8>
    3486:	2201      	movs	r2, #1
    3488:	e9dd ab08 	ldrd	sl, fp, [sp, #32]
    348c:	f1bc 0f00 	cmp.w	ip, #0
    3490:	bfa8      	it	ge
    3492:	f025 0580 	bicge.w	r5, r5, #128	; 0x80
    3496:	ea5a 0b0b 	orrs.w	fp, sl, fp
    349a:	d102      	bne.n	34a2 <_svfprintf_r+0x802>
    349c:	f1bc 0f00 	cmp.w	ip, #0
    34a0:	d06e      	beq.n	3580 <_svfprintf_r+0x8e0>
    34a2:	2a01      	cmp	r2, #1
    34a4:	d023      	beq.n	34ee <_svfprintf_r+0x84e>
    34a6:	2a02      	cmp	r2, #2
    34a8:	d051      	beq.n	354e <_svfprintf_r+0x8ae>
    34aa:	f10d 03cb 	add.w	r3, sp, #203	; 0xcb
    34ae:	9808      	ldr	r0, [sp, #32]
    34b0:	469a      	mov	sl, r3
    34b2:	f000 0207 	and.w	r2, r0, #7
    34b6:	3230      	adds	r2, #48	; 0x30
    34b8:	701a      	strb	r2, [r3, #0]
    34ba:	9908      	ldr	r1, [sp, #32]
    34bc:	3b01      	subs	r3, #1
    34be:	f8dd b024 	ldr.w	fp, [sp, #36]	; 0x24
    34c2:	08c8      	lsrs	r0, r1, #3
    34c4:	ea40 714b 	orr.w	r1, r0, fp, lsl #29
    34c8:	ea4f 0bdb 	mov.w	fp, fp, lsr #3
    34cc:	9108      	str	r1, [sp, #32]
    34ce:	f8cd b024 	str.w	fp, [sp, #36]	; 0x24
    34d2:	e9dd 0108 	ldrd	r0, r1, [sp, #32]
    34d6:	4301      	orrs	r1, r0
    34d8:	d1e9      	bne.n	34ae <_svfprintf_r+0x80e>
    34da:	f015 0f01 	tst.w	r5, #1
    34de:	d05b      	beq.n	3598 <_svfprintf_r+0x8f8>
    34e0:	2a30      	cmp	r2, #48	; 0x30
    34e2:	d059      	beq.n	3598 <_svfprintf_r+0x8f8>
    34e4:	469a      	mov	sl, r3
    34e6:	2330      	movs	r3, #48	; 0x30
    34e8:	f88a 3000 	strb.w	r3, [sl]
    34ec:	e054      	b.n	3598 <_svfprintf_r+0x8f8>
    34ee:	e9dd 2308 	ldrd	r2, r3, [sp, #32]
    34f2:	2a0a      	cmp	r2, #10
    34f4:	f173 0300 	sbcs.w	r3, r3, #0
    34f8:	d208      	bcs.n	350c <_svfprintf_r+0x86c>
    34fa:	f8dd a020 	ldr.w	sl, [sp, #32]
    34fe:	f10a 0330 	add.w	r3, sl, #48	; 0x30
    3502:	f10d 0acb 	add.w	sl, sp, #203	; 0xcb
    3506:	f88d 30cb 	strb.w	r3, [sp, #203]	; 0xcb
    350a:	e045      	b.n	3598 <_svfprintf_r+0x8f8>
    350c:	f10d 0bcb 	add.w	fp, sp, #203	; 0xcb
    3510:	4623      	mov	r3, r4
    3512:	465c      	mov	r4, fp
    3514:	46cb      	mov	fp, r9
    3516:	4699      	mov	r9, r3
    3518:	e9dd 0108 	ldrd	r0, r1, [sp, #32]
    351c:	220a      	movs	r2, #10
    351e:	2300      	movs	r3, #0
    3520:	f8cd c018 	str.w	ip, [sp, #24]
    3524:	f008 f89e 	bl	b664 <__aeabi_uldivmod>
    3528:	46a2      	mov	sl, r4
    352a:	2300      	movs	r3, #0
    352c:	3230      	adds	r2, #48	; 0x30
    352e:	f804 2901 	strb.w	r2, [r4], #-1
    3532:	e9dd 0108 	ldrd	r0, r1, [sp, #32]
    3536:	220a      	movs	r2, #10
    3538:	f008 f894 	bl	b664 <__aeabi_uldivmod>
    353c:	f8dd c018 	ldr.w	ip, [sp, #24]
    3540:	e9cd 0108 	strd	r0, r1, [sp, #32]
    3544:	4308      	orrs	r0, r1
    3546:	d1e7      	bne.n	3518 <_svfprintf_r+0x878>
    3548:	464c      	mov	r4, r9
    354a:	46d9      	mov	r9, fp
    354c:	e024      	b.n	3598 <_svfprintf_r+0x8f8>
    354e:	f10d 03cb 	add.w	r3, sp, #203	; 0xcb
    3552:	9908      	ldr	r1, [sp, #32]
    3554:	469a      	mov	sl, r3
    3556:	f8dd b058 	ldr.w	fp, [sp, #88]	; 0x58
    355a:	f001 020f 	and.w	r2, r1, #15
    355e:	f81b 2002 	ldrb.w	r2, [fp, r2]
    3562:	f803 2901 	strb.w	r2, [r3], #-1
    3566:	9908      	ldr	r1, [sp, #32]
    3568:	9a09      	ldr	r2, [sp, #36]	; 0x24
    356a:	0908      	lsrs	r0, r1, #4
    356c:	ea40 7102 	orr.w	r1, r0, r2, lsl #28
    3570:	0912      	lsrs	r2, r2, #4
    3572:	9108      	str	r1, [sp, #32]
    3574:	9209      	str	r2, [sp, #36]	; 0x24
    3576:	e9dd 0108 	ldrd	r0, r1, [sp, #32]
    357a:	4301      	orrs	r1, r0
    357c:	d1e9      	bne.n	3552 <_svfprintf_r+0x8b2>
    357e:	e00b      	b.n	3598 <_svfprintf_r+0x8f8>
    3580:	b942      	cbnz	r2, 3594 <_svfprintf_r+0x8f4>
    3582:	f015 0f01 	tst.w	r5, #1
    3586:	d005      	beq.n	3594 <_svfprintf_r+0x8f4>
    3588:	f10d 0af8 	add.w	sl, sp, #248	; 0xf8
    358c:	2330      	movs	r3, #48	; 0x30
    358e:	f80a 3d2d 	strb.w	r3, [sl, #-45]!
    3592:	e001      	b.n	3598 <_svfprintf_r+0x8f8>
    3594:	f10d 0acc 	add.w	sl, sp, #204	; 0xcc
    3598:	f10d 0bcc 	add.w	fp, sp, #204	; 0xcc
    359c:	2200      	movs	r2, #0
    359e:	ebca 0b0b 	rsb	fp, sl, fp
    35a2:	9208      	str	r2, [sp, #32]
    35a4:	e021      	b.n	35ea <_svfprintf_r+0x94a>
    35a6:	930c      	str	r3, [sp, #48]	; 0x30
    35a8:	920d      	str	r2, [sp, #52]	; 0x34
    35aa:	f1b9 0f00 	cmp.w	r9, #0
    35ae:	f000 83df 	beq.w	3d70 <_svfprintf_r+0x10d0>
    35b2:	f04f 0c00 	mov.w	ip, #0
    35b6:	f88d 90a4 	strb.w	r9, [sp, #164]	; 0xa4
    35ba:	f88d c0f7 	strb.w	ip, [sp, #247]	; 0xf7
    35be:	f04f 0b01 	mov.w	fp, #1
    35c2:	f8cd c020 	str.w	ip, [sp, #32]
    35c6:	f10d 0aa4 	add.w	sl, sp, #164	; 0xa4
    35ca:	e00e      	b.n	35ea <_svfprintf_r+0x94a>
    35cc:	f8dd c050 	ldr.w	ip, [sp, #80]	; 0x50
    35d0:	e00b      	b.n	35ea <_svfprintf_r+0x94a>
    35d2:	46e3      	mov	fp, ip
    35d4:	4684      	mov	ip, r0
    35d6:	9008      	str	r0, [sp, #32]
    35d8:	e007      	b.n	35ea <_svfprintf_r+0x94a>
    35da:	bf00      	nop
    35dc:	0000c0a9 	.word	0x0000c0a9
    35e0:	0000c098 	.word	0x0000c098
    35e4:	46e3      	mov	fp, ip
    35e6:	469c      	mov	ip, r3
    35e8:	9308      	str	r3, [sp, #32]
    35ea:	45e3      	cmp	fp, ip
    35ec:	bfac      	ite	ge
    35ee:	465b      	movge	r3, fp
    35f0:	4663      	movlt	r3, ip
    35f2:	930e      	str	r3, [sp, #56]	; 0x38
    35f4:	f89d 30f7 	ldrb.w	r3, [sp, #247]	; 0xf7
    35f8:	b113      	cbz	r3, 3600 <_svfprintf_r+0x960>
    35fa:	980e      	ldr	r0, [sp, #56]	; 0x38
    35fc:	3001      	adds	r0, #1
    35fe:	900e      	str	r0, [sp, #56]	; 0x38
    3600:	f015 0102 	ands.w	r1, r5, #2
    3604:	9114      	str	r1, [sp, #80]	; 0x50
    3606:	d002      	beq.n	360e <_svfprintf_r+0x96e>
    3608:	9a0e      	ldr	r2, [sp, #56]	; 0x38
    360a:	3202      	adds	r2, #2
    360c:	920e      	str	r2, [sp, #56]	; 0x38
    360e:	f015 0384 	ands.w	r3, r5, #132	; 0x84
    3612:	9317      	str	r3, [sp, #92]	; 0x5c
    3614:	d146      	bne.n	36a4 <_svfprintf_r+0xa04>
    3616:	980d      	ldr	r0, [sp, #52]	; 0x34
    3618:	990e      	ldr	r1, [sp, #56]	; 0x38
    361a:	1a43      	subs	r3, r0, r1
    361c:	2b00      	cmp	r3, #0
    361e:	dc1b      	bgt.n	3658 <_svfprintf_r+0x9b8>
    3620:	e040      	b.n	36a4 <_svfprintf_r+0xa04>
    3622:	601a      	str	r2, [r3, #0]
    3624:	2210      	movs	r2, #16
    3626:	1889      	adds	r1, r1, r2
    3628:	605a      	str	r2, [r3, #4]
    362a:	9a34      	ldr	r2, [sp, #208]	; 0xd0
    362c:	9135      	str	r1, [sp, #212]	; 0xd4
    362e:	3201      	adds	r2, #1
    3630:	9234      	str	r2, [sp, #208]	; 0xd0
    3632:	2a07      	cmp	r2, #7
    3634:	dc01      	bgt.n	363a <_svfprintf_r+0x99a>
    3636:	3308      	adds	r3, #8
    3638:	e00c      	b.n	3654 <_svfprintf_r+0x9b4>
    363a:	4640      	mov	r0, r8
    363c:	4639      	mov	r1, r7
    363e:	aa33      	add	r2, sp, #204	; 0xcc
    3640:	f8cd c018 	str.w	ip, [sp, #24]
    3644:	f006 f964 	bl	9910 <__ssprint_r>
    3648:	f8dd c018 	ldr.w	ip, [sp, #24]
    364c:	2800      	cmp	r0, #0
    364e:	f040 8396 	bne.w	3d7e <_svfprintf_r+0x10de>
    3652:	ab19      	add	r3, sp, #100	; 0x64
    3654:	3d10      	subs	r5, #16
    3656:	e004      	b.n	3662 <_svfprintf_r+0x9c2>
    3658:	462a      	mov	r2, r5
    365a:	461d      	mov	r5, r3
    365c:	4623      	mov	r3, r4
    365e:	464c      	mov	r4, r9
    3660:	4691      	mov	r9, r2
    3662:	2d10      	cmp	r5, #16
    3664:	9935      	ldr	r1, [sp, #212]	; 0xd4
    3666:	4a93      	ldr	r2, [pc, #588]	; (38b4 <_svfprintf_r+0xc14>)
    3668:	dcdb      	bgt.n	3622 <_svfprintf_r+0x982>
    366a:	4648      	mov	r0, r9
    366c:	46a1      	mov	r9, r4
    366e:	461c      	mov	r4, r3
    3670:	462b      	mov	r3, r5
    3672:	4605      	mov	r5, r0
    3674:	6063      	str	r3, [r4, #4]
    3676:	18cb      	adds	r3, r1, r3
    3678:	6022      	str	r2, [r4, #0]
    367a:	9335      	str	r3, [sp, #212]	; 0xd4
    367c:	9b34      	ldr	r3, [sp, #208]	; 0xd0
    367e:	3301      	adds	r3, #1
    3680:	9334      	str	r3, [sp, #208]	; 0xd0
    3682:	2b07      	cmp	r3, #7
    3684:	dc01      	bgt.n	368a <_svfprintf_r+0x9ea>
    3686:	3408      	adds	r4, #8
    3688:	e00c      	b.n	36a4 <_svfprintf_r+0xa04>
    368a:	4640      	mov	r0, r8
    368c:	4639      	mov	r1, r7
    368e:	aa33      	add	r2, sp, #204	; 0xcc
    3690:	f8cd c018 	str.w	ip, [sp, #24]
    3694:	f006 f93c 	bl	9910 <__ssprint_r>
    3698:	f8dd c018 	ldr.w	ip, [sp, #24]
    369c:	2800      	cmp	r0, #0
    369e:	f040 836e 	bne.w	3d7e <_svfprintf_r+0x10de>
    36a2:	ac19      	add	r4, sp, #100	; 0x64
    36a4:	f89d 30f7 	ldrb.w	r3, [sp, #247]	; 0xf7
    36a8:	b1db      	cbz	r3, 36e2 <_svfprintf_r+0xa42>
    36aa:	f10d 03f7 	add.w	r3, sp, #247	; 0xf7
    36ae:	6023      	str	r3, [r4, #0]
    36b0:	2301      	movs	r3, #1
    36b2:	6063      	str	r3, [r4, #4]
    36b4:	9b35      	ldr	r3, [sp, #212]	; 0xd4
    36b6:	3301      	adds	r3, #1
    36b8:	9335      	str	r3, [sp, #212]	; 0xd4
    36ba:	9b34      	ldr	r3, [sp, #208]	; 0xd0
    36bc:	3301      	adds	r3, #1
    36be:	9334      	str	r3, [sp, #208]	; 0xd0
    36c0:	2b07      	cmp	r3, #7
    36c2:	dc01      	bgt.n	36c8 <_svfprintf_r+0xa28>
    36c4:	3408      	adds	r4, #8
    36c6:	e00c      	b.n	36e2 <_svfprintf_r+0xa42>
    36c8:	4640      	mov	r0, r8
    36ca:	4639      	mov	r1, r7
    36cc:	aa33      	add	r2, sp, #204	; 0xcc
    36ce:	f8cd c018 	str.w	ip, [sp, #24]
    36d2:	f006 f91d 	bl	9910 <__ssprint_r>
    36d6:	f8dd c018 	ldr.w	ip, [sp, #24]
    36da:	2800      	cmp	r0, #0
    36dc:	f040 834f 	bne.w	3d7e <_svfprintf_r+0x10de>
    36e0:	ac19      	add	r4, sp, #100	; 0x64
    36e2:	9a14      	ldr	r2, [sp, #80]	; 0x50
    36e4:	b1d2      	cbz	r2, 371c <_svfprintf_r+0xa7c>
    36e6:	ab3d      	add	r3, sp, #244	; 0xf4
    36e8:	6023      	str	r3, [r4, #0]
    36ea:	2302      	movs	r3, #2
    36ec:	6063      	str	r3, [r4, #4]
    36ee:	9b35      	ldr	r3, [sp, #212]	; 0xd4
    36f0:	3302      	adds	r3, #2
    36f2:	9335      	str	r3, [sp, #212]	; 0xd4
    36f4:	9b34      	ldr	r3, [sp, #208]	; 0xd0
    36f6:	3301      	adds	r3, #1
    36f8:	9334      	str	r3, [sp, #208]	; 0xd0
    36fa:	2b07      	cmp	r3, #7
    36fc:	dc01      	bgt.n	3702 <_svfprintf_r+0xa62>
    36fe:	3408      	adds	r4, #8
    3700:	e00c      	b.n	371c <_svfprintf_r+0xa7c>
    3702:	4640      	mov	r0, r8
    3704:	4639      	mov	r1, r7
    3706:	aa33      	add	r2, sp, #204	; 0xcc
    3708:	f8cd c018 	str.w	ip, [sp, #24]
    370c:	f006 f900 	bl	9910 <__ssprint_r>
    3710:	f8dd c018 	ldr.w	ip, [sp, #24]
    3714:	2800      	cmp	r0, #0
    3716:	f040 8332 	bne.w	3d7e <_svfprintf_r+0x10de>
    371a:	ac19      	add	r4, sp, #100	; 0x64
    371c:	9b17      	ldr	r3, [sp, #92]	; 0x5c
    371e:	2b80      	cmp	r3, #128	; 0x80
    3720:	d146      	bne.n	37b0 <_svfprintf_r+0xb10>
    3722:	980d      	ldr	r0, [sp, #52]	; 0x34
    3724:	990e      	ldr	r1, [sp, #56]	; 0x38
    3726:	1a43      	subs	r3, r0, r1
    3728:	2b00      	cmp	r3, #0
    372a:	dc1b      	bgt.n	3764 <_svfprintf_r+0xac4>
    372c:	e040      	b.n	37b0 <_svfprintf_r+0xb10>
    372e:	601a      	str	r2, [r3, #0]
    3730:	2210      	movs	r2, #16
    3732:	1889      	adds	r1, r1, r2
    3734:	605a      	str	r2, [r3, #4]
    3736:	9a34      	ldr	r2, [sp, #208]	; 0xd0
    3738:	9135      	str	r1, [sp, #212]	; 0xd4
    373a:	3201      	adds	r2, #1
    373c:	9234      	str	r2, [sp, #208]	; 0xd0
    373e:	2a07      	cmp	r2, #7
    3740:	dc01      	bgt.n	3746 <_svfprintf_r+0xaa6>
    3742:	3308      	adds	r3, #8
    3744:	e00c      	b.n	3760 <_svfprintf_r+0xac0>
    3746:	4640      	mov	r0, r8
    3748:	4639      	mov	r1, r7
    374a:	aa33      	add	r2, sp, #204	; 0xcc
    374c:	f8cd c018 	str.w	ip, [sp, #24]
    3750:	f006 f8de 	bl	9910 <__ssprint_r>
    3754:	f8dd c018 	ldr.w	ip, [sp, #24]
    3758:	2800      	cmp	r0, #0
    375a:	f040 8310 	bne.w	3d7e <_svfprintf_r+0x10de>
    375e:	ab19      	add	r3, sp, #100	; 0x64
    3760:	3d10      	subs	r5, #16
    3762:	e004      	b.n	376e <_svfprintf_r+0xace>
    3764:	462a      	mov	r2, r5
    3766:	461d      	mov	r5, r3
    3768:	4623      	mov	r3, r4
    376a:	464c      	mov	r4, r9
    376c:	4691      	mov	r9, r2
    376e:	2d10      	cmp	r5, #16
    3770:	9935      	ldr	r1, [sp, #212]	; 0xd4
    3772:	4a51      	ldr	r2, [pc, #324]	; (38b8 <_svfprintf_r+0xc18>)
    3774:	dcdb      	bgt.n	372e <_svfprintf_r+0xa8e>
    3776:	4648      	mov	r0, r9
    3778:	46a1      	mov	r9, r4
    377a:	461c      	mov	r4, r3
    377c:	462b      	mov	r3, r5
    377e:	4605      	mov	r5, r0
    3780:	6063      	str	r3, [r4, #4]
    3782:	18cb      	adds	r3, r1, r3
    3784:	6022      	str	r2, [r4, #0]
    3786:	9335      	str	r3, [sp, #212]	; 0xd4
    3788:	9b34      	ldr	r3, [sp, #208]	; 0xd0
    378a:	3301      	adds	r3, #1
    378c:	9334      	str	r3, [sp, #208]	; 0xd0
    378e:	2b07      	cmp	r3, #7
    3790:	dc01      	bgt.n	3796 <_svfprintf_r+0xaf6>
    3792:	3408      	adds	r4, #8
    3794:	e00c      	b.n	37b0 <_svfprintf_r+0xb10>
    3796:	4640      	mov	r0, r8
    3798:	4639      	mov	r1, r7
    379a:	aa33      	add	r2, sp, #204	; 0xcc
    379c:	f8cd c018 	str.w	ip, [sp, #24]
    37a0:	f006 f8b6 	bl	9910 <__ssprint_r>
    37a4:	f8dd c018 	ldr.w	ip, [sp, #24]
    37a8:	2800      	cmp	r0, #0
    37aa:	f040 82e8 	bne.w	3d7e <_svfprintf_r+0x10de>
    37ae:	ac19      	add	r4, sp, #100	; 0x64
    37b0:	ebcb 030c 	rsb	r3, fp, ip
    37b4:	2b00      	cmp	r3, #0
    37b6:	dc17      	bgt.n	37e8 <_svfprintf_r+0xb48>
    37b8:	e038      	b.n	382c <_svfprintf_r+0xb8c>
    37ba:	601a      	str	r2, [r3, #0]
    37bc:	2210      	movs	r2, #16
    37be:	1889      	adds	r1, r1, r2
    37c0:	605a      	str	r2, [r3, #4]
    37c2:	9a34      	ldr	r2, [sp, #208]	; 0xd0
    37c4:	9135      	str	r1, [sp, #212]	; 0xd4
    37c6:	3201      	adds	r2, #1
    37c8:	9234      	str	r2, [sp, #208]	; 0xd0
    37ca:	2a07      	cmp	r2, #7
    37cc:	dc01      	bgt.n	37d2 <_svfprintf_r+0xb32>
    37ce:	3308      	adds	r3, #8
    37d0:	e008      	b.n	37e4 <_svfprintf_r+0xb44>
    37d2:	4640      	mov	r0, r8
    37d4:	4639      	mov	r1, r7
    37d6:	aa33      	add	r2, sp, #204	; 0xcc
    37d8:	f006 f89a 	bl	9910 <__ssprint_r>
    37dc:	2800      	cmp	r0, #0
    37de:	f040 82ce 	bne.w	3d7e <_svfprintf_r+0x10de>
    37e2:	ab19      	add	r3, sp, #100	; 0x64
    37e4:	3d10      	subs	r5, #16
    37e6:	e004      	b.n	37f2 <_svfprintf_r+0xb52>
    37e8:	462a      	mov	r2, r5
    37ea:	461d      	mov	r5, r3
    37ec:	4623      	mov	r3, r4
    37ee:	464c      	mov	r4, r9
    37f0:	4691      	mov	r9, r2
    37f2:	2d10      	cmp	r5, #16
    37f4:	9935      	ldr	r1, [sp, #212]	; 0xd4
    37f6:	4a30      	ldr	r2, [pc, #192]	; (38b8 <_svfprintf_r+0xc18>)
    37f8:	dcdf      	bgt.n	37ba <_svfprintf_r+0xb1a>
    37fa:	4648      	mov	r0, r9
    37fc:	46a1      	mov	r9, r4
    37fe:	461c      	mov	r4, r3
    3800:	462b      	mov	r3, r5
    3802:	4605      	mov	r5, r0
    3804:	6063      	str	r3, [r4, #4]
    3806:	18cb      	adds	r3, r1, r3
    3808:	6022      	str	r2, [r4, #0]
    380a:	9335      	str	r3, [sp, #212]	; 0xd4
    380c:	9b34      	ldr	r3, [sp, #208]	; 0xd0
    380e:	3301      	adds	r3, #1
    3810:	9334      	str	r3, [sp, #208]	; 0xd0
    3812:	2b07      	cmp	r3, #7
    3814:	dc01      	bgt.n	381a <_svfprintf_r+0xb7a>
    3816:	3408      	adds	r4, #8
    3818:	e008      	b.n	382c <_svfprintf_r+0xb8c>
    381a:	4640      	mov	r0, r8
    381c:	4639      	mov	r1, r7
    381e:	aa33      	add	r2, sp, #204	; 0xcc
    3820:	f006 f876 	bl	9910 <__ssprint_r>
    3824:	2800      	cmp	r0, #0
    3826:	f040 82aa 	bne.w	3d7e <_svfprintf_r+0x10de>
    382a:	ac19      	add	r4, sp, #100	; 0x64
    382c:	f415 7f80 	tst.w	r5, #256	; 0x100
    3830:	d106      	bne.n	3840 <_svfprintf_r+0xba0>
    3832:	9b35      	ldr	r3, [sp, #212]	; 0xd4
    3834:	f8c4 a000 	str.w	sl, [r4]
    3838:	f8c4 b004 	str.w	fp, [r4, #4]
    383c:	445b      	add	r3, fp
    383e:	e23f      	b.n	3cc0 <_svfprintf_r+0x1020>
    3840:	f1b9 0f65 	cmp.w	r9, #101	; 0x65
    3844:	f340 81b7 	ble.w	3bb6 <_svfprintf_r+0xf16>
    3848:	9810      	ldr	r0, [sp, #64]	; 0x40
    384a:	2200      	movs	r2, #0
    384c:	9911      	ldr	r1, [sp, #68]	; 0x44
    384e:	2300      	movs	r3, #0
    3850:	f007 feb6 	bl	b5c0 <__aeabi_dcmpeq>
    3854:	2800      	cmp	r0, #0
    3856:	d060      	beq.n	391a <_svfprintf_r+0xc7a>
    3858:	4b18      	ldr	r3, [pc, #96]	; (38bc <_svfprintf_r+0xc1c>)
    385a:	6023      	str	r3, [r4, #0]
    385c:	2301      	movs	r3, #1
    385e:	6063      	str	r3, [r4, #4]
    3860:	9b35      	ldr	r3, [sp, #212]	; 0xd4
    3862:	3301      	adds	r3, #1
    3864:	9335      	str	r3, [sp, #212]	; 0xd4
    3866:	9b34      	ldr	r3, [sp, #208]	; 0xd0
    3868:	3301      	adds	r3, #1
    386a:	9334      	str	r3, [sp, #208]	; 0xd0
    386c:	2b07      	cmp	r3, #7
    386e:	dc01      	bgt.n	3874 <_svfprintf_r+0xbd4>
    3870:	3408      	adds	r4, #8
    3872:	e008      	b.n	3886 <_svfprintf_r+0xbe6>
    3874:	4640      	mov	r0, r8
    3876:	4639      	mov	r1, r7
    3878:	aa33      	add	r2, sp, #204	; 0xcc
    387a:	f006 f849 	bl	9910 <__ssprint_r>
    387e:	2800      	cmp	r0, #0
    3880:	f040 827d 	bne.w	3d7e <_svfprintf_r+0x10de>
    3884:	ac19      	add	r4, sp, #100	; 0x64
    3886:	9b3c      	ldr	r3, [sp, #240]	; 0xf0
    3888:	9a0b      	ldr	r2, [sp, #44]	; 0x2c
    388a:	4293      	cmp	r3, r2
    388c:	db03      	blt.n	3896 <_svfprintf_r+0xbf6>
    388e:	f015 0f01 	tst.w	r5, #1
    3892:	f000 8225 	beq.w	3ce0 <_svfprintf_r+0x1040>
    3896:	9b13      	ldr	r3, [sp, #76]	; 0x4c
    3898:	9812      	ldr	r0, [sp, #72]	; 0x48
    389a:	6023      	str	r3, [r4, #0]
    389c:	9b35      	ldr	r3, [sp, #212]	; 0xd4
    389e:	6060      	str	r0, [r4, #4]
    38a0:	181b      	adds	r3, r3, r0
    38a2:	9335      	str	r3, [sp, #212]	; 0xd4
    38a4:	9b34      	ldr	r3, [sp, #208]	; 0xd0
    38a6:	3301      	adds	r3, #1
    38a8:	9334      	str	r3, [sp, #208]	; 0xd0
    38aa:	2b07      	cmp	r3, #7
    38ac:	dc08      	bgt.n	38c0 <_svfprintf_r+0xc20>
    38ae:	3408      	adds	r4, #8
    38b0:	e00f      	b.n	38d2 <_svfprintf_r+0xc32>
    38b2:	bf00      	nop
    38b4:	0000c0bc 	.word	0x0000c0bc
    38b8:	0000c078 	.word	0x0000c078
    38bc:	0000c0ba 	.word	0x0000c0ba
    38c0:	4640      	mov	r0, r8
    38c2:	4639      	mov	r1, r7
    38c4:	aa33      	add	r2, sp, #204	; 0xcc
    38c6:	f006 f823 	bl	9910 <__ssprint_r>
    38ca:	2800      	cmp	r0, #0
    38cc:	f040 8257 	bne.w	3d7e <_svfprintf_r+0x10de>
    38d0:	ac19      	add	r4, sp, #100	; 0x64
    38d2:	990b      	ldr	r1, [sp, #44]	; 0x2c
    38d4:	f101 39ff 	add.w	r9, r1, #4294967295
    38d8:	f1b9 0f00 	cmp.w	r9, #0
    38dc:	dc17      	bgt.n	390e <_svfprintf_r+0xc6e>
    38de:	e1ff      	b.n	3ce0 <_svfprintf_r+0x1040>
    38e0:	6022      	str	r2, [r4, #0]
    38e2:	2210      	movs	r2, #16
    38e4:	189b      	adds	r3, r3, r2
    38e6:	6062      	str	r2, [r4, #4]
    38e8:	9335      	str	r3, [sp, #212]	; 0xd4
    38ea:	9b34      	ldr	r3, [sp, #208]	; 0xd0
    38ec:	3301      	adds	r3, #1
    38ee:	9334      	str	r3, [sp, #208]	; 0xd0
    38f0:	2b07      	cmp	r3, #7
    38f2:	dc01      	bgt.n	38f8 <_svfprintf_r+0xc58>
    38f4:	3408      	adds	r4, #8
    38f6:	e008      	b.n	390a <_svfprintf_r+0xc6a>
    38f8:	4640      	mov	r0, r8
    38fa:	4639      	mov	r1, r7
    38fc:	aa33      	add	r2, sp, #204	; 0xcc
    38fe:	f006 f807 	bl	9910 <__ssprint_r>
    3902:	2800      	cmp	r0, #0
    3904:	f040 823b 	bne.w	3d7e <_svfprintf_r+0x10de>
    3908:	ac19      	add	r4, sp, #100	; 0x64
    390a:	f1a9 0910 	sub.w	r9, r9, #16
    390e:	f1b9 0f10 	cmp.w	r9, #16
    3912:	9b35      	ldr	r3, [sp, #212]	; 0xd4
    3914:	4a95      	ldr	r2, [pc, #596]	; (3b6c <_svfprintf_r+0xecc>)
    3916:	dce3      	bgt.n	38e0 <_svfprintf_r+0xc40>
    3918:	e148      	b.n	3bac <_svfprintf_r+0xf0c>
    391a:	9b3c      	ldr	r3, [sp, #240]	; 0xf0
    391c:	2b00      	cmp	r3, #0
    391e:	dc79      	bgt.n	3a14 <_svfprintf_r+0xd74>
    3920:	4b93      	ldr	r3, [pc, #588]	; (3b70 <_svfprintf_r+0xed0>)
    3922:	6023      	str	r3, [r4, #0]
    3924:	2301      	movs	r3, #1
    3926:	6063      	str	r3, [r4, #4]
    3928:	9b35      	ldr	r3, [sp, #212]	; 0xd4
    392a:	3301      	adds	r3, #1
    392c:	9335      	str	r3, [sp, #212]	; 0xd4
    392e:	9b34      	ldr	r3, [sp, #208]	; 0xd0
    3930:	3301      	adds	r3, #1
    3932:	9334      	str	r3, [sp, #208]	; 0xd0
    3934:	2b07      	cmp	r3, #7
    3936:	dc01      	bgt.n	393c <_svfprintf_r+0xc9c>
    3938:	3408      	adds	r4, #8
    393a:	e008      	b.n	394e <_svfprintf_r+0xcae>
    393c:	4640      	mov	r0, r8
    393e:	4639      	mov	r1, r7
    3940:	aa33      	add	r2, sp, #204	; 0xcc
    3942:	f005 ffe5 	bl	9910 <__ssprint_r>
    3946:	2800      	cmp	r0, #0
    3948:	f040 8219 	bne.w	3d7e <_svfprintf_r+0x10de>
    394c:	ac19      	add	r4, sp, #100	; 0x64
    394e:	9b3c      	ldr	r3, [sp, #240]	; 0xf0
    3950:	b92b      	cbnz	r3, 395e <_svfprintf_r+0xcbe>
    3952:	9a0b      	ldr	r2, [sp, #44]	; 0x2c
    3954:	b91a      	cbnz	r2, 395e <_svfprintf_r+0xcbe>
    3956:	f015 0f01 	tst.w	r5, #1
    395a:	f000 81c1 	beq.w	3ce0 <_svfprintf_r+0x1040>
    395e:	9b13      	ldr	r3, [sp, #76]	; 0x4c
    3960:	9812      	ldr	r0, [sp, #72]	; 0x48
    3962:	6023      	str	r3, [r4, #0]
    3964:	9b35      	ldr	r3, [sp, #212]	; 0xd4
    3966:	6060      	str	r0, [r4, #4]
    3968:	181b      	adds	r3, r3, r0
    396a:	9335      	str	r3, [sp, #212]	; 0xd4
    396c:	9b34      	ldr	r3, [sp, #208]	; 0xd0
    396e:	3301      	adds	r3, #1
    3970:	9334      	str	r3, [sp, #208]	; 0xd0
    3972:	2b07      	cmp	r3, #7
    3974:	dc02      	bgt.n	397c <_svfprintf_r+0xcdc>
    3976:	f104 0308 	add.w	r3, r4, #8
    397a:	e008      	b.n	398e <_svfprintf_r+0xcee>
    397c:	4640      	mov	r0, r8
    397e:	4639      	mov	r1, r7
    3980:	aa33      	add	r2, sp, #204	; 0xcc
    3982:	f005 ffc5 	bl	9910 <__ssprint_r>
    3986:	2800      	cmp	r0, #0
    3988:	f040 81f9 	bne.w	3d7e <_svfprintf_r+0x10de>
    398c:	ab19      	add	r3, sp, #100	; 0x64
    398e:	9c3c      	ldr	r4, [sp, #240]	; 0xf0
    3990:	4264      	negs	r4, r4
    3992:	2c00      	cmp	r4, #0
    3994:	dc16      	bgt.n	39c4 <_svfprintf_r+0xd24>
    3996:	e02d      	b.n	39f4 <_svfprintf_r+0xd54>
    3998:	6019      	str	r1, [r3, #0]
    399a:	2110      	movs	r1, #16
    399c:	1852      	adds	r2, r2, r1
    399e:	6059      	str	r1, [r3, #4]
    39a0:	9235      	str	r2, [sp, #212]	; 0xd4
    39a2:	9a34      	ldr	r2, [sp, #208]	; 0xd0
    39a4:	3201      	adds	r2, #1
    39a6:	9234      	str	r2, [sp, #208]	; 0xd0
    39a8:	2a07      	cmp	r2, #7
    39aa:	dc01      	bgt.n	39b0 <_svfprintf_r+0xd10>
    39ac:	3308      	adds	r3, #8
    39ae:	e008      	b.n	39c2 <_svfprintf_r+0xd22>
    39b0:	4640      	mov	r0, r8
    39b2:	4639      	mov	r1, r7
    39b4:	aa33      	add	r2, sp, #204	; 0xcc
    39b6:	f005 ffab 	bl	9910 <__ssprint_r>
    39ba:	2800      	cmp	r0, #0
    39bc:	f040 81df 	bne.w	3d7e <_svfprintf_r+0x10de>
    39c0:	ab19      	add	r3, sp, #100	; 0x64
    39c2:	3c10      	subs	r4, #16
    39c4:	2c10      	cmp	r4, #16
    39c6:	9a35      	ldr	r2, [sp, #212]	; 0xd4
    39c8:	4968      	ldr	r1, [pc, #416]	; (3b6c <_svfprintf_r+0xecc>)
    39ca:	dce5      	bgt.n	3998 <_svfprintf_r+0xcf8>
    39cc:	605c      	str	r4, [r3, #4]
    39ce:	1914      	adds	r4, r2, r4
    39d0:	9a34      	ldr	r2, [sp, #208]	; 0xd0
    39d2:	6019      	str	r1, [r3, #0]
    39d4:	3201      	adds	r2, #1
    39d6:	9435      	str	r4, [sp, #212]	; 0xd4
    39d8:	2a07      	cmp	r2, #7
    39da:	9234      	str	r2, [sp, #208]	; 0xd0
    39dc:	dc01      	bgt.n	39e2 <_svfprintf_r+0xd42>
    39de:	3308      	adds	r3, #8
    39e0:	e008      	b.n	39f4 <_svfprintf_r+0xd54>
    39e2:	4640      	mov	r0, r8
    39e4:	4639      	mov	r1, r7
    39e6:	aa33      	add	r2, sp, #204	; 0xcc
    39e8:	f005 ff92 	bl	9910 <__ssprint_r>
    39ec:	2800      	cmp	r0, #0
    39ee:	f040 81c6 	bne.w	3d7e <_svfprintf_r+0x10de>
    39f2:	ab19      	add	r3, sp, #100	; 0x64
    39f4:	990b      	ldr	r1, [sp, #44]	; 0x2c
    39f6:	9a35      	ldr	r2, [sp, #212]	; 0xd4
    39f8:	f8c3 a000 	str.w	sl, [r3]
    39fc:	6059      	str	r1, [r3, #4]
    39fe:	1852      	adds	r2, r2, r1
    3a00:	9235      	str	r2, [sp, #212]	; 0xd4
    3a02:	9a34      	ldr	r2, [sp, #208]	; 0xd0
    3a04:	3201      	adds	r2, #1
    3a06:	9234      	str	r2, [sp, #208]	; 0xd0
    3a08:	2a07      	cmp	r2, #7
    3a0a:	f300 8161 	bgt.w	3cd0 <_svfprintf_r+0x1030>
    3a0e:	f103 0408 	add.w	r4, r3, #8
    3a12:	e165      	b.n	3ce0 <_svfprintf_r+0x1040>
    3a14:	9a0b      	ldr	r2, [sp, #44]	; 0x2c
    3a16:	9b08      	ldr	r3, [sp, #32]
    3a18:	4691      	mov	r9, r2
    3a1a:	eb0a 0b02 	add.w	fp, sl, r2
    3a1e:	4599      	cmp	r9, r3
    3a20:	bfa8      	it	ge
    3a22:	4699      	movge	r9, r3
    3a24:	f1b9 0f00 	cmp.w	r9, #0
    3a28:	dd16      	ble.n	3a58 <_svfprintf_r+0xdb8>
    3a2a:	9b35      	ldr	r3, [sp, #212]	; 0xd4
    3a2c:	f8c4 a000 	str.w	sl, [r4]
    3a30:	f8c4 9004 	str.w	r9, [r4, #4]
    3a34:	444b      	add	r3, r9
    3a36:	9335      	str	r3, [sp, #212]	; 0xd4
    3a38:	9b34      	ldr	r3, [sp, #208]	; 0xd0
    3a3a:	3301      	adds	r3, #1
    3a3c:	9334      	str	r3, [sp, #208]	; 0xd0
    3a3e:	2b07      	cmp	r3, #7
    3a40:	dc01      	bgt.n	3a46 <_svfprintf_r+0xda6>
    3a42:	3408      	adds	r4, #8
    3a44:	e008      	b.n	3a58 <_svfprintf_r+0xdb8>
    3a46:	4640      	mov	r0, r8
    3a48:	4639      	mov	r1, r7
    3a4a:	aa33      	add	r2, sp, #204	; 0xcc
    3a4c:	f005 ff60 	bl	9910 <__ssprint_r>
    3a50:	2800      	cmp	r0, #0
    3a52:	f040 8194 	bne.w	3d7e <_svfprintf_r+0x10de>
    3a56:	ac19      	add	r4, sp, #100	; 0x64
    3a58:	9808      	ldr	r0, [sp, #32]
    3a5a:	ea29 79e9 	bic.w	r9, r9, r9, asr #31
    3a5e:	ebc9 0900 	rsb	r9, r9, r0
    3a62:	f1b9 0f00 	cmp.w	r9, #0
    3a66:	dc17      	bgt.n	3a98 <_svfprintf_r+0xdf8>
    3a68:	e030      	b.n	3acc <_svfprintf_r+0xe2c>
    3a6a:	6022      	str	r2, [r4, #0]
    3a6c:	2210      	movs	r2, #16
    3a6e:	189b      	adds	r3, r3, r2
    3a70:	6062      	str	r2, [r4, #4]
    3a72:	9335      	str	r3, [sp, #212]	; 0xd4
    3a74:	9b34      	ldr	r3, [sp, #208]	; 0xd0
    3a76:	3301      	adds	r3, #1
    3a78:	9334      	str	r3, [sp, #208]	; 0xd0
    3a7a:	2b07      	cmp	r3, #7
    3a7c:	dc01      	bgt.n	3a82 <_svfprintf_r+0xde2>
    3a7e:	3408      	adds	r4, #8
    3a80:	e008      	b.n	3a94 <_svfprintf_r+0xdf4>
    3a82:	4640      	mov	r0, r8
    3a84:	4639      	mov	r1, r7
    3a86:	aa33      	add	r2, sp, #204	; 0xcc
    3a88:	f005 ff42 	bl	9910 <__ssprint_r>
    3a8c:	2800      	cmp	r0, #0
    3a8e:	f040 8176 	bne.w	3d7e <_svfprintf_r+0x10de>
    3a92:	ac19      	add	r4, sp, #100	; 0x64
    3a94:	f1a9 0910 	sub.w	r9, r9, #16
    3a98:	f1b9 0f10 	cmp.w	r9, #16
    3a9c:	9b35      	ldr	r3, [sp, #212]	; 0xd4
    3a9e:	4a33      	ldr	r2, [pc, #204]	; (3b6c <_svfprintf_r+0xecc>)
    3aa0:	dce3      	bgt.n	3a6a <_svfprintf_r+0xdca>
    3aa2:	6022      	str	r2, [r4, #0]
    3aa4:	444b      	add	r3, r9
    3aa6:	f8c4 9004 	str.w	r9, [r4, #4]
    3aaa:	9335      	str	r3, [sp, #212]	; 0xd4
    3aac:	9b34      	ldr	r3, [sp, #208]	; 0xd0
    3aae:	3301      	adds	r3, #1
    3ab0:	9334      	str	r3, [sp, #208]	; 0xd0
    3ab2:	2b07      	cmp	r3, #7
    3ab4:	dc01      	bgt.n	3aba <_svfprintf_r+0xe1a>
    3ab6:	3408      	adds	r4, #8
    3ab8:	e008      	b.n	3acc <_svfprintf_r+0xe2c>
    3aba:	4640      	mov	r0, r8
    3abc:	4639      	mov	r1, r7
    3abe:	aa33      	add	r2, sp, #204	; 0xcc
    3ac0:	f005 ff26 	bl	9910 <__ssprint_r>
    3ac4:	2800      	cmp	r0, #0
    3ac6:	f040 815a 	bne.w	3d7e <_svfprintf_r+0x10de>
    3aca:	ac19      	add	r4, sp, #100	; 0x64
    3acc:	9b3c      	ldr	r3, [sp, #240]	; 0xf0
    3ace:	990b      	ldr	r1, [sp, #44]	; 0x2c
    3ad0:	428b      	cmp	r3, r1
    3ad2:	db02      	blt.n	3ada <_svfprintf_r+0xe3a>
    3ad4:	f015 0f01 	tst.w	r5, #1
    3ad8:	d017      	beq.n	3b0a <_svfprintf_r+0xe6a>
    3ada:	9b12      	ldr	r3, [sp, #72]	; 0x48
    3adc:	9a13      	ldr	r2, [sp, #76]	; 0x4c
    3ade:	9812      	ldr	r0, [sp, #72]	; 0x48
    3ae0:	6063      	str	r3, [r4, #4]
    3ae2:	9b35      	ldr	r3, [sp, #212]	; 0xd4
    3ae4:	6022      	str	r2, [r4, #0]
    3ae6:	181b      	adds	r3, r3, r0
    3ae8:	9335      	str	r3, [sp, #212]	; 0xd4
    3aea:	9b34      	ldr	r3, [sp, #208]	; 0xd0
    3aec:	3301      	adds	r3, #1
    3aee:	9334      	str	r3, [sp, #208]	; 0xd0
    3af0:	2b07      	cmp	r3, #7
    3af2:	dc01      	bgt.n	3af8 <_svfprintf_r+0xe58>
    3af4:	3408      	adds	r4, #8
    3af6:	e008      	b.n	3b0a <_svfprintf_r+0xe6a>
    3af8:	4640      	mov	r0, r8
    3afa:	4639      	mov	r1, r7
    3afc:	aa33      	add	r2, sp, #204	; 0xcc
    3afe:	f005 ff07 	bl	9910 <__ssprint_r>
    3b02:	2800      	cmp	r0, #0
    3b04:	f040 813b 	bne.w	3d7e <_svfprintf_r+0x10de>
    3b08:	ac19      	add	r4, sp, #100	; 0x64
    3b0a:	9908      	ldr	r1, [sp, #32]
    3b0c:	9a3c      	ldr	r2, [sp, #240]	; 0xf0
    3b0e:	980b      	ldr	r0, [sp, #44]	; 0x2c
    3b10:	eb0a 0301 	add.w	r3, sl, r1
    3b14:	ebc3 0b0b 	rsb	fp, r3, fp
    3b18:	ebc2 0900 	rsb	r9, r2, r0
    3b1c:	45cb      	cmp	fp, r9
    3b1e:	bfb8      	it	lt
    3b20:	46d9      	movlt	r9, fp
    3b22:	f1b9 0f00 	cmp.w	r9, #0
    3b26:	dd15      	ble.n	3b54 <_svfprintf_r+0xeb4>
    3b28:	6023      	str	r3, [r4, #0]
    3b2a:	9b35      	ldr	r3, [sp, #212]	; 0xd4
    3b2c:	f8c4 9004 	str.w	r9, [r4, #4]
    3b30:	444b      	add	r3, r9
    3b32:	9335      	str	r3, [sp, #212]	; 0xd4
    3b34:	9b34      	ldr	r3, [sp, #208]	; 0xd0
    3b36:	3301      	adds	r3, #1
    3b38:	9334      	str	r3, [sp, #208]	; 0xd0
    3b3a:	2b07      	cmp	r3, #7
    3b3c:	dc01      	bgt.n	3b42 <_svfprintf_r+0xea2>
    3b3e:	3408      	adds	r4, #8
    3b40:	e008      	b.n	3b54 <_svfprintf_r+0xeb4>
    3b42:	4640      	mov	r0, r8
    3b44:	4639      	mov	r1, r7
    3b46:	aa33      	add	r2, sp, #204	; 0xcc
    3b48:	f005 fee2 	bl	9910 <__ssprint_r>
    3b4c:	2800      	cmp	r0, #0
    3b4e:	f040 8116 	bne.w	3d7e <_svfprintf_r+0x10de>
    3b52:	ac19      	add	r4, sp, #100	; 0x64
    3b54:	9b3c      	ldr	r3, [sp, #240]	; 0xf0
    3b56:	ea29 79e9 	bic.w	r9, r9, r9, asr #31
    3b5a:	990b      	ldr	r1, [sp, #44]	; 0x2c
    3b5c:	1acb      	subs	r3, r1, r3
    3b5e:	ebc9 0903 	rsb	r9, r9, r3
    3b62:	f1b9 0f00 	cmp.w	r9, #0
    3b66:	dc1c      	bgt.n	3ba2 <_svfprintf_r+0xf02>
    3b68:	e0ba      	b.n	3ce0 <_svfprintf_r+0x1040>
    3b6a:	bf00      	nop
    3b6c:	0000c078 	.word	0x0000c078
    3b70:	0000c0ba 	.word	0x0000c0ba
    3b74:	6022      	str	r2, [r4, #0]
    3b76:	2210      	movs	r2, #16
    3b78:	189b      	adds	r3, r3, r2
    3b7a:	6062      	str	r2, [r4, #4]
    3b7c:	9335      	str	r3, [sp, #212]	; 0xd4
    3b7e:	9b34      	ldr	r3, [sp, #208]	; 0xd0
    3b80:	3301      	adds	r3, #1
    3b82:	9334      	str	r3, [sp, #208]	; 0xd0
    3b84:	2b07      	cmp	r3, #7
    3b86:	dc01      	bgt.n	3b8c <_svfprintf_r+0xeec>
    3b88:	3408      	adds	r4, #8
    3b8a:	e008      	b.n	3b9e <_svfprintf_r+0xefe>
    3b8c:	4640      	mov	r0, r8
    3b8e:	4639      	mov	r1, r7
    3b90:	aa33      	add	r2, sp, #204	; 0xcc
    3b92:	f005 febd 	bl	9910 <__ssprint_r>
    3b96:	2800      	cmp	r0, #0
    3b98:	f040 80f1 	bne.w	3d7e <_svfprintf_r+0x10de>
    3b9c:	ac19      	add	r4, sp, #100	; 0x64
    3b9e:	f1a9 0910 	sub.w	r9, r9, #16
    3ba2:	f1b9 0f10 	cmp.w	r9, #16
    3ba6:	9b35      	ldr	r3, [sp, #212]	; 0xd4
    3ba8:	4a7b      	ldr	r2, [pc, #492]	; (3d98 <_svfprintf_r+0x10f8>)
    3baa:	dce3      	bgt.n	3b74 <_svfprintf_r+0xed4>
    3bac:	6022      	str	r2, [r4, #0]
    3bae:	444b      	add	r3, r9
    3bb0:	f8c4 9004 	str.w	r9, [r4, #4]
    3bb4:	e084      	b.n	3cc0 <_svfprintf_r+0x1020>
    3bb6:	9a0b      	ldr	r2, [sp, #44]	; 0x2c
    3bb8:	2a01      	cmp	r2, #1
    3bba:	dc02      	bgt.n	3bc2 <_svfprintf_r+0xf22>
    3bbc:	f015 0f01 	tst.w	r5, #1
    3bc0:	d062      	beq.n	3c88 <_svfprintf_r+0xfe8>
    3bc2:	2301      	movs	r3, #1
    3bc4:	6063      	str	r3, [r4, #4]
    3bc6:	9b35      	ldr	r3, [sp, #212]	; 0xd4
    3bc8:	f8c4 a000 	str.w	sl, [r4]
    3bcc:	3301      	adds	r3, #1
    3bce:	9335      	str	r3, [sp, #212]	; 0xd4
    3bd0:	9b34      	ldr	r3, [sp, #208]	; 0xd0
    3bd2:	3301      	adds	r3, #1
    3bd4:	9334      	str	r3, [sp, #208]	; 0xd0
    3bd6:	2b07      	cmp	r3, #7
    3bd8:	dc01      	bgt.n	3bde <_svfprintf_r+0xf3e>
    3bda:	3408      	adds	r4, #8
    3bdc:	e008      	b.n	3bf0 <_svfprintf_r+0xf50>
    3bde:	4640      	mov	r0, r8
    3be0:	4639      	mov	r1, r7
    3be2:	aa33      	add	r2, sp, #204	; 0xcc
    3be4:	f005 fe94 	bl	9910 <__ssprint_r>
    3be8:	2800      	cmp	r0, #0
    3bea:	f040 80c8 	bne.w	3d7e <_svfprintf_r+0x10de>
    3bee:	ac19      	add	r4, sp, #100	; 0x64
    3bf0:	9b13      	ldr	r3, [sp, #76]	; 0x4c
    3bf2:	9812      	ldr	r0, [sp, #72]	; 0x48
    3bf4:	6023      	str	r3, [r4, #0]
    3bf6:	9b35      	ldr	r3, [sp, #212]	; 0xd4
    3bf8:	6060      	str	r0, [r4, #4]
    3bfa:	181b      	adds	r3, r3, r0
    3bfc:	9335      	str	r3, [sp, #212]	; 0xd4
    3bfe:	9b34      	ldr	r3, [sp, #208]	; 0xd0
    3c00:	3301      	adds	r3, #1
    3c02:	9334      	str	r3, [sp, #208]	; 0xd0
    3c04:	2b07      	cmp	r3, #7
    3c06:	dc01      	bgt.n	3c0c <_svfprintf_r+0xf6c>
    3c08:	3408      	adds	r4, #8
    3c0a:	e008      	b.n	3c1e <_svfprintf_r+0xf7e>
    3c0c:	4640      	mov	r0, r8
    3c0e:	4639      	mov	r1, r7
    3c10:	aa33      	add	r2, sp, #204	; 0xcc
    3c12:	f005 fe7d 	bl	9910 <__ssprint_r>
    3c16:	2800      	cmp	r0, #0
    3c18:	f040 80b1 	bne.w	3d7e <_svfprintf_r+0x10de>
    3c1c:	ac19      	add	r4, sp, #100	; 0x64
    3c1e:	9911      	ldr	r1, [sp, #68]	; 0x44
    3c20:	2300      	movs	r3, #0
    3c22:	9810      	ldr	r0, [sp, #64]	; 0x40
    3c24:	2200      	movs	r2, #0
    3c26:	f007 fccb 	bl	b5c0 <__aeabi_dcmpeq>
    3c2a:	990b      	ldr	r1, [sp, #44]	; 0x2c
    3c2c:	1e4b      	subs	r3, r1, #1
    3c2e:	b930      	cbnz	r0, 3c3e <_svfprintf_r+0xf9e>
    3c30:	f10a 0201 	add.w	r2, sl, #1
    3c34:	6022      	str	r2, [r4, #0]
    3c36:	9a35      	ldr	r2, [sp, #212]	; 0xd4
    3c38:	6063      	str	r3, [r4, #4]
    3c3a:	18d3      	adds	r3, r2, r3
    3c3c:	e02a      	b.n	3c94 <_svfprintf_r+0xff4>
    3c3e:	f1b3 0900 	subs.w	r9, r3, #0
    3c42:	dc17      	bgt.n	3c74 <_svfprintf_r+0xfd4>
    3c44:	e036      	b.n	3cb4 <_svfprintf_r+0x1014>
    3c46:	6022      	str	r2, [r4, #0]
    3c48:	2210      	movs	r2, #16
    3c4a:	189b      	adds	r3, r3, r2
    3c4c:	6062      	str	r2, [r4, #4]
    3c4e:	9335      	str	r3, [sp, #212]	; 0xd4
    3c50:	9b34      	ldr	r3, [sp, #208]	; 0xd0
    3c52:	3301      	adds	r3, #1
    3c54:	9334      	str	r3, [sp, #208]	; 0xd0
    3c56:	2b07      	cmp	r3, #7
    3c58:	dc01      	bgt.n	3c5e <_svfprintf_r+0xfbe>
    3c5a:	3408      	adds	r4, #8
    3c5c:	e008      	b.n	3c70 <_svfprintf_r+0xfd0>
    3c5e:	4640      	mov	r0, r8
    3c60:	4639      	mov	r1, r7
    3c62:	aa33      	add	r2, sp, #204	; 0xcc
    3c64:	f005 fe54 	bl	9910 <__ssprint_r>
    3c68:	2800      	cmp	r0, #0
    3c6a:	f040 8088 	bne.w	3d7e <_svfprintf_r+0x10de>
    3c6e:	ac19      	add	r4, sp, #100	; 0x64
    3c70:	f1a9 0910 	sub.w	r9, r9, #16
    3c74:	f1b9 0f10 	cmp.w	r9, #16
    3c78:	9b35      	ldr	r3, [sp, #212]	; 0xd4
    3c7a:	4a47      	ldr	r2, [pc, #284]	; (3d98 <_svfprintf_r+0x10f8>)
    3c7c:	dce3      	bgt.n	3c46 <_svfprintf_r+0xfa6>
    3c7e:	6022      	str	r2, [r4, #0]
    3c80:	444b      	add	r3, r9
    3c82:	f8c4 9004 	str.w	r9, [r4, #4]
    3c86:	e005      	b.n	3c94 <_svfprintf_r+0xff4>
    3c88:	2301      	movs	r3, #1
    3c8a:	6063      	str	r3, [r4, #4]
    3c8c:	9b35      	ldr	r3, [sp, #212]	; 0xd4
    3c8e:	f8c4 a000 	str.w	sl, [r4]
    3c92:	3301      	adds	r3, #1
    3c94:	9335      	str	r3, [sp, #212]	; 0xd4
    3c96:	9b34      	ldr	r3, [sp, #208]	; 0xd0
    3c98:	3301      	adds	r3, #1
    3c9a:	9334      	str	r3, [sp, #208]	; 0xd0
    3c9c:	2b07      	cmp	r3, #7
    3c9e:	dc01      	bgt.n	3ca4 <_svfprintf_r+0x1004>
    3ca0:	3408      	adds	r4, #8
    3ca2:	e007      	b.n	3cb4 <_svfprintf_r+0x1014>
    3ca4:	4640      	mov	r0, r8
    3ca6:	4639      	mov	r1, r7
    3ca8:	aa33      	add	r2, sp, #204	; 0xcc
    3caa:	f005 fe31 	bl	9910 <__ssprint_r>
    3cae:	2800      	cmp	r0, #0
    3cb0:	d165      	bne.n	3d7e <_svfprintf_r+0x10de>
    3cb2:	ac19      	add	r4, sp, #100	; 0x64
    3cb4:	ab38      	add	r3, sp, #224	; 0xe0
    3cb6:	9a15      	ldr	r2, [sp, #84]	; 0x54
    3cb8:	6023      	str	r3, [r4, #0]
    3cba:	9b35      	ldr	r3, [sp, #212]	; 0xd4
    3cbc:	6062      	str	r2, [r4, #4]
    3cbe:	189b      	adds	r3, r3, r2
    3cc0:	9335      	str	r3, [sp, #212]	; 0xd4
    3cc2:	9b34      	ldr	r3, [sp, #208]	; 0xd0
    3cc4:	3301      	adds	r3, #1
    3cc6:	9334      	str	r3, [sp, #208]	; 0xd0
    3cc8:	2b07      	cmp	r3, #7
    3cca:	dc01      	bgt.n	3cd0 <_svfprintf_r+0x1030>
    3ccc:	3408      	adds	r4, #8
    3cce:	e007      	b.n	3ce0 <_svfprintf_r+0x1040>
    3cd0:	4640      	mov	r0, r8
    3cd2:	4639      	mov	r1, r7
    3cd4:	aa33      	add	r2, sp, #204	; 0xcc
    3cd6:	f005 fe1b 	bl	9910 <__ssprint_r>
    3cda:	2800      	cmp	r0, #0
    3cdc:	d14f      	bne.n	3d7e <_svfprintf_r+0x10de>
    3cde:	ac19      	add	r4, sp, #100	; 0x64
    3ce0:	f015 0f04 	tst.w	r5, #4
    3ce4:	d02f      	beq.n	3d46 <_svfprintf_r+0x10a6>
    3ce6:	9b0d      	ldr	r3, [sp, #52]	; 0x34
    3ce8:	f8dd a038 	ldr.w	sl, [sp, #56]	; 0x38
    3cec:	ebca 0503 	rsb	r5, sl, r3
    3cf0:	2d00      	cmp	r5, #0
    3cf2:	dc15      	bgt.n	3d20 <_svfprintf_r+0x1080>
    3cf4:	e027      	b.n	3d46 <_svfprintf_r+0x10a6>
    3cf6:	6022      	str	r2, [r4, #0]
    3cf8:	2210      	movs	r2, #16
    3cfa:	189b      	adds	r3, r3, r2
    3cfc:	6062      	str	r2, [r4, #4]
    3cfe:	9335      	str	r3, [sp, #212]	; 0xd4
    3d00:	9b34      	ldr	r3, [sp, #208]	; 0xd0
    3d02:	3301      	adds	r3, #1
    3d04:	9334      	str	r3, [sp, #208]	; 0xd0
    3d06:	2b07      	cmp	r3, #7
    3d08:	dc01      	bgt.n	3d0e <_svfprintf_r+0x106e>
    3d0a:	3408      	adds	r4, #8
    3d0c:	e007      	b.n	3d1e <_svfprintf_r+0x107e>
    3d0e:	4640      	mov	r0, r8
    3d10:	4639      	mov	r1, r7
    3d12:	aa33      	add	r2, sp, #204	; 0xcc
    3d14:	f005 fdfc 	bl	9910 <__ssprint_r>
    3d18:	2800      	cmp	r0, #0
    3d1a:	d130      	bne.n	3d7e <_svfprintf_r+0x10de>
    3d1c:	ac19      	add	r4, sp, #100	; 0x64
    3d1e:	3d10      	subs	r5, #16
    3d20:	2d10      	cmp	r5, #16
    3d22:	9b35      	ldr	r3, [sp, #212]	; 0xd4
    3d24:	4a1d      	ldr	r2, [pc, #116]	; (3d9c <_svfprintf_r+0x10fc>)
    3d26:	dce6      	bgt.n	3cf6 <_svfprintf_r+0x1056>
    3d28:	6065      	str	r5, [r4, #4]
    3d2a:	195d      	adds	r5, r3, r5
    3d2c:	9b34      	ldr	r3, [sp, #208]	; 0xd0
    3d2e:	6022      	str	r2, [r4, #0]
    3d30:	3301      	adds	r3, #1
    3d32:	9535      	str	r5, [sp, #212]	; 0xd4
    3d34:	2b07      	cmp	r3, #7
    3d36:	9334      	str	r3, [sp, #208]	; 0xd0
    3d38:	dd05      	ble.n	3d46 <_svfprintf_r+0x10a6>
    3d3a:	4640      	mov	r0, r8
    3d3c:	4639      	mov	r1, r7
    3d3e:	aa33      	add	r2, sp, #204	; 0xcc
    3d40:	f005 fde6 	bl	9910 <__ssprint_r>
    3d44:	b9d8      	cbnz	r0, 3d7e <_svfprintf_r+0x10de>
    3d46:	980f      	ldr	r0, [sp, #60]	; 0x3c
    3d48:	9a0e      	ldr	r2, [sp, #56]	; 0x38
    3d4a:	990d      	ldr	r1, [sp, #52]	; 0x34
    3d4c:	9b35      	ldr	r3, [sp, #212]	; 0xd4
    3d4e:	428a      	cmp	r2, r1
    3d50:	bfac      	ite	ge
    3d52:	1880      	addge	r0, r0, r2
    3d54:	1840      	addlt	r0, r0, r1
    3d56:	900f      	str	r0, [sp, #60]	; 0x3c
    3d58:	b12b      	cbz	r3, 3d66 <_svfprintf_r+0x10c6>
    3d5a:	4640      	mov	r0, r8
    3d5c:	4639      	mov	r1, r7
    3d5e:	aa33      	add	r2, sp, #204	; 0xcc
    3d60:	f005 fdd6 	bl	9910 <__ssprint_r>
    3d64:	b958      	cbnz	r0, 3d7e <_svfprintf_r+0x10de>
    3d66:	2300      	movs	r3, #0
    3d68:	ac19      	add	r4, sp, #100	; 0x64
    3d6a:	9334      	str	r3, [sp, #208]	; 0xd0
    3d6c:	f7fe bfc8 	b.w	2d00 <_svfprintf_r+0x60>
    3d70:	9b35      	ldr	r3, [sp, #212]	; 0xd4
    3d72:	b123      	cbz	r3, 3d7e <_svfprintf_r+0x10de>
    3d74:	4640      	mov	r0, r8
    3d76:	4639      	mov	r1, r7
    3d78:	aa33      	add	r2, sp, #204	; 0xcc
    3d7a:	f005 fdc9 	bl	9910 <__ssprint_r>
    3d7e:	89bb      	ldrh	r3, [r7, #12]
    3d80:	9d0f      	ldr	r5, [sp, #60]	; 0x3c
    3d82:	f003 0340 	and.w	r3, r3, #64	; 0x40
    3d86:	2b00      	cmp	r3, #0
    3d88:	bf18      	it	ne
    3d8a:	f04f 35ff 	movne.w	r5, #4294967295
    3d8e:	950f      	str	r5, [sp, #60]	; 0x3c
    3d90:	980f      	ldr	r0, [sp, #60]	; 0x3c
    3d92:	b03f      	add	sp, #252	; 0xfc
    3d94:	e8bd 8ff0 	ldmia.w	sp!, {r4, r5, r6, r7, r8, r9, sl, fp, pc}
    3d98:	0000c078 	.word	0x0000c078
    3d9c:	0000c0bc 	.word	0x0000c0bc

00003da0 <__ssvfscanf_r>:
    3da0:	e92d 4ff0 	stmdb	sp!, {r4, r5, r6, r7, r8, r9, sl, fp, lr}
    3da4:	460c      	mov	r4, r1
    3da6:	f5ad 7d2d 	sub.w	sp, sp, #692	; 0x2b4
    3daa:	461e      	mov	r6, r3
    3dac:	4682      	mov	sl, r0
    3dae:	4615      	mov	r5, r2
    3db0:	f003 fd7a 	bl	78a8 <__sfp_lock_acquire>
    3db4:	89a3      	ldrh	r3, [r4, #12]
    3db6:	f413 5f00 	tst.w	r3, #8192	; 0x2000
    3dba:	d106      	bne.n	3dca <__ssvfscanf_r+0x2a>
    3dbc:	f443 5300 	orr.w	r3, r3, #8192	; 0x2000
    3dc0:	81a3      	strh	r3, [r4, #12]
    3dc2:	6e63      	ldr	r3, [r4, #100]	; 0x64
    3dc4:	f423 5300 	bic.w	r3, r3, #8192	; 0x2000
    3dc8:	6663      	str	r3, [r4, #100]	; 0x64
    3dca:	2000      	movs	r0, #0
    3dcc:	9507      	str	r5, [sp, #28]
    3dce:	4683      	mov	fp, r0
    3dd0:	4607      	mov	r7, r0
    3dd2:	9009      	str	r0, [sp, #36]	; 0x24
    3dd4:	9008      	str	r0, [sp, #32]
    3dd6:	9907      	ldr	r1, [sp, #28]
    3dd8:	780a      	ldrb	r2, [r1, #0]
    3dda:	f8ad 22ae 	strh.w	r2, [sp, #686]	; 0x2ae
    3dde:	2a00      	cmp	r2, #0
    3de0:	f000 85bf 	beq.w	4962 <__ssvfscanf_r+0xbc2>
    3de4:	4b91      	ldr	r3, [pc, #580]	; (402c <__ssvfscanf_r+0x28c>)
    3de6:	3101      	adds	r1, #1
    3de8:	9107      	str	r1, [sp, #28]
    3dea:	6819      	ldr	r1, [r3, #0]
    3dec:	1888      	adds	r0, r1, r2
    3dee:	f890 8001 	ldrb.w	r8, [r0, #1]
    3df2:	f018 0808 	ands.w	r8, r8, #8
    3df6:	d018      	beq.n	3e2a <__ssvfscanf_r+0x8a>
    3df8:	6863      	ldr	r3, [r4, #4]
    3dfa:	2b00      	cmp	r3, #0
    3dfc:	dc05      	bgt.n	3e0a <__ssvfscanf_r+0x6a>
    3dfe:	4650      	mov	r0, sl
    3e00:	4621      	mov	r1, r4
    3e02:	f005 fe3d 	bl	9a80 <__ssrefill_r>
    3e06:	2800      	cmp	r0, #0
    3e08:	d1e5      	bne.n	3dd6 <__ssvfscanf_r+0x36>
    3e0a:	6823      	ldr	r3, [r4, #0]
    3e0c:	4d87      	ldr	r5, [pc, #540]	; (402c <__ssvfscanf_r+0x28c>)
    3e0e:	781a      	ldrb	r2, [r3, #0]
    3e10:	6829      	ldr	r1, [r5, #0]
    3e12:	188a      	adds	r2, r1, r2
    3e14:	7852      	ldrb	r2, [r2, #1]
    3e16:	f012 0f08 	tst.w	r2, #8
    3e1a:	d0dc      	beq.n	3dd6 <__ssvfscanf_r+0x36>
    3e1c:	6862      	ldr	r2, [r4, #4]
    3e1e:	3301      	adds	r3, #1
    3e20:	3701      	adds	r7, #1
    3e22:	6023      	str	r3, [r4, #0]
    3e24:	3a01      	subs	r2, #1
    3e26:	6062      	str	r2, [r4, #4]
    3e28:	e7e6      	b.n	3df8 <__ssvfscanf_r+0x58>
    3e2a:	2a25      	cmp	r2, #37	; 0x25
    3e2c:	d151      	bne.n	3ed2 <__ssvfscanf_r+0x132>
    3e2e:	9a07      	ldr	r2, [sp, #28]
    3e30:	4645      	mov	r5, r8
    3e32:	f812 3b01 	ldrb.w	r3, [r2], #1
    3e36:	2b64      	cmp	r3, #100	; 0x64
    3e38:	d07a      	beq.n	3f30 <__ssvfscanf_r+0x190>
    3e3a:	d829      	bhi.n	3e90 <__ssvfscanf_r+0xf0>
    3e3c:	2b47      	cmp	r3, #71	; 0x47
    3e3e:	f000 808c 	beq.w	3f5a <__ssvfscanf_r+0x1ba>
    3e42:	d814      	bhi.n	3e6e <__ssvfscanf_r+0xce>
    3e44:	2b39      	cmp	r3, #57	; 0x39
    3e46:	d80a      	bhi.n	3e5e <__ssvfscanf_r+0xbe>
    3e48:	2b30      	cmp	r3, #48	; 0x30
    3e4a:	d26c      	bcs.n	3f26 <__ssvfscanf_r+0x186>
    3e4c:	2b25      	cmp	r3, #37	; 0x25
    3e4e:	d03f      	beq.n	3ed0 <__ssvfscanf_r+0x130>
    3e50:	2b2a      	cmp	r3, #42	; 0x2a
    3e52:	d057      	beq.n	3f04 <__ssvfscanf_r+0x164>
    3e54:	9207      	str	r2, [sp, #28]
    3e56:	2b00      	cmp	r3, #0
    3e58:	f000 80b9 	beq.w	3fce <__ssvfscanf_r+0x22e>
    3e5c:	e0bf      	b.n	3fde <__ssvfscanf_r+0x23e>
    3e5e:	2b44      	cmp	r3, #68	; 0x44
    3e60:	9207      	str	r2, [sp, #28]
    3e62:	f000 80c2 	beq.w	3fea <__ssvfscanf_r+0x24a>
    3e66:	2b45      	cmp	r3, #69	; 0x45
    3e68:	f040 80b9 	bne.w	3fde <__ssvfscanf_r+0x23e>
    3e6c:	e076      	b.n	3f5c <__ssvfscanf_r+0x1bc>
    3e6e:	2b58      	cmp	r3, #88	; 0x58
    3e70:	d06d      	beq.n	3f4e <__ssvfscanf_r+0x1ae>
    3e72:	d806      	bhi.n	3e82 <__ssvfscanf_r+0xe2>
    3e74:	2b4c      	cmp	r3, #76	; 0x4c
    3e76:	d050      	beq.n	3f1a <__ssvfscanf_r+0x17a>
    3e78:	2b4f      	cmp	r3, #79	; 0x4f
    3e7a:	9207      	str	r2, [sp, #28]
    3e7c:	f040 80af 	bne.w	3fde <__ssvfscanf_r+0x23e>
    3e80:	e05e      	b.n	3f40 <__ssvfscanf_r+0x1a0>
    3e82:	2b5b      	cmp	r3, #91	; 0x5b
    3e84:	9207      	str	r2, [sp, #28]
    3e86:	d06f      	beq.n	3f68 <__ssvfscanf_r+0x1c8>
    3e88:	2b63      	cmp	r3, #99	; 0x63
    3e8a:	f040 80a8 	bne.w	3fde <__ssvfscanf_r+0x23e>
    3e8e:	e075      	b.n	3f7c <__ssvfscanf_r+0x1dc>
    3e90:	2b6e      	cmp	r3, #110	; 0x6e
    3e92:	d07f      	beq.n	3f94 <__ssvfscanf_r+0x1f4>
    3e94:	d808      	bhi.n	3ea8 <__ssvfscanf_r+0x108>
    3e96:	2b68      	cmp	r3, #104	; 0x68
    3e98:	d042      	beq.n	3f20 <__ssvfscanf_r+0x180>
    3e9a:	d35e      	bcc.n	3f5a <__ssvfscanf_r+0x1ba>
    3e9c:	2b69      	cmp	r3, #105	; 0x69
    3e9e:	d049      	beq.n	3f34 <__ssvfscanf_r+0x194>
    3ea0:	2b6c      	cmp	r3, #108	; 0x6c
    3ea2:	f040 809b 	bne.w	3fdc <__ssvfscanf_r+0x23c>
    3ea6:	e030      	b.n	3f0a <__ssvfscanf_r+0x16a>
    3ea8:	2b73      	cmp	r3, #115	; 0x73
    3eaa:	9207      	str	r2, [sp, #28]
    3eac:	d059      	beq.n	3f62 <__ssvfscanf_r+0x1c2>
    3eae:	d805      	bhi.n	3ebc <__ssvfscanf_r+0x11c>
    3eb0:	2b6f      	cmp	r3, #111	; 0x6f
    3eb2:	d00a      	beq.n	3eca <__ssvfscanf_r+0x12a>
    3eb4:	2b70      	cmp	r3, #112	; 0x70
    3eb6:	f040 8092 	bne.w	3fde <__ssvfscanf_r+0x23e>
    3eba:	e064      	b.n	3f86 <__ssvfscanf_r+0x1e6>
    3ebc:	2b75      	cmp	r3, #117	; 0x75
    3ebe:	f000 8099 	beq.w	3ff4 <__ssvfscanf_r+0x254>
    3ec2:	2b78      	cmp	r3, #120	; 0x78
    3ec4:	f040 808b 	bne.w	3fde <__ssvfscanf_r+0x23e>
    3ec8:	e042      	b.n	3f50 <__ssvfscanf_r+0x1b0>
    3eca:	4859      	ldr	r0, [pc, #356]	; (4030 <__ssvfscanf_r+0x290>)
    3ecc:	9009      	str	r0, [sp, #36]	; 0x24
    3ece:	e03b      	b.n	3f48 <__ssvfscanf_r+0x1a8>
    3ed0:	9207      	str	r2, [sp, #28]
    3ed2:	6863      	ldr	r3, [r4, #4]
    3ed4:	2b00      	cmp	r3, #0
    3ed6:	dc06      	bgt.n	3ee6 <__ssvfscanf_r+0x146>
    3ed8:	4650      	mov	r0, sl
    3eda:	4621      	mov	r1, r4
    3edc:	f005 fdd0 	bl	9a80 <__ssrefill_r>
    3ee0:	2800      	cmp	r0, #0
    3ee2:	f040 8530 	bne.w	4946 <__ssvfscanf_r+0xba6>
    3ee6:	6823      	ldr	r3, [r4, #0]
    3ee8:	9d07      	ldr	r5, [sp, #28]
    3eea:	7819      	ldrb	r1, [r3, #0]
    3eec:	f815 2c01 	ldrb.w	r2, [r5, #-1]
    3ef0:	4291      	cmp	r1, r2
    3ef2:	f040 8536 	bne.w	4962 <__ssvfscanf_r+0xbc2>
    3ef6:	6862      	ldr	r2, [r4, #4]
    3ef8:	3301      	adds	r3, #1
    3efa:	3701      	adds	r7, #1
    3efc:	6023      	str	r3, [r4, #0]
    3efe:	3a01      	subs	r2, #1
    3f00:	6062      	str	r2, [r4, #4]
    3f02:	e768      	b.n	3dd6 <__ssvfscanf_r+0x36>
    3f04:	f048 0810 	orr.w	r8, r8, #16
    3f08:	e793      	b.n	3e32 <__ssvfscanf_r+0x92>
    3f0a:	7813      	ldrb	r3, [r2, #0]
    3f0c:	2b6c      	cmp	r3, #108	; 0x6c
    3f0e:	d101      	bne.n	3f14 <__ssvfscanf_r+0x174>
    3f10:	3201      	adds	r2, #1
    3f12:	e002      	b.n	3f1a <__ssvfscanf_r+0x17a>
    3f14:	f048 0801 	orr.w	r8, r8, #1
    3f18:	e78b      	b.n	3e32 <__ssvfscanf_r+0x92>
    3f1a:	f048 0802 	orr.w	r8, r8, #2
    3f1e:	e788      	b.n	3e32 <__ssvfscanf_r+0x92>
    3f20:	f048 0804 	orr.w	r8, r8, #4
    3f24:	e785      	b.n	3e32 <__ssvfscanf_r+0x92>
    3f26:	200a      	movs	r0, #10
    3f28:	4345      	muls	r5, r0
    3f2a:	3d30      	subs	r5, #48	; 0x30
    3f2c:	18ed      	adds	r5, r5, r3
    3f2e:	e780      	b.n	3e32 <__ssvfscanf_r+0x92>
    3f30:	9207      	str	r2, [sp, #28]
    3f32:	e05c      	b.n	3fee <__ssvfscanf_r+0x24e>
    3f34:	493f      	ldr	r1, [pc, #252]	; (4034 <__ssvfscanf_r+0x294>)
    3f36:	f04f 0b00 	mov.w	fp, #0
    3f3a:	9207      	str	r2, [sp, #28]
    3f3c:	9109      	str	r1, [sp, #36]	; 0x24
    3f3e:	e05d      	b.n	3ffc <__ssvfscanf_r+0x25c>
    3f40:	4a3b      	ldr	r2, [pc, #236]	; (4030 <__ssvfscanf_r+0x290>)
    3f42:	f048 0801 	orr.w	r8, r8, #1
    3f46:	9209      	str	r2, [sp, #36]	; 0x24
    3f48:	f04f 0b08 	mov.w	fp, #8
    3f4c:	e056      	b.n	3ffc <__ssvfscanf_r+0x25c>
    3f4e:	9207      	str	r2, [sp, #28]
    3f50:	4b37      	ldr	r3, [pc, #220]	; (4030 <__ssvfscanf_r+0x290>)
    3f52:	f448 7800 	orr.w	r8, r8, #512	; 0x200
    3f56:	9309      	str	r3, [sp, #36]	; 0x24
    3f58:	e019      	b.n	3f8e <__ssvfscanf_r+0x1ee>
    3f5a:	9207      	str	r2, [sp, #28]
    3f5c:	f04f 0904 	mov.w	r9, #4
    3f60:	e04e      	b.n	4000 <__ssvfscanf_r+0x260>
    3f62:	f04f 0902 	mov.w	r9, #2
    3f66:	e04b      	b.n	4000 <__ssvfscanf_r+0x260>
    3f68:	a867      	add	r0, sp, #412	; 0x19c
    3f6a:	9907      	ldr	r1, [sp, #28]
    3f6c:	f004 fc28 	bl	87c0 <__sccl>
    3f70:	f048 0840 	orr.w	r8, r8, #64	; 0x40
    3f74:	f04f 0901 	mov.w	r9, #1
    3f78:	9007      	str	r0, [sp, #28]
    3f7a:	e041      	b.n	4000 <__ssvfscanf_r+0x260>
    3f7c:	f048 0840 	orr.w	r8, r8, #64	; 0x40
    3f80:	f04f 0900 	mov.w	r9, #0
    3f84:	e03c      	b.n	4000 <__ssvfscanf_r+0x260>
    3f86:	482a      	ldr	r0, [pc, #168]	; (4030 <__ssvfscanf_r+0x290>)
    3f88:	f448 7808 	orr.w	r8, r8, #544	; 0x220
    3f8c:	9009      	str	r0, [sp, #36]	; 0x24
    3f8e:	f04f 0b10 	mov.w	fp, #16
    3f92:	e033      	b.n	3ffc <__ssvfscanf_r+0x25c>
    3f94:	f018 0f10 	tst.w	r8, #16
    3f98:	9207      	str	r2, [sp, #28]
    3f9a:	f47f af1c 	bne.w	3dd6 <__ssvfscanf_r+0x36>
    3f9e:	f018 0f04 	tst.w	r8, #4
    3fa2:	f106 0104 	add.w	r1, r6, #4
    3fa6:	d002      	beq.n	3fae <__ssvfscanf_r+0x20e>
    3fa8:	6833      	ldr	r3, [r6, #0]
    3faa:	801f      	strh	r7, [r3, #0]
    3fac:	e004      	b.n	3fb8 <__ssvfscanf_r+0x218>
    3fae:	f018 0f01 	tst.w	r8, #1
    3fb2:	d003      	beq.n	3fbc <__ssvfscanf_r+0x21c>
    3fb4:	6833      	ldr	r3, [r6, #0]
    3fb6:	601f      	str	r7, [r3, #0]
    3fb8:	460e      	mov	r6, r1
    3fba:	e70c      	b.n	3dd6 <__ssvfscanf_r+0x36>
    3fbc:	f018 0f02 	tst.w	r8, #2
    3fc0:	d0f8      	beq.n	3fb4 <__ssvfscanf_r+0x214>
    3fc2:	6830      	ldr	r0, [r6, #0]
    3fc4:	463a      	mov	r2, r7
    3fc6:	17fb      	asrs	r3, r7, #31
    3fc8:	e9c0 2300 	strd	r2, r3, [r0]
    3fcc:	e7f4      	b.n	3fb8 <__ssvfscanf_r+0x218>
    3fce:	f003 fc6c 	bl	78aa <__sfp_lock_release>
    3fd2:	f04f 33ff 	mov.w	r3, #4294967295
    3fd6:	9308      	str	r3, [sp, #32]
    3fd8:	f000 bcc9 	b.w	496e <__ssvfscanf_r+0xbce>
    3fdc:	9207      	str	r2, [sp, #28]
    3fde:	18cb      	adds	r3, r1, r3
    3fe0:	785b      	ldrb	r3, [r3, #1]
    3fe2:	f003 0303 	and.w	r3, r3, #3
    3fe6:	2b01      	cmp	r3, #1
    3fe8:	d101      	bne.n	3fee <__ssvfscanf_r+0x24e>
    3fea:	f048 0801 	orr.w	r8, r8, #1
    3fee:	4811      	ldr	r0, [pc, #68]	; (4034 <__ssvfscanf_r+0x294>)
    3ff0:	9009      	str	r0, [sp, #36]	; 0x24
    3ff2:	e001      	b.n	3ff8 <__ssvfscanf_r+0x258>
    3ff4:	490e      	ldr	r1, [pc, #56]	; (4030 <__ssvfscanf_r+0x290>)
    3ff6:	9109      	str	r1, [sp, #36]	; 0x24
    3ff8:	f04f 0b0a 	mov.w	fp, #10
    3ffc:	f04f 0903 	mov.w	r9, #3
    4000:	6863      	ldr	r3, [r4, #4]
    4002:	2b00      	cmp	r3, #0
    4004:	dc06      	bgt.n	4014 <__ssvfscanf_r+0x274>
    4006:	4650      	mov	r0, sl
    4008:	4621      	mov	r1, r4
    400a:	f005 fd39 	bl	9a80 <__ssrefill_r>
    400e:	2800      	cmp	r0, #0
    4010:	f040 8499 	bne.w	4946 <__ssvfscanf_r+0xba6>
    4014:	f018 0f40 	tst.w	r8, #64	; 0x40
    4018:	d11f      	bne.n	405a <__ssvfscanf_r+0x2ba>
    401a:	e015      	b.n	4048 <__ssvfscanf_r+0x2a8>
    401c:	6862      	ldr	r2, [r4, #4]
    401e:	3a01      	subs	r2, #1
    4020:	6062      	str	r2, [r4, #4]
    4022:	2a00      	cmp	r2, #0
    4024:	dd08      	ble.n	4038 <__ssvfscanf_r+0x298>
    4026:	3301      	adds	r3, #1
    4028:	6023      	str	r3, [r4, #0]
    402a:	e00c      	b.n	4046 <__ssvfscanf_r+0x2a6>
    402c:	10000520 	.word	0x10000520
    4030:	000096c1 	.word	0x000096c1
    4034:	00009431 	.word	0x00009431
    4038:	4650      	mov	r0, sl
    403a:	4621      	mov	r1, r4
    403c:	f005 fd20 	bl	9a80 <__ssrefill_r>
    4040:	2800      	cmp	r0, #0
    4042:	f040 8480 	bne.w	4946 <__ssvfscanf_r+0xba6>
    4046:	3701      	adds	r7, #1
    4048:	6823      	ldr	r3, [r4, #0]
    404a:	489b      	ldr	r0, [pc, #620]	; (42b8 <__ssvfscanf_r+0x518>)
    404c:	781a      	ldrb	r2, [r3, #0]
    404e:	6801      	ldr	r1, [r0, #0]
    4050:	188a      	adds	r2, r1, r2
    4052:	7852      	ldrb	r2, [r2, #1]
    4054:	f012 0f08 	tst.w	r2, #8
    4058:	d1e0      	bne.n	401c <__ssvfscanf_r+0x27c>
    405a:	f109 39ff 	add.w	r9, r9, #4294967295
    405e:	f1b9 0f03 	cmp.w	r9, #3
    4062:	d805      	bhi.n	4070 <__ssvfscanf_r+0x2d0>
    4064:	e8df f019 	tbh	[pc, r9, lsl #1]
    4068:	00ea0097 	.word	0x00ea0097
    406c:	028e01bb 	.word	0x028e01bb
    4070:	2d00      	cmp	r5, #0
    4072:	bf08      	it	eq
    4074:	2501      	moveq	r5, #1
    4076:	f018 0301 	ands.w	r3, r8, #1
    407a:	f008 0910 	and.w	r9, r8, #16
    407e:	d05a      	beq.n	4136 <__ssvfscanf_r+0x396>
    4080:	a8a9      	add	r0, sp, #676	; 0x2a4
    4082:	2100      	movs	r1, #0
    4084:	2208      	movs	r2, #8
    4086:	f003 feb6 	bl	7df6 <memset>
    408a:	f1b9 0f00 	cmp.w	r9, #0
    408e:	d103      	bne.n	4098 <__ssvfscanf_r+0x2f8>
    4090:	6832      	ldr	r2, [r6, #0]
    4092:	3604      	adds	r6, #4
    4094:	9205      	str	r2, [sp, #20]
    4096:	e001      	b.n	409c <__ssvfscanf_r+0x2fc>
    4098:	2300      	movs	r3, #0
    409a:	9305      	str	r3, [sp, #20]
    409c:	464b      	mov	r3, r9
    409e:	f04f 0800 	mov.w	r8, #0
    40a2:	46b1      	mov	r9, r6
    40a4:	461e      	mov	r6, r3
    40a6:	f003 fddd 	bl	7c64 <__locale_mb_cur_max>
    40aa:	4580      	cmp	r8, r0
    40ac:	f000 844b 	beq.w	4946 <__ssvfscanf_r+0xba6>
    40b0:	6823      	ldr	r3, [r4, #0]
    40b2:	aa0f      	add	r2, sp, #60	; 0x3c
    40b4:	4650      	mov	r0, sl
    40b6:	f813 1b01 	ldrb.w	r1, [r3], #1
    40ba:	f802 1008 	strb.w	r1, [r2, r8]
    40be:	f108 0801 	add.w	r8, r8, #1
    40c2:	6861      	ldr	r1, [r4, #4]
    40c4:	6023      	str	r3, [r4, #0]
    40c6:	aba9      	add	r3, sp, #676	; 0x2a4
    40c8:	3901      	subs	r1, #1
    40ca:	9300      	str	r3, [sp, #0]
    40cc:	6061      	str	r1, [r4, #4]
    40ce:	4643      	mov	r3, r8
    40d0:	9905      	ldr	r1, [sp, #20]
    40d2:	f003 fe53 	bl	7d7c <_mbrtowc_r>
    40d6:	f1b0 3fff 	cmp.w	r0, #4294967295
    40da:	f000 8434 	beq.w	4946 <__ssvfscanf_r+0xba6>
    40de:	b918      	cbnz	r0, 40e8 <__ssvfscanf_r+0x348>
    40e0:	b92e      	cbnz	r6, 40ee <__ssvfscanf_r+0x34e>
    40e2:	9805      	ldr	r0, [sp, #20]
    40e4:	8006      	strh	r6, [r0, #0]
    40e6:	e002      	b.n	40ee <__ssvfscanf_r+0x34e>
    40e8:	f110 0f02 	cmn.w	r0, #2
    40ec:	d009      	beq.n	4102 <__ssvfscanf_r+0x362>
    40ee:	4447      	add	r7, r8
    40f0:	3d01      	subs	r5, #1
    40f2:	b926      	cbnz	r6, 40fe <__ssvfscanf_r+0x35e>
    40f4:	9905      	ldr	r1, [sp, #20]
    40f6:	46b0      	mov	r8, r6
    40f8:	3102      	adds	r1, #2
    40fa:	9105      	str	r1, [sp, #20]
    40fc:	e001      	b.n	4102 <__ssvfscanf_r+0x362>
    40fe:	f04f 0800 	mov.w	r8, #0
    4102:	6863      	ldr	r3, [r4, #4]
    4104:	2b00      	cmp	r3, #0
    4106:	dc0c      	bgt.n	4122 <__ssvfscanf_r+0x382>
    4108:	4650      	mov	r0, sl
    410a:	4621      	mov	r1, r4
    410c:	f005 fcb8 	bl	9a80 <__ssrefill_r>
    4110:	b138      	cbz	r0, 4122 <__ssvfscanf_r+0x382>
    4112:	4633      	mov	r3, r6
    4114:	464e      	mov	r6, r9
    4116:	4699      	mov	r9, r3
    4118:	f1b8 0f00 	cmp.w	r8, #0
    411c:	d006      	beq.n	412c <__ssvfscanf_r+0x38c>
    411e:	f000 bc12 	b.w	4946 <__ssvfscanf_r+0xba6>
    4122:	2d00      	cmp	r5, #0
    4124:	d1bf      	bne.n	40a6 <__ssvfscanf_r+0x306>
    4126:	4633      	mov	r3, r6
    4128:	464e      	mov	r6, r9
    412a:	4699      	mov	r9, r3
    412c:	f1b9 0f00 	cmp.w	r9, #0
    4130:	f47f ae51 	bne.w	3dd6 <__ssvfscanf_r+0x36>
    4134:	e106      	b.n	4344 <__ssvfscanf_r+0x5a4>
    4136:	f1b9 0f00 	cmp.w	r9, #0
    413a:	d01c      	beq.n	4176 <__ssvfscanf_r+0x3d6>
    413c:	4698      	mov	r8, r3
    413e:	f8d4 9004 	ldr.w	r9, [r4, #4]
    4142:	6823      	ldr	r3, [r4, #0]
    4144:	45a9      	cmp	r9, r5
    4146:	da0f      	bge.n	4168 <__ssvfscanf_r+0x3c8>
    4148:	444b      	add	r3, r9
    414a:	4650      	mov	r0, sl
    414c:	6023      	str	r3, [r4, #0]
    414e:	4621      	mov	r1, r4
    4150:	44c8      	add	r8, r9
    4152:	f005 fc95 	bl	9a80 <__ssrefill_r>
    4156:	b910      	cbnz	r0, 415e <__ssvfscanf_r+0x3be>
    4158:	ebc9 0505 	rsb	r5, r9, r5
    415c:	e7ef      	b.n	413e <__ssvfscanf_r+0x39e>
    415e:	f1b8 0f00 	cmp.w	r8, #0
    4162:	f040 8110 	bne.w	4386 <__ssvfscanf_r+0x5e6>
    4166:	e3ee      	b.n	4946 <__ssvfscanf_r+0xba6>
    4168:	ebc5 0209 	rsb	r2, r5, r9
    416c:	44a8      	add	r8, r5
    416e:	6062      	str	r2, [r4, #4]
    4170:	195d      	adds	r5, r3, r5
    4172:	6025      	str	r5, [r4, #0]
    4174:	e107      	b.n	4386 <__ssvfscanf_r+0x5e6>
    4176:	9400      	str	r4, [sp, #0]
    4178:	4650      	mov	r0, sl
    417a:	6831      	ldr	r1, [r6, #0]
    417c:	2201      	movs	r2, #1
    417e:	462b      	mov	r3, r5
    4180:	f005 fc9b 	bl	9aba <_sfread_r>
    4184:	2800      	cmp	r0, #0
    4186:	f000 83de 	beq.w	4946 <__ssvfscanf_r+0xba6>
    418a:	9b08      	ldr	r3, [sp, #32]
    418c:	3604      	adds	r6, #4
    418e:	19c7      	adds	r7, r0, r7
    4190:	3301      	adds	r3, #1
    4192:	9308      	str	r3, [sp, #32]
    4194:	e61f      	b.n	3dd6 <__ssvfscanf_r+0x36>
    4196:	2d00      	cmp	r5, #0
    4198:	bf08      	it	eq
    419a:	f04f 35ff 	moveq.w	r5, #4294967295
    419e:	f018 0f10 	tst.w	r8, #16
    41a2:	d020      	beq.n	41e6 <__ssvfscanf_r+0x446>
    41a4:	f04f 0800 	mov.w	r8, #0
    41a8:	e012      	b.n	41d0 <__ssvfscanf_r+0x430>
    41aa:	6862      	ldr	r2, [r4, #4]
    41ac:	f108 0801 	add.w	r8, r8, #1
    41b0:	3301      	adds	r3, #1
    41b2:	6023      	str	r3, [r4, #0]
    41b4:	3a01      	subs	r2, #1
    41b6:	45a8      	cmp	r8, r5
    41b8:	6062      	str	r2, [r4, #4]
    41ba:	f000 80e4 	beq.w	4386 <__ssvfscanf_r+0x5e6>
    41be:	2a00      	cmp	r2, #0
    41c0:	dc06      	bgt.n	41d0 <__ssvfscanf_r+0x430>
    41c2:	4650      	mov	r0, sl
    41c4:	4621      	mov	r1, r4
    41c6:	f005 fc5b 	bl	9a80 <__ssrefill_r>
    41ca:	2800      	cmp	r0, #0
    41cc:	f040 80db 	bne.w	4386 <__ssvfscanf_r+0x5e6>
    41d0:	6823      	ldr	r3, [r4, #0]
    41d2:	a967      	add	r1, sp, #412	; 0x19c
    41d4:	781a      	ldrb	r2, [r3, #0]
    41d6:	5c8a      	ldrb	r2, [r1, r2]
    41d8:	2a00      	cmp	r2, #0
    41da:	d1e6      	bne.n	41aa <__ssvfscanf_r+0x40a>
    41dc:	f1b8 0f00 	cmp.w	r8, #0
    41e0:	f040 80d1 	bne.w	4386 <__ssvfscanf_r+0x5e6>
    41e4:	e3bd      	b.n	4962 <__ssvfscanf_r+0xbc2>
    41e6:	f8d6 8000 	ldr.w	r8, [r6]
    41ea:	46c1      	mov	r9, r8
    41ec:	e014      	b.n	4218 <__ssvfscanf_r+0x478>
    41ee:	6862      	ldr	r2, [r4, #4]
    41f0:	3a01      	subs	r2, #1
    41f2:	6062      	str	r2, [r4, #4]
    41f4:	f813 2b01 	ldrb.w	r2, [r3], #1
    41f8:	3d01      	subs	r5, #1
    41fa:	f809 2b01 	strb.w	r2, [r9], #1
    41fe:	6023      	str	r3, [r4, #0]
    4200:	d010      	beq.n	4224 <__ssvfscanf_r+0x484>
    4202:	6863      	ldr	r3, [r4, #4]
    4204:	2b00      	cmp	r3, #0
    4206:	dc07      	bgt.n	4218 <__ssvfscanf_r+0x478>
    4208:	4650      	mov	r0, sl
    420a:	4621      	mov	r1, r4
    420c:	f005 fc38 	bl	9a80 <__ssrefill_r>
    4210:	b110      	cbz	r0, 4218 <__ssvfscanf_r+0x478>
    4212:	45c1      	cmp	r9, r8
    4214:	d106      	bne.n	4224 <__ssvfscanf_r+0x484>
    4216:	e396      	b.n	4946 <__ssvfscanf_r+0xba6>
    4218:	6823      	ldr	r3, [r4, #0]
    421a:	a967      	add	r1, sp, #412	; 0x19c
    421c:	781a      	ldrb	r2, [r3, #0]
    421e:	5c8a      	ldrb	r2, [r1, r2]
    4220:	2a00      	cmp	r2, #0
    4222:	d1e4      	bne.n	41ee <__ssvfscanf_r+0x44e>
    4224:	ebb9 0808 	subs.w	r8, r9, r8
    4228:	f000 839b 	beq.w	4962 <__ssvfscanf_r+0xbc2>
    422c:	2300      	movs	r3, #0
    422e:	f889 3000 	strb.w	r3, [r9]
    4232:	9d08      	ldr	r5, [sp, #32]
    4234:	3604      	adds	r6, #4
    4236:	3501      	adds	r5, #1
    4238:	9508      	str	r5, [sp, #32]
    423a:	e0a4      	b.n	4386 <__ssvfscanf_r+0x5e6>
    423c:	2d00      	cmp	r5, #0
    423e:	bf08      	it	eq
    4240:	f04f 35ff 	moveq.w	r5, #4294967295
    4244:	f018 0301 	ands.w	r3, r8, #1
    4248:	f008 0010 	and.w	r0, r8, #16
    424c:	9005      	str	r0, [sp, #20]
    424e:	d07d      	beq.n	434c <__ssvfscanf_r+0x5ac>
    4250:	2100      	movs	r1, #0
    4252:	a8a7      	add	r0, sp, #668	; 0x29c
    4254:	2208      	movs	r2, #8
    4256:	f003 fdce 	bl	7df6 <memset>
    425a:	9905      	ldr	r1, [sp, #20]
    425c:	b919      	cbnz	r1, 4266 <__ssvfscanf_r+0x4c6>
    425e:	f8d6 9000 	ldr.w	r9, [r6]
    4262:	3604      	adds	r6, #4
    4264:	e003      	b.n	426e <__ssvfscanf_r+0x4ce>
    4266:	f50d 792a 	add.w	r9, sp, #680	; 0x2a8
    426a:	f109 0906 	add.w	r9, r9, #6
    426e:	4633      	mov	r3, r6
    4270:	f04f 0800 	mov.w	r8, #0
    4274:	464e      	mov	r6, r9
    4276:	4699      	mov	r9, r3
    4278:	e050      	b.n	431c <__ssvfscanf_r+0x57c>
    427a:	f003 fcf3 	bl	7c64 <__locale_mb_cur_max>
    427e:	4580      	cmp	r8, r0
    4280:	f000 8361 	beq.w	4946 <__ssvfscanf_r+0xba6>
    4284:	6823      	ldr	r3, [r4, #0]
    4286:	aa0f      	add	r2, sp, #60	; 0x3c
    4288:	4650      	mov	r0, sl
    428a:	f813 1b01 	ldrb.w	r1, [r3], #1
    428e:	f802 1008 	strb.w	r1, [r2, r8]
    4292:	f108 0801 	add.w	r8, r8, #1
    4296:	6861      	ldr	r1, [r4, #4]
    4298:	6023      	str	r3, [r4, #0]
    429a:	aba7      	add	r3, sp, #668	; 0x29c
    429c:	3901      	subs	r1, #1
    429e:	9300      	str	r3, [sp, #0]
    42a0:	6061      	str	r1, [r4, #4]
    42a2:	4643      	mov	r3, r8
    42a4:	4631      	mov	r1, r6
    42a6:	f003 fd69 	bl	7d7c <_mbrtowc_r>
    42aa:	f1b0 3fff 	cmp.w	r0, #4294967295
    42ae:	f000 834a 	beq.w	4946 <__ssvfscanf_r+0xba6>
    42b2:	b918      	cbnz	r0, 42bc <__ssvfscanf_r+0x51c>
    42b4:	8030      	strh	r0, [r6, #0]
    42b6:	e004      	b.n	42c2 <__ssvfscanf_r+0x522>
    42b8:	10000520 	.word	0x10000520
    42bc:	f110 0f02 	cmn.w	r0, #2
    42c0:	d01c      	beq.n	42fc <__ssvfscanf_r+0x55c>
    42c2:	8830      	ldrh	r0, [r6, #0]
    42c4:	f003 fcbc 	bl	7c40 <iswspace>
    42c8:	b180      	cbz	r0, 42ec <__ssvfscanf_r+0x54c>
    42ca:	464b      	mov	r3, r9
    42cc:	46b1      	mov	r9, r6
    42ce:	461e      	mov	r6, r3
    42d0:	e008      	b.n	42e4 <__ssvfscanf_r+0x544>
    42d2:	f108 38ff 	add.w	r8, r8, #4294967295
    42d6:	ab0f      	add	r3, sp, #60	; 0x3c
    42d8:	4650      	mov	r0, sl
    42da:	4622      	mov	r2, r4
    42dc:	f813 1008 	ldrb.w	r1, [r3, r8]
    42e0:	f005 fb91 	bl	9a06 <_sungetc_r>
    42e4:	f1b8 0f00 	cmp.w	r8, #0
    42e8:	d1f3      	bne.n	42d2 <__ssvfscanf_r+0x532>
    42ea:	e025      	b.n	4338 <__ssvfscanf_r+0x598>
    42ec:	9a05      	ldr	r2, [sp, #20]
    42ee:	4447      	add	r7, r8
    42f0:	3d01      	subs	r5, #1
    42f2:	b912      	cbnz	r2, 42fa <__ssvfscanf_r+0x55a>
    42f4:	3602      	adds	r6, #2
    42f6:	4690      	mov	r8, r2
    42f8:	e000      	b.n	42fc <__ssvfscanf_r+0x55c>
    42fa:	4680      	mov	r8, r0
    42fc:	6863      	ldr	r3, [r4, #4]
    42fe:	2b00      	cmp	r3, #0
    4300:	dc0c      	bgt.n	431c <__ssvfscanf_r+0x57c>
    4302:	4650      	mov	r0, sl
    4304:	4621      	mov	r1, r4
    4306:	f005 fbbb 	bl	9a80 <__ssrefill_r>
    430a:	b138      	cbz	r0, 431c <__ssvfscanf_r+0x57c>
    430c:	464b      	mov	r3, r9
    430e:	46b1      	mov	r9, r6
    4310:	461e      	mov	r6, r3
    4312:	f1b8 0f00 	cmp.w	r8, #0
    4316:	f040 8316 	bne.w	4946 <__ssvfscanf_r+0xba6>
    431a:	e00d      	b.n	4338 <__ssvfscanf_r+0x598>
    431c:	6823      	ldr	r3, [r4, #0]
    431e:	4896      	ldr	r0, [pc, #600]	; (4578 <__ssvfscanf_r+0x7d8>)
    4320:	781b      	ldrb	r3, [r3, #0]
    4322:	6802      	ldr	r2, [r0, #0]
    4324:	18d3      	adds	r3, r2, r3
    4326:	785b      	ldrb	r3, [r3, #1]
    4328:	f013 0f08 	tst.w	r3, #8
    432c:	d101      	bne.n	4332 <__ssvfscanf_r+0x592>
    432e:	2d00      	cmp	r5, #0
    4330:	d1a3      	bne.n	427a <__ssvfscanf_r+0x4da>
    4332:	464b      	mov	r3, r9
    4334:	46b1      	mov	r9, r6
    4336:	461e      	mov	r6, r3
    4338:	9905      	ldr	r1, [sp, #20]
    433a:	2900      	cmp	r1, #0
    433c:	f47f ad4b 	bne.w	3dd6 <__ssvfscanf_r+0x36>
    4340:	f8a9 1000 	strh.w	r1, [r9]
    4344:	9a08      	ldr	r2, [sp, #32]
    4346:	3201      	adds	r2, #1
    4348:	9208      	str	r2, [sp, #32]
    434a:	e544      	b.n	3dd6 <__ssvfscanf_r+0x36>
    434c:	9805      	ldr	r0, [sp, #20]
    434e:	b1e0      	cbz	r0, 438a <__ssvfscanf_r+0x5ea>
    4350:	4698      	mov	r8, r3
    4352:	e00f      	b.n	4374 <__ssvfscanf_r+0x5d4>
    4354:	6862      	ldr	r2, [r4, #4]
    4356:	f108 0801 	add.w	r8, r8, #1
    435a:	3301      	adds	r3, #1
    435c:	6023      	str	r3, [r4, #0]
    435e:	3a01      	subs	r2, #1
    4360:	45a8      	cmp	r8, r5
    4362:	6062      	str	r2, [r4, #4]
    4364:	d00f      	beq.n	4386 <__ssvfscanf_r+0x5e6>
    4366:	2a00      	cmp	r2, #0
    4368:	dc04      	bgt.n	4374 <__ssvfscanf_r+0x5d4>
    436a:	4650      	mov	r0, sl
    436c:	4621      	mov	r1, r4
    436e:	f005 fb87 	bl	9a80 <__ssrefill_r>
    4372:	b940      	cbnz	r0, 4386 <__ssvfscanf_r+0x5e6>
    4374:	6823      	ldr	r3, [r4, #0]
    4376:	4880      	ldr	r0, [pc, #512]	; (4578 <__ssvfscanf_r+0x7d8>)
    4378:	781a      	ldrb	r2, [r3, #0]
    437a:	6801      	ldr	r1, [r0, #0]
    437c:	188a      	adds	r2, r1, r2
    437e:	7852      	ldrb	r2, [r2, #1]
    4380:	f012 0f08 	tst.w	r2, #8
    4384:	d0e6      	beq.n	4354 <__ssvfscanf_r+0x5b4>
    4386:	4447      	add	r7, r8
    4388:	e525      	b.n	3dd6 <__ssvfscanf_r+0x36>
    438a:	f8d6 8000 	ldr.w	r8, [r6]
    438e:	f106 0904 	add.w	r9, r6, #4
    4392:	4646      	mov	r6, r8
    4394:	e011      	b.n	43ba <__ssvfscanf_r+0x61a>
    4396:	6862      	ldr	r2, [r4, #4]
    4398:	3a01      	subs	r2, #1
    439a:	6062      	str	r2, [r4, #4]
    439c:	f813 2b01 	ldrb.w	r2, [r3], #1
    43a0:	3d01      	subs	r5, #1
    43a2:	f806 2b01 	strb.w	r2, [r6], #1
    43a6:	6023      	str	r3, [r4, #0]
    43a8:	d010      	beq.n	43cc <__ssvfscanf_r+0x62c>
    43aa:	6863      	ldr	r3, [r4, #4]
    43ac:	2b00      	cmp	r3, #0
    43ae:	dc04      	bgt.n	43ba <__ssvfscanf_r+0x61a>
    43b0:	4650      	mov	r0, sl
    43b2:	4621      	mov	r1, r4
    43b4:	f005 fb64 	bl	9a80 <__ssrefill_r>
    43b8:	b940      	cbnz	r0, 43cc <__ssvfscanf_r+0x62c>
    43ba:	6823      	ldr	r3, [r4, #0]
    43bc:	486e      	ldr	r0, [pc, #440]	; (4578 <__ssvfscanf_r+0x7d8>)
    43be:	781a      	ldrb	r2, [r3, #0]
    43c0:	6801      	ldr	r1, [r0, #0]
    43c2:	188a      	adds	r2, r1, r2
    43c4:	7852      	ldrb	r2, [r2, #1]
    43c6:	f012 0f08 	tst.w	r2, #8
    43ca:	d0e4      	beq.n	4396 <__ssvfscanf_r+0x5f6>
    43cc:	2300      	movs	r3, #0
    43ce:	7033      	strb	r3, [r6, #0]
    43d0:	9908      	ldr	r1, [sp, #32]
    43d2:	ebc8 0707 	rsb	r7, r8, r7
    43d6:	19f7      	adds	r7, r6, r7
    43d8:	3101      	adds	r1, #1
    43da:	9108      	str	r1, [sp, #32]
    43dc:	e2b0      	b.n	4940 <__ssvfscanf_r+0xba0>
    43de:	1e6b      	subs	r3, r5, #1
    43e0:	f5b3 7fae 	cmp.w	r3, #348	; 0x15c
    43e4:	d905      	bls.n	43f2 <__ssvfscanf_r+0x652>
    43e6:	f5a5 73ae 	sub.w	r3, r5, #348	; 0x15c
    43ea:	f240 155d 	movw	r5, #349	; 0x15d
    43ee:	3b01      	subs	r3, #1
    43f0:	e000      	b.n	43f4 <__ssvfscanf_r+0x654>
    43f2:	2300      	movs	r3, #0
    43f4:	46bc      	mov	ip, r7
    43f6:	f448 6858 	orr.w	r8, r8, #3456	; 0xd80
    43fa:	f10d 093c 	add.w	r9, sp, #60	; 0x3c
    43fe:	461f      	mov	r7, r3
    4400:	2200      	movs	r2, #0
    4402:	9205      	str	r2, [sp, #20]
    4404:	6822      	ldr	r2, [r4, #0]
    4406:	7812      	ldrb	r2, [r2, #0]
    4408:	2a39      	cmp	r2, #57	; 0x39
    440a:	d809      	bhi.n	4420 <__ssvfscanf_r+0x680>
    440c:	2a38      	cmp	r2, #56	; 0x38
    440e:	d233      	bcs.n	4478 <__ssvfscanf_r+0x6d8>
    4410:	2a30      	cmp	r2, #48	; 0x30
    4412:	d014      	beq.n	443e <__ssvfscanf_r+0x69e>
    4414:	d82c      	bhi.n	4470 <__ssvfscanf_r+0x6d0>
    4416:	2a2b      	cmp	r2, #43	; 0x2b
    4418:	d03a      	beq.n	4490 <__ssvfscanf_r+0x6f0>
    441a:	2a2d      	cmp	r2, #45	; 0x2d
    441c:	d15f      	bne.n	44de <__ssvfscanf_r+0x73e>
    441e:	e037      	b.n	4490 <__ssvfscanf_r+0x6f0>
    4420:	2a58      	cmp	r2, #88	; 0x58
    4422:	d03b      	beq.n	449c <__ssvfscanf_r+0x6fc>
    4424:	d804      	bhi.n	4430 <__ssvfscanf_r+0x690>
    4426:	f1a2 0141 	sub.w	r1, r2, #65	; 0x41
    442a:	2905      	cmp	r1, #5
    442c:	d857      	bhi.n	44de <__ssvfscanf_r+0x73e>
    442e:	e029      	b.n	4484 <__ssvfscanf_r+0x6e4>
    4430:	2a61      	cmp	r2, #97	; 0x61
    4432:	d354      	bcc.n	44de <__ssvfscanf_r+0x73e>
    4434:	2a66      	cmp	r2, #102	; 0x66
    4436:	d925      	bls.n	4484 <__ssvfscanf_r+0x6e4>
    4438:	2a78      	cmp	r2, #120	; 0x78
    443a:	d150      	bne.n	44de <__ssvfscanf_r+0x73e>
    443c:	e02e      	b.n	449c <__ssvfscanf_r+0x6fc>
    443e:	f418 6f00 	tst.w	r8, #2048	; 0x800
    4442:	d036      	beq.n	44b2 <__ssvfscanf_r+0x712>
    4444:	f1bb 0f00 	cmp.w	fp, #0
    4448:	d103      	bne.n	4452 <__ssvfscanf_r+0x6b2>
    444a:	f448 7800 	orr.w	r8, r8, #512	; 0x200
    444e:	f10b 0b08 	add.w	fp, fp, #8
    4452:	f418 6f80 	tst.w	r8, #1024	; 0x400
    4456:	d002      	beq.n	445e <__ssvfscanf_r+0x6be>
    4458:	f428 68b0 	bic.w	r8, r8, #1408	; 0x580
    445c:	e029      	b.n	44b2 <__ssvfscanf_r+0x712>
    445e:	f428 7860 	bic.w	r8, r8, #896	; 0x380
    4462:	b10f      	cbz	r7, 4468 <__ssvfscanf_r+0x6c8>
    4464:	3f01      	subs	r7, #1
    4466:	3501      	adds	r5, #1
    4468:	9b05      	ldr	r3, [sp, #20]
    446a:	3301      	adds	r3, #1
    446c:	9305      	str	r3, [sp, #20]
    446e:	e022      	b.n	44b6 <__ssvfscanf_r+0x716>
    4470:	4942      	ldr	r1, [pc, #264]	; (457c <__ssvfscanf_r+0x7dc>)
    4472:	f931 b01b 	ldrsh.w	fp, [r1, fp, lsl #1]
    4476:	e008      	b.n	448a <__ssvfscanf_r+0x6ea>
    4478:	4940      	ldr	r1, [pc, #256]	; (457c <__ssvfscanf_r+0x7dc>)
    447a:	f931 b01b 	ldrsh.w	fp, [r1, fp, lsl #1]
    447e:	f1bb 0f08 	cmp.w	fp, #8
    4482:	e001      	b.n	4488 <__ssvfscanf_r+0x6e8>
    4484:	f1bb 0f0a 	cmp.w	fp, #10
    4488:	dd29      	ble.n	44de <__ssvfscanf_r+0x73e>
    448a:	f428 6838 	bic.w	r8, r8, #2944	; 0xb80
    448e:	e010      	b.n	44b2 <__ssvfscanf_r+0x712>
    4490:	f018 0f80 	tst.w	r8, #128	; 0x80
    4494:	d023      	beq.n	44de <__ssvfscanf_r+0x73e>
    4496:	f028 0880 	bic.w	r8, r8, #128	; 0x80
    449a:	e00a      	b.n	44b2 <__ssvfscanf_r+0x712>
    449c:	f408 61c0 	and.w	r1, r8, #1536	; 0x600
    44a0:	f5b1 7f00 	cmp.w	r1, #512	; 0x200
    44a4:	d11b      	bne.n	44de <__ssvfscanf_r+0x73e>
    44a6:	f428 7800 	bic.w	r8, r8, #512	; 0x200
    44aa:	f04f 0b10 	mov.w	fp, #16
    44ae:	f448 68a0 	orr.w	r8, r8, #1280	; 0x500
    44b2:	f809 2b01 	strb.w	r2, [r9], #1
    44b6:	6862      	ldr	r2, [r4, #4]
    44b8:	3a01      	subs	r2, #1
    44ba:	6062      	str	r2, [r4, #4]
    44bc:	2a00      	cmp	r2, #0
    44be:	dd03      	ble.n	44c8 <__ssvfscanf_r+0x728>
    44c0:	6822      	ldr	r2, [r4, #0]
    44c2:	3201      	adds	r2, #1
    44c4:	6022      	str	r2, [r4, #0]
    44c6:	e008      	b.n	44da <__ssvfscanf_r+0x73a>
    44c8:	4650      	mov	r0, sl
    44ca:	4621      	mov	r1, r4
    44cc:	f8cd c010 	str.w	ip, [sp, #16]
    44d0:	f005 fad6 	bl	9a80 <__ssrefill_r>
    44d4:	f8dd c010 	ldr.w	ip, [sp, #16]
    44d8:	b908      	cbnz	r0, 44de <__ssvfscanf_r+0x73e>
    44da:	3d01      	subs	r5, #1
    44dc:	d192      	bne.n	4404 <__ssvfscanf_r+0x664>
    44de:	f418 7f80 	tst.w	r8, #256	; 0x100
    44e2:	4667      	mov	r7, ip
    44e4:	d00c      	beq.n	4500 <__ssvfscanf_r+0x760>
    44e6:	ab0f      	add	r3, sp, #60	; 0x3c
    44e8:	4599      	cmp	r9, r3
    44ea:	d905      	bls.n	44f8 <__ssvfscanf_r+0x758>
    44ec:	4650      	mov	r0, sl
    44ee:	f819 1d01 	ldrb.w	r1, [r9, #-1]!
    44f2:	4622      	mov	r2, r4
    44f4:	f005 fa87 	bl	9a06 <_sungetc_r>
    44f8:	ab0f      	add	r3, sp, #60	; 0x3c
    44fa:	4599      	cmp	r9, r3
    44fc:	f000 8231 	beq.w	4962 <__ssvfscanf_r+0xbc2>
    4500:	f018 0210 	ands.w	r2, r8, #16
    4504:	d131      	bne.n	456a <__ssvfscanf_r+0x7ca>
    4506:	f889 2000 	strb.w	r2, [r9]
    450a:	465b      	mov	r3, fp
    450c:	4650      	mov	r0, sl
    450e:	a90f      	add	r1, sp, #60	; 0x3c
    4510:	9d09      	ldr	r5, [sp, #36]	; 0x24
    4512:	47a8      	blx	r5
    4514:	f018 0f20 	tst.w	r8, #32
    4518:	f106 0304 	add.w	r3, r6, #4
    451c:	d11f      	bne.n	455e <__ssvfscanf_r+0x7be>
    451e:	f018 0f04 	tst.w	r8, #4
    4522:	d002      	beq.n	452a <__ssvfscanf_r+0x78a>
    4524:	6832      	ldr	r2, [r6, #0]
    4526:	8010      	strh	r0, [r2, #0]
    4528:	e01b      	b.n	4562 <__ssvfscanf_r+0x7c2>
    452a:	f018 0201 	ands.w	r2, r8, #1
    452e:	d116      	bne.n	455e <__ssvfscanf_r+0x7be>
    4530:	f018 0f02 	tst.w	r8, #2
    4534:	d013      	beq.n	455e <__ssvfscanf_r+0x7be>
    4536:	4b12      	ldr	r3, [pc, #72]	; (4580 <__ssvfscanf_r+0x7e0>)
    4538:	9809      	ldr	r0, [sp, #36]	; 0x24
    453a:	4298      	cmp	r0, r3
    453c:	d105      	bne.n	454a <__ssvfscanf_r+0x7aa>
    453e:	4650      	mov	r0, sl
    4540:	a90f      	add	r1, sp, #60	; 0x3c
    4542:	465b      	mov	r3, fp
    4544:	f005 f93a 	bl	97bc <_strtoull_r>
    4548:	e004      	b.n	4554 <__ssvfscanf_r+0x7b4>
    454a:	4650      	mov	r0, sl
    454c:	a90f      	add	r1, sp, #60	; 0x3c
    454e:	465b      	mov	r3, fp
    4550:	f005 f800 	bl	9554 <_strtoll_r>
    4554:	6833      	ldr	r3, [r6, #0]
    4556:	3604      	adds	r6, #4
    4558:	6018      	str	r0, [r3, #0]
    455a:	6059      	str	r1, [r3, #4]
    455c:	e002      	b.n	4564 <__ssvfscanf_r+0x7c4>
    455e:	6832      	ldr	r2, [r6, #0]
    4560:	6010      	str	r0, [r2, #0]
    4562:	461e      	mov	r6, r3
    4564:	9908      	ldr	r1, [sp, #32]
    4566:	3101      	adds	r1, #1
    4568:	9108      	str	r1, [sp, #32]
    456a:	ab0f      	add	r3, sp, #60	; 0x3c
    456c:	9a05      	ldr	r2, [sp, #20]
    456e:	1aff      	subs	r7, r7, r3
    4570:	18bf      	adds	r7, r7, r2
    4572:	444f      	add	r7, r9
    4574:	e42f      	b.n	3dd6 <__ssvfscanf_r+0x36>
    4576:	bf00      	nop
    4578:	10000520 	.word	0x10000520
    457c:	0000c0d2 	.word	0x0000c0d2
    4580:	000096c1 	.word	0x000096c1
    4584:	1e6b      	subs	r3, r5, #1
    4586:	f5b3 7fae 	cmp.w	r3, #348	; 0x15c
    458a:	d906      	bls.n	459a <__ssvfscanf_r+0x7fa>
    458c:	f5a5 75ae 	sub.w	r5, r5, #348	; 0x15c
    4590:	3d01      	subs	r5, #1
    4592:	950b      	str	r5, [sp, #44]	; 0x2c
    4594:	f240 155d 	movw	r5, #349	; 0x15d
    4598:	e001      	b.n	459e <__ssvfscanf_r+0x7fe>
    459a:	2300      	movs	r3, #0
    459c:	930b      	str	r3, [sp, #44]	; 0x2c
    459e:	f04f 0900 	mov.w	r9, #0
    45a2:	ab0f      	add	r3, sp, #60	; 0x3c
    45a4:	f8cd b014 	str.w	fp, [sp, #20]
    45a8:	f448 68f0 	orr.w	r8, r8, #1920	; 0x780
    45ac:	46bb      	mov	fp, r7
    45ae:	9606      	str	r6, [sp, #24]
    45b0:	461f      	mov	r7, r3
    45b2:	464e      	mov	r6, r9
    45b4:	4653      	mov	r3, sl
    45b6:	46ca      	mov	sl, r9
    45b8:	f8cd 9028 	str.w	r9, [sp, #40]	; 0x28
    45bc:	f8cd 9034 	str.w	r9, [sp, #52]	; 0x34
    45c0:	f8cd 9030 	str.w	r9, [sp, #48]	; 0x30
    45c4:	6821      	ldr	r1, [r4, #0]
    45c6:	7809      	ldrb	r1, [r1, #0]
    45c8:	294e      	cmp	r1, #78	; 0x4e
    45ca:	d058      	beq.n	467e <__ssvfscanf_r+0x8de>
    45cc:	d81d      	bhi.n	460a <__ssvfscanf_r+0x86a>
    45ce:	2939      	cmp	r1, #57	; 0x39
    45d0:	d80f      	bhi.n	45f2 <__ssvfscanf_r+0x852>
    45d2:	2931      	cmp	r1, #49	; 0x31
    45d4:	d244      	bcs.n	4660 <__ssvfscanf_r+0x8c0>
    45d6:	292e      	cmp	r1, #46	; 0x2e
    45d8:	f000 8092 	beq.w	4700 <__ssvfscanf_r+0x960>
    45dc:	d805      	bhi.n	45ea <__ssvfscanf_r+0x84a>
    45de:	292b      	cmp	r1, #43	; 0x2b
    45e0:	d046      	beq.n	4670 <__ssvfscanf_r+0x8d0>
    45e2:	292d      	cmp	r1, #45	; 0x2d
    45e4:	f040 80cf 	bne.w	4786 <__ssvfscanf_r+0x9e6>
    45e8:	e042      	b.n	4670 <__ssvfscanf_r+0x8d0>
    45ea:	2930      	cmp	r1, #48	; 0x30
    45ec:	f040 80cb 	bne.w	4786 <__ssvfscanf_r+0x9e6>
    45f0:	e028      	b.n	4644 <__ssvfscanf_r+0x8a4>
    45f2:	2945      	cmp	r1, #69	; 0x45
    45f4:	f000 808b 	beq.w	470e <__ssvfscanf_r+0x96e>
    45f8:	d803      	bhi.n	4602 <__ssvfscanf_r+0x862>
    45fa:	2941      	cmp	r1, #65	; 0x41
    45fc:	f040 80c3 	bne.w	4786 <__ssvfscanf_r+0x9e6>
    4600:	e054      	b.n	46ac <__ssvfscanf_r+0x90c>
    4602:	2946      	cmp	r1, #70	; 0x46
    4604:	d070      	beq.n	46e8 <__ssvfscanf_r+0x948>
    4606:	2949      	cmp	r1, #73	; 0x49
    4608:	e013      	b.n	4632 <__ssvfscanf_r+0x892>
    460a:	2966      	cmp	r1, #102	; 0x66
    460c:	d06c      	beq.n	46e8 <__ssvfscanf_r+0x948>
    460e:	d80c      	bhi.n	462a <__ssvfscanf_r+0x88a>
    4610:	2959      	cmp	r1, #89	; 0x59
    4612:	d071      	beq.n	46f8 <__ssvfscanf_r+0x958>
    4614:	d803      	bhi.n	461e <__ssvfscanf_r+0x87e>
    4616:	2954      	cmp	r1, #84	; 0x54
    4618:	f040 80b5 	bne.w	4786 <__ssvfscanf_r+0x9e6>
    461c:	e068      	b.n	46f0 <__ssvfscanf_r+0x950>
    461e:	2961      	cmp	r1, #97	; 0x61
    4620:	d044      	beq.n	46ac <__ssvfscanf_r+0x90c>
    4622:	2965      	cmp	r1, #101	; 0x65
    4624:	f040 80af 	bne.w	4786 <__ssvfscanf_r+0x9e6>
    4628:	e071      	b.n	470e <__ssvfscanf_r+0x96e>
    462a:	296e      	cmp	r1, #110	; 0x6e
    462c:	d027      	beq.n	467e <__ssvfscanf_r+0x8de>
    462e:	d803      	bhi.n	4638 <__ssvfscanf_r+0x898>
    4630:	2969      	cmp	r1, #105	; 0x69
    4632:	f040 80a8 	bne.w	4786 <__ssvfscanf_r+0x9e6>
    4636:	e03d      	b.n	46b4 <__ssvfscanf_r+0x914>
    4638:	2974      	cmp	r1, #116	; 0x74
    463a:	d059      	beq.n	46f0 <__ssvfscanf_r+0x950>
    463c:	2979      	cmp	r1, #121	; 0x79
    463e:	f040 80a2 	bne.w	4786 <__ssvfscanf_r+0x9e6>
    4642:	e059      	b.n	46f8 <__ssvfscanf_r+0x958>
    4644:	f418 7f80 	tst.w	r8, #256	; 0x100
    4648:	d00a      	beq.n	4660 <__ssvfscanf_r+0x8c0>
    464a:	980b      	ldr	r0, [sp, #44]	; 0x2c
    464c:	f028 0880 	bic.w	r8, r8, #128	; 0x80
    4650:	3601      	adds	r6, #1
    4652:	2800      	cmp	r0, #0
    4654:	f000 8082 	beq.w	475c <__ssvfscanf_r+0x9bc>
    4658:	3801      	subs	r0, #1
    465a:	3501      	adds	r5, #1
    465c:	900b      	str	r0, [sp, #44]	; 0x2c
    465e:	e07d      	b.n	475c <__ssvfscanf_r+0x9bc>
    4660:	eb09 000a 	add.w	r0, r9, sl
    4664:	2800      	cmp	r0, #0
    4666:	f040 808e 	bne.w	4786 <__ssvfscanf_r+0x9e6>
    466a:	f428 78c0 	bic.w	r8, r8, #384	; 0x180
    466e:	e073      	b.n	4758 <__ssvfscanf_r+0x9b8>
    4670:	f018 0f80 	tst.w	r8, #128	; 0x80
    4674:	f000 8087 	beq.w	4786 <__ssvfscanf_r+0x9e6>
    4678:	f028 0880 	bic.w	r8, r8, #128	; 0x80
    467c:	e06c      	b.n	4758 <__ssvfscanf_r+0x9b8>
    467e:	f1ba 0f00 	cmp.w	sl, #0
    4682:	d10a      	bne.n	469a <__ssvfscanf_r+0x8fa>
    4684:	b966      	cbnz	r6, 46a0 <__ssvfscanf_r+0x900>
    4686:	f408 60e0 	and.w	r0, r8, #1792	; 0x700
    468a:	f5b0 6fe0 	cmp.w	r0, #1792	; 0x700
    468e:	d107      	bne.n	46a0 <__ssvfscanf_r+0x900>
    4690:	f428 68f0 	bic.w	r8, r8, #1920	; 0x780
    4694:	f10a 0a01 	add.w	sl, sl, #1
    4698:	e05e      	b.n	4758 <__ssvfscanf_r+0x9b8>
    469a:	f1ba 0f02 	cmp.w	sl, #2
    469e:	d04d      	beq.n	473c <__ssvfscanf_r+0x99c>
    46a0:	f1b9 0f01 	cmp.w	r9, #1
    46a4:	d01b      	beq.n	46de <__ssvfscanf_r+0x93e>
    46a6:	f1b9 0f04 	cmp.w	r9, #4
    46aa:	e017      	b.n	46dc <__ssvfscanf_r+0x93c>
    46ac:	f1ba 0f01 	cmp.w	sl, #1
    46b0:	d047      	beq.n	4742 <__ssvfscanf_r+0x9a2>
    46b2:	e068      	b.n	4786 <__ssvfscanf_r+0x9e6>
    46b4:	f1b9 0f00 	cmp.w	r9, #0
    46b8:	d10b      	bne.n	46d2 <__ssvfscanf_r+0x932>
    46ba:	2e00      	cmp	r6, #0
    46bc:	d16f      	bne.n	479e <__ssvfscanf_r+0x9fe>
    46be:	f408 60e0 	and.w	r0, r8, #1792	; 0x700
    46c2:	f5b0 6fe0 	cmp.w	r0, #1792	; 0x700
    46c6:	d175      	bne.n	47b4 <__ssvfscanf_r+0xa14>
    46c8:	f428 68f0 	bic.w	r8, r8, #1920	; 0x780
    46cc:	f109 0901 	add.w	r9, r9, #1
    46d0:	e042      	b.n	4758 <__ssvfscanf_r+0x9b8>
    46d2:	f1b9 0f03 	cmp.w	r9, #3
    46d6:	d002      	beq.n	46de <__ssvfscanf_r+0x93e>
    46d8:	f1b9 0f05 	cmp.w	r9, #5
    46dc:	d153      	bne.n	4786 <__ssvfscanf_r+0x9e6>
    46de:	f109 0901 	add.w	r9, r9, #1
    46e2:	fa5f f989 	uxtb.w	r9, r9
    46e6:	e037      	b.n	4758 <__ssvfscanf_r+0x9b8>
    46e8:	f1b9 0f02 	cmp.w	r9, #2
    46ec:	d02c      	beq.n	4748 <__ssvfscanf_r+0x9a8>
    46ee:	e04a      	b.n	4786 <__ssvfscanf_r+0x9e6>
    46f0:	f1b9 0f06 	cmp.w	r9, #6
    46f4:	d02b      	beq.n	474e <__ssvfscanf_r+0x9ae>
    46f6:	e046      	b.n	4786 <__ssvfscanf_r+0x9e6>
    46f8:	f1b9 0f07 	cmp.w	r9, #7
    46fc:	d02a      	beq.n	4754 <__ssvfscanf_r+0x9b4>
    46fe:	e042      	b.n	4786 <__ssvfscanf_r+0x9e6>
    4700:	f418 7f00 	tst.w	r8, #512	; 0x200
    4704:	d03f      	beq.n	4786 <__ssvfscanf_r+0x9e6>
    4706:	f428 7820 	bic.w	r8, r8, #640	; 0x280
    470a:	960c      	str	r6, [sp, #48]	; 0x30
    470c:	e024      	b.n	4758 <__ssvfscanf_r+0x9b8>
    470e:	f408 60a0 	and.w	r0, r8, #1280	; 0x500
    4712:	f5b0 6f80 	cmp.w	r0, #1024	; 0x400
    4716:	d004      	beq.n	4722 <__ssvfscanf_r+0x982>
    4718:	f418 6f80 	tst.w	r8, #1024	; 0x400
    471c:	d033      	beq.n	4786 <__ssvfscanf_r+0x9e6>
    471e:	2e00      	cmp	r6, #0
    4720:	d048      	beq.n	47b4 <__ssvfscanf_r+0xa14>
    4722:	f418 7f00 	tst.w	r8, #512	; 0x200
    4726:	d103      	bne.n	4730 <__ssvfscanf_r+0x990>
    4728:	9a0c      	ldr	r2, [sp, #48]	; 0x30
    472a:	970a      	str	r7, [sp, #40]	; 0x28
    472c:	1ab6      	subs	r6, r6, r2
    472e:	960d      	str	r6, [sp, #52]	; 0x34
    4730:	f428 68f0 	bic.w	r8, r8, #1920	; 0x780
    4734:	2600      	movs	r6, #0
    4736:	f448 78c0 	orr.w	r8, r8, #384	; 0x180
    473a:	e00d      	b.n	4758 <__ssvfscanf_r+0x9b8>
    473c:	f04f 0a03 	mov.w	sl, #3
    4740:	e00a      	b.n	4758 <__ssvfscanf_r+0x9b8>
    4742:	f04f 0a02 	mov.w	sl, #2
    4746:	e007      	b.n	4758 <__ssvfscanf_r+0x9b8>
    4748:	f04f 0903 	mov.w	r9, #3
    474c:	e004      	b.n	4758 <__ssvfscanf_r+0x9b8>
    474e:	f04f 0907 	mov.w	r9, #7
    4752:	e001      	b.n	4758 <__ssvfscanf_r+0x9b8>
    4754:	f04f 0908 	mov.w	r9, #8
    4758:	f807 1b01 	strb.w	r1, [r7], #1
    475c:	6861      	ldr	r1, [r4, #4]
    475e:	f10b 0b01 	add.w	fp, fp, #1
    4762:	3901      	subs	r1, #1
    4764:	6061      	str	r1, [r4, #4]
    4766:	2900      	cmp	r1, #0
    4768:	dd03      	ble.n	4772 <__ssvfscanf_r+0x9d2>
    476a:	6821      	ldr	r1, [r4, #0]
    476c:	3101      	adds	r1, #1
    476e:	6021      	str	r1, [r4, #0]
    4770:	e006      	b.n	4780 <__ssvfscanf_r+0x9e0>
    4772:	4618      	mov	r0, r3
    4774:	4621      	mov	r1, r4
    4776:	9303      	str	r3, [sp, #12]
    4778:	f005 f982 	bl	9a80 <__ssrefill_r>
    477c:	9b03      	ldr	r3, [sp, #12]
    477e:	b910      	cbnz	r0, 4786 <__ssvfscanf_r+0x9e6>
    4780:	3d01      	subs	r5, #1
    4782:	f47f af1f 	bne.w	45c4 <__ssvfscanf_r+0x824>
    4786:	46b4      	mov	ip, r6
    4788:	4652      	mov	r2, sl
    478a:	9e06      	ldr	r6, [sp, #24]
    478c:	469a      	mov	sl, r3
    478e:	463b      	mov	r3, r7
    4790:	465f      	mov	r7, fp
    4792:	f8dd b014 	ldr.w	fp, [sp, #20]
    4796:	f1bc 0f00 	cmp.w	ip, #0
    479a:	d013      	beq.n	47c4 <__ssvfscanf_r+0xa24>
    479c:	e007      	b.n	47ae <__ssvfscanf_r+0xa0e>
    479e:	46b4      	mov	ip, r6
    47a0:	4652      	mov	r2, sl
    47a2:	9e06      	ldr	r6, [sp, #24]
    47a4:	469a      	mov	sl, r3
    47a6:	463b      	mov	r3, r7
    47a8:	465f      	mov	r7, fp
    47aa:	f8dd b014 	ldr.w	fp, [sp, #20]
    47ae:	f428 7880 	bic.w	r8, r8, #256	; 0x100
    47b2:	e007      	b.n	47c4 <__ssvfscanf_r+0xa24>
    47b4:	46b4      	mov	ip, r6
    47b6:	4652      	mov	r2, sl
    47b8:	9e06      	ldr	r6, [sp, #24]
    47ba:	469a      	mov	sl, r3
    47bc:	463b      	mov	r3, r7
    47be:	465f      	mov	r7, fp
    47c0:	f8dd b014 	ldr.w	fp, [sp, #20]
    47c4:	3a01      	subs	r2, #1
    47c6:	2a01      	cmp	r2, #1
    47c8:	d80b      	bhi.n	47e2 <__ssvfscanf_r+0xa42>
    47ca:	461d      	mov	r5, r3
    47cc:	e005      	b.n	47da <__ssvfscanf_r+0xa3a>
    47ce:	4650      	mov	r0, sl
    47d0:	f815 1d01 	ldrb.w	r1, [r5, #-1]!
    47d4:	4622      	mov	r2, r4
    47d6:	f005 f916 	bl	9a06 <_sungetc_r>
    47da:	ab0f      	add	r3, sp, #60	; 0x3c
    47dc:	429d      	cmp	r5, r3
    47de:	d8f6      	bhi.n	47ce <__ssvfscanf_r+0xa2e>
    47e0:	e0bf      	b.n	4962 <__ssvfscanf_r+0xbc2>
    47e2:	f109 32ff 	add.w	r2, r9, #4294967295
    47e6:	2a06      	cmp	r2, #6
    47e8:	d82c      	bhi.n	4844 <__ssvfscanf_r+0xaa4>
    47ea:	f1b9 0f02 	cmp.w	r9, #2
    47ee:	d801      	bhi.n	47f4 <__ssvfscanf_r+0xa54>
    47f0:	461d      	mov	r5, r3
    47f2:	e023      	b.n	483c <__ssvfscanf_r+0xa9c>
    47f4:	9305      	str	r3, [sp, #20]
    47f6:	464d      	mov	r5, r9
    47f8:	e00d      	b.n	4816 <__ssvfscanf_r+0xa76>
    47fa:	9a05      	ldr	r2, [sp, #20]
    47fc:	4650      	mov	r0, sl
    47fe:	f812 1d01 	ldrb.w	r1, [r2, #-1]!
    4802:	9303      	str	r3, [sp, #12]
    4804:	f8cd c010 	str.w	ip, [sp, #16]
    4808:	9205      	str	r2, [sp, #20]
    480a:	4622      	mov	r2, r4
    480c:	f005 f8fb 	bl	9a06 <_sungetc_r>
    4810:	f8dd c010 	ldr.w	ip, [sp, #16]
    4814:	9b03      	ldr	r3, [sp, #12]
    4816:	3d01      	subs	r5, #1
    4818:	b2ed      	uxtb	r5, r5
    481a:	2d02      	cmp	r5, #2
    481c:	d1ed      	bne.n	47fa <__ssvfscanf_r+0xa5a>
    481e:	f1a9 0903 	sub.w	r9, r9, #3
    4822:	fa5f f989 	uxtb.w	r9, r9
    4826:	ebc9 0303 	rsb	r3, r9, r3
    482a:	ebc9 0707 	rsb	r7, r9, r7
    482e:	e009      	b.n	4844 <__ssvfscanf_r+0xaa4>
    4830:	4650      	mov	r0, sl
    4832:	f815 1d01 	ldrb.w	r1, [r5, #-1]!
    4836:	4622      	mov	r2, r4
    4838:	f005 f8e5 	bl	9a06 <_sungetc_r>
    483c:	ab0f      	add	r3, sp, #60	; 0x3c
    483e:	429d      	cmp	r5, r3
    4840:	d8f6      	bhi.n	4830 <__ssvfscanf_r+0xa90>
    4842:	e08e      	b.n	4962 <__ssvfscanf_r+0xbc2>
    4844:	f418 7f80 	tst.w	r8, #256	; 0x100
    4848:	d02c      	beq.n	48a4 <__ssvfscanf_r+0xb04>
    484a:	f418 6f80 	tst.w	r8, #1024	; 0x400
    484e:	d00b      	beq.n	4868 <__ssvfscanf_r+0xac8>
    4850:	461d      	mov	r5, r3
    4852:	e005      	b.n	4860 <__ssvfscanf_r+0xac0>
    4854:	4650      	mov	r0, sl
    4856:	f815 1d01 	ldrb.w	r1, [r5, #-1]!
    485a:	4622      	mov	r2, r4
    485c:	f005 f8d3 	bl	9a06 <_sungetc_r>
    4860:	ab0f      	add	r3, sp, #60	; 0x3c
    4862:	429d      	cmp	r5, r3
    4864:	d8f6      	bhi.n	4854 <__ssvfscanf_r+0xab4>
    4866:	e07c      	b.n	4962 <__ssvfscanf_r+0xbc2>
    4868:	f813 1d01 	ldrb.w	r1, [r3, #-1]!
    486c:	3f01      	subs	r7, #1
    486e:	2965      	cmp	r1, #101	; 0x65
    4870:	d00e      	beq.n	4890 <__ssvfscanf_r+0xaf0>
    4872:	2945      	cmp	r1, #69	; 0x45
    4874:	d00c      	beq.n	4890 <__ssvfscanf_r+0xaf0>
    4876:	4650      	mov	r0, sl
    4878:	4622      	mov	r2, r4
    487a:	9303      	str	r3, [sp, #12]
    487c:	3f01      	subs	r7, #1
    487e:	f8cd c010 	str.w	ip, [sp, #16]
    4882:	f005 f8c0 	bl	9a06 <_sungetc_r>
    4886:	9b03      	ldr	r3, [sp, #12]
    4888:	f8dd c010 	ldr.w	ip, [sp, #16]
    488c:	f813 1d01 	ldrb.w	r1, [r3, #-1]!
    4890:	4650      	mov	r0, sl
    4892:	4622      	mov	r2, r4
    4894:	9303      	str	r3, [sp, #12]
    4896:	f8cd c010 	str.w	ip, [sp, #16]
    489a:	f005 f8b4 	bl	9a06 <_sungetc_r>
    489e:	f8dd c010 	ldr.w	ip, [sp, #16]
    48a2:	9b03      	ldr	r3, [sp, #12]
    48a4:	f018 0210 	ands.w	r2, r8, #16
    48a8:	f47f aa95 	bne.w	3dd6 <__ssvfscanf_r+0x36>
    48ac:	f408 61c0 	and.w	r1, r8, #1536	; 0x600
    48b0:	701a      	strb	r2, [r3, #0]
    48b2:	f5b1 6f80 	cmp.w	r1, #1024	; 0x400
    48b6:	d107      	bne.n	48c8 <__ssvfscanf_r+0xb28>
    48b8:	9d0c      	ldr	r5, [sp, #48]	; 0x30
    48ba:	ebbc 0c05 	subs.w	ip, ip, r5
    48be:	d019      	beq.n	48f4 <__ssvfscanf_r+0xb54>
    48c0:	f1cc 0200 	rsb	r2, ip, #0
    48c4:	930a      	str	r3, [sp, #40]	; 0x28
    48c6:	e009      	b.n	48dc <__ssvfscanf_r+0xb3c>
    48c8:	980d      	ldr	r0, [sp, #52]	; 0x34
    48ca:	b198      	cbz	r0, 48f4 <__ssvfscanf_r+0xb54>
    48cc:	9b0a      	ldr	r3, [sp, #40]	; 0x28
    48ce:	4650      	mov	r0, sl
    48d0:	1c59      	adds	r1, r3, #1
    48d2:	230a      	movs	r3, #10
    48d4:	f004 fdac 	bl	9430 <_strtol_r>
    48d8:	9d0d      	ldr	r5, [sp, #52]	; 0x34
    48da:	1b42      	subs	r2, r0, r5
    48dc:	980a      	ldr	r0, [sp, #40]	; 0x28
    48de:	ab63      	add	r3, sp, #396	; 0x18c
    48e0:	3303      	adds	r3, #3
    48e2:	4298      	cmp	r0, r3
    48e4:	bf24      	itt	cs
    48e6:	f50d 71c7 	addcs.w	r1, sp, #398	; 0x18e
    48ea:	910a      	strcs	r1, [sp, #40]	; 0x28
    48ec:	4922      	ldr	r1, [pc, #136]	; (4978 <__ssvfscanf_r+0xbd8>)
    48ee:	980a      	ldr	r0, [sp, #40]	; 0x28
    48f0:	f7fe f918 	bl	2b24 <sprintf>
    48f4:	2200      	movs	r2, #0
    48f6:	4650      	mov	r0, sl
    48f8:	a90f      	add	r1, sp, #60	; 0x3c
    48fa:	f106 0904 	add.w	r9, r6, #4
    48fe:	f003 ffab 	bl	8858 <_strtod_r>
    4902:	f018 0f01 	tst.w	r8, #1
    4906:	4602      	mov	r2, r0
    4908:	460b      	mov	r3, r1
    490a:	d102      	bne.n	4912 <__ssvfscanf_r+0xb72>
    490c:	f018 0f02 	tst.w	r8, #2
    4910:	d003      	beq.n	491a <__ssvfscanf_r+0xb7a>
    4912:	6831      	ldr	r1, [r6, #0]
    4914:	e9c1 2300 	strd	r2, r3, [r1]
    4918:	e00f      	b.n	493a <__ssvfscanf_r+0xb9a>
    491a:	6835      	ldr	r5, [r6, #0]
    491c:	9004      	str	r0, [sp, #16]
    491e:	9103      	str	r1, [sp, #12]
    4920:	f003 ff1c 	bl	875c <__fpclassifyd>
    4924:	9a04      	ldr	r2, [sp, #16]
    4926:	9b03      	ldr	r3, [sp, #12]
    4928:	b910      	cbnz	r0, 4930 <__ssvfscanf_r+0xb90>
    492a:	f003 ff7b 	bl	8824 <nanf>
    492e:	e003      	b.n	4938 <__ssvfscanf_r+0xb98>
    4930:	4610      	mov	r0, r2
    4932:	4619      	mov	r1, r3
    4934:	f7fc ff3a 	bl	17ac <__aeabi_d2f>
    4938:	6028      	str	r0, [r5, #0]
    493a:	9a08      	ldr	r2, [sp, #32]
    493c:	3201      	adds	r2, #1
    493e:	9208      	str	r2, [sp, #32]
    4940:	464e      	mov	r6, r9
    4942:	f7ff ba48 	b.w	3dd6 <__ssvfscanf_r+0x36>
    4946:	f002 ffb0 	bl	78aa <__sfp_lock_release>
    494a:	9b08      	ldr	r3, [sp, #32]
    494c:	b163      	cbz	r3, 4968 <__ssvfscanf_r+0xbc8>
    494e:	89a3      	ldrh	r3, [r4, #12]
    4950:	9d08      	ldr	r5, [sp, #32]
    4952:	f003 0340 	and.w	r3, r3, #64	; 0x40
    4956:	2b00      	cmp	r3, #0
    4958:	bf18      	it	ne
    495a:	f04f 35ff 	movne.w	r5, #4294967295
    495e:	9508      	str	r5, [sp, #32]
    4960:	e005      	b.n	496e <__ssvfscanf_r+0xbce>
    4962:	f002 ffa2 	bl	78aa <__sfp_lock_release>
    4966:	e002      	b.n	496e <__ssvfscanf_r+0xbce>
    4968:	f04f 30ff 	mov.w	r0, #4294967295
    496c:	9008      	str	r0, [sp, #32]
    496e:	9808      	ldr	r0, [sp, #32]
    4970:	f50d 7d2d 	add.w	sp, sp, #692	; 0x2b4
    4974:	e8bd 8ff0 	ldmia.w	sp!, {r4, r5, r6, r7, r8, r9, sl, fp, pc}
    4978:	0000c0cc 	.word	0x0000c0cc

0000497c <_vfprintf_r>:
    497c:	e92d 4ff0 	stmdb	sp!, {r4, r5, r6, r7, r8, r9, sl, fp, lr}
    4980:	b0f7      	sub	sp, #476	; 0x1dc
    4982:	460f      	mov	r7, r1
    4984:	4615      	mov	r5, r2
    4986:	461e      	mov	r6, r3
    4988:	4680      	mov	r8, r0
    498a:	f003 f971 	bl	7c70 <_localeconv_r>
    498e:	6800      	ldr	r0, [r0, #0]
    4990:	9013      	str	r0, [sp, #76]	; 0x4c
    4992:	f7fe f967 	bl	2c64 <strlen>
    4996:	9012      	str	r0, [sp, #72]	; 0x48
    4998:	f1b8 0f00 	cmp.w	r8, #0
    499c:	d005      	beq.n	49aa <_vfprintf_r+0x2e>
    499e:	f8d8 3018 	ldr.w	r3, [r8, #24]
    49a2:	b913      	cbnz	r3, 49aa <_vfprintf_r+0x2e>
    49a4:	4640      	mov	r0, r8
    49a6:	f002 ff15 	bl	77d4 <__sinit>
    49aa:	4b8f      	ldr	r3, [pc, #572]	; (4be8 <_vfprintf_r+0x26c>)
    49ac:	429f      	cmp	r7, r3
    49ae:	d102      	bne.n	49b6 <_vfprintf_r+0x3a>
    49b0:	f8d8 7004 	ldr.w	r7, [r8, #4]
    49b4:	e00a      	b.n	49cc <_vfprintf_r+0x50>
    49b6:	4b8d      	ldr	r3, [pc, #564]	; (4bec <_vfprintf_r+0x270>)
    49b8:	429f      	cmp	r7, r3
    49ba:	d102      	bne.n	49c2 <_vfprintf_r+0x46>
    49bc:	f8d8 7008 	ldr.w	r7, [r8, #8]
    49c0:	e004      	b.n	49cc <_vfprintf_r+0x50>
    49c2:	4b8b      	ldr	r3, [pc, #556]	; (4bf0 <_vfprintf_r+0x274>)
    49c4:	429f      	cmp	r7, r3
    49c6:	bf08      	it	eq
    49c8:	f8d8 700c 	ldreq.w	r7, [r8, #12]
    49cc:	89bb      	ldrh	r3, [r7, #12]
    49ce:	f413 5f00 	tst.w	r3, #8192	; 0x2000
    49d2:	d106      	bne.n	49e2 <_vfprintf_r+0x66>
    49d4:	f443 5300 	orr.w	r3, r3, #8192	; 0x2000
    49d8:	81bb      	strh	r3, [r7, #12]
    49da:	6e7b      	ldr	r3, [r7, #100]	; 0x64
    49dc:	f423 5300 	bic.w	r3, r3, #8192	; 0x2000
    49e0:	667b      	str	r3, [r7, #100]	; 0x64
    49e2:	89bb      	ldrh	r3, [r7, #12]
    49e4:	f013 0f08 	tst.w	r3, #8
    49e8:	d001      	beq.n	49ee <_vfprintf_r+0x72>
    49ea:	693b      	ldr	r3, [r7, #16]
    49ec:	b933      	cbnz	r3, 49fc <_vfprintf_r+0x80>
    49ee:	4640      	mov	r0, r8
    49f0:	4639      	mov	r1, r7
    49f2:	f001 feab 	bl	674c <__swsetup_r>
    49f6:	2800      	cmp	r0, #0
    49f8:	f041 809b 	bne.w	5b32 <_vfprintf_r+0x11b6>
    49fc:	89ba      	ldrh	r2, [r7, #12]
    49fe:	f002 031a 	and.w	r3, r2, #26
    4a02:	2b0a      	cmp	r3, #10
    4a04:	d136      	bne.n	4a74 <_vfprintf_r+0xf8>
    4a06:	89fb      	ldrh	r3, [r7, #14]
    4a08:	f413 4f00 	tst.w	r3, #32768	; 0x8000
    4a0c:	d132      	bne.n	4a74 <_vfprintf_r+0xf8>
    4a0e:	f8ad 30f2 	strh.w	r3, [sp, #242]	; 0xf2
    4a12:	f022 0202 	bic.w	r2, r2, #2
    4a16:	6a3b      	ldr	r3, [r7, #32]
    4a18:	4640      	mov	r0, r8
    4a1a:	f8ad 20f0 	strh.w	r2, [sp, #240]	; 0xf0
    4a1e:	a939      	add	r1, sp, #228	; 0xe4
    4a20:	6e7a      	ldr	r2, [r7, #100]	; 0x64
    4a22:	9341      	str	r3, [sp, #260]	; 0x104
    4a24:	6abb      	ldr	r3, [r7, #40]	; 0x28
    4a26:	9252      	str	r2, [sp, #328]	; 0x148
    4a28:	462a      	mov	r2, r5
    4a2a:	9343      	str	r3, [sp, #268]	; 0x10c
    4a2c:	ab19      	add	r3, sp, #100	; 0x64
    4a2e:	9339      	str	r3, [sp, #228]	; 0xe4
    4a30:	933d      	str	r3, [sp, #244]	; 0xf4
    4a32:	2380      	movs	r3, #128	; 0x80
    4a34:	933b      	str	r3, [sp, #236]	; 0xec
    4a36:	933e      	str	r3, [sp, #248]	; 0xf8
    4a38:	3b80      	subs	r3, #128	; 0x80
    4a3a:	933f      	str	r3, [sp, #252]	; 0xfc
    4a3c:	4633      	mov	r3, r6
    4a3e:	f7ff ff9d 	bl	497c <_vfprintf_r>
    4a42:	2800      	cmp	r0, #0
    4a44:	900e      	str	r0, [sp, #56]	; 0x38
    4a46:	db09      	blt.n	4a5c <_vfprintf_r+0xe0>
    4a48:	a939      	add	r1, sp, #228	; 0xe4
    4a4a:	4640      	mov	r0, r8
    4a4c:	f002 fdb8 	bl	75c0 <_fflush_r>
    4a50:	990e      	ldr	r1, [sp, #56]	; 0x38
    4a52:	2800      	cmp	r0, #0
    4a54:	bf18      	it	ne
    4a56:	f04f 31ff 	movne.w	r1, #4294967295
    4a5a:	910e      	str	r1, [sp, #56]	; 0x38
    4a5c:	f8bd 30f0 	ldrh.w	r3, [sp, #240]	; 0xf0
    4a60:	f013 0f40 	tst.w	r3, #64	; 0x40
    4a64:	f001 8068 	beq.w	5b38 <_vfprintf_r+0x11bc>
    4a68:	89bb      	ldrh	r3, [r7, #12]
    4a6a:	f043 0340 	orr.w	r3, r3, #64	; 0x40
    4a6e:	81bb      	strh	r3, [r7, #12]
    4a70:	f001 b862 	b.w	5b38 <_vfprintf_r+0x11bc>
    4a74:	2300      	movs	r3, #0
    4a76:	ac53      	add	r4, sp, #332	; 0x14c
    4a78:	936f      	str	r3, [sp, #444]	; 0x1bc
    4a7a:	946d      	str	r4, [sp, #436]	; 0x1b4
    4a7c:	936e      	str	r3, [sp, #440]	; 0x1b8
    4a7e:	950c      	str	r5, [sp, #48]	; 0x30
    4a80:	930b      	str	r3, [sp, #44]	; 0x2c
    4a82:	9310      	str	r3, [sp, #64]	; 0x40
    4a84:	9311      	str	r3, [sp, #68]	; 0x44
    4a86:	9316      	str	r3, [sp, #88]	; 0x58
    4a88:	9315      	str	r3, [sp, #84]	; 0x54
    4a8a:	930e      	str	r3, [sp, #56]	; 0x38
    4a8c:	9b0c      	ldr	r3, [sp, #48]	; 0x30
    4a8e:	461d      	mov	r5, r3
    4a90:	f813 2b01 	ldrb.w	r2, [r3], #1
    4a94:	b10a      	cbz	r2, 4a9a <_vfprintf_r+0x11e>
    4a96:	2a25      	cmp	r2, #37	; 0x25
    4a98:	d1f9      	bne.n	4a8e <_vfprintf_r+0x112>
    4a9a:	9a0c      	ldr	r2, [sp, #48]	; 0x30
    4a9c:	ebb5 0902 	subs.w	r9, r5, r2
    4aa0:	d018      	beq.n	4ad4 <_vfprintf_r+0x158>
    4aa2:	9b6f      	ldr	r3, [sp, #444]	; 0x1bc
    4aa4:	6022      	str	r2, [r4, #0]
    4aa6:	f8c4 9004 	str.w	r9, [r4, #4]
    4aaa:	444b      	add	r3, r9
    4aac:	936f      	str	r3, [sp, #444]	; 0x1bc
    4aae:	9b6e      	ldr	r3, [sp, #440]	; 0x1b8
    4ab0:	3301      	adds	r3, #1
    4ab2:	936e      	str	r3, [sp, #440]	; 0x1b8
    4ab4:	2b07      	cmp	r3, #7
    4ab6:	dc01      	bgt.n	4abc <_vfprintf_r+0x140>
    4ab8:	3408      	adds	r4, #8
    4aba:	e008      	b.n	4ace <_vfprintf_r+0x152>
    4abc:	4640      	mov	r0, r8
    4abe:	4639      	mov	r1, r7
    4ac0:	aa6d      	add	r2, sp, #436	; 0x1b4
    4ac2:	f005 f8ef 	bl	9ca4 <__sprint_r>
    4ac6:	2800      	cmp	r0, #0
    4ac8:	f041 8029 	bne.w	5b1e <_vfprintf_r+0x11a2>
    4acc:	ac53      	add	r4, sp, #332	; 0x14c
    4ace:	9b0e      	ldr	r3, [sp, #56]	; 0x38
    4ad0:	444b      	add	r3, r9
    4ad2:	930e      	str	r3, [sp, #56]	; 0x38
    4ad4:	782b      	ldrb	r3, [r5, #0]
    4ad6:	2b00      	cmp	r3, #0
    4ad8:	f001 801a 	beq.w	5b10 <_vfprintf_r+0x1194>
    4adc:	2300      	movs	r3, #0
    4ade:	3501      	adds	r5, #1
    4ae0:	950c      	str	r5, [sp, #48]	; 0x30
    4ae2:	461d      	mov	r5, r3
    4ae4:	f88d 31d7 	strb.w	r3, [sp, #471]	; 0x1d7
    4ae8:	f04f 3cff 	mov.w	ip, #4294967295
    4aec:	930d      	str	r3, [sp, #52]	; 0x34
    4aee:	462a      	mov	r2, r5
    4af0:	9b0c      	ldr	r3, [sp, #48]	; 0x30
    4af2:	e005      	b.n	4b00 <_vfprintf_r+0x184>
    4af4:	460e      	mov	r6, r1
    4af6:	e003      	b.n	4b00 <_vfprintf_r+0x184>
    4af8:	461e      	mov	r6, r3
    4afa:	f04f 3cff 	mov.w	ip, #4294967295
    4afe:	460b      	mov	r3, r1
    4b00:	f813 9b01 	ldrb.w	r9, [r3], #1
    4b04:	f1a9 0120 	sub.w	r1, r9, #32
    4b08:	2958      	cmp	r1, #88	; 0x58
    4b0a:	f200 841c 	bhi.w	5346 <_vfprintf_r+0x9ca>
    4b0e:	e8df f011 	tbh	[pc, r1, lsl #1]
    4b12:	0059      	.short	0x0059
    4b14:	041a041a 	.word	0x041a041a
    4b18:	041a005f 	.word	0x041a005f
    4b1c:	041a041a 	.word	0x041a041a
    4b20:	041a041a 	.word	0x041a041a
    4b24:	0062041a 	.word	0x0062041a
    4b28:	041a0071 	.word	0x041a0071
    4b2c:	00750068 	.word	0x00750068
    4b30:	0098041a 	.word	0x0098041a
    4b34:	009b009b 	.word	0x009b009b
    4b38:	009b009b 	.word	0x009b009b
    4b3c:	009b009b 	.word	0x009b009b
    4b40:	009b009b 	.word	0x009b009b
    4b44:	041a009b 	.word	0x041a009b
    4b48:	041a041a 	.word	0x041a041a
    4b4c:	041a041a 	.word	0x041a041a
    4b50:	041a041a 	.word	0x041a041a
    4b54:	041a041a 	.word	0x041a041a
    4b58:	00c6041a 	.word	0x00c6041a
    4b5c:	041a0103 	.word	0x041a0103
    4b60:	041a0103 	.word	0x041a0103
    4b64:	041a041a 	.word	0x041a041a
    4b68:	00aa041a 	.word	0x00aa041a
    4b6c:	041a041a 	.word	0x041a041a
    4b70:	041a02ae 	.word	0x041a02ae
    4b74:	041a041a 	.word	0x041a041a
    4b78:	041a041a 	.word	0x041a041a
    4b7c:	041a0319 	.word	0x041a0319
    4b80:	034b041a 	.word	0x034b041a
    4b84:	041a041a 	.word	0x041a041a
    4b88:	041a041a 	.word	0x041a041a
    4b8c:	041a041a 	.word	0x041a041a
    4b90:	041a041a 	.word	0x041a041a
    4b94:	041a041a 	.word	0x041a041a
    4b98:	00cb00bb 	.word	0x00cb00bb
    4b9c:	01030103 	.word	0x01030103
    4ba0:	00ad0103 	.word	0x00ad0103
    4ba4:	041a00cb 	.word	0x041a00cb
    4ba8:	00b0041a 	.word	0x00b0041a
    4bac:	0290041a 	.word	0x0290041a
    4bb0:	02df02b3 	.word	0x02df02b3
    4bb4:	041a00b8 	.word	0x041a00b8
    4bb8:	041a02f3 	.word	0x041a02f3
    4bbc:	041a031e 	.word	0x041a031e
    4bc0:	0346041a 	.word	0x0346041a
    4bc4:	f89d 11d7 	ldrb.w	r1, [sp, #471]	; 0x1d7
    4bc8:	2900      	cmp	r1, #0
    4bca:	d199      	bne.n	4b00 <_vfprintf_r+0x184>
    4bcc:	3120      	adds	r1, #32
    4bce:	e012      	b.n	4bf6 <_vfprintf_r+0x27a>
    4bd0:	f045 0501 	orr.w	r5, r5, #1
    4bd4:	e794      	b.n	4b00 <_vfprintf_r+0x184>
    4bd6:	6832      	ldr	r2, [r6, #0]
    4bd8:	1d31      	adds	r1, r6, #4
    4bda:	2a00      	cmp	r2, #0
    4bdc:	da8a      	bge.n	4af4 <_vfprintf_r+0x178>
    4bde:	4252      	negs	r2, r2
    4be0:	460e      	mov	r6, r1
    4be2:	f045 0504 	orr.w	r5, r5, #4
    4be6:	e78b      	b.n	4b00 <_vfprintf_r+0x184>
    4be8:	0000c280 	.word	0x0000c280
    4bec:	0000c2a0 	.word	0x0000c2a0
    4bf0:	0000c2c0 	.word	0x0000c2c0
    4bf4:	212b      	movs	r1, #43	; 0x2b
    4bf6:	f88d 11d7 	strb.w	r1, [sp, #471]	; 0x1d7
    4bfa:	e781      	b.n	4b00 <_vfprintf_r+0x184>
    4bfc:	4619      	mov	r1, r3
    4bfe:	f811 9b01 	ldrb.w	r9, [r1], #1
    4c02:	f1b9 0f2a 	cmp.w	r9, #42	; 0x2a
    4c06:	d003      	beq.n	4c10 <_vfprintf_r+0x294>
    4c08:	4619      	mov	r1, r3
    4c0a:	f04f 0c00 	mov.w	ip, #0
    4c0e:	e010      	b.n	4c32 <_vfprintf_r+0x2b6>
    4c10:	f8d6 c000 	ldr.w	ip, [r6]
    4c14:	1d33      	adds	r3, r6, #4
    4c16:	f1bc 0f00 	cmp.w	ip, #0
    4c1a:	f6ff af6d 	blt.w	4af8 <_vfprintf_r+0x17c>
    4c1e:	461e      	mov	r6, r3
    4c20:	460b      	mov	r3, r1
    4c22:	e76d      	b.n	4b00 <_vfprintf_r+0x184>
    4c24:	f04f 090a 	mov.w	r9, #10
    4c28:	fb09 0c0c 	mla	ip, r9, ip, r0
    4c2c:	f891 9001 	ldrb.w	r9, [r1, #1]
    4c30:	4619      	mov	r1, r3
    4c32:	f1a9 0030 	sub.w	r0, r9, #48	; 0x30
    4c36:	3301      	adds	r3, #1
    4c38:	2809      	cmp	r0, #9
    4c3a:	d9f3      	bls.n	4c24 <_vfprintf_r+0x2a8>
    4c3c:	ea4c 7cec 	orr.w	ip, ip, ip, asr #31
    4c40:	e760      	b.n	4b04 <_vfprintf_r+0x188>
    4c42:	f045 0580 	orr.w	r5, r5, #128	; 0x80
    4c46:	e75b      	b.n	4b00 <_vfprintf_r+0x184>
    4c48:	4619      	mov	r1, r3
    4c4a:	2200      	movs	r2, #0
    4c4c:	230a      	movs	r3, #10
    4c4e:	f1a9 0930 	sub.w	r9, r9, #48	; 0x30
    4c52:	fb03 9202 	mla	r2, r3, r2, r9
    4c56:	f811 9b01 	ldrb.w	r9, [r1], #1
    4c5a:	f1a9 0030 	sub.w	r0, r9, #48	; 0x30
    4c5e:	460b      	mov	r3, r1
    4c60:	2809      	cmp	r0, #9
    4c62:	d9f3      	bls.n	4c4c <_vfprintf_r+0x2d0>
    4c64:	e74e      	b.n	4b04 <_vfprintf_r+0x188>
    4c66:	f045 0508 	orr.w	r5, r5, #8
    4c6a:	e749      	b.n	4b00 <_vfprintf_r+0x184>
    4c6c:	f045 0540 	orr.w	r5, r5, #64	; 0x40
    4c70:	e746      	b.n	4b00 <_vfprintf_r+0x184>
    4c72:	7819      	ldrb	r1, [r3, #0]
    4c74:	296c      	cmp	r1, #108	; 0x6c
    4c76:	d101      	bne.n	4c7c <_vfprintf_r+0x300>
    4c78:	3301      	adds	r3, #1
    4c7a:	e002      	b.n	4c82 <_vfprintf_r+0x306>
    4c7c:	f045 0510 	orr.w	r5, r5, #16
    4c80:	e73e      	b.n	4b00 <_vfprintf_r+0x184>
    4c82:	f045 0520 	orr.w	r5, r5, #32
    4c86:	e73b      	b.n	4b00 <_vfprintf_r+0x184>
    4c88:	930c      	str	r3, [sp, #48]	; 0x30
    4c8a:	f04f 0c00 	mov.w	ip, #0
    4c8e:	6833      	ldr	r3, [r6, #0]
    4c90:	3604      	adds	r6, #4
    4c92:	920d      	str	r2, [sp, #52]	; 0x34
    4c94:	f88d c1d7 	strb.w	ip, [sp, #471]	; 0x1d7
    4c98:	f88d 318c 	strb.w	r3, [sp, #396]	; 0x18c
    4c9c:	e35f      	b.n	535e <_vfprintf_r+0x9e2>
    4c9e:	930c      	str	r3, [sp, #48]	; 0x30
    4ca0:	f045 0510 	orr.w	r5, r5, #16
    4ca4:	920d      	str	r2, [sp, #52]	; 0x34
    4ca6:	e001      	b.n	4cac <_vfprintf_r+0x330>
    4ca8:	930c      	str	r3, [sp, #48]	; 0x30
    4caa:	920d      	str	r2, [sp, #52]	; 0x34
    4cac:	f015 0f20 	tst.w	r5, #32
    4cb0:	d009      	beq.n	4cc6 <_vfprintf_r+0x34a>
    4cb2:	3607      	adds	r6, #7
    4cb4:	f026 0307 	bic.w	r3, r6, #7
    4cb8:	f103 0608 	add.w	r6, r3, #8
    4cbc:	e9d3 0100 	ldrd	r0, r1, [r3]
    4cc0:	e9cd 0108 	strd	r0, r1, [sp, #32]
    4cc4:	e016      	b.n	4cf4 <_vfprintf_r+0x378>
    4cc6:	f015 0f10 	tst.w	r5, #16
    4cca:	f106 0304 	add.w	r3, r6, #4
    4cce:	d001      	beq.n	4cd4 <_vfprintf_r+0x358>
    4cd0:	6832      	ldr	r2, [r6, #0]
    4cd2:	e009      	b.n	4ce8 <_vfprintf_r+0x36c>
    4cd4:	f015 0f40 	tst.w	r5, #64	; 0x40
    4cd8:	6832      	ldr	r2, [r6, #0]
    4cda:	d005      	beq.n	4ce8 <_vfprintf_r+0x36c>
    4cdc:	b212      	sxth	r2, r2
    4cde:	4610      	mov	r0, r2
    4ce0:	17d1      	asrs	r1, r2, #31
    4ce2:	e9cd 0108 	strd	r0, r1, [sp, #32]
    4ce6:	e004      	b.n	4cf2 <_vfprintf_r+0x376>
    4ce8:	4692      	mov	sl, r2
    4cea:	ea4f 7be2 	mov.w	fp, r2, asr #31
    4cee:	e9cd ab08 	strd	sl, fp, [sp, #32]
    4cf2:	461e      	mov	r6, r3
    4cf4:	e9dd 0108 	ldrd	r0, r1, [sp, #32]
    4cf8:	2800      	cmp	r0, #0
    4cfa:	f171 0100 	sbcs.w	r1, r1, #0
    4cfe:	f280 828e 	bge.w	521e <_vfprintf_r+0x8a2>
    4d02:	e9dd 2308 	ldrd	r2, r3, [sp, #32]
    4d06:	4252      	negs	r2, r2
    4d08:	eb63 0343 	sbc.w	r3, r3, r3, lsl #1
    4d0c:	e9cd 2308 	strd	r2, r3, [sp, #32]
    4d10:	232d      	movs	r3, #45	; 0x2d
    4d12:	f88d 31d7 	strb.w	r3, [sp, #471]	; 0x1d7
    4d16:	e282      	b.n	521e <_vfprintf_r+0x8a2>
    4d18:	930c      	str	r3, [sp, #48]	; 0x30
    4d1a:	1df3      	adds	r3, r6, #7
    4d1c:	f015 0f08 	tst.w	r5, #8
    4d20:	f023 0307 	bic.w	r3, r3, #7
    4d24:	920d      	str	r2, [sp, #52]	; 0x34
    4d26:	f103 0608 	add.w	r6, r3, #8
    4d2a:	bf14      	ite	ne
    4d2c:	6818      	ldrne	r0, [r3, #0]
    4d2e:	6819      	ldreq	r1, [r3, #0]
    4d30:	f8cd 903c 	str.w	r9, [sp, #60]	; 0x3c
    4d34:	bf14      	ite	ne
    4d36:	9010      	strne	r0, [sp, #64]	; 0x40
    4d38:	9110      	streq	r1, [sp, #64]	; 0x40
    4d3a:	685b      	ldr	r3, [r3, #4]
    4d3c:	9810      	ldr	r0, [sp, #64]	; 0x40
    4d3e:	f8cd c018 	str.w	ip, [sp, #24]
    4d42:	9311      	str	r3, [sp, #68]	; 0x44
    4d44:	9911      	ldr	r1, [sp, #68]	; 0x44
    4d46:	f003 fd09 	bl	875c <__fpclassifyd>
    4d4a:	f8dd c018 	ldr.w	ip, [sp, #24]
    4d4e:	2801      	cmp	r0, #1
    4d50:	d119      	bne.n	4d86 <_vfprintf_r+0x40a>
    4d52:	9810      	ldr	r0, [sp, #64]	; 0x40
    4d54:	2200      	movs	r2, #0
    4d56:	9911      	ldr	r1, [sp, #68]	; 0x44
    4d58:	2300      	movs	r3, #0
    4d5a:	f006 fc3b 	bl	b5d4 <__aeabi_dcmplt>
    4d5e:	b110      	cbz	r0, 4d66 <_vfprintf_r+0x3ea>
    4d60:	232d      	movs	r3, #45	; 0x2d
    4d62:	f88d 31d7 	strb.w	r3, [sp, #471]	; 0x1d7
    4d66:	4ba9      	ldr	r3, [pc, #676]	; (500c <_vfprintf_r+0x690>)
    4d68:	f04f 0c00 	mov.w	ip, #0
    4d6c:	4aa8      	ldr	r2, [pc, #672]	; (5010 <_vfprintf_r+0x694>)
    4d6e:	f025 0580 	bic.w	r5, r5, #128	; 0x80
    4d72:	f04f 0b03 	mov.w	fp, #3
    4d76:	f8cd c020 	str.w	ip, [sp, #32]
    4d7a:	f1b9 0f47 	cmp.w	r9, #71	; 0x47
    4d7e:	bfcc      	ite	gt
    4d80:	4692      	movgt	sl, r2
    4d82:	469a      	movle	sl, r3
    4d84:	e301      	b.n	538a <_vfprintf_r+0xa0e>
    4d86:	9810      	ldr	r0, [sp, #64]	; 0x40
    4d88:	9911      	ldr	r1, [sp, #68]	; 0x44
    4d8a:	f8cd c018 	str.w	ip, [sp, #24]
    4d8e:	f003 fce5 	bl	875c <__fpclassifyd>
    4d92:	f8dd c018 	ldr.w	ip, [sp, #24]
    4d96:	b958      	cbnz	r0, 4db0 <_vfprintf_r+0x434>
    4d98:	4b9e      	ldr	r3, [pc, #632]	; (5014 <_vfprintf_r+0x698>)
    4d9a:	f025 0580 	bic.w	r5, r5, #128	; 0x80
    4d9e:	4a9e      	ldr	r2, [pc, #632]	; (5018 <_vfprintf_r+0x69c>)
    4da0:	f04f 0b03 	mov.w	fp, #3
    4da4:	f1b9 0f47 	cmp.w	r9, #71	; 0x47
    4da8:	bfcc      	ite	gt
    4daa:	4692      	movgt	sl, r2
    4dac:	469a      	movle	sl, r3
    4dae:	e2e1      	b.n	5374 <_vfprintf_r+0x9f8>
    4db0:	f1bc 3fff 	cmp.w	ip, #4294967295
    4db4:	d00b      	beq.n	4dce <_vfprintf_r+0x452>
    4db6:	f1b9 0f67 	cmp.w	r9, #103	; 0x67
    4dba:	d002      	beq.n	4dc2 <_vfprintf_r+0x446>
    4dbc:	f1b9 0f47 	cmp.w	r9, #71	; 0x47
    4dc0:	d107      	bne.n	4dd2 <_vfprintf_r+0x456>
    4dc2:	f1bc 0f00 	cmp.w	ip, #0
    4dc6:	bf08      	it	eq
    4dc8:	f04f 0c01 	moveq.w	ip, #1
    4dcc:	e001      	b.n	4dd2 <_vfprintf_r+0x456>
    4dce:	f04f 0c06 	mov.w	ip, #6
    4dd2:	9b11      	ldr	r3, [sp, #68]	; 0x44
    4dd4:	f445 7580 	orr.w	r5, r5, #256	; 0x100
    4dd8:	2b00      	cmp	r3, #0
    4dda:	da05      	bge.n	4de8 <_vfprintf_r+0x46c>
    4ddc:	f103 4200 	add.w	r2, r3, #2147483648	; 0x80000000
    4de0:	232d      	movs	r3, #45	; 0x2d
    4de2:	920b      	str	r2, [sp, #44]	; 0x2c
    4de4:	9314      	str	r3, [sp, #80]	; 0x50
    4de6:	e003      	b.n	4df0 <_vfprintf_r+0x474>
    4de8:	9811      	ldr	r0, [sp, #68]	; 0x44
    4dea:	2100      	movs	r1, #0
    4dec:	9114      	str	r1, [sp, #80]	; 0x50
    4dee:	900b      	str	r0, [sp, #44]	; 0x2c
    4df0:	f1b9 0f66 	cmp.w	r9, #102	; 0x66
    4df4:	d00b      	beq.n	4e0e <_vfprintf_r+0x492>
    4df6:	f1b9 0f46 	cmp.w	r9, #70	; 0x46
    4dfa:	d008      	beq.n	4e0e <_vfprintf_r+0x492>
    4dfc:	f1b9 0f65 	cmp.w	r9, #101	; 0x65
    4e00:	d002      	beq.n	4e08 <_vfprintf_r+0x48c>
    4e02:	f1b9 0f45 	cmp.w	r9, #69	; 0x45
    4e06:	d105      	bne.n	4e14 <_vfprintf_r+0x498>
    4e08:	f10c 0b01 	add.w	fp, ip, #1
    4e0c:	e003      	b.n	4e16 <_vfprintf_r+0x49a>
    4e0e:	46e3      	mov	fp, ip
    4e10:	2303      	movs	r3, #3
    4e12:	e001      	b.n	4e18 <_vfprintf_r+0x49c>
    4e14:	46e3      	mov	fp, ip
    4e16:	2302      	movs	r3, #2
    4e18:	9300      	str	r3, [sp, #0]
    4e1a:	4640      	mov	r0, r8
    4e1c:	ab74      	add	r3, sp, #464	; 0x1d0
    4e1e:	9a10      	ldr	r2, [sp, #64]	; 0x40
    4e20:	9302      	str	r3, [sp, #8]
    4e22:	ab73      	add	r3, sp, #460	; 0x1cc
    4e24:	9303      	str	r3, [sp, #12]
    4e26:	ab72      	add	r3, sp, #456	; 0x1c8
    4e28:	9304      	str	r3, [sp, #16]
    4e2a:	9b0b      	ldr	r3, [sp, #44]	; 0x2c
    4e2c:	f8cd c018 	str.w	ip, [sp, #24]
    4e30:	f8cd b004 	str.w	fp, [sp, #4]
    4e34:	f001 fdc0 	bl	69b8 <_dtoa_r>
    4e38:	f1b9 0f67 	cmp.w	r9, #103	; 0x67
    4e3c:	f8dd c018 	ldr.w	ip, [sp, #24]
    4e40:	4682      	mov	sl, r0
    4e42:	d002      	beq.n	4e4a <_vfprintf_r+0x4ce>
    4e44:	f1b9 0f47 	cmp.w	r9, #71	; 0x47
    4e48:	d102      	bne.n	4e50 <_vfprintf_r+0x4d4>
    4e4a:	f015 0f01 	tst.w	r5, #1
    4e4e:	d034      	beq.n	4eba <_vfprintf_r+0x53e>
    4e50:	f1b9 0f66 	cmp.w	r9, #102	; 0x66
    4e54:	eb0a 020b 	add.w	r2, sl, fp
    4e58:	9208      	str	r2, [sp, #32]
    4e5a:	d002      	beq.n	4e62 <_vfprintf_r+0x4e6>
    4e5c:	f1b9 0f46 	cmp.w	r9, #70	; 0x46
    4e60:	d115      	bne.n	4e8e <_vfprintf_r+0x512>
    4e62:	f89a 3000 	ldrb.w	r3, [sl]
    4e66:	2b30      	cmp	r3, #48	; 0x30
    4e68:	d10d      	bne.n	4e86 <_vfprintf_r+0x50a>
    4e6a:	9810      	ldr	r0, [sp, #64]	; 0x40
    4e6c:	2200      	movs	r2, #0
    4e6e:	990b      	ldr	r1, [sp, #44]	; 0x2c
    4e70:	2300      	movs	r3, #0
    4e72:	f8cd c018 	str.w	ip, [sp, #24]
    4e76:	f006 fba3 	bl	b5c0 <__aeabi_dcmpeq>
    4e7a:	f8dd c018 	ldr.w	ip, [sp, #24]
    4e7e:	b910      	cbnz	r0, 4e86 <_vfprintf_r+0x50a>
    4e80:	f1cb 0301 	rsb	r3, fp, #1
    4e84:	9374      	str	r3, [sp, #464]	; 0x1d0
    4e86:	9808      	ldr	r0, [sp, #32]
    4e88:	9b74      	ldr	r3, [sp, #464]	; 0x1d0
    4e8a:	18c0      	adds	r0, r0, r3
    4e8c:	9008      	str	r0, [sp, #32]
    4e8e:	9810      	ldr	r0, [sp, #64]	; 0x40
    4e90:	2200      	movs	r2, #0
    4e92:	990b      	ldr	r1, [sp, #44]	; 0x2c
    4e94:	2300      	movs	r3, #0
    4e96:	f8cd c018 	str.w	ip, [sp, #24]
    4e9a:	f006 fb91 	bl	b5c0 <__aeabi_dcmpeq>
    4e9e:	f8dd c018 	ldr.w	ip, [sp, #24]
    4ea2:	b130      	cbz	r0, 4eb2 <_vfprintf_r+0x536>
    4ea4:	9908      	ldr	r1, [sp, #32]
    4ea6:	9172      	str	r1, [sp, #456]	; 0x1c8
    4ea8:	e003      	b.n	4eb2 <_vfprintf_r+0x536>
    4eaa:	2230      	movs	r2, #48	; 0x30
    4eac:	f803 2b01 	strb.w	r2, [r3], #1
    4eb0:	9372      	str	r3, [sp, #456]	; 0x1c8
    4eb2:	9b72      	ldr	r3, [sp, #456]	; 0x1c8
    4eb4:	9a08      	ldr	r2, [sp, #32]
    4eb6:	4293      	cmp	r3, r2
    4eb8:	d3f7      	bcc.n	4eaa <_vfprintf_r+0x52e>
    4eba:	9b72      	ldr	r3, [sp, #456]	; 0x1c8
    4ebc:	f1b9 0f67 	cmp.w	r9, #103	; 0x67
    4ec0:	ebca 0303 	rsb	r3, sl, r3
    4ec4:	930b      	str	r3, [sp, #44]	; 0x2c
    4ec6:	9b74      	ldr	r3, [sp, #464]	; 0x1d0
    4ec8:	d002      	beq.n	4ed0 <_vfprintf_r+0x554>
    4eca:	f1b9 0f47 	cmp.w	r9, #71	; 0x47
    4ece:	d108      	bne.n	4ee2 <_vfprintf_r+0x566>
    4ed0:	f113 0f03 	cmn.w	r3, #3
    4ed4:	469b      	mov	fp, r3
    4ed6:	db01      	blt.n	4edc <_vfprintf_r+0x560>
    4ed8:	4563      	cmp	r3, ip
    4eda:	dd75      	ble.n	4fc8 <_vfprintf_r+0x64c>
    4edc:	f1a9 0902 	sub.w	r9, r9, #2
    4ee0:	e002      	b.n	4ee8 <_vfprintf_r+0x56c>
    4ee2:	f1b9 0f66 	cmp.w	r9, #102	; 0x66
    4ee6:	d059      	beq.n	4f9c <_vfprintf_r+0x620>
    4ee8:	f103 3bff 	add.w	fp, r3, #4294967295
    4eec:	f88d 91c0 	strb.w	r9, [sp, #448]	; 0x1c0
    4ef0:	f1bb 0f00 	cmp.w	fp, #0
    4ef4:	f8cd b1d0 	str.w	fp, [sp, #464]	; 0x1d0
    4ef8:	da03      	bge.n	4f02 <_vfprintf_r+0x586>
    4efa:	f1cb 0b00 	rsb	fp, fp, #0
    4efe:	232d      	movs	r3, #45	; 0x2d
    4f00:	e000      	b.n	4f04 <_vfprintf_r+0x588>
    4f02:	232b      	movs	r3, #43	; 0x2b
    4f04:	f1bb 0f09 	cmp.w	fp, #9
    4f08:	f88d 31c1 	strb.w	r3, [sp, #449]	; 0x1c1
    4f0c:	dd2f      	ble.n	4f6e <_vfprintf_r+0x5f2>
    4f0e:	f10d 036a 	add.w	r3, sp, #106	; 0x6a
    4f12:	4652      	mov	r2, sl
    4f14:	46cc      	mov	ip, r9
    4f16:	46a2      	mov	sl, r4
    4f18:	461c      	mov	r4, r3
    4f1a:	4658      	mov	r0, fp
    4f1c:	210a      	movs	r1, #10
    4f1e:	9207      	str	r2, [sp, #28]
    4f20:	46a1      	mov	r9, r4
    4f22:	f8cd c018 	str.w	ip, [sp, #24]
    4f26:	f006 fae5 	bl	b4f4 <__aeabi_idivmod>
    4f2a:	4658      	mov	r0, fp
    4f2c:	3130      	adds	r1, #48	; 0x30
    4f2e:	f804 1901 	strb.w	r1, [r4], #-1
    4f32:	210a      	movs	r1, #10
    4f34:	f006 f994 	bl	b260 <__aeabi_idiv>
    4f38:	9a07      	ldr	r2, [sp, #28]
    4f3a:	f8dd c018 	ldr.w	ip, [sp, #24]
    4f3e:	2809      	cmp	r0, #9
    4f40:	4683      	mov	fp, r0
    4f42:	dcea      	bgt.n	4f1a <_vfprintf_r+0x59e>
    4f44:	4654      	mov	r4, sl
    4f46:	4692      	mov	sl, r2
    4f48:	464a      	mov	r2, r9
    4f4a:	f100 0b30 	add.w	fp, r0, #48	; 0x30
    4f4e:	46e1      	mov	r9, ip
    4f50:	f50d 73e1 	add.w	r3, sp, #450	; 0x1c2
    4f54:	f802 bc01 	strb.w	fp, [r2, #-1]
    4f58:	3a01      	subs	r2, #1
    4f5a:	e003      	b.n	4f64 <_vfprintf_r+0x5e8>
    4f5c:	f812 1b01 	ldrb.w	r1, [r2], #1
    4f60:	f803 1b01 	strb.w	r1, [r3], #1
    4f64:	f10d 016b 	add.w	r1, sp, #107	; 0x6b
    4f68:	428a      	cmp	r2, r1
    4f6a:	d3f7      	bcc.n	4f5c <_vfprintf_r+0x5e0>
    4f6c:	e006      	b.n	4f7c <_vfprintf_r+0x600>
    4f6e:	2330      	movs	r3, #48	; 0x30
    4f70:	f88d 31c2 	strb.w	r3, [sp, #450]	; 0x1c2
    4f74:	449b      	add	fp, r3
    4f76:	ab71      	add	r3, sp, #452	; 0x1c4
    4f78:	f88d b1c3 	strb.w	fp, [sp, #451]	; 0x1c3
    4f7c:	aa70      	add	r2, sp, #448	; 0x1c0
    4f7e:	1a9a      	subs	r2, r3, r2
    4f80:	9b0b      	ldr	r3, [sp, #44]	; 0x2c
    4f82:	9215      	str	r2, [sp, #84]	; 0x54
    4f84:	2b01      	cmp	r3, #1
    4f86:	eb02 0b03 	add.w	fp, r2, r3
    4f8a:	dc02      	bgt.n	4f92 <_vfprintf_r+0x616>
    4f8c:	f015 0301 	ands.w	r3, r5, #1
    4f90:	d044      	beq.n	501c <_vfprintf_r+0x6a0>
    4f92:	2000      	movs	r0, #0
    4f94:	f10b 0b01 	add.w	fp, fp, #1
    4f98:	9008      	str	r0, [sp, #32]
    4f9a:	e040      	b.n	501e <_vfprintf_r+0x6a2>
    4f9c:	2b00      	cmp	r3, #0
    4f9e:	469b      	mov	fp, r3
    4fa0:	dd09      	ble.n	4fb6 <_vfprintf_r+0x63a>
    4fa2:	f1bc 0f00 	cmp.w	ip, #0
    4fa6:	d102      	bne.n	4fae <_vfprintf_r+0x632>
    4fa8:	f015 0f01 	tst.w	r5, #1
    4fac:	d028      	beq.n	5000 <_vfprintf_r+0x684>
    4fae:	f103 0b01 	add.w	fp, r3, #1
    4fb2:	44e3      	add	fp, ip
    4fb4:	e024      	b.n	5000 <_vfprintf_r+0x684>
    4fb6:	f1bc 0f00 	cmp.w	ip, #0
    4fba:	d102      	bne.n	4fc2 <_vfprintf_r+0x646>
    4fbc:	f015 0f01 	tst.w	r5, #1
    4fc0:	d019      	beq.n	4ff6 <_vfprintf_r+0x67a>
    4fc2:	f10c 0b02 	add.w	fp, ip, #2
    4fc6:	e01b      	b.n	5000 <_vfprintf_r+0x684>
    4fc8:	990b      	ldr	r1, [sp, #44]	; 0x2c
    4fca:	428b      	cmp	r3, r1
    4fcc:	db07      	blt.n	4fde <_vfprintf_r+0x662>
    4fce:	f015 0f01 	tst.w	r5, #1
    4fd2:	d013      	beq.n	4ffc <_vfprintf_r+0x680>
    4fd4:	2267      	movs	r2, #103	; 0x67
    4fd6:	f103 0b01 	add.w	fp, r3, #1
    4fda:	920f      	str	r2, [sp, #60]	; 0x3c
    4fdc:	e010      	b.n	5000 <_vfprintf_r+0x684>
    4fde:	2b00      	cmp	r3, #0
    4fe0:	bfd8      	it	le
    4fe2:	f1c3 0b02 	rsble	fp, r3, #2
    4fe6:	9b0b      	ldr	r3, [sp, #44]	; 0x2c
    4fe8:	bfc8      	it	gt
    4fea:	f04f 0b01 	movgt.w	fp, #1
    4fee:	2067      	movs	r0, #103	; 0x67
    4ff0:	449b      	add	fp, r3
    4ff2:	900f      	str	r0, [sp, #60]	; 0x3c
    4ff4:	e004      	b.n	5000 <_vfprintf_r+0x684>
    4ff6:	f04f 0b01 	mov.w	fp, #1
    4ffa:	e001      	b.n	5000 <_vfprintf_r+0x684>
    4ffc:	2167      	movs	r1, #103	; 0x67
    4ffe:	910f      	str	r1, [sp, #60]	; 0x3c
    5000:	9a74      	ldr	r2, [sp, #464]	; 0x1d0
    5002:	f8dd 903c 	ldr.w	r9, [sp, #60]	; 0x3c
    5006:	9208      	str	r2, [sp, #32]
    5008:	e009      	b.n	501e <_vfprintf_r+0x6a2>
    500a:	bf00      	nop
    500c:	0000c088 	.word	0x0000c088
    5010:	0000c08c 	.word	0x0000c08c
    5014:	0000c090 	.word	0x0000c090
    5018:	0000c094 	.word	0x0000c094
    501c:	9308      	str	r3, [sp, #32]
    501e:	9b14      	ldr	r3, [sp, #80]	; 0x50
    5020:	2b00      	cmp	r3, #0
    5022:	f000 81a3 	beq.w	536c <_vfprintf_r+0x9f0>
    5026:	232d      	movs	r3, #45	; 0x2d
    5028:	f04f 0c00 	mov.w	ip, #0
    502c:	f88d 31d7 	strb.w	r3, [sp, #471]	; 0x1d7
    5030:	e1ab      	b.n	538a <_vfprintf_r+0xa0e>
    5032:	f015 0f20 	tst.w	r5, #32
    5036:	930c      	str	r3, [sp, #48]	; 0x30
    5038:	f106 0104 	add.w	r1, r6, #4
    503c:	d006      	beq.n	504c <_vfprintf_r+0x6d0>
    503e:	9d0e      	ldr	r5, [sp, #56]	; 0x38
    5040:	6830      	ldr	r0, [r6, #0]
    5042:	462a      	mov	r2, r5
    5044:	17eb      	asrs	r3, r5, #31
    5046:	e9c0 2300 	strd	r2, r3, [r0]
    504a:	e00e      	b.n	506a <_vfprintf_r+0x6ee>
    504c:	f015 0f10 	tst.w	r5, #16
    5050:	d003      	beq.n	505a <_vfprintf_r+0x6de>
    5052:	6833      	ldr	r3, [r6, #0]
    5054:	980e      	ldr	r0, [sp, #56]	; 0x38
    5056:	6018      	str	r0, [r3, #0]
    5058:	e007      	b.n	506a <_vfprintf_r+0x6ee>
    505a:	f015 0f40 	tst.w	r5, #64	; 0x40
    505e:	6833      	ldr	r3, [r6, #0]
    5060:	bf15      	itete	ne
    5062:	9a0e      	ldrne	r2, [sp, #56]	; 0x38
    5064:	9d0e      	ldreq	r5, [sp, #56]	; 0x38
    5066:	801a      	strhne	r2, [r3, #0]
    5068:	601d      	streq	r5, [r3, #0]
    506a:	460e      	mov	r6, r1
    506c:	e50e      	b.n	4a8c <_vfprintf_r+0x110>
    506e:	930c      	str	r3, [sp, #48]	; 0x30
    5070:	f045 0510 	orr.w	r5, r5, #16
    5074:	920d      	str	r2, [sp, #52]	; 0x34
    5076:	e001      	b.n	507c <_vfprintf_r+0x700>
    5078:	930c      	str	r3, [sp, #48]	; 0x30
    507a:	920d      	str	r2, [sp, #52]	; 0x34
    507c:	f015 0220 	ands.w	r2, r5, #32
    5080:	d00a      	beq.n	5098 <_vfprintf_r+0x71c>
    5082:	3607      	adds	r6, #7
    5084:	2200      	movs	r2, #0
    5086:	f026 0307 	bic.w	r3, r6, #7
    508a:	f103 0608 	add.w	r6, r3, #8
    508e:	e9d3 ab00 	ldrd	sl, fp, [r3]
    5092:	e9cd ab08 	strd	sl, fp, [sp, #32]
    5096:	e0be      	b.n	5216 <_vfprintf_r+0x89a>
    5098:	f015 0110 	ands.w	r1, r5, #16
    509c:	f106 0304 	add.w	r3, r6, #4
    50a0:	d002      	beq.n	50a8 <_vfprintf_r+0x72c>
    50a2:	6831      	ldr	r1, [r6, #0]
    50a4:	468a      	mov	sl, r1
    50a6:	e00d      	b.n	50c4 <_vfprintf_r+0x748>
    50a8:	f015 0240 	ands.w	r2, r5, #64	; 0x40
    50ac:	6830      	ldr	r0, [r6, #0]
    50ae:	d008      	beq.n	50c2 <_vfprintf_r+0x746>
    50b0:	b280      	uxth	r0, r0
    50b2:	f04f 0b00 	mov.w	fp, #0
    50b6:	4682      	mov	sl, r0
    50b8:	461e      	mov	r6, r3
    50ba:	e9cd ab08 	strd	sl, fp, [sp, #32]
    50be:	460a      	mov	r2, r1
    50c0:	e0a9      	b.n	5216 <_vfprintf_r+0x89a>
    50c2:	4682      	mov	sl, r0
    50c4:	f04f 0b00 	mov.w	fp, #0
    50c8:	461e      	mov	r6, r3
    50ca:	e9cd ab08 	strd	sl, fp, [sp, #32]
    50ce:	e0a2      	b.n	5216 <_vfprintf_r+0x89a>
    50d0:	930c      	str	r3, [sp, #48]	; 0x30
    50d2:	2100      	movs	r1, #0
    50d4:	6833      	ldr	r3, [r6, #0]
    50d6:	f04f 0978 	mov.w	r9, #120	; 0x78
    50da:	920d      	str	r2, [sp, #52]	; 0x34
    50dc:	f045 0502 	orr.w	r5, r5, #2
    50e0:	4618      	mov	r0, r3
    50e2:	e9cd 0108 	strd	r0, r1, [sp, #32]
    50e6:	49a5      	ldr	r1, [pc, #660]	; (537c <_vfprintf_r+0xa00>)
    50e8:	2330      	movs	r3, #48	; 0x30
    50ea:	f88d 91d5 	strb.w	r9, [sp, #469]	; 0x1d5
    50ee:	3604      	adds	r6, #4
    50f0:	f88d 31d4 	strb.w	r3, [sp, #468]	; 0x1d4
    50f4:	9116      	str	r1, [sp, #88]	; 0x58
    50f6:	e08d      	b.n	5214 <_vfprintf_r+0x898>
    50f8:	930c      	str	r3, [sp, #48]	; 0x30
    50fa:	2300      	movs	r3, #0
    50fc:	920d      	str	r2, [sp, #52]	; 0x34
    50fe:	4632      	mov	r2, r6
    5100:	3604      	adds	r6, #4
    5102:	459c      	cmp	ip, r3
    5104:	f88d 31d7 	strb.w	r3, [sp, #471]	; 0x1d7
    5108:	f8d2 a000 	ldr.w	sl, [r2]
    510c:	db13      	blt.n	5136 <_vfprintf_r+0x7ba>
    510e:	4619      	mov	r1, r3
    5110:	4662      	mov	r2, ip
    5112:	4650      	mov	r0, sl
    5114:	9307      	str	r3, [sp, #28]
    5116:	f8cd c018 	str.w	ip, [sp, #24]
    511a:	f7fd fa8b 	bl	2634 <memchr>
    511e:	9b07      	ldr	r3, [sp, #28]
    5120:	f8dd c018 	ldr.w	ip, [sp, #24]
    5124:	2800      	cmp	r0, #0
    5126:	f000 8124 	beq.w	5372 <_vfprintf_r+0x9f6>
    512a:	ebca 0b00 	rsb	fp, sl, r0
    512e:	45e3      	cmp	fp, ip
    5130:	f300 8128 	bgt.w	5384 <_vfprintf_r+0xa08>
    5134:	e127      	b.n	5386 <_vfprintf_r+0xa0a>
    5136:	4650      	mov	r0, sl
    5138:	9307      	str	r3, [sp, #28]
    513a:	f7fd fd93 	bl	2c64 <strlen>
    513e:	9b07      	ldr	r3, [sp, #28]
    5140:	4683      	mov	fp, r0
    5142:	e120      	b.n	5386 <_vfprintf_r+0xa0a>
    5144:	930c      	str	r3, [sp, #48]	; 0x30
    5146:	f045 0510 	orr.w	r5, r5, #16
    514a:	920d      	str	r2, [sp, #52]	; 0x34
    514c:	e001      	b.n	5152 <_vfprintf_r+0x7d6>
    514e:	930c      	str	r3, [sp, #48]	; 0x30
    5150:	920d      	str	r2, [sp, #52]	; 0x34
    5152:	f015 0f20 	tst.w	r5, #32
    5156:	d009      	beq.n	516c <_vfprintf_r+0x7f0>
    5158:	3607      	adds	r6, #7
    515a:	f026 0307 	bic.w	r3, r6, #7
    515e:	f103 0608 	add.w	r6, r3, #8
    5162:	e9d3 ab00 	ldrd	sl, fp, [r3]
    5166:	e9cd ab08 	strd	sl, fp, [sp, #32]
    516a:	e016      	b.n	519a <_vfprintf_r+0x81e>
    516c:	f015 0f10 	tst.w	r5, #16
    5170:	f106 0304 	add.w	r3, r6, #4
    5174:	d001      	beq.n	517a <_vfprintf_r+0x7fe>
    5176:	6832      	ldr	r2, [r6, #0]
    5178:	e00a      	b.n	5190 <_vfprintf_r+0x814>
    517a:	f015 0f40 	tst.w	r5, #64	; 0x40
    517e:	6832      	ldr	r2, [r6, #0]
    5180:	d006      	beq.n	5190 <_vfprintf_r+0x814>
    5182:	b292      	uxth	r2, r2
    5184:	f04f 0b00 	mov.w	fp, #0
    5188:	4692      	mov	sl, r2
    518a:	e9cd ab08 	strd	sl, fp, [sp, #32]
    518e:	e003      	b.n	5198 <_vfprintf_r+0x81c>
    5190:	4610      	mov	r0, r2
    5192:	2100      	movs	r1, #0
    5194:	e9cd 0108 	strd	r0, r1, [sp, #32]
    5198:	461e      	mov	r6, r3
    519a:	2201      	movs	r2, #1
    519c:	e03b      	b.n	5216 <_vfprintf_r+0x89a>
    519e:	4977      	ldr	r1, [pc, #476]	; (537c <_vfprintf_r+0xa00>)
    51a0:	930c      	str	r3, [sp, #48]	; 0x30
    51a2:	920d      	str	r2, [sp, #52]	; 0x34
    51a4:	9116      	str	r1, [sp, #88]	; 0x58
    51a6:	e003      	b.n	51b0 <_vfprintf_r+0x834>
    51a8:	920d      	str	r2, [sp, #52]	; 0x34
    51aa:	4a75      	ldr	r2, [pc, #468]	; (5380 <_vfprintf_r+0xa04>)
    51ac:	930c      	str	r3, [sp, #48]	; 0x30
    51ae:	9216      	str	r2, [sp, #88]	; 0x58
    51b0:	f015 0f20 	tst.w	r5, #32
    51b4:	d009      	beq.n	51ca <_vfprintf_r+0x84e>
    51b6:	3607      	adds	r6, #7
    51b8:	f026 0307 	bic.w	r3, r6, #7
    51bc:	f103 0608 	add.w	r6, r3, #8
    51c0:	e9d3 ab00 	ldrd	sl, fp, [r3]
    51c4:	e9cd ab08 	strd	sl, fp, [sp, #32]
    51c8:	e016      	b.n	51f8 <_vfprintf_r+0x87c>
    51ca:	f015 0f10 	tst.w	r5, #16
    51ce:	f106 0304 	add.w	r3, r6, #4
    51d2:	d001      	beq.n	51d8 <_vfprintf_r+0x85c>
    51d4:	6832      	ldr	r2, [r6, #0]
    51d6:	e00a      	b.n	51ee <_vfprintf_r+0x872>
    51d8:	f015 0f40 	tst.w	r5, #64	; 0x40
    51dc:	6832      	ldr	r2, [r6, #0]
    51de:	d006      	beq.n	51ee <_vfprintf_r+0x872>
    51e0:	b292      	uxth	r2, r2
    51e2:	f04f 0b00 	mov.w	fp, #0
    51e6:	4692      	mov	sl, r2
    51e8:	e9cd ab08 	strd	sl, fp, [sp, #32]
    51ec:	e003      	b.n	51f6 <_vfprintf_r+0x87a>
    51ee:	4610      	mov	r0, r2
    51f0:	2100      	movs	r1, #0
    51f2:	e9cd 0108 	strd	r0, r1, [sp, #32]
    51f6:	461e      	mov	r6, r3
    51f8:	f015 0f01 	tst.w	r5, #1
    51fc:	d00a      	beq.n	5214 <_vfprintf_r+0x898>
    51fe:	e9dd 2308 	ldrd	r2, r3, [sp, #32]
    5202:	4313      	orrs	r3, r2
    5204:	d006      	beq.n	5214 <_vfprintf_r+0x898>
    5206:	f045 0502 	orr.w	r5, r5, #2
    520a:	2330      	movs	r3, #48	; 0x30
    520c:	f88d 91d5 	strb.w	r9, [sp, #469]	; 0x1d5
    5210:	f88d 31d4 	strb.w	r3, [sp, #468]	; 0x1d4
    5214:	2202      	movs	r2, #2
    5216:	2300      	movs	r3, #0
    5218:	f88d 31d7 	strb.w	r3, [sp, #471]	; 0x1d7
    521c:	e000      	b.n	5220 <_vfprintf_r+0x8a4>
    521e:	2201      	movs	r2, #1
    5220:	e9dd ab08 	ldrd	sl, fp, [sp, #32]
    5224:	f1bc 0f00 	cmp.w	ip, #0
    5228:	bfa8      	it	ge
    522a:	f025 0580 	bicge.w	r5, r5, #128	; 0x80
    522e:	ea5a 0b0b 	orrs.w	fp, sl, fp
    5232:	d102      	bne.n	523a <_vfprintf_r+0x8be>
    5234:	f1bc 0f00 	cmp.w	ip, #0
    5238:	d072      	beq.n	5320 <_vfprintf_r+0x9a4>
    523a:	2a01      	cmp	r2, #1
    523c:	d023      	beq.n	5286 <_vfprintf_r+0x90a>
    523e:	2a02      	cmp	r2, #2
    5240:	d055      	beq.n	52ee <_vfprintf_r+0x972>
    5242:	ab6c      	add	r3, sp, #432	; 0x1b0
    5244:	3303      	adds	r3, #3
    5246:	9808      	ldr	r0, [sp, #32]
    5248:	469a      	mov	sl, r3
    524a:	f000 0207 	and.w	r2, r0, #7
    524e:	3230      	adds	r2, #48	; 0x30
    5250:	701a      	strb	r2, [r3, #0]
    5252:	9908      	ldr	r1, [sp, #32]
    5254:	3b01      	subs	r3, #1
    5256:	f8dd b024 	ldr.w	fp, [sp, #36]	; 0x24
    525a:	08c8      	lsrs	r0, r1, #3
    525c:	ea40 714b 	orr.w	r1, r0, fp, lsl #29
    5260:	ea4f 0bdb 	mov.w	fp, fp, lsr #3
    5264:	9108      	str	r1, [sp, #32]
    5266:	f8cd b024 	str.w	fp, [sp, #36]	; 0x24
    526a:	e9dd 0108 	ldrd	r0, r1, [sp, #32]
    526e:	4301      	orrs	r1, r0
    5270:	d1e9      	bne.n	5246 <_vfprintf_r+0x8ca>
    5272:	f015 0f01 	tst.w	r5, #1
    5276:	d05f      	beq.n	5338 <_vfprintf_r+0x9bc>
    5278:	2a30      	cmp	r2, #48	; 0x30
    527a:	d05d      	beq.n	5338 <_vfprintf_r+0x9bc>
    527c:	469a      	mov	sl, r3
    527e:	2330      	movs	r3, #48	; 0x30
    5280:	f88a 3000 	strb.w	r3, [sl]
    5284:	e058      	b.n	5338 <_vfprintf_r+0x9bc>
    5286:	e9dd 2308 	ldrd	r2, r3, [sp, #32]
    528a:	2a0a      	cmp	r2, #10
    528c:	f173 0300 	sbcs.w	r3, r3, #0
    5290:	d20a      	bcs.n	52a8 <_vfprintf_r+0x92c>
    5292:	f8dd a020 	ldr.w	sl, [sp, #32]
    5296:	f10a 0330 	add.w	r3, sl, #48	; 0x30
    529a:	f50d 7ad8 	add.w	sl, sp, #432	; 0x1b0
    529e:	f88d 31b3 	strb.w	r3, [sp, #435]	; 0x1b3
    52a2:	f10a 0a03 	add.w	sl, sl, #3
    52a6:	e047      	b.n	5338 <_vfprintf_r+0x9bc>
    52a8:	f50d 7bd8 	add.w	fp, sp, #432	; 0x1b0
    52ac:	4623      	mov	r3, r4
    52ae:	f10b 0b03 	add.w	fp, fp, #3
    52b2:	465c      	mov	r4, fp
    52b4:	46cb      	mov	fp, r9
    52b6:	4699      	mov	r9, r3
    52b8:	e9dd 0108 	ldrd	r0, r1, [sp, #32]
    52bc:	220a      	movs	r2, #10
    52be:	2300      	movs	r3, #0
    52c0:	f8cd c018 	str.w	ip, [sp, #24]
    52c4:	f006 f9ce 	bl	b664 <__aeabi_uldivmod>
    52c8:	46a2      	mov	sl, r4
    52ca:	2300      	movs	r3, #0
    52cc:	3230      	adds	r2, #48	; 0x30
    52ce:	f804 2901 	strb.w	r2, [r4], #-1
    52d2:	e9dd 0108 	ldrd	r0, r1, [sp, #32]
    52d6:	220a      	movs	r2, #10
    52d8:	f006 f9c4 	bl	b664 <__aeabi_uldivmod>
    52dc:	f8dd c018 	ldr.w	ip, [sp, #24]
    52e0:	e9cd 0108 	strd	r0, r1, [sp, #32]
    52e4:	4308      	orrs	r0, r1
    52e6:	d1e7      	bne.n	52b8 <_vfprintf_r+0x93c>
    52e8:	464c      	mov	r4, r9
    52ea:	46d9      	mov	r9, fp
    52ec:	e024      	b.n	5338 <_vfprintf_r+0x9bc>
    52ee:	ab6c      	add	r3, sp, #432	; 0x1b0
    52f0:	3303      	adds	r3, #3
    52f2:	9908      	ldr	r1, [sp, #32]
    52f4:	469a      	mov	sl, r3
    52f6:	f8dd b058 	ldr.w	fp, [sp, #88]	; 0x58
    52fa:	f001 020f 	and.w	r2, r1, #15
    52fe:	f81b 2002 	ldrb.w	r2, [fp, r2]
    5302:	f803 2901 	strb.w	r2, [r3], #-1
    5306:	9908      	ldr	r1, [sp, #32]
    5308:	9a09      	ldr	r2, [sp, #36]	; 0x24
    530a:	0908      	lsrs	r0, r1, #4
    530c:	ea40 7102 	orr.w	r1, r0, r2, lsl #28
    5310:	0912      	lsrs	r2, r2, #4
    5312:	9108      	str	r1, [sp, #32]
    5314:	9209      	str	r2, [sp, #36]	; 0x24
    5316:	e9dd 0108 	ldrd	r0, r1, [sp, #32]
    531a:	4301      	orrs	r1, r0
    531c:	d1e9      	bne.n	52f2 <_vfprintf_r+0x976>
    531e:	e00b      	b.n	5338 <_vfprintf_r+0x9bc>
    5320:	b942      	cbnz	r2, 5334 <_vfprintf_r+0x9b8>
    5322:	f015 0f01 	tst.w	r5, #1
    5326:	d005      	beq.n	5334 <_vfprintf_r+0x9b8>
    5328:	f50d 7aec 	add.w	sl, sp, #472	; 0x1d8
    532c:	2330      	movs	r3, #48	; 0x30
    532e:	f80a 3d25 	strb.w	r3, [sl, #-37]!
    5332:	e001      	b.n	5338 <_vfprintf_r+0x9bc>
    5334:	f50d 7ada 	add.w	sl, sp, #436	; 0x1b4
    5338:	f50d 7bda 	add.w	fp, sp, #436	; 0x1b4
    533c:	2200      	movs	r2, #0
    533e:	ebca 0b0b 	rsb	fp, sl, fp
    5342:	9208      	str	r2, [sp, #32]
    5344:	e021      	b.n	538a <_vfprintf_r+0xa0e>
    5346:	930c      	str	r3, [sp, #48]	; 0x30
    5348:	920d      	str	r2, [sp, #52]	; 0x34
    534a:	f1b9 0f00 	cmp.w	r9, #0
    534e:	f000 83df 	beq.w	5b10 <_vfprintf_r+0x1194>
    5352:	f04f 0c00 	mov.w	ip, #0
    5356:	f88d 918c 	strb.w	r9, [sp, #396]	; 0x18c
    535a:	f88d c1d7 	strb.w	ip, [sp, #471]	; 0x1d7
    535e:	f04f 0b01 	mov.w	fp, #1
    5362:	f8cd c020 	str.w	ip, [sp, #32]
    5366:	f50d 7ac6 	add.w	sl, sp, #396	; 0x18c
    536a:	e00e      	b.n	538a <_vfprintf_r+0xa0e>
    536c:	f8dd c050 	ldr.w	ip, [sp, #80]	; 0x50
    5370:	e00b      	b.n	538a <_vfprintf_r+0xa0e>
    5372:	46e3      	mov	fp, ip
    5374:	4684      	mov	ip, r0
    5376:	9008      	str	r0, [sp, #32]
    5378:	e007      	b.n	538a <_vfprintf_r+0xa0e>
    537a:	bf00      	nop
    537c:	0000c0a9 	.word	0x0000c0a9
    5380:	0000c098 	.word	0x0000c098
    5384:	46e3      	mov	fp, ip
    5386:	469c      	mov	ip, r3
    5388:	9308      	str	r3, [sp, #32]
    538a:	45e3      	cmp	fp, ip
    538c:	bfac      	ite	ge
    538e:	465b      	movge	r3, fp
    5390:	4663      	movlt	r3, ip
    5392:	930f      	str	r3, [sp, #60]	; 0x3c
    5394:	f89d 31d7 	ldrb.w	r3, [sp, #471]	; 0x1d7
    5398:	b113      	cbz	r3, 53a0 <_vfprintf_r+0xa24>
    539a:	980f      	ldr	r0, [sp, #60]	; 0x3c
    539c:	3001      	adds	r0, #1
    539e:	900f      	str	r0, [sp, #60]	; 0x3c
    53a0:	f015 0102 	ands.w	r1, r5, #2
    53a4:	9114      	str	r1, [sp, #80]	; 0x50
    53a6:	d002      	beq.n	53ae <_vfprintf_r+0xa32>
    53a8:	9a0f      	ldr	r2, [sp, #60]	; 0x3c
    53aa:	3202      	adds	r2, #2
    53ac:	920f      	str	r2, [sp, #60]	; 0x3c
    53ae:	f015 0384 	ands.w	r3, r5, #132	; 0x84
    53b2:	9317      	str	r3, [sp, #92]	; 0x5c
    53b4:	d146      	bne.n	5444 <_vfprintf_r+0xac8>
    53b6:	980d      	ldr	r0, [sp, #52]	; 0x34
    53b8:	990f      	ldr	r1, [sp, #60]	; 0x3c
    53ba:	1a43      	subs	r3, r0, r1
    53bc:	2b00      	cmp	r3, #0
    53be:	dc1b      	bgt.n	53f8 <_vfprintf_r+0xa7c>
    53c0:	e040      	b.n	5444 <_vfprintf_r+0xac8>
    53c2:	601a      	str	r2, [r3, #0]
    53c4:	2210      	movs	r2, #16
    53c6:	1889      	adds	r1, r1, r2
    53c8:	605a      	str	r2, [r3, #4]
    53ca:	9a6e      	ldr	r2, [sp, #440]	; 0x1b8
    53cc:	916f      	str	r1, [sp, #444]	; 0x1bc
    53ce:	3201      	adds	r2, #1
    53d0:	926e      	str	r2, [sp, #440]	; 0x1b8
    53d2:	2a07      	cmp	r2, #7
    53d4:	dc01      	bgt.n	53da <_vfprintf_r+0xa5e>
    53d6:	3308      	adds	r3, #8
    53d8:	e00c      	b.n	53f4 <_vfprintf_r+0xa78>
    53da:	4640      	mov	r0, r8
    53dc:	4639      	mov	r1, r7
    53de:	aa6d      	add	r2, sp, #436	; 0x1b4
    53e0:	f8cd c018 	str.w	ip, [sp, #24]
    53e4:	f004 fc5e 	bl	9ca4 <__sprint_r>
    53e8:	f8dd c018 	ldr.w	ip, [sp, #24]
    53ec:	2800      	cmp	r0, #0
    53ee:	f040 8396 	bne.w	5b1e <_vfprintf_r+0x11a2>
    53f2:	ab53      	add	r3, sp, #332	; 0x14c
    53f4:	3d10      	subs	r5, #16
    53f6:	e004      	b.n	5402 <_vfprintf_r+0xa86>
    53f8:	462a      	mov	r2, r5
    53fa:	461d      	mov	r5, r3
    53fc:	4623      	mov	r3, r4
    53fe:	464c      	mov	r4, r9
    5400:	4691      	mov	r9, r2
    5402:	2d10      	cmp	r5, #16
    5404:	996f      	ldr	r1, [sp, #444]	; 0x1bc
    5406:	4a93      	ldr	r2, [pc, #588]	; (5654 <_vfprintf_r+0xcd8>)
    5408:	dcdb      	bgt.n	53c2 <_vfprintf_r+0xa46>
    540a:	4648      	mov	r0, r9
    540c:	46a1      	mov	r9, r4
    540e:	461c      	mov	r4, r3
    5410:	462b      	mov	r3, r5
    5412:	4605      	mov	r5, r0
    5414:	6063      	str	r3, [r4, #4]
    5416:	18cb      	adds	r3, r1, r3
    5418:	6022      	str	r2, [r4, #0]
    541a:	936f      	str	r3, [sp, #444]	; 0x1bc
    541c:	9b6e      	ldr	r3, [sp, #440]	; 0x1b8
    541e:	3301      	adds	r3, #1
    5420:	936e      	str	r3, [sp, #440]	; 0x1b8
    5422:	2b07      	cmp	r3, #7
    5424:	dc01      	bgt.n	542a <_vfprintf_r+0xaae>
    5426:	3408      	adds	r4, #8
    5428:	e00c      	b.n	5444 <_vfprintf_r+0xac8>
    542a:	4640      	mov	r0, r8
    542c:	4639      	mov	r1, r7
    542e:	aa6d      	add	r2, sp, #436	; 0x1b4
    5430:	f8cd c018 	str.w	ip, [sp, #24]
    5434:	f004 fc36 	bl	9ca4 <__sprint_r>
    5438:	f8dd c018 	ldr.w	ip, [sp, #24]
    543c:	2800      	cmp	r0, #0
    543e:	f040 836e 	bne.w	5b1e <_vfprintf_r+0x11a2>
    5442:	ac53      	add	r4, sp, #332	; 0x14c
    5444:	f89d 31d7 	ldrb.w	r3, [sp, #471]	; 0x1d7
    5448:	b1db      	cbz	r3, 5482 <_vfprintf_r+0xb06>
    544a:	ab75      	add	r3, sp, #468	; 0x1d4
    544c:	3303      	adds	r3, #3
    544e:	6023      	str	r3, [r4, #0]
    5450:	2301      	movs	r3, #1
    5452:	6063      	str	r3, [r4, #4]
    5454:	9b6f      	ldr	r3, [sp, #444]	; 0x1bc
    5456:	3301      	adds	r3, #1
    5458:	936f      	str	r3, [sp, #444]	; 0x1bc
    545a:	9b6e      	ldr	r3, [sp, #440]	; 0x1b8
    545c:	3301      	adds	r3, #1
    545e:	936e      	str	r3, [sp, #440]	; 0x1b8
    5460:	2b07      	cmp	r3, #7
    5462:	dc01      	bgt.n	5468 <_vfprintf_r+0xaec>
    5464:	3408      	adds	r4, #8
    5466:	e00c      	b.n	5482 <_vfprintf_r+0xb06>
    5468:	4640      	mov	r0, r8
    546a:	4639      	mov	r1, r7
    546c:	aa6d      	add	r2, sp, #436	; 0x1b4
    546e:	f8cd c018 	str.w	ip, [sp, #24]
    5472:	f004 fc17 	bl	9ca4 <__sprint_r>
    5476:	f8dd c018 	ldr.w	ip, [sp, #24]
    547a:	2800      	cmp	r0, #0
    547c:	f040 834f 	bne.w	5b1e <_vfprintf_r+0x11a2>
    5480:	ac53      	add	r4, sp, #332	; 0x14c
    5482:	9a14      	ldr	r2, [sp, #80]	; 0x50
    5484:	b1d2      	cbz	r2, 54bc <_vfprintf_r+0xb40>
    5486:	ab75      	add	r3, sp, #468	; 0x1d4
    5488:	6023      	str	r3, [r4, #0]
    548a:	2302      	movs	r3, #2
    548c:	6063      	str	r3, [r4, #4]
    548e:	9b6f      	ldr	r3, [sp, #444]	; 0x1bc
    5490:	3302      	adds	r3, #2
    5492:	936f      	str	r3, [sp, #444]	; 0x1bc
    5494:	9b6e      	ldr	r3, [sp, #440]	; 0x1b8
    5496:	3301      	adds	r3, #1
    5498:	936e      	str	r3, [sp, #440]	; 0x1b8
    549a:	2b07      	cmp	r3, #7
    549c:	dc01      	bgt.n	54a2 <_vfprintf_r+0xb26>
    549e:	3408      	adds	r4, #8
    54a0:	e00c      	b.n	54bc <_vfprintf_r+0xb40>
    54a2:	4640      	mov	r0, r8
    54a4:	4639      	mov	r1, r7
    54a6:	aa6d      	add	r2, sp, #436	; 0x1b4
    54a8:	f8cd c018 	str.w	ip, [sp, #24]
    54ac:	f004 fbfa 	bl	9ca4 <__sprint_r>
    54b0:	f8dd c018 	ldr.w	ip, [sp, #24]
    54b4:	2800      	cmp	r0, #0
    54b6:	f040 8332 	bne.w	5b1e <_vfprintf_r+0x11a2>
    54ba:	ac53      	add	r4, sp, #332	; 0x14c
    54bc:	9b17      	ldr	r3, [sp, #92]	; 0x5c
    54be:	2b80      	cmp	r3, #128	; 0x80
    54c0:	d146      	bne.n	5550 <_vfprintf_r+0xbd4>
    54c2:	980d      	ldr	r0, [sp, #52]	; 0x34
    54c4:	990f      	ldr	r1, [sp, #60]	; 0x3c
    54c6:	1a43      	subs	r3, r0, r1
    54c8:	2b00      	cmp	r3, #0
    54ca:	dc1b      	bgt.n	5504 <_vfprintf_r+0xb88>
    54cc:	e040      	b.n	5550 <_vfprintf_r+0xbd4>
    54ce:	601a      	str	r2, [r3, #0]
    54d0:	2210      	movs	r2, #16
    54d2:	1889      	adds	r1, r1, r2
    54d4:	605a      	str	r2, [r3, #4]
    54d6:	9a6e      	ldr	r2, [sp, #440]	; 0x1b8
    54d8:	916f      	str	r1, [sp, #444]	; 0x1bc
    54da:	3201      	adds	r2, #1
    54dc:	926e      	str	r2, [sp, #440]	; 0x1b8
    54de:	2a07      	cmp	r2, #7
    54e0:	dc01      	bgt.n	54e6 <_vfprintf_r+0xb6a>
    54e2:	3308      	adds	r3, #8
    54e4:	e00c      	b.n	5500 <_vfprintf_r+0xb84>
    54e6:	4640      	mov	r0, r8
    54e8:	4639      	mov	r1, r7
    54ea:	aa6d      	add	r2, sp, #436	; 0x1b4
    54ec:	f8cd c018 	str.w	ip, [sp, #24]
    54f0:	f004 fbd8 	bl	9ca4 <__sprint_r>
    54f4:	f8dd c018 	ldr.w	ip, [sp, #24]
    54f8:	2800      	cmp	r0, #0
    54fa:	f040 8310 	bne.w	5b1e <_vfprintf_r+0x11a2>
    54fe:	ab53      	add	r3, sp, #332	; 0x14c
    5500:	3d10      	subs	r5, #16
    5502:	e004      	b.n	550e <_vfprintf_r+0xb92>
    5504:	462a      	mov	r2, r5
    5506:	461d      	mov	r5, r3
    5508:	4623      	mov	r3, r4
    550a:	464c      	mov	r4, r9
    550c:	4691      	mov	r9, r2
    550e:	2d10      	cmp	r5, #16
    5510:	996f      	ldr	r1, [sp, #444]	; 0x1bc
    5512:	4a51      	ldr	r2, [pc, #324]	; (5658 <_vfprintf_r+0xcdc>)
    5514:	dcdb      	bgt.n	54ce <_vfprintf_r+0xb52>
    5516:	4648      	mov	r0, r9
    5518:	46a1      	mov	r9, r4
    551a:	461c      	mov	r4, r3
    551c:	462b      	mov	r3, r5
    551e:	4605      	mov	r5, r0
    5520:	6063      	str	r3, [r4, #4]
    5522:	18cb      	adds	r3, r1, r3
    5524:	6022      	str	r2, [r4, #0]
    5526:	936f      	str	r3, [sp, #444]	; 0x1bc
    5528:	9b6e      	ldr	r3, [sp, #440]	; 0x1b8
    552a:	3301      	adds	r3, #1
    552c:	936e      	str	r3, [sp, #440]	; 0x1b8
    552e:	2b07      	cmp	r3, #7
    5530:	dc01      	bgt.n	5536 <_vfprintf_r+0xbba>
    5532:	3408      	adds	r4, #8
    5534:	e00c      	b.n	5550 <_vfprintf_r+0xbd4>
    5536:	4640      	mov	r0, r8
    5538:	4639      	mov	r1, r7
    553a:	aa6d      	add	r2, sp, #436	; 0x1b4
    553c:	f8cd c018 	str.w	ip, [sp, #24]
    5540:	f004 fbb0 	bl	9ca4 <__sprint_r>
    5544:	f8dd c018 	ldr.w	ip, [sp, #24]
    5548:	2800      	cmp	r0, #0
    554a:	f040 82e8 	bne.w	5b1e <_vfprintf_r+0x11a2>
    554e:	ac53      	add	r4, sp, #332	; 0x14c
    5550:	ebcb 030c 	rsb	r3, fp, ip
    5554:	2b00      	cmp	r3, #0
    5556:	dc17      	bgt.n	5588 <_vfprintf_r+0xc0c>
    5558:	e038      	b.n	55cc <_vfprintf_r+0xc50>
    555a:	601a      	str	r2, [r3, #0]
    555c:	2210      	movs	r2, #16
    555e:	1889      	adds	r1, r1, r2
    5560:	605a      	str	r2, [r3, #4]
    5562:	9a6e      	ldr	r2, [sp, #440]	; 0x1b8
    5564:	916f      	str	r1, [sp, #444]	; 0x1bc
    5566:	3201      	adds	r2, #1
    5568:	926e      	str	r2, [sp, #440]	; 0x1b8
    556a:	2a07      	cmp	r2, #7
    556c:	dc01      	bgt.n	5572 <_vfprintf_r+0xbf6>
    556e:	3308      	adds	r3, #8
    5570:	e008      	b.n	5584 <_vfprintf_r+0xc08>
    5572:	4640      	mov	r0, r8
    5574:	4639      	mov	r1, r7
    5576:	aa6d      	add	r2, sp, #436	; 0x1b4
    5578:	f004 fb94 	bl	9ca4 <__sprint_r>
    557c:	2800      	cmp	r0, #0
    557e:	f040 82ce 	bne.w	5b1e <_vfprintf_r+0x11a2>
    5582:	ab53      	add	r3, sp, #332	; 0x14c
    5584:	3d10      	subs	r5, #16
    5586:	e004      	b.n	5592 <_vfprintf_r+0xc16>
    5588:	462a      	mov	r2, r5
    558a:	461d      	mov	r5, r3
    558c:	4623      	mov	r3, r4
    558e:	464c      	mov	r4, r9
    5590:	4691      	mov	r9, r2
    5592:	2d10      	cmp	r5, #16
    5594:	996f      	ldr	r1, [sp, #444]	; 0x1bc
    5596:	4a30      	ldr	r2, [pc, #192]	; (5658 <_vfprintf_r+0xcdc>)
    5598:	dcdf      	bgt.n	555a <_vfprintf_r+0xbde>
    559a:	4648      	mov	r0, r9
    559c:	46a1      	mov	r9, r4
    559e:	461c      	mov	r4, r3
    55a0:	462b      	mov	r3, r5
    55a2:	4605      	mov	r5, r0
    55a4:	6063      	str	r3, [r4, #4]
    55a6:	18cb      	adds	r3, r1, r3
    55a8:	6022      	str	r2, [r4, #0]
    55aa:	936f      	str	r3, [sp, #444]	; 0x1bc
    55ac:	9b6e      	ldr	r3, [sp, #440]	; 0x1b8
    55ae:	3301      	adds	r3, #1
    55b0:	936e      	str	r3, [sp, #440]	; 0x1b8
    55b2:	2b07      	cmp	r3, #7
    55b4:	dc01      	bgt.n	55ba <_vfprintf_r+0xc3e>
    55b6:	3408      	adds	r4, #8
    55b8:	e008      	b.n	55cc <_vfprintf_r+0xc50>
    55ba:	4640      	mov	r0, r8
    55bc:	4639      	mov	r1, r7
    55be:	aa6d      	add	r2, sp, #436	; 0x1b4
    55c0:	f004 fb70 	bl	9ca4 <__sprint_r>
    55c4:	2800      	cmp	r0, #0
    55c6:	f040 82aa 	bne.w	5b1e <_vfprintf_r+0x11a2>
    55ca:	ac53      	add	r4, sp, #332	; 0x14c
    55cc:	f415 7f80 	tst.w	r5, #256	; 0x100
    55d0:	d106      	bne.n	55e0 <_vfprintf_r+0xc64>
    55d2:	9b6f      	ldr	r3, [sp, #444]	; 0x1bc
    55d4:	f8c4 a000 	str.w	sl, [r4]
    55d8:	f8c4 b004 	str.w	fp, [r4, #4]
    55dc:	445b      	add	r3, fp
    55de:	e23f      	b.n	5a60 <_vfprintf_r+0x10e4>
    55e0:	f1b9 0f65 	cmp.w	r9, #101	; 0x65
    55e4:	f340 81b7 	ble.w	5956 <_vfprintf_r+0xfda>
    55e8:	9810      	ldr	r0, [sp, #64]	; 0x40
    55ea:	2200      	movs	r2, #0
    55ec:	9911      	ldr	r1, [sp, #68]	; 0x44
    55ee:	2300      	movs	r3, #0
    55f0:	f005 ffe6 	bl	b5c0 <__aeabi_dcmpeq>
    55f4:	2800      	cmp	r0, #0
    55f6:	d060      	beq.n	56ba <_vfprintf_r+0xd3e>
    55f8:	4b18      	ldr	r3, [pc, #96]	; (565c <_vfprintf_r+0xce0>)
    55fa:	6023      	str	r3, [r4, #0]
    55fc:	2301      	movs	r3, #1
    55fe:	6063      	str	r3, [r4, #4]
    5600:	9b6f      	ldr	r3, [sp, #444]	; 0x1bc
    5602:	3301      	adds	r3, #1
    5604:	936f      	str	r3, [sp, #444]	; 0x1bc
    5606:	9b6e      	ldr	r3, [sp, #440]	; 0x1b8
    5608:	3301      	adds	r3, #1
    560a:	936e      	str	r3, [sp, #440]	; 0x1b8
    560c:	2b07      	cmp	r3, #7
    560e:	dc01      	bgt.n	5614 <_vfprintf_r+0xc98>
    5610:	3408      	adds	r4, #8
    5612:	e008      	b.n	5626 <_vfprintf_r+0xcaa>
    5614:	4640      	mov	r0, r8
    5616:	4639      	mov	r1, r7
    5618:	aa6d      	add	r2, sp, #436	; 0x1b4
    561a:	f004 fb43 	bl	9ca4 <__sprint_r>
    561e:	2800      	cmp	r0, #0
    5620:	f040 827d 	bne.w	5b1e <_vfprintf_r+0x11a2>
    5624:	ac53      	add	r4, sp, #332	; 0x14c
    5626:	9b74      	ldr	r3, [sp, #464]	; 0x1d0
    5628:	9a0b      	ldr	r2, [sp, #44]	; 0x2c
    562a:	4293      	cmp	r3, r2
    562c:	db03      	blt.n	5636 <_vfprintf_r+0xcba>
    562e:	f015 0f01 	tst.w	r5, #1
    5632:	f000 8225 	beq.w	5a80 <_vfprintf_r+0x1104>
    5636:	9b13      	ldr	r3, [sp, #76]	; 0x4c
    5638:	9812      	ldr	r0, [sp, #72]	; 0x48
    563a:	6023      	str	r3, [r4, #0]
    563c:	9b6f      	ldr	r3, [sp, #444]	; 0x1bc
    563e:	6060      	str	r0, [r4, #4]
    5640:	181b      	adds	r3, r3, r0
    5642:	936f      	str	r3, [sp, #444]	; 0x1bc
    5644:	9b6e      	ldr	r3, [sp, #440]	; 0x1b8
    5646:	3301      	adds	r3, #1
    5648:	936e      	str	r3, [sp, #440]	; 0x1b8
    564a:	2b07      	cmp	r3, #7
    564c:	dc08      	bgt.n	5660 <_vfprintf_r+0xce4>
    564e:	3408      	adds	r4, #8
    5650:	e00f      	b.n	5672 <_vfprintf_r+0xcf6>
    5652:	bf00      	nop
    5654:	0000c0f4 	.word	0x0000c0f4
    5658:	0000c104 	.word	0x0000c104
    565c:	0000c0ba 	.word	0x0000c0ba
    5660:	4640      	mov	r0, r8
    5662:	4639      	mov	r1, r7
    5664:	aa6d      	add	r2, sp, #436	; 0x1b4
    5666:	f004 fb1d 	bl	9ca4 <__sprint_r>
    566a:	2800      	cmp	r0, #0
    566c:	f040 8257 	bne.w	5b1e <_vfprintf_r+0x11a2>
    5670:	ac53      	add	r4, sp, #332	; 0x14c
    5672:	990b      	ldr	r1, [sp, #44]	; 0x2c
    5674:	f101 39ff 	add.w	r9, r1, #4294967295
    5678:	f1b9 0f00 	cmp.w	r9, #0
    567c:	dc17      	bgt.n	56ae <_vfprintf_r+0xd32>
    567e:	e1ff      	b.n	5a80 <_vfprintf_r+0x1104>
    5680:	6022      	str	r2, [r4, #0]
    5682:	2210      	movs	r2, #16
    5684:	189b      	adds	r3, r3, r2
    5686:	6062      	str	r2, [r4, #4]
    5688:	936f      	str	r3, [sp, #444]	; 0x1bc
    568a:	9b6e      	ldr	r3, [sp, #440]	; 0x1b8
    568c:	3301      	adds	r3, #1
    568e:	936e      	str	r3, [sp, #440]	; 0x1b8
    5690:	2b07      	cmp	r3, #7
    5692:	dc01      	bgt.n	5698 <_vfprintf_r+0xd1c>
    5694:	3408      	adds	r4, #8
    5696:	e008      	b.n	56aa <_vfprintf_r+0xd2e>
    5698:	4640      	mov	r0, r8
    569a:	4639      	mov	r1, r7
    569c:	aa6d      	add	r2, sp, #436	; 0x1b4
    569e:	f004 fb01 	bl	9ca4 <__sprint_r>
    56a2:	2800      	cmp	r0, #0
    56a4:	f040 823b 	bne.w	5b1e <_vfprintf_r+0x11a2>
    56a8:	ac53      	add	r4, sp, #332	; 0x14c
    56aa:	f1a9 0910 	sub.w	r9, r9, #16
    56ae:	f1b9 0f10 	cmp.w	r9, #16
    56b2:	9b6f      	ldr	r3, [sp, #444]	; 0x1bc
    56b4:	4a95      	ldr	r2, [pc, #596]	; (590c <_vfprintf_r+0xf90>)
    56b6:	dce3      	bgt.n	5680 <_vfprintf_r+0xd04>
    56b8:	e148      	b.n	594c <_vfprintf_r+0xfd0>
    56ba:	9b74      	ldr	r3, [sp, #464]	; 0x1d0
    56bc:	2b00      	cmp	r3, #0
    56be:	dc79      	bgt.n	57b4 <_vfprintf_r+0xe38>
    56c0:	4b93      	ldr	r3, [pc, #588]	; (5910 <_vfprintf_r+0xf94>)
    56c2:	6023      	str	r3, [r4, #0]
    56c4:	2301      	movs	r3, #1
    56c6:	6063      	str	r3, [r4, #4]
    56c8:	9b6f      	ldr	r3, [sp, #444]	; 0x1bc
    56ca:	3301      	adds	r3, #1
    56cc:	936f      	str	r3, [sp, #444]	; 0x1bc
    56ce:	9b6e      	ldr	r3, [sp, #440]	; 0x1b8
    56d0:	3301      	adds	r3, #1
    56d2:	936e      	str	r3, [sp, #440]	; 0x1b8
    56d4:	2b07      	cmp	r3, #7
    56d6:	dc01      	bgt.n	56dc <_vfprintf_r+0xd60>
    56d8:	3408      	adds	r4, #8
    56da:	e008      	b.n	56ee <_vfprintf_r+0xd72>
    56dc:	4640      	mov	r0, r8
    56de:	4639      	mov	r1, r7
    56e0:	aa6d      	add	r2, sp, #436	; 0x1b4
    56e2:	f004 fadf 	bl	9ca4 <__sprint_r>
    56e6:	2800      	cmp	r0, #0
    56e8:	f040 8219 	bne.w	5b1e <_vfprintf_r+0x11a2>
    56ec:	ac53      	add	r4, sp, #332	; 0x14c
    56ee:	9b74      	ldr	r3, [sp, #464]	; 0x1d0
    56f0:	b92b      	cbnz	r3, 56fe <_vfprintf_r+0xd82>
    56f2:	9a0b      	ldr	r2, [sp, #44]	; 0x2c
    56f4:	b91a      	cbnz	r2, 56fe <_vfprintf_r+0xd82>
    56f6:	f015 0f01 	tst.w	r5, #1
    56fa:	f000 81c1 	beq.w	5a80 <_vfprintf_r+0x1104>
    56fe:	9b13      	ldr	r3, [sp, #76]	; 0x4c
    5700:	9812      	ldr	r0, [sp, #72]	; 0x48
    5702:	6023      	str	r3, [r4, #0]
    5704:	9b6f      	ldr	r3, [sp, #444]	; 0x1bc
    5706:	6060      	str	r0, [r4, #4]
    5708:	181b      	adds	r3, r3, r0
    570a:	936f      	str	r3, [sp, #444]	; 0x1bc
    570c:	9b6e      	ldr	r3, [sp, #440]	; 0x1b8
    570e:	3301      	adds	r3, #1
    5710:	936e      	str	r3, [sp, #440]	; 0x1b8
    5712:	2b07      	cmp	r3, #7
    5714:	dc02      	bgt.n	571c <_vfprintf_r+0xda0>
    5716:	f104 0308 	add.w	r3, r4, #8
    571a:	e008      	b.n	572e <_vfprintf_r+0xdb2>
    571c:	4640      	mov	r0, r8
    571e:	4639      	mov	r1, r7
    5720:	aa6d      	add	r2, sp, #436	; 0x1b4
    5722:	f004 fabf 	bl	9ca4 <__sprint_r>
    5726:	2800      	cmp	r0, #0
    5728:	f040 81f9 	bne.w	5b1e <_vfprintf_r+0x11a2>
    572c:	ab53      	add	r3, sp, #332	; 0x14c
    572e:	9c74      	ldr	r4, [sp, #464]	; 0x1d0
    5730:	4264      	negs	r4, r4
    5732:	2c00      	cmp	r4, #0
    5734:	dc16      	bgt.n	5764 <_vfprintf_r+0xde8>
    5736:	e02d      	b.n	5794 <_vfprintf_r+0xe18>
    5738:	6019      	str	r1, [r3, #0]
    573a:	2110      	movs	r1, #16
    573c:	1852      	adds	r2, r2, r1
    573e:	6059      	str	r1, [r3, #4]
    5740:	926f      	str	r2, [sp, #444]	; 0x1bc
    5742:	9a6e      	ldr	r2, [sp, #440]	; 0x1b8
    5744:	3201      	adds	r2, #1
    5746:	926e      	str	r2, [sp, #440]	; 0x1b8
    5748:	2a07      	cmp	r2, #7
    574a:	dc01      	bgt.n	5750 <_vfprintf_r+0xdd4>
    574c:	3308      	adds	r3, #8
    574e:	e008      	b.n	5762 <_vfprintf_r+0xde6>
    5750:	4640      	mov	r0, r8
    5752:	4639      	mov	r1, r7
    5754:	aa6d      	add	r2, sp, #436	; 0x1b4
    5756:	f004 faa5 	bl	9ca4 <__sprint_r>
    575a:	2800      	cmp	r0, #0
    575c:	f040 81df 	bne.w	5b1e <_vfprintf_r+0x11a2>
    5760:	ab53      	add	r3, sp, #332	; 0x14c
    5762:	3c10      	subs	r4, #16
    5764:	2c10      	cmp	r4, #16
    5766:	9a6f      	ldr	r2, [sp, #444]	; 0x1bc
    5768:	4968      	ldr	r1, [pc, #416]	; (590c <_vfprintf_r+0xf90>)
    576a:	dce5      	bgt.n	5738 <_vfprintf_r+0xdbc>
    576c:	605c      	str	r4, [r3, #4]
    576e:	1914      	adds	r4, r2, r4
    5770:	9a6e      	ldr	r2, [sp, #440]	; 0x1b8
    5772:	6019      	str	r1, [r3, #0]
    5774:	3201      	adds	r2, #1
    5776:	946f      	str	r4, [sp, #444]	; 0x1bc
    5778:	2a07      	cmp	r2, #7
    577a:	926e      	str	r2, [sp, #440]	; 0x1b8
    577c:	dc01      	bgt.n	5782 <_vfprintf_r+0xe06>
    577e:	3308      	adds	r3, #8
    5780:	e008      	b.n	5794 <_vfprintf_r+0xe18>
    5782:	4640      	mov	r0, r8
    5784:	4639      	mov	r1, r7
    5786:	aa6d      	add	r2, sp, #436	; 0x1b4
    5788:	f004 fa8c 	bl	9ca4 <__sprint_r>
    578c:	2800      	cmp	r0, #0
    578e:	f040 81c6 	bne.w	5b1e <_vfprintf_r+0x11a2>
    5792:	ab53      	add	r3, sp, #332	; 0x14c
    5794:	990b      	ldr	r1, [sp, #44]	; 0x2c
    5796:	9a6f      	ldr	r2, [sp, #444]	; 0x1bc
    5798:	f8c3 a000 	str.w	sl, [r3]
    579c:	6059      	str	r1, [r3, #4]
    579e:	1852      	adds	r2, r2, r1
    57a0:	926f      	str	r2, [sp, #444]	; 0x1bc
    57a2:	9a6e      	ldr	r2, [sp, #440]	; 0x1b8
    57a4:	3201      	adds	r2, #1
    57a6:	926e      	str	r2, [sp, #440]	; 0x1b8
    57a8:	2a07      	cmp	r2, #7
    57aa:	f300 8161 	bgt.w	5a70 <_vfprintf_r+0x10f4>
    57ae:	f103 0408 	add.w	r4, r3, #8
    57b2:	e165      	b.n	5a80 <_vfprintf_r+0x1104>
    57b4:	9a0b      	ldr	r2, [sp, #44]	; 0x2c
    57b6:	9b08      	ldr	r3, [sp, #32]
    57b8:	4691      	mov	r9, r2
    57ba:	eb0a 0b02 	add.w	fp, sl, r2
    57be:	4599      	cmp	r9, r3
    57c0:	bfa8      	it	ge
    57c2:	4699      	movge	r9, r3
    57c4:	f1b9 0f00 	cmp.w	r9, #0
    57c8:	dd16      	ble.n	57f8 <_vfprintf_r+0xe7c>
    57ca:	9b6f      	ldr	r3, [sp, #444]	; 0x1bc
    57cc:	f8c4 a000 	str.w	sl, [r4]
    57d0:	f8c4 9004 	str.w	r9, [r4, #4]
    57d4:	444b      	add	r3, r9
    57d6:	936f      	str	r3, [sp, #444]	; 0x1bc
    57d8:	9b6e      	ldr	r3, [sp, #440]	; 0x1b8
    57da:	3301      	adds	r3, #1
    57dc:	936e      	str	r3, [sp, #440]	; 0x1b8
    57de:	2b07      	cmp	r3, #7
    57e0:	dc01      	bgt.n	57e6 <_vfprintf_r+0xe6a>
    57e2:	3408      	adds	r4, #8
    57e4:	e008      	b.n	57f8 <_vfprintf_r+0xe7c>
    57e6:	4640      	mov	r0, r8
    57e8:	4639      	mov	r1, r7
    57ea:	aa6d      	add	r2, sp, #436	; 0x1b4
    57ec:	f004 fa5a 	bl	9ca4 <__sprint_r>
    57f0:	2800      	cmp	r0, #0
    57f2:	f040 8194 	bne.w	5b1e <_vfprintf_r+0x11a2>
    57f6:	ac53      	add	r4, sp, #332	; 0x14c
    57f8:	9808      	ldr	r0, [sp, #32]
    57fa:	ea29 79e9 	bic.w	r9, r9, r9, asr #31
    57fe:	ebc9 0900 	rsb	r9, r9, r0
    5802:	f1b9 0f00 	cmp.w	r9, #0
    5806:	dc17      	bgt.n	5838 <_vfprintf_r+0xebc>
    5808:	e030      	b.n	586c <_vfprintf_r+0xef0>
    580a:	6022      	str	r2, [r4, #0]
    580c:	2210      	movs	r2, #16
    580e:	189b      	adds	r3, r3, r2
    5810:	6062      	str	r2, [r4, #4]
    5812:	936f      	str	r3, [sp, #444]	; 0x1bc
    5814:	9b6e      	ldr	r3, [sp, #440]	; 0x1b8
    5816:	3301      	adds	r3, #1
    5818:	936e      	str	r3, [sp, #440]	; 0x1b8
    581a:	2b07      	cmp	r3, #7
    581c:	dc01      	bgt.n	5822 <_vfprintf_r+0xea6>
    581e:	3408      	adds	r4, #8
    5820:	e008      	b.n	5834 <_vfprintf_r+0xeb8>
    5822:	4640      	mov	r0, r8
    5824:	4639      	mov	r1, r7
    5826:	aa6d      	add	r2, sp, #436	; 0x1b4
    5828:	f004 fa3c 	bl	9ca4 <__sprint_r>
    582c:	2800      	cmp	r0, #0
    582e:	f040 8176 	bne.w	5b1e <_vfprintf_r+0x11a2>
    5832:	ac53      	add	r4, sp, #332	; 0x14c
    5834:	f1a9 0910 	sub.w	r9, r9, #16
    5838:	f1b9 0f10 	cmp.w	r9, #16
    583c:	9b6f      	ldr	r3, [sp, #444]	; 0x1bc
    583e:	4a33      	ldr	r2, [pc, #204]	; (590c <_vfprintf_r+0xf90>)
    5840:	dce3      	bgt.n	580a <_vfprintf_r+0xe8e>
    5842:	6022      	str	r2, [r4, #0]
    5844:	444b      	add	r3, r9
    5846:	f8c4 9004 	str.w	r9, [r4, #4]
    584a:	936f      	str	r3, [sp, #444]	; 0x1bc
    584c:	9b6e      	ldr	r3, [sp, #440]	; 0x1b8
    584e:	3301      	adds	r3, #1
    5850:	936e      	str	r3, [sp, #440]	; 0x1b8
    5852:	2b07      	cmp	r3, #7
    5854:	dc01      	bgt.n	585a <_vfprintf_r+0xede>
    5856:	3408      	adds	r4, #8
    5858:	e008      	b.n	586c <_vfprintf_r+0xef0>
    585a:	4640      	mov	r0, r8
    585c:	4639      	mov	r1, r7
    585e:	aa6d      	add	r2, sp, #436	; 0x1b4
    5860:	f004 fa20 	bl	9ca4 <__sprint_r>
    5864:	2800      	cmp	r0, #0
    5866:	f040 815a 	bne.w	5b1e <_vfprintf_r+0x11a2>
    586a:	ac53      	add	r4, sp, #332	; 0x14c
    586c:	9b74      	ldr	r3, [sp, #464]	; 0x1d0
    586e:	990b      	ldr	r1, [sp, #44]	; 0x2c
    5870:	428b      	cmp	r3, r1
    5872:	db02      	blt.n	587a <_vfprintf_r+0xefe>
    5874:	f015 0f01 	tst.w	r5, #1
    5878:	d017      	beq.n	58aa <_vfprintf_r+0xf2e>
    587a:	9b12      	ldr	r3, [sp, #72]	; 0x48
    587c:	9a13      	ldr	r2, [sp, #76]	; 0x4c
    587e:	9812      	ldr	r0, [sp, #72]	; 0x48
    5880:	6063      	str	r3, [r4, #4]
    5882:	9b6f      	ldr	r3, [sp, #444]	; 0x1bc
    5884:	6022      	str	r2, [r4, #0]
    5886:	181b      	adds	r3, r3, r0
    5888:	936f      	str	r3, [sp, #444]	; 0x1bc
    588a:	9b6e      	ldr	r3, [sp, #440]	; 0x1b8
    588c:	3301      	adds	r3, #1
    588e:	936e      	str	r3, [sp, #440]	; 0x1b8
    5890:	2b07      	cmp	r3, #7
    5892:	dc01      	bgt.n	5898 <_vfprintf_r+0xf1c>
    5894:	3408      	adds	r4, #8
    5896:	e008      	b.n	58aa <_vfprintf_r+0xf2e>
    5898:	4640      	mov	r0, r8
    589a:	4639      	mov	r1, r7
    589c:	aa6d      	add	r2, sp, #436	; 0x1b4
    589e:	f004 fa01 	bl	9ca4 <__sprint_r>
    58a2:	2800      	cmp	r0, #0
    58a4:	f040 813b 	bne.w	5b1e <_vfprintf_r+0x11a2>
    58a8:	ac53      	add	r4, sp, #332	; 0x14c
    58aa:	9908      	ldr	r1, [sp, #32]
    58ac:	9a74      	ldr	r2, [sp, #464]	; 0x1d0
    58ae:	980b      	ldr	r0, [sp, #44]	; 0x2c
    58b0:	eb0a 0301 	add.w	r3, sl, r1
    58b4:	ebc3 0b0b 	rsb	fp, r3, fp
    58b8:	ebc2 0900 	rsb	r9, r2, r0
    58bc:	45cb      	cmp	fp, r9
    58be:	bfb8      	it	lt
    58c0:	46d9      	movlt	r9, fp
    58c2:	f1b9 0f00 	cmp.w	r9, #0
    58c6:	dd15      	ble.n	58f4 <_vfprintf_r+0xf78>
    58c8:	6023      	str	r3, [r4, #0]
    58ca:	9b6f      	ldr	r3, [sp, #444]	; 0x1bc
    58cc:	f8c4 9004 	str.w	r9, [r4, #4]
    58d0:	444b      	add	r3, r9
    58d2:	936f      	str	r3, [sp, #444]	; 0x1bc
    58d4:	9b6e      	ldr	r3, [sp, #440]	; 0x1b8
    58d6:	3301      	adds	r3, #1
    58d8:	936e      	str	r3, [sp, #440]	; 0x1b8
    58da:	2b07      	cmp	r3, #7
    58dc:	dc01      	bgt.n	58e2 <_vfprintf_r+0xf66>
    58de:	3408      	adds	r4, #8
    58e0:	e008      	b.n	58f4 <_vfprintf_r+0xf78>
    58e2:	4640      	mov	r0, r8
    58e4:	4639      	mov	r1, r7
    58e6:	aa6d      	add	r2, sp, #436	; 0x1b4
    58e8:	f004 f9dc 	bl	9ca4 <__sprint_r>
    58ec:	2800      	cmp	r0, #0
    58ee:	f040 8116 	bne.w	5b1e <_vfprintf_r+0x11a2>
    58f2:	ac53      	add	r4, sp, #332	; 0x14c
    58f4:	9b74      	ldr	r3, [sp, #464]	; 0x1d0
    58f6:	ea29 79e9 	bic.w	r9, r9, r9, asr #31
    58fa:	990b      	ldr	r1, [sp, #44]	; 0x2c
    58fc:	1acb      	subs	r3, r1, r3
    58fe:	ebc9 0903 	rsb	r9, r9, r3
    5902:	f1b9 0f00 	cmp.w	r9, #0
    5906:	dc1c      	bgt.n	5942 <_vfprintf_r+0xfc6>
    5908:	e0ba      	b.n	5a80 <_vfprintf_r+0x1104>
    590a:	bf00      	nop
    590c:	0000c104 	.word	0x0000c104
    5910:	0000c0ba 	.word	0x0000c0ba
    5914:	6022      	str	r2, [r4, #0]
    5916:	2210      	movs	r2, #16
    5918:	189b      	adds	r3, r3, r2
    591a:	6062      	str	r2, [r4, #4]
    591c:	936f      	str	r3, [sp, #444]	; 0x1bc
    591e:	9b6e      	ldr	r3, [sp, #440]	; 0x1b8
    5920:	3301      	adds	r3, #1
    5922:	936e      	str	r3, [sp, #440]	; 0x1b8
    5924:	2b07      	cmp	r3, #7
    5926:	dc01      	bgt.n	592c <_vfprintf_r+0xfb0>
    5928:	3408      	adds	r4, #8
    592a:	e008      	b.n	593e <_vfprintf_r+0xfc2>
    592c:	4640      	mov	r0, r8
    592e:	4639      	mov	r1, r7
    5930:	aa6d      	add	r2, sp, #436	; 0x1b4
    5932:	f004 f9b7 	bl	9ca4 <__sprint_r>
    5936:	2800      	cmp	r0, #0
    5938:	f040 80f1 	bne.w	5b1e <_vfprintf_r+0x11a2>
    593c:	ac53      	add	r4, sp, #332	; 0x14c
    593e:	f1a9 0910 	sub.w	r9, r9, #16
    5942:	f1b9 0f10 	cmp.w	r9, #16
    5946:	9b6f      	ldr	r3, [sp, #444]	; 0x1bc
    5948:	4a7d      	ldr	r2, [pc, #500]	; (5b40 <_vfprintf_r+0x11c4>)
    594a:	dce3      	bgt.n	5914 <_vfprintf_r+0xf98>
    594c:	6022      	str	r2, [r4, #0]
    594e:	444b      	add	r3, r9
    5950:	f8c4 9004 	str.w	r9, [r4, #4]
    5954:	e084      	b.n	5a60 <_vfprintf_r+0x10e4>
    5956:	9a0b      	ldr	r2, [sp, #44]	; 0x2c
    5958:	2a01      	cmp	r2, #1
    595a:	dc02      	bgt.n	5962 <_vfprintf_r+0xfe6>
    595c:	f015 0f01 	tst.w	r5, #1
    5960:	d062      	beq.n	5a28 <_vfprintf_r+0x10ac>
    5962:	2301      	movs	r3, #1
    5964:	6063      	str	r3, [r4, #4]
    5966:	9b6f      	ldr	r3, [sp, #444]	; 0x1bc
    5968:	f8c4 a000 	str.w	sl, [r4]
    596c:	3301      	adds	r3, #1
    596e:	936f      	str	r3, [sp, #444]	; 0x1bc
    5970:	9b6e      	ldr	r3, [sp, #440]	; 0x1b8
    5972:	3301      	adds	r3, #1
    5974:	936e      	str	r3, [sp, #440]	; 0x1b8
    5976:	2b07      	cmp	r3, #7
    5978:	dc01      	bgt.n	597e <_vfprintf_r+0x1002>
    597a:	3408      	adds	r4, #8
    597c:	e008      	b.n	5990 <_vfprintf_r+0x1014>
    597e:	4640      	mov	r0, r8
    5980:	4639      	mov	r1, r7
    5982:	aa6d      	add	r2, sp, #436	; 0x1b4
    5984:	f004 f98e 	bl	9ca4 <__sprint_r>
    5988:	2800      	cmp	r0, #0
    598a:	f040 80c8 	bne.w	5b1e <_vfprintf_r+0x11a2>
    598e:	ac53      	add	r4, sp, #332	; 0x14c
    5990:	9b13      	ldr	r3, [sp, #76]	; 0x4c
    5992:	9812      	ldr	r0, [sp, #72]	; 0x48
    5994:	6023      	str	r3, [r4, #0]
    5996:	9b6f      	ldr	r3, [sp, #444]	; 0x1bc
    5998:	6060      	str	r0, [r4, #4]
    599a:	181b      	adds	r3, r3, r0
    599c:	936f      	str	r3, [sp, #444]	; 0x1bc
    599e:	9b6e      	ldr	r3, [sp, #440]	; 0x1b8
    59a0:	3301      	adds	r3, #1
    59a2:	936e      	str	r3, [sp, #440]	; 0x1b8
    59a4:	2b07      	cmp	r3, #7
    59a6:	dc01      	bgt.n	59ac <_vfprintf_r+0x1030>
    59a8:	3408      	adds	r4, #8
    59aa:	e008      	b.n	59be <_vfprintf_r+0x1042>
    59ac:	4640      	mov	r0, r8
    59ae:	4639      	mov	r1, r7
    59b0:	aa6d      	add	r2, sp, #436	; 0x1b4
    59b2:	f004 f977 	bl	9ca4 <__sprint_r>
    59b6:	2800      	cmp	r0, #0
    59b8:	f040 80b1 	bne.w	5b1e <_vfprintf_r+0x11a2>
    59bc:	ac53      	add	r4, sp, #332	; 0x14c
    59be:	9911      	ldr	r1, [sp, #68]	; 0x44
    59c0:	2300      	movs	r3, #0
    59c2:	9810      	ldr	r0, [sp, #64]	; 0x40
    59c4:	2200      	movs	r2, #0
    59c6:	f005 fdfb 	bl	b5c0 <__aeabi_dcmpeq>
    59ca:	990b      	ldr	r1, [sp, #44]	; 0x2c
    59cc:	1e4b      	subs	r3, r1, #1
    59ce:	b930      	cbnz	r0, 59de <_vfprintf_r+0x1062>
    59d0:	f10a 0201 	add.w	r2, sl, #1
    59d4:	6022      	str	r2, [r4, #0]
    59d6:	9a6f      	ldr	r2, [sp, #444]	; 0x1bc
    59d8:	6063      	str	r3, [r4, #4]
    59da:	18d3      	adds	r3, r2, r3
    59dc:	e02a      	b.n	5a34 <_vfprintf_r+0x10b8>
    59de:	f1b3 0900 	subs.w	r9, r3, #0
    59e2:	dc17      	bgt.n	5a14 <_vfprintf_r+0x1098>
    59e4:	e036      	b.n	5a54 <_vfprintf_r+0x10d8>
    59e6:	6022      	str	r2, [r4, #0]
    59e8:	2210      	movs	r2, #16
    59ea:	189b      	adds	r3, r3, r2
    59ec:	6062      	str	r2, [r4, #4]
    59ee:	936f      	str	r3, [sp, #444]	; 0x1bc
    59f0:	9b6e      	ldr	r3, [sp, #440]	; 0x1b8
    59f2:	3301      	adds	r3, #1
    59f4:	936e      	str	r3, [sp, #440]	; 0x1b8
    59f6:	2b07      	cmp	r3, #7
    59f8:	dc01      	bgt.n	59fe <_vfprintf_r+0x1082>
    59fa:	3408      	adds	r4, #8
    59fc:	e008      	b.n	5a10 <_vfprintf_r+0x1094>
    59fe:	4640      	mov	r0, r8
    5a00:	4639      	mov	r1, r7
    5a02:	aa6d      	add	r2, sp, #436	; 0x1b4
    5a04:	f004 f94e 	bl	9ca4 <__sprint_r>
    5a08:	2800      	cmp	r0, #0
    5a0a:	f040 8088 	bne.w	5b1e <_vfprintf_r+0x11a2>
    5a0e:	ac53      	add	r4, sp, #332	; 0x14c
    5a10:	f1a9 0910 	sub.w	r9, r9, #16
    5a14:	f1b9 0f10 	cmp.w	r9, #16
    5a18:	9b6f      	ldr	r3, [sp, #444]	; 0x1bc
    5a1a:	4a49      	ldr	r2, [pc, #292]	; (5b40 <_vfprintf_r+0x11c4>)
    5a1c:	dce3      	bgt.n	59e6 <_vfprintf_r+0x106a>
    5a1e:	6022      	str	r2, [r4, #0]
    5a20:	444b      	add	r3, r9
    5a22:	f8c4 9004 	str.w	r9, [r4, #4]
    5a26:	e005      	b.n	5a34 <_vfprintf_r+0x10b8>
    5a28:	2301      	movs	r3, #1
    5a2a:	6063      	str	r3, [r4, #4]
    5a2c:	9b6f      	ldr	r3, [sp, #444]	; 0x1bc
    5a2e:	f8c4 a000 	str.w	sl, [r4]
    5a32:	3301      	adds	r3, #1
    5a34:	936f      	str	r3, [sp, #444]	; 0x1bc
    5a36:	9b6e      	ldr	r3, [sp, #440]	; 0x1b8
    5a38:	3301      	adds	r3, #1
    5a3a:	936e      	str	r3, [sp, #440]	; 0x1b8
    5a3c:	2b07      	cmp	r3, #7
    5a3e:	dc01      	bgt.n	5a44 <_vfprintf_r+0x10c8>
    5a40:	3408      	adds	r4, #8
    5a42:	e007      	b.n	5a54 <_vfprintf_r+0x10d8>
    5a44:	4640      	mov	r0, r8
    5a46:	4639      	mov	r1, r7
    5a48:	aa6d      	add	r2, sp, #436	; 0x1b4
    5a4a:	f004 f92b 	bl	9ca4 <__sprint_r>
    5a4e:	2800      	cmp	r0, #0
    5a50:	d165      	bne.n	5b1e <_vfprintf_r+0x11a2>
    5a52:	ac53      	add	r4, sp, #332	; 0x14c
    5a54:	ab70      	add	r3, sp, #448	; 0x1c0
    5a56:	9a15      	ldr	r2, [sp, #84]	; 0x54
    5a58:	6023      	str	r3, [r4, #0]
    5a5a:	9b6f      	ldr	r3, [sp, #444]	; 0x1bc
    5a5c:	6062      	str	r2, [r4, #4]
    5a5e:	189b      	adds	r3, r3, r2
    5a60:	936f      	str	r3, [sp, #444]	; 0x1bc
    5a62:	9b6e      	ldr	r3, [sp, #440]	; 0x1b8
    5a64:	3301      	adds	r3, #1
    5a66:	936e      	str	r3, [sp, #440]	; 0x1b8
    5a68:	2b07      	cmp	r3, #7
    5a6a:	dc01      	bgt.n	5a70 <_vfprintf_r+0x10f4>
    5a6c:	3408      	adds	r4, #8
    5a6e:	e007      	b.n	5a80 <_vfprintf_r+0x1104>
    5a70:	4640      	mov	r0, r8
    5a72:	4639      	mov	r1, r7
    5a74:	aa6d      	add	r2, sp, #436	; 0x1b4
    5a76:	f004 f915 	bl	9ca4 <__sprint_r>
    5a7a:	2800      	cmp	r0, #0
    5a7c:	d14f      	bne.n	5b1e <_vfprintf_r+0x11a2>
    5a7e:	ac53      	add	r4, sp, #332	; 0x14c
    5a80:	f015 0f04 	tst.w	r5, #4
    5a84:	d02f      	beq.n	5ae6 <_vfprintf_r+0x116a>
    5a86:	9b0d      	ldr	r3, [sp, #52]	; 0x34
    5a88:	f8dd a03c 	ldr.w	sl, [sp, #60]	; 0x3c
    5a8c:	ebca 0503 	rsb	r5, sl, r3
    5a90:	2d00      	cmp	r5, #0
    5a92:	dc15      	bgt.n	5ac0 <_vfprintf_r+0x1144>
    5a94:	e027      	b.n	5ae6 <_vfprintf_r+0x116a>
    5a96:	6022      	str	r2, [r4, #0]
    5a98:	2210      	movs	r2, #16
    5a9a:	189b      	adds	r3, r3, r2
    5a9c:	6062      	str	r2, [r4, #4]
    5a9e:	936f      	str	r3, [sp, #444]	; 0x1bc
    5aa0:	9b6e      	ldr	r3, [sp, #440]	; 0x1b8
    5aa2:	3301      	adds	r3, #1
    5aa4:	936e      	str	r3, [sp, #440]	; 0x1b8
    5aa6:	2b07      	cmp	r3, #7
    5aa8:	dc01      	bgt.n	5aae <_vfprintf_r+0x1132>
    5aaa:	3408      	adds	r4, #8
    5aac:	e007      	b.n	5abe <_vfprintf_r+0x1142>
    5aae:	4640      	mov	r0, r8
    5ab0:	4639      	mov	r1, r7
    5ab2:	aa6d      	add	r2, sp, #436	; 0x1b4
    5ab4:	f004 f8f6 	bl	9ca4 <__sprint_r>
    5ab8:	2800      	cmp	r0, #0
    5aba:	d130      	bne.n	5b1e <_vfprintf_r+0x11a2>
    5abc:	ac53      	add	r4, sp, #332	; 0x14c
    5abe:	3d10      	subs	r5, #16
    5ac0:	2d10      	cmp	r5, #16
    5ac2:	9b6f      	ldr	r3, [sp, #444]	; 0x1bc
    5ac4:	4a1f      	ldr	r2, [pc, #124]	; (5b44 <_vfprintf_r+0x11c8>)
    5ac6:	dce6      	bgt.n	5a96 <_vfprintf_r+0x111a>
    5ac8:	6065      	str	r5, [r4, #4]
    5aca:	195d      	adds	r5, r3, r5
    5acc:	9b6e      	ldr	r3, [sp, #440]	; 0x1b8
    5ace:	6022      	str	r2, [r4, #0]
    5ad0:	3301      	adds	r3, #1
    5ad2:	956f      	str	r5, [sp, #444]	; 0x1bc
    5ad4:	2b07      	cmp	r3, #7
    5ad6:	936e      	str	r3, [sp, #440]	; 0x1b8
    5ad8:	dd05      	ble.n	5ae6 <_vfprintf_r+0x116a>
    5ada:	4640      	mov	r0, r8
    5adc:	4639      	mov	r1, r7
    5ade:	aa6d      	add	r2, sp, #436	; 0x1b4
    5ae0:	f004 f8e0 	bl	9ca4 <__sprint_r>
    5ae4:	b9d8      	cbnz	r0, 5b1e <_vfprintf_r+0x11a2>
    5ae6:	980e      	ldr	r0, [sp, #56]	; 0x38
    5ae8:	9a0f      	ldr	r2, [sp, #60]	; 0x3c
    5aea:	990d      	ldr	r1, [sp, #52]	; 0x34
    5aec:	9b6f      	ldr	r3, [sp, #444]	; 0x1bc
    5aee:	428a      	cmp	r2, r1
    5af0:	bfac      	ite	ge
    5af2:	1880      	addge	r0, r0, r2
    5af4:	1840      	addlt	r0, r0, r1
    5af6:	900e      	str	r0, [sp, #56]	; 0x38
    5af8:	b12b      	cbz	r3, 5b06 <_vfprintf_r+0x118a>
    5afa:	4640      	mov	r0, r8
    5afc:	4639      	mov	r1, r7
    5afe:	aa6d      	add	r2, sp, #436	; 0x1b4
    5b00:	f004 f8d0 	bl	9ca4 <__sprint_r>
    5b04:	b958      	cbnz	r0, 5b1e <_vfprintf_r+0x11a2>
    5b06:	2300      	movs	r3, #0
    5b08:	ac53      	add	r4, sp, #332	; 0x14c
    5b0a:	936e      	str	r3, [sp, #440]	; 0x1b8
    5b0c:	f7fe bfbe 	b.w	4a8c <_vfprintf_r+0x110>
    5b10:	9b6f      	ldr	r3, [sp, #444]	; 0x1bc
    5b12:	b123      	cbz	r3, 5b1e <_vfprintf_r+0x11a2>
    5b14:	4640      	mov	r0, r8
    5b16:	4639      	mov	r1, r7
    5b18:	aa6d      	add	r2, sp, #436	; 0x1b4
    5b1a:	f004 f8c3 	bl	9ca4 <__sprint_r>
    5b1e:	89bb      	ldrh	r3, [r7, #12]
    5b20:	9d0e      	ldr	r5, [sp, #56]	; 0x38
    5b22:	f003 0340 	and.w	r3, r3, #64	; 0x40
    5b26:	2b00      	cmp	r3, #0
    5b28:	bf18      	it	ne
    5b2a:	f04f 35ff 	movne.w	r5, #4294967295
    5b2e:	950e      	str	r5, [sp, #56]	; 0x38
    5b30:	e002      	b.n	5b38 <_vfprintf_r+0x11bc>
    5b32:	f04f 30ff 	mov.w	r0, #4294967295
    5b36:	900e      	str	r0, [sp, #56]	; 0x38
    5b38:	980e      	ldr	r0, [sp, #56]	; 0x38
    5b3a:	b077      	add	sp, #476	; 0x1dc
    5b3c:	e8bd 8ff0 	ldmia.w	sp!, {r4, r5, r6, r7, r8, r9, sl, fp, pc}
    5b40:	0000c104 	.word	0x0000c104
    5b44:	0000c0f4 	.word	0x0000c0f4

00005b48 <__svfscanf_r>:
    5b48:	e92d 4ff0 	stmdb	sp!, {r4, r5, r6, r7, r8, r9, sl, fp, lr}
    5b4c:	460c      	mov	r4, r1
    5b4e:	f5ad 7d2d 	sub.w	sp, sp, #692	; 0x2b4
    5b52:	461e      	mov	r6, r3
    5b54:	4682      	mov	sl, r0
    5b56:	4615      	mov	r5, r2
    5b58:	f001 fea6 	bl	78a8 <__sfp_lock_acquire>
    5b5c:	89a3      	ldrh	r3, [r4, #12]
    5b5e:	f413 5f00 	tst.w	r3, #8192	; 0x2000
    5b62:	d106      	bne.n	5b72 <__svfscanf_r+0x2a>
    5b64:	f443 5300 	orr.w	r3, r3, #8192	; 0x2000
    5b68:	81a3      	strh	r3, [r4, #12]
    5b6a:	6e63      	ldr	r3, [r4, #100]	; 0x64
    5b6c:	f423 5300 	bic.w	r3, r3, #8192	; 0x2000
    5b70:	6663      	str	r3, [r4, #100]	; 0x64
    5b72:	2000      	movs	r0, #0
    5b74:	9507      	str	r5, [sp, #28]
    5b76:	4683      	mov	fp, r0
    5b78:	4607      	mov	r7, r0
    5b7a:	9009      	str	r0, [sp, #36]	; 0x24
    5b7c:	9008      	str	r0, [sp, #32]
    5b7e:	9907      	ldr	r1, [sp, #28]
    5b80:	780a      	ldrb	r2, [r1, #0]
    5b82:	f8ad 22ae 	strh.w	r2, [sp, #686]	; 0x2ae
    5b86:	2a00      	cmp	r2, #0
    5b88:	f000 85bf 	beq.w	670a <__svfscanf_r+0xbc2>
    5b8c:	4b91      	ldr	r3, [pc, #580]	; (5dd4 <__svfscanf_r+0x28c>)
    5b8e:	3101      	adds	r1, #1
    5b90:	9107      	str	r1, [sp, #28]
    5b92:	6819      	ldr	r1, [r3, #0]
    5b94:	1888      	adds	r0, r1, r2
    5b96:	f890 8001 	ldrb.w	r8, [r0, #1]
    5b9a:	f018 0808 	ands.w	r8, r8, #8
    5b9e:	d018      	beq.n	5bd2 <__svfscanf_r+0x8a>
    5ba0:	6863      	ldr	r3, [r4, #4]
    5ba2:	2b00      	cmp	r3, #0
    5ba4:	dc05      	bgt.n	5bb2 <__svfscanf_r+0x6a>
    5ba6:	4650      	mov	r0, sl
    5ba8:	4621      	mov	r1, r4
    5baa:	f002 fd4b 	bl	8644 <__srefill_r>
    5bae:	2800      	cmp	r0, #0
    5bb0:	d1e5      	bne.n	5b7e <__svfscanf_r+0x36>
    5bb2:	6823      	ldr	r3, [r4, #0]
    5bb4:	4d87      	ldr	r5, [pc, #540]	; (5dd4 <__svfscanf_r+0x28c>)
    5bb6:	781a      	ldrb	r2, [r3, #0]
    5bb8:	6829      	ldr	r1, [r5, #0]
    5bba:	188a      	adds	r2, r1, r2
    5bbc:	7852      	ldrb	r2, [r2, #1]
    5bbe:	f012 0f08 	tst.w	r2, #8
    5bc2:	d0dc      	beq.n	5b7e <__svfscanf_r+0x36>
    5bc4:	6862      	ldr	r2, [r4, #4]
    5bc6:	3301      	adds	r3, #1
    5bc8:	3701      	adds	r7, #1
    5bca:	6023      	str	r3, [r4, #0]
    5bcc:	3a01      	subs	r2, #1
    5bce:	6062      	str	r2, [r4, #4]
    5bd0:	e7e6      	b.n	5ba0 <__svfscanf_r+0x58>
    5bd2:	2a25      	cmp	r2, #37	; 0x25
    5bd4:	d151      	bne.n	5c7a <__svfscanf_r+0x132>
    5bd6:	9a07      	ldr	r2, [sp, #28]
    5bd8:	4645      	mov	r5, r8
    5bda:	f812 3b01 	ldrb.w	r3, [r2], #1
    5bde:	2b64      	cmp	r3, #100	; 0x64
    5be0:	d07a      	beq.n	5cd8 <__svfscanf_r+0x190>
    5be2:	d829      	bhi.n	5c38 <__svfscanf_r+0xf0>
    5be4:	2b47      	cmp	r3, #71	; 0x47
    5be6:	f000 808c 	beq.w	5d02 <__svfscanf_r+0x1ba>
    5bea:	d814      	bhi.n	5c16 <__svfscanf_r+0xce>
    5bec:	2b39      	cmp	r3, #57	; 0x39
    5bee:	d80a      	bhi.n	5c06 <__svfscanf_r+0xbe>
    5bf0:	2b30      	cmp	r3, #48	; 0x30
    5bf2:	d26c      	bcs.n	5cce <__svfscanf_r+0x186>
    5bf4:	2b25      	cmp	r3, #37	; 0x25
    5bf6:	d03f      	beq.n	5c78 <__svfscanf_r+0x130>
    5bf8:	2b2a      	cmp	r3, #42	; 0x2a
    5bfa:	d057      	beq.n	5cac <__svfscanf_r+0x164>
    5bfc:	9207      	str	r2, [sp, #28]
    5bfe:	2b00      	cmp	r3, #0
    5c00:	f000 80b9 	beq.w	5d76 <__svfscanf_r+0x22e>
    5c04:	e0bf      	b.n	5d86 <__svfscanf_r+0x23e>
    5c06:	2b44      	cmp	r3, #68	; 0x44
    5c08:	9207      	str	r2, [sp, #28]
    5c0a:	f000 80c2 	beq.w	5d92 <__svfscanf_r+0x24a>
    5c0e:	2b45      	cmp	r3, #69	; 0x45
    5c10:	f040 80b9 	bne.w	5d86 <__svfscanf_r+0x23e>
    5c14:	e076      	b.n	5d04 <__svfscanf_r+0x1bc>
    5c16:	2b58      	cmp	r3, #88	; 0x58
    5c18:	d06d      	beq.n	5cf6 <__svfscanf_r+0x1ae>
    5c1a:	d806      	bhi.n	5c2a <__svfscanf_r+0xe2>
    5c1c:	2b4c      	cmp	r3, #76	; 0x4c
    5c1e:	d050      	beq.n	5cc2 <__svfscanf_r+0x17a>
    5c20:	2b4f      	cmp	r3, #79	; 0x4f
    5c22:	9207      	str	r2, [sp, #28]
    5c24:	f040 80af 	bne.w	5d86 <__svfscanf_r+0x23e>
    5c28:	e05e      	b.n	5ce8 <__svfscanf_r+0x1a0>
    5c2a:	2b5b      	cmp	r3, #91	; 0x5b
    5c2c:	9207      	str	r2, [sp, #28]
    5c2e:	d06f      	beq.n	5d10 <__svfscanf_r+0x1c8>
    5c30:	2b63      	cmp	r3, #99	; 0x63
    5c32:	f040 80a8 	bne.w	5d86 <__svfscanf_r+0x23e>
    5c36:	e075      	b.n	5d24 <__svfscanf_r+0x1dc>
    5c38:	2b6e      	cmp	r3, #110	; 0x6e
    5c3a:	d07f      	beq.n	5d3c <__svfscanf_r+0x1f4>
    5c3c:	d808      	bhi.n	5c50 <__svfscanf_r+0x108>
    5c3e:	2b68      	cmp	r3, #104	; 0x68
    5c40:	d042      	beq.n	5cc8 <__svfscanf_r+0x180>
    5c42:	d35e      	bcc.n	5d02 <__svfscanf_r+0x1ba>
    5c44:	2b69      	cmp	r3, #105	; 0x69
    5c46:	d049      	beq.n	5cdc <__svfscanf_r+0x194>
    5c48:	2b6c      	cmp	r3, #108	; 0x6c
    5c4a:	f040 809b 	bne.w	5d84 <__svfscanf_r+0x23c>
    5c4e:	e030      	b.n	5cb2 <__svfscanf_r+0x16a>
    5c50:	2b73      	cmp	r3, #115	; 0x73
    5c52:	9207      	str	r2, [sp, #28]
    5c54:	d059      	beq.n	5d0a <__svfscanf_r+0x1c2>
    5c56:	d805      	bhi.n	5c64 <__svfscanf_r+0x11c>
    5c58:	2b6f      	cmp	r3, #111	; 0x6f
    5c5a:	d00a      	beq.n	5c72 <__svfscanf_r+0x12a>
    5c5c:	2b70      	cmp	r3, #112	; 0x70
    5c5e:	f040 8092 	bne.w	5d86 <__svfscanf_r+0x23e>
    5c62:	e064      	b.n	5d2e <__svfscanf_r+0x1e6>
    5c64:	2b75      	cmp	r3, #117	; 0x75
    5c66:	f000 8099 	beq.w	5d9c <__svfscanf_r+0x254>
    5c6a:	2b78      	cmp	r3, #120	; 0x78
    5c6c:	f040 808b 	bne.w	5d86 <__svfscanf_r+0x23e>
    5c70:	e042      	b.n	5cf8 <__svfscanf_r+0x1b0>
    5c72:	4859      	ldr	r0, [pc, #356]	; (5dd8 <__svfscanf_r+0x290>)
    5c74:	9009      	str	r0, [sp, #36]	; 0x24
    5c76:	e03b      	b.n	5cf0 <__svfscanf_r+0x1a8>
    5c78:	9207      	str	r2, [sp, #28]
    5c7a:	6863      	ldr	r3, [r4, #4]
    5c7c:	2b00      	cmp	r3, #0
    5c7e:	dc06      	bgt.n	5c8e <__svfscanf_r+0x146>
    5c80:	4650      	mov	r0, sl
    5c82:	4621      	mov	r1, r4
    5c84:	f002 fcde 	bl	8644 <__srefill_r>
    5c88:	2800      	cmp	r0, #0
    5c8a:	f040 8530 	bne.w	66ee <__svfscanf_r+0xba6>
    5c8e:	6823      	ldr	r3, [r4, #0]
    5c90:	9d07      	ldr	r5, [sp, #28]
    5c92:	7819      	ldrb	r1, [r3, #0]
    5c94:	f815 2c01 	ldrb.w	r2, [r5, #-1]
    5c98:	4291      	cmp	r1, r2
    5c9a:	f040 8536 	bne.w	670a <__svfscanf_r+0xbc2>
    5c9e:	6862      	ldr	r2, [r4, #4]
    5ca0:	3301      	adds	r3, #1
    5ca2:	3701      	adds	r7, #1
    5ca4:	6023      	str	r3, [r4, #0]
    5ca6:	3a01      	subs	r2, #1
    5ca8:	6062      	str	r2, [r4, #4]
    5caa:	e768      	b.n	5b7e <__svfscanf_r+0x36>
    5cac:	f048 0810 	orr.w	r8, r8, #16
    5cb0:	e793      	b.n	5bda <__svfscanf_r+0x92>
    5cb2:	7813      	ldrb	r3, [r2, #0]
    5cb4:	2b6c      	cmp	r3, #108	; 0x6c
    5cb6:	d101      	bne.n	5cbc <__svfscanf_r+0x174>
    5cb8:	3201      	adds	r2, #1
    5cba:	e002      	b.n	5cc2 <__svfscanf_r+0x17a>
    5cbc:	f048 0801 	orr.w	r8, r8, #1
    5cc0:	e78b      	b.n	5bda <__svfscanf_r+0x92>
    5cc2:	f048 0802 	orr.w	r8, r8, #2
    5cc6:	e788      	b.n	5bda <__svfscanf_r+0x92>
    5cc8:	f048 0804 	orr.w	r8, r8, #4
    5ccc:	e785      	b.n	5bda <__svfscanf_r+0x92>
    5cce:	200a      	movs	r0, #10
    5cd0:	4345      	muls	r5, r0
    5cd2:	3d30      	subs	r5, #48	; 0x30
    5cd4:	18ed      	adds	r5, r5, r3
    5cd6:	e780      	b.n	5bda <__svfscanf_r+0x92>
    5cd8:	9207      	str	r2, [sp, #28]
    5cda:	e05c      	b.n	5d96 <__svfscanf_r+0x24e>
    5cdc:	493f      	ldr	r1, [pc, #252]	; (5ddc <__svfscanf_r+0x294>)
    5cde:	f04f 0b00 	mov.w	fp, #0
    5ce2:	9207      	str	r2, [sp, #28]
    5ce4:	9109      	str	r1, [sp, #36]	; 0x24
    5ce6:	e05d      	b.n	5da4 <__svfscanf_r+0x25c>
    5ce8:	4a3b      	ldr	r2, [pc, #236]	; (5dd8 <__svfscanf_r+0x290>)
    5cea:	f048 0801 	orr.w	r8, r8, #1
    5cee:	9209      	str	r2, [sp, #36]	; 0x24
    5cf0:	f04f 0b08 	mov.w	fp, #8
    5cf4:	e056      	b.n	5da4 <__svfscanf_r+0x25c>
    5cf6:	9207      	str	r2, [sp, #28]
    5cf8:	4b37      	ldr	r3, [pc, #220]	; (5dd8 <__svfscanf_r+0x290>)
    5cfa:	f448 7800 	orr.w	r8, r8, #512	; 0x200
    5cfe:	9309      	str	r3, [sp, #36]	; 0x24
    5d00:	e019      	b.n	5d36 <__svfscanf_r+0x1ee>
    5d02:	9207      	str	r2, [sp, #28]
    5d04:	f04f 0904 	mov.w	r9, #4
    5d08:	e04e      	b.n	5da8 <__svfscanf_r+0x260>
    5d0a:	f04f 0902 	mov.w	r9, #2
    5d0e:	e04b      	b.n	5da8 <__svfscanf_r+0x260>
    5d10:	a867      	add	r0, sp, #412	; 0x19c
    5d12:	9907      	ldr	r1, [sp, #28]
    5d14:	f002 fd54 	bl	87c0 <__sccl>
    5d18:	f048 0840 	orr.w	r8, r8, #64	; 0x40
    5d1c:	f04f 0901 	mov.w	r9, #1
    5d20:	9007      	str	r0, [sp, #28]
    5d22:	e041      	b.n	5da8 <__svfscanf_r+0x260>
    5d24:	f048 0840 	orr.w	r8, r8, #64	; 0x40
    5d28:	f04f 0900 	mov.w	r9, #0
    5d2c:	e03c      	b.n	5da8 <__svfscanf_r+0x260>
    5d2e:	482a      	ldr	r0, [pc, #168]	; (5dd8 <__svfscanf_r+0x290>)
    5d30:	f448 7808 	orr.w	r8, r8, #544	; 0x220
    5d34:	9009      	str	r0, [sp, #36]	; 0x24
    5d36:	f04f 0b10 	mov.w	fp, #16
    5d3a:	e033      	b.n	5da4 <__svfscanf_r+0x25c>
    5d3c:	f018 0f10 	tst.w	r8, #16
    5d40:	9207      	str	r2, [sp, #28]
    5d42:	f47f af1c 	bne.w	5b7e <__svfscanf_r+0x36>
    5d46:	f018 0f04 	tst.w	r8, #4
    5d4a:	f106 0104 	add.w	r1, r6, #4
    5d4e:	d002      	beq.n	5d56 <__svfscanf_r+0x20e>
    5d50:	6833      	ldr	r3, [r6, #0]
    5d52:	801f      	strh	r7, [r3, #0]
    5d54:	e004      	b.n	5d60 <__svfscanf_r+0x218>
    5d56:	f018 0f01 	tst.w	r8, #1
    5d5a:	d003      	beq.n	5d64 <__svfscanf_r+0x21c>
    5d5c:	6833      	ldr	r3, [r6, #0]
    5d5e:	601f      	str	r7, [r3, #0]
    5d60:	460e      	mov	r6, r1
    5d62:	e70c      	b.n	5b7e <__svfscanf_r+0x36>
    5d64:	f018 0f02 	tst.w	r8, #2
    5d68:	d0f8      	beq.n	5d5c <__svfscanf_r+0x214>
    5d6a:	6830      	ldr	r0, [r6, #0]
    5d6c:	463a      	mov	r2, r7
    5d6e:	17fb      	asrs	r3, r7, #31
    5d70:	e9c0 2300 	strd	r2, r3, [r0]
    5d74:	e7f4      	b.n	5d60 <__svfscanf_r+0x218>
    5d76:	f001 fd98 	bl	78aa <__sfp_lock_release>
    5d7a:	f04f 33ff 	mov.w	r3, #4294967295
    5d7e:	9308      	str	r3, [sp, #32]
    5d80:	f000 bcc9 	b.w	6716 <__svfscanf_r+0xbce>
    5d84:	9207      	str	r2, [sp, #28]
    5d86:	18cb      	adds	r3, r1, r3
    5d88:	785b      	ldrb	r3, [r3, #1]
    5d8a:	f003 0303 	and.w	r3, r3, #3
    5d8e:	2b01      	cmp	r3, #1
    5d90:	d101      	bne.n	5d96 <__svfscanf_r+0x24e>
    5d92:	f048 0801 	orr.w	r8, r8, #1
    5d96:	4811      	ldr	r0, [pc, #68]	; (5ddc <__svfscanf_r+0x294>)
    5d98:	9009      	str	r0, [sp, #36]	; 0x24
    5d9a:	e001      	b.n	5da0 <__svfscanf_r+0x258>
    5d9c:	490e      	ldr	r1, [pc, #56]	; (5dd8 <__svfscanf_r+0x290>)
    5d9e:	9109      	str	r1, [sp, #36]	; 0x24
    5da0:	f04f 0b0a 	mov.w	fp, #10
    5da4:	f04f 0903 	mov.w	r9, #3
    5da8:	6863      	ldr	r3, [r4, #4]
    5daa:	2b00      	cmp	r3, #0
    5dac:	dc06      	bgt.n	5dbc <__svfscanf_r+0x274>
    5dae:	4650      	mov	r0, sl
    5db0:	4621      	mov	r1, r4
    5db2:	f002 fc47 	bl	8644 <__srefill_r>
    5db6:	2800      	cmp	r0, #0
    5db8:	f040 8499 	bne.w	66ee <__svfscanf_r+0xba6>
    5dbc:	f018 0f40 	tst.w	r8, #64	; 0x40
    5dc0:	d11f      	bne.n	5e02 <__svfscanf_r+0x2ba>
    5dc2:	e015      	b.n	5df0 <__svfscanf_r+0x2a8>
    5dc4:	6862      	ldr	r2, [r4, #4]
    5dc6:	3a01      	subs	r2, #1
    5dc8:	6062      	str	r2, [r4, #4]
    5dca:	2a00      	cmp	r2, #0
    5dcc:	dd08      	ble.n	5de0 <__svfscanf_r+0x298>
    5dce:	3301      	adds	r3, #1
    5dd0:	6023      	str	r3, [r4, #0]
    5dd2:	e00c      	b.n	5dee <__svfscanf_r+0x2a6>
    5dd4:	10000520 	.word	0x10000520
    5dd8:	000096c1 	.word	0x000096c1
    5ddc:	00009431 	.word	0x00009431
    5de0:	4650      	mov	r0, sl
    5de2:	4621      	mov	r1, r4
    5de4:	f002 fc2e 	bl	8644 <__srefill_r>
    5de8:	2800      	cmp	r0, #0
    5dea:	f040 8480 	bne.w	66ee <__svfscanf_r+0xba6>
    5dee:	3701      	adds	r7, #1
    5df0:	6823      	ldr	r3, [r4, #0]
    5df2:	489b      	ldr	r0, [pc, #620]	; (6060 <__svfscanf_r+0x518>)
    5df4:	781a      	ldrb	r2, [r3, #0]
    5df6:	6801      	ldr	r1, [r0, #0]
    5df8:	188a      	adds	r2, r1, r2
    5dfa:	7852      	ldrb	r2, [r2, #1]
    5dfc:	f012 0f08 	tst.w	r2, #8
    5e00:	d1e0      	bne.n	5dc4 <__svfscanf_r+0x27c>
    5e02:	f109 39ff 	add.w	r9, r9, #4294967295
    5e06:	f1b9 0f03 	cmp.w	r9, #3
    5e0a:	d805      	bhi.n	5e18 <__svfscanf_r+0x2d0>
    5e0c:	e8df f019 	tbh	[pc, r9, lsl #1]
    5e10:	00ea0097 	.word	0x00ea0097
    5e14:	028e01bb 	.word	0x028e01bb
    5e18:	2d00      	cmp	r5, #0
    5e1a:	bf08      	it	eq
    5e1c:	2501      	moveq	r5, #1
    5e1e:	f018 0301 	ands.w	r3, r8, #1
    5e22:	f008 0910 	and.w	r9, r8, #16
    5e26:	d05a      	beq.n	5ede <__svfscanf_r+0x396>
    5e28:	a8a9      	add	r0, sp, #676	; 0x2a4
    5e2a:	2100      	movs	r1, #0
    5e2c:	2208      	movs	r2, #8
    5e2e:	f001 ffe2 	bl	7df6 <memset>
    5e32:	f1b9 0f00 	cmp.w	r9, #0
    5e36:	d103      	bne.n	5e40 <__svfscanf_r+0x2f8>
    5e38:	6832      	ldr	r2, [r6, #0]
    5e3a:	3604      	adds	r6, #4
    5e3c:	9205      	str	r2, [sp, #20]
    5e3e:	e001      	b.n	5e44 <__svfscanf_r+0x2fc>
    5e40:	2300      	movs	r3, #0
    5e42:	9305      	str	r3, [sp, #20]
    5e44:	464b      	mov	r3, r9
    5e46:	f04f 0800 	mov.w	r8, #0
    5e4a:	46b1      	mov	r9, r6
    5e4c:	461e      	mov	r6, r3
    5e4e:	f001 ff09 	bl	7c64 <__locale_mb_cur_max>
    5e52:	4580      	cmp	r8, r0
    5e54:	f000 844b 	beq.w	66ee <__svfscanf_r+0xba6>
    5e58:	6823      	ldr	r3, [r4, #0]
    5e5a:	aa0f      	add	r2, sp, #60	; 0x3c
    5e5c:	4650      	mov	r0, sl
    5e5e:	f813 1b01 	ldrb.w	r1, [r3], #1
    5e62:	f802 1008 	strb.w	r1, [r2, r8]
    5e66:	f108 0801 	add.w	r8, r8, #1
    5e6a:	6861      	ldr	r1, [r4, #4]
    5e6c:	6023      	str	r3, [r4, #0]
    5e6e:	aba9      	add	r3, sp, #676	; 0x2a4
    5e70:	3901      	subs	r1, #1
    5e72:	9300      	str	r3, [sp, #0]
    5e74:	6061      	str	r1, [r4, #4]
    5e76:	4643      	mov	r3, r8
    5e78:	9905      	ldr	r1, [sp, #20]
    5e7a:	f001 ff7f 	bl	7d7c <_mbrtowc_r>
    5e7e:	f1b0 3fff 	cmp.w	r0, #4294967295
    5e82:	f000 8434 	beq.w	66ee <__svfscanf_r+0xba6>
    5e86:	b918      	cbnz	r0, 5e90 <__svfscanf_r+0x348>
    5e88:	b92e      	cbnz	r6, 5e96 <__svfscanf_r+0x34e>
    5e8a:	9805      	ldr	r0, [sp, #20]
    5e8c:	8006      	strh	r6, [r0, #0]
    5e8e:	e002      	b.n	5e96 <__svfscanf_r+0x34e>
    5e90:	f110 0f02 	cmn.w	r0, #2
    5e94:	d009      	beq.n	5eaa <__svfscanf_r+0x362>
    5e96:	4447      	add	r7, r8
    5e98:	3d01      	subs	r5, #1
    5e9a:	b926      	cbnz	r6, 5ea6 <__svfscanf_r+0x35e>
    5e9c:	9905      	ldr	r1, [sp, #20]
    5e9e:	46b0      	mov	r8, r6
    5ea0:	3102      	adds	r1, #2
    5ea2:	9105      	str	r1, [sp, #20]
    5ea4:	e001      	b.n	5eaa <__svfscanf_r+0x362>
    5ea6:	f04f 0800 	mov.w	r8, #0
    5eaa:	6863      	ldr	r3, [r4, #4]
    5eac:	2b00      	cmp	r3, #0
    5eae:	dc0c      	bgt.n	5eca <__svfscanf_r+0x382>
    5eb0:	4650      	mov	r0, sl
    5eb2:	4621      	mov	r1, r4
    5eb4:	f002 fbc6 	bl	8644 <__srefill_r>
    5eb8:	b138      	cbz	r0, 5eca <__svfscanf_r+0x382>
    5eba:	4633      	mov	r3, r6
    5ebc:	464e      	mov	r6, r9
    5ebe:	4699      	mov	r9, r3
    5ec0:	f1b8 0f00 	cmp.w	r8, #0
    5ec4:	d006      	beq.n	5ed4 <__svfscanf_r+0x38c>
    5ec6:	f000 bc12 	b.w	66ee <__svfscanf_r+0xba6>
    5eca:	2d00      	cmp	r5, #0
    5ecc:	d1bf      	bne.n	5e4e <__svfscanf_r+0x306>
    5ece:	4633      	mov	r3, r6
    5ed0:	464e      	mov	r6, r9
    5ed2:	4699      	mov	r9, r3
    5ed4:	f1b9 0f00 	cmp.w	r9, #0
    5ed8:	f47f ae51 	bne.w	5b7e <__svfscanf_r+0x36>
    5edc:	e106      	b.n	60ec <__svfscanf_r+0x5a4>
    5ede:	f1b9 0f00 	cmp.w	r9, #0
    5ee2:	d01c      	beq.n	5f1e <__svfscanf_r+0x3d6>
    5ee4:	4698      	mov	r8, r3
    5ee6:	f8d4 9004 	ldr.w	r9, [r4, #4]
    5eea:	6823      	ldr	r3, [r4, #0]
    5eec:	45a9      	cmp	r9, r5
    5eee:	da0f      	bge.n	5f10 <__svfscanf_r+0x3c8>
    5ef0:	444b      	add	r3, r9
    5ef2:	4650      	mov	r0, sl
    5ef4:	6023      	str	r3, [r4, #0]
    5ef6:	4621      	mov	r1, r4
    5ef8:	44c8      	add	r8, r9
    5efa:	f002 fba3 	bl	8644 <__srefill_r>
    5efe:	b910      	cbnz	r0, 5f06 <__svfscanf_r+0x3be>
    5f00:	ebc9 0505 	rsb	r5, r9, r5
    5f04:	e7ef      	b.n	5ee6 <__svfscanf_r+0x39e>
    5f06:	f1b8 0f00 	cmp.w	r8, #0
    5f0a:	f040 8110 	bne.w	612e <__svfscanf_r+0x5e6>
    5f0e:	e3ee      	b.n	66ee <__svfscanf_r+0xba6>
    5f10:	ebc5 0209 	rsb	r2, r5, r9
    5f14:	44a8      	add	r8, r5
    5f16:	6062      	str	r2, [r4, #4]
    5f18:	195d      	adds	r5, r3, r5
    5f1a:	6025      	str	r5, [r4, #0]
    5f1c:	e107      	b.n	612e <__svfscanf_r+0x5e6>
    5f1e:	9400      	str	r4, [sp, #0]
    5f20:	4650      	mov	r0, sl
    5f22:	6831      	ldr	r1, [r6, #0]
    5f24:	2201      	movs	r2, #1
    5f26:	462b      	mov	r3, r5
    5f28:	f001 fcd2 	bl	78d0 <_fread_r>
    5f2c:	2800      	cmp	r0, #0
    5f2e:	f000 83de 	beq.w	66ee <__svfscanf_r+0xba6>
    5f32:	9b08      	ldr	r3, [sp, #32]
    5f34:	3604      	adds	r6, #4
    5f36:	19c7      	adds	r7, r0, r7
    5f38:	3301      	adds	r3, #1
    5f3a:	9308      	str	r3, [sp, #32]
    5f3c:	e61f      	b.n	5b7e <__svfscanf_r+0x36>
    5f3e:	2d00      	cmp	r5, #0
    5f40:	bf08      	it	eq
    5f42:	f04f 35ff 	moveq.w	r5, #4294967295
    5f46:	f018 0f10 	tst.w	r8, #16
    5f4a:	d020      	beq.n	5f8e <__svfscanf_r+0x446>
    5f4c:	f04f 0800 	mov.w	r8, #0
    5f50:	e012      	b.n	5f78 <__svfscanf_r+0x430>
    5f52:	6862      	ldr	r2, [r4, #4]
    5f54:	f108 0801 	add.w	r8, r8, #1
    5f58:	3301      	adds	r3, #1
    5f5a:	6023      	str	r3, [r4, #0]
    5f5c:	3a01      	subs	r2, #1
    5f5e:	45a8      	cmp	r8, r5
    5f60:	6062      	str	r2, [r4, #4]
    5f62:	f000 80e4 	beq.w	612e <__svfscanf_r+0x5e6>
    5f66:	2a00      	cmp	r2, #0
    5f68:	dc06      	bgt.n	5f78 <__svfscanf_r+0x430>
    5f6a:	4650      	mov	r0, sl
    5f6c:	4621      	mov	r1, r4
    5f6e:	f002 fb69 	bl	8644 <__srefill_r>
    5f72:	2800      	cmp	r0, #0
    5f74:	f040 80db 	bne.w	612e <__svfscanf_r+0x5e6>
    5f78:	6823      	ldr	r3, [r4, #0]
    5f7a:	a967      	add	r1, sp, #412	; 0x19c
    5f7c:	781a      	ldrb	r2, [r3, #0]
    5f7e:	5c8a      	ldrb	r2, [r1, r2]
    5f80:	2a00      	cmp	r2, #0
    5f82:	d1e6      	bne.n	5f52 <__svfscanf_r+0x40a>
    5f84:	f1b8 0f00 	cmp.w	r8, #0
    5f88:	f040 80d1 	bne.w	612e <__svfscanf_r+0x5e6>
    5f8c:	e3bd      	b.n	670a <__svfscanf_r+0xbc2>
    5f8e:	f8d6 8000 	ldr.w	r8, [r6]
    5f92:	46c1      	mov	r9, r8
    5f94:	e014      	b.n	5fc0 <__svfscanf_r+0x478>
    5f96:	6862      	ldr	r2, [r4, #4]
    5f98:	3a01      	subs	r2, #1
    5f9a:	6062      	str	r2, [r4, #4]
    5f9c:	f813 2b01 	ldrb.w	r2, [r3], #1
    5fa0:	3d01      	subs	r5, #1
    5fa2:	f809 2b01 	strb.w	r2, [r9], #1
    5fa6:	6023      	str	r3, [r4, #0]
    5fa8:	d010      	beq.n	5fcc <__svfscanf_r+0x484>
    5faa:	6863      	ldr	r3, [r4, #4]
    5fac:	2b00      	cmp	r3, #0
    5fae:	dc07      	bgt.n	5fc0 <__svfscanf_r+0x478>
    5fb0:	4650      	mov	r0, sl
    5fb2:	4621      	mov	r1, r4
    5fb4:	f002 fb46 	bl	8644 <__srefill_r>
    5fb8:	b110      	cbz	r0, 5fc0 <__svfscanf_r+0x478>
    5fba:	45c1      	cmp	r9, r8
    5fbc:	d106      	bne.n	5fcc <__svfscanf_r+0x484>
    5fbe:	e396      	b.n	66ee <__svfscanf_r+0xba6>
    5fc0:	6823      	ldr	r3, [r4, #0]
    5fc2:	a967      	add	r1, sp, #412	; 0x19c
    5fc4:	781a      	ldrb	r2, [r3, #0]
    5fc6:	5c8a      	ldrb	r2, [r1, r2]
    5fc8:	2a00      	cmp	r2, #0
    5fca:	d1e4      	bne.n	5f96 <__svfscanf_r+0x44e>
    5fcc:	ebb9 0808 	subs.w	r8, r9, r8
    5fd0:	f000 839b 	beq.w	670a <__svfscanf_r+0xbc2>
    5fd4:	2300      	movs	r3, #0
    5fd6:	f889 3000 	strb.w	r3, [r9]
    5fda:	9d08      	ldr	r5, [sp, #32]
    5fdc:	3604      	adds	r6, #4
    5fde:	3501      	adds	r5, #1
    5fe0:	9508      	str	r5, [sp, #32]
    5fe2:	e0a4      	b.n	612e <__svfscanf_r+0x5e6>
    5fe4:	2d00      	cmp	r5, #0
    5fe6:	bf08      	it	eq
    5fe8:	f04f 35ff 	moveq.w	r5, #4294967295
    5fec:	f018 0301 	ands.w	r3, r8, #1
    5ff0:	f008 0010 	and.w	r0, r8, #16
    5ff4:	9005      	str	r0, [sp, #20]
    5ff6:	d07d      	beq.n	60f4 <__svfscanf_r+0x5ac>
    5ff8:	2100      	movs	r1, #0
    5ffa:	a8a7      	add	r0, sp, #668	; 0x29c
    5ffc:	2208      	movs	r2, #8
    5ffe:	f001 fefa 	bl	7df6 <memset>
    6002:	9905      	ldr	r1, [sp, #20]
    6004:	b919      	cbnz	r1, 600e <__svfscanf_r+0x4c6>
    6006:	f8d6 9000 	ldr.w	r9, [r6]
    600a:	3604      	adds	r6, #4
    600c:	e003      	b.n	6016 <__svfscanf_r+0x4ce>
    600e:	f50d 792a 	add.w	r9, sp, #680	; 0x2a8
    6012:	f109 0906 	add.w	r9, r9, #6
    6016:	4633      	mov	r3, r6
    6018:	f04f 0800 	mov.w	r8, #0
    601c:	464e      	mov	r6, r9
    601e:	4699      	mov	r9, r3
    6020:	e050      	b.n	60c4 <__svfscanf_r+0x57c>
    6022:	f001 fe1f 	bl	7c64 <__locale_mb_cur_max>
    6026:	4580      	cmp	r8, r0
    6028:	f000 8361 	beq.w	66ee <__svfscanf_r+0xba6>
    602c:	6823      	ldr	r3, [r4, #0]
    602e:	aa0f      	add	r2, sp, #60	; 0x3c
    6030:	4650      	mov	r0, sl
    6032:	f813 1b01 	ldrb.w	r1, [r3], #1
    6036:	f802 1008 	strb.w	r1, [r2, r8]
    603a:	f108 0801 	add.w	r8, r8, #1
    603e:	6861      	ldr	r1, [r4, #4]
    6040:	6023      	str	r3, [r4, #0]
    6042:	aba7      	add	r3, sp, #668	; 0x29c
    6044:	3901      	subs	r1, #1
    6046:	9300      	str	r3, [sp, #0]
    6048:	6061      	str	r1, [r4, #4]
    604a:	4643      	mov	r3, r8
    604c:	4631      	mov	r1, r6
    604e:	f001 fe95 	bl	7d7c <_mbrtowc_r>
    6052:	f1b0 3fff 	cmp.w	r0, #4294967295
    6056:	f000 834a 	beq.w	66ee <__svfscanf_r+0xba6>
    605a:	b918      	cbnz	r0, 6064 <__svfscanf_r+0x51c>
    605c:	8030      	strh	r0, [r6, #0]
    605e:	e004      	b.n	606a <__svfscanf_r+0x522>
    6060:	10000520 	.word	0x10000520
    6064:	f110 0f02 	cmn.w	r0, #2
    6068:	d01c      	beq.n	60a4 <__svfscanf_r+0x55c>
    606a:	8830      	ldrh	r0, [r6, #0]
    606c:	f001 fde8 	bl	7c40 <iswspace>
    6070:	b180      	cbz	r0, 6094 <__svfscanf_r+0x54c>
    6072:	464b      	mov	r3, r9
    6074:	46b1      	mov	r9, r6
    6076:	461e      	mov	r6, r3
    6078:	e008      	b.n	608c <__svfscanf_r+0x544>
    607a:	f108 38ff 	add.w	r8, r8, #4294967295
    607e:	ab0f      	add	r3, sp, #60	; 0x3c
    6080:	4650      	mov	r0, sl
    6082:	4622      	mov	r2, r4
    6084:	f813 1008 	ldrb.w	r1, [r3, r8]
    6088:	f003 fd8c 	bl	9ba4 <_ungetc_r>
    608c:	f1b8 0f00 	cmp.w	r8, #0
    6090:	d1f3      	bne.n	607a <__svfscanf_r+0x532>
    6092:	e025      	b.n	60e0 <__svfscanf_r+0x598>
    6094:	9a05      	ldr	r2, [sp, #20]
    6096:	4447      	add	r7, r8
    6098:	3d01      	subs	r5, #1
    609a:	b912      	cbnz	r2, 60a2 <__svfscanf_r+0x55a>
    609c:	3602      	adds	r6, #2
    609e:	4690      	mov	r8, r2
    60a0:	e000      	b.n	60a4 <__svfscanf_r+0x55c>
    60a2:	4680      	mov	r8, r0
    60a4:	6863      	ldr	r3, [r4, #4]
    60a6:	2b00      	cmp	r3, #0
    60a8:	dc0c      	bgt.n	60c4 <__svfscanf_r+0x57c>
    60aa:	4650      	mov	r0, sl
    60ac:	4621      	mov	r1, r4
    60ae:	f002 fac9 	bl	8644 <__srefill_r>
    60b2:	b138      	cbz	r0, 60c4 <__svfscanf_r+0x57c>
    60b4:	464b      	mov	r3, r9
    60b6:	46b1      	mov	r9, r6
    60b8:	461e      	mov	r6, r3
    60ba:	f1b8 0f00 	cmp.w	r8, #0
    60be:	f040 8316 	bne.w	66ee <__svfscanf_r+0xba6>
    60c2:	e00d      	b.n	60e0 <__svfscanf_r+0x598>
    60c4:	6823      	ldr	r3, [r4, #0]
    60c6:	4896      	ldr	r0, [pc, #600]	; (6320 <__svfscanf_r+0x7d8>)
    60c8:	781b      	ldrb	r3, [r3, #0]
    60ca:	6802      	ldr	r2, [r0, #0]
    60cc:	18d3      	adds	r3, r2, r3
    60ce:	785b      	ldrb	r3, [r3, #1]
    60d0:	f013 0f08 	tst.w	r3, #8
    60d4:	d101      	bne.n	60da <__svfscanf_r+0x592>
    60d6:	2d00      	cmp	r5, #0
    60d8:	d1a3      	bne.n	6022 <__svfscanf_r+0x4da>
    60da:	464b      	mov	r3, r9
    60dc:	46b1      	mov	r9, r6
    60de:	461e      	mov	r6, r3
    60e0:	9905      	ldr	r1, [sp, #20]
    60e2:	2900      	cmp	r1, #0
    60e4:	f47f ad4b 	bne.w	5b7e <__svfscanf_r+0x36>
    60e8:	f8a9 1000 	strh.w	r1, [r9]
    60ec:	9a08      	ldr	r2, [sp, #32]
    60ee:	3201      	adds	r2, #1
    60f0:	9208      	str	r2, [sp, #32]
    60f2:	e544      	b.n	5b7e <__svfscanf_r+0x36>
    60f4:	9805      	ldr	r0, [sp, #20]
    60f6:	b1e0      	cbz	r0, 6132 <__svfscanf_r+0x5ea>
    60f8:	4698      	mov	r8, r3
    60fa:	e00f      	b.n	611c <__svfscanf_r+0x5d4>
    60fc:	6862      	ldr	r2, [r4, #4]
    60fe:	f108 0801 	add.w	r8, r8, #1
    6102:	3301      	adds	r3, #1
    6104:	6023      	str	r3, [r4, #0]
    6106:	3a01      	subs	r2, #1
    6108:	45a8      	cmp	r8, r5
    610a:	6062      	str	r2, [r4, #4]
    610c:	d00f      	beq.n	612e <__svfscanf_r+0x5e6>
    610e:	2a00      	cmp	r2, #0
    6110:	dc04      	bgt.n	611c <__svfscanf_r+0x5d4>
    6112:	4650      	mov	r0, sl
    6114:	4621      	mov	r1, r4
    6116:	f002 fa95 	bl	8644 <__srefill_r>
    611a:	b940      	cbnz	r0, 612e <__svfscanf_r+0x5e6>
    611c:	6823      	ldr	r3, [r4, #0]
    611e:	4880      	ldr	r0, [pc, #512]	; (6320 <__svfscanf_r+0x7d8>)
    6120:	781a      	ldrb	r2, [r3, #0]
    6122:	6801      	ldr	r1, [r0, #0]
    6124:	188a      	adds	r2, r1, r2
    6126:	7852      	ldrb	r2, [r2, #1]
    6128:	f012 0f08 	tst.w	r2, #8
    612c:	d0e6      	beq.n	60fc <__svfscanf_r+0x5b4>
    612e:	4447      	add	r7, r8
    6130:	e525      	b.n	5b7e <__svfscanf_r+0x36>
    6132:	f8d6 8000 	ldr.w	r8, [r6]
    6136:	f106 0904 	add.w	r9, r6, #4
    613a:	4646      	mov	r6, r8
    613c:	e011      	b.n	6162 <__svfscanf_r+0x61a>
    613e:	6862      	ldr	r2, [r4, #4]
    6140:	3a01      	subs	r2, #1
    6142:	6062      	str	r2, [r4, #4]
    6144:	f813 2b01 	ldrb.w	r2, [r3], #1
    6148:	3d01      	subs	r5, #1
    614a:	f806 2b01 	strb.w	r2, [r6], #1
    614e:	6023      	str	r3, [r4, #0]
    6150:	d010      	beq.n	6174 <__svfscanf_r+0x62c>
    6152:	6863      	ldr	r3, [r4, #4]
    6154:	2b00      	cmp	r3, #0
    6156:	dc04      	bgt.n	6162 <__svfscanf_r+0x61a>
    6158:	4650      	mov	r0, sl
    615a:	4621      	mov	r1, r4
    615c:	f002 fa72 	bl	8644 <__srefill_r>
    6160:	b940      	cbnz	r0, 6174 <__svfscanf_r+0x62c>
    6162:	6823      	ldr	r3, [r4, #0]
    6164:	486e      	ldr	r0, [pc, #440]	; (6320 <__svfscanf_r+0x7d8>)
    6166:	781a      	ldrb	r2, [r3, #0]
    6168:	6801      	ldr	r1, [r0, #0]
    616a:	188a      	adds	r2, r1, r2
    616c:	7852      	ldrb	r2, [r2, #1]
    616e:	f012 0f08 	tst.w	r2, #8
    6172:	d0e4      	beq.n	613e <__svfscanf_r+0x5f6>
    6174:	2300      	movs	r3, #0
    6176:	7033      	strb	r3, [r6, #0]
    6178:	9908      	ldr	r1, [sp, #32]
    617a:	ebc8 0707 	rsb	r7, r8, r7
    617e:	19f7      	adds	r7, r6, r7
    6180:	3101      	adds	r1, #1
    6182:	9108      	str	r1, [sp, #32]
    6184:	e2b0      	b.n	66e8 <__svfscanf_r+0xba0>
    6186:	1e6b      	subs	r3, r5, #1
    6188:	f5b3 7fae 	cmp.w	r3, #348	; 0x15c
    618c:	d905      	bls.n	619a <__svfscanf_r+0x652>
    618e:	f5a5 73ae 	sub.w	r3, r5, #348	; 0x15c
    6192:	f240 155d 	movw	r5, #349	; 0x15d
    6196:	3b01      	subs	r3, #1
    6198:	e000      	b.n	619c <__svfscanf_r+0x654>
    619a:	2300      	movs	r3, #0
    619c:	46bc      	mov	ip, r7
    619e:	f448 6858 	orr.w	r8, r8, #3456	; 0xd80
    61a2:	f10d 093c 	add.w	r9, sp, #60	; 0x3c
    61a6:	461f      	mov	r7, r3
    61a8:	2200      	movs	r2, #0
    61aa:	9205      	str	r2, [sp, #20]
    61ac:	6822      	ldr	r2, [r4, #0]
    61ae:	7812      	ldrb	r2, [r2, #0]
    61b0:	2a39      	cmp	r2, #57	; 0x39
    61b2:	d809      	bhi.n	61c8 <__svfscanf_r+0x680>
    61b4:	2a38      	cmp	r2, #56	; 0x38
    61b6:	d233      	bcs.n	6220 <__svfscanf_r+0x6d8>
    61b8:	2a30      	cmp	r2, #48	; 0x30
    61ba:	d014      	beq.n	61e6 <__svfscanf_r+0x69e>
    61bc:	d82c      	bhi.n	6218 <__svfscanf_r+0x6d0>
    61be:	2a2b      	cmp	r2, #43	; 0x2b
    61c0:	d03a      	beq.n	6238 <__svfscanf_r+0x6f0>
    61c2:	2a2d      	cmp	r2, #45	; 0x2d
    61c4:	d15f      	bne.n	6286 <__svfscanf_r+0x73e>
    61c6:	e037      	b.n	6238 <__svfscanf_r+0x6f0>
    61c8:	2a58      	cmp	r2, #88	; 0x58
    61ca:	d03b      	beq.n	6244 <__svfscanf_r+0x6fc>
    61cc:	d804      	bhi.n	61d8 <__svfscanf_r+0x690>
    61ce:	f1a2 0141 	sub.w	r1, r2, #65	; 0x41
    61d2:	2905      	cmp	r1, #5
    61d4:	d857      	bhi.n	6286 <__svfscanf_r+0x73e>
    61d6:	e029      	b.n	622c <__svfscanf_r+0x6e4>
    61d8:	2a61      	cmp	r2, #97	; 0x61
    61da:	d354      	bcc.n	6286 <__svfscanf_r+0x73e>
    61dc:	2a66      	cmp	r2, #102	; 0x66
    61de:	d925      	bls.n	622c <__svfscanf_r+0x6e4>
    61e0:	2a78      	cmp	r2, #120	; 0x78
    61e2:	d150      	bne.n	6286 <__svfscanf_r+0x73e>
    61e4:	e02e      	b.n	6244 <__svfscanf_r+0x6fc>
    61e6:	f418 6f00 	tst.w	r8, #2048	; 0x800
    61ea:	d036      	beq.n	625a <__svfscanf_r+0x712>
    61ec:	f1bb 0f00 	cmp.w	fp, #0
    61f0:	d103      	bne.n	61fa <__svfscanf_r+0x6b2>
    61f2:	f448 7800 	orr.w	r8, r8, #512	; 0x200
    61f6:	f10b 0b08 	add.w	fp, fp, #8
    61fa:	f418 6f80 	tst.w	r8, #1024	; 0x400
    61fe:	d002      	beq.n	6206 <__svfscanf_r+0x6be>
    6200:	f428 68b0 	bic.w	r8, r8, #1408	; 0x580
    6204:	e029      	b.n	625a <__svfscanf_r+0x712>
    6206:	f428 7860 	bic.w	r8, r8, #896	; 0x380
    620a:	b10f      	cbz	r7, 6210 <__svfscanf_r+0x6c8>
    620c:	3f01      	subs	r7, #1
    620e:	3501      	adds	r5, #1
    6210:	9b05      	ldr	r3, [sp, #20]
    6212:	3301      	adds	r3, #1
    6214:	9305      	str	r3, [sp, #20]
    6216:	e022      	b.n	625e <__svfscanf_r+0x716>
    6218:	4942      	ldr	r1, [pc, #264]	; (6324 <__svfscanf_r+0x7dc>)
    621a:	f931 b01b 	ldrsh.w	fp, [r1, fp, lsl #1]
    621e:	e008      	b.n	6232 <__svfscanf_r+0x6ea>
    6220:	4940      	ldr	r1, [pc, #256]	; (6324 <__svfscanf_r+0x7dc>)
    6222:	f931 b01b 	ldrsh.w	fp, [r1, fp, lsl #1]
    6226:	f1bb 0f08 	cmp.w	fp, #8
    622a:	e001      	b.n	6230 <__svfscanf_r+0x6e8>
    622c:	f1bb 0f0a 	cmp.w	fp, #10
    6230:	dd29      	ble.n	6286 <__svfscanf_r+0x73e>
    6232:	f428 6838 	bic.w	r8, r8, #2944	; 0xb80
    6236:	e010      	b.n	625a <__svfscanf_r+0x712>
    6238:	f018 0f80 	tst.w	r8, #128	; 0x80
    623c:	d023      	beq.n	6286 <__svfscanf_r+0x73e>
    623e:	f028 0880 	bic.w	r8, r8, #128	; 0x80
    6242:	e00a      	b.n	625a <__svfscanf_r+0x712>
    6244:	f408 61c0 	and.w	r1, r8, #1536	; 0x600
    6248:	f5b1 7f00 	cmp.w	r1, #512	; 0x200
    624c:	d11b      	bne.n	6286 <__svfscanf_r+0x73e>
    624e:	f428 7800 	bic.w	r8, r8, #512	; 0x200
    6252:	f04f 0b10 	mov.w	fp, #16
    6256:	f448 68a0 	orr.w	r8, r8, #1280	; 0x500
    625a:	f809 2b01 	strb.w	r2, [r9], #1
    625e:	6862      	ldr	r2, [r4, #4]
    6260:	3a01      	subs	r2, #1
    6262:	6062      	str	r2, [r4, #4]
    6264:	2a00      	cmp	r2, #0
    6266:	dd03      	ble.n	6270 <__svfscanf_r+0x728>
    6268:	6822      	ldr	r2, [r4, #0]
    626a:	3201      	adds	r2, #1
    626c:	6022      	str	r2, [r4, #0]
    626e:	e008      	b.n	6282 <__svfscanf_r+0x73a>
    6270:	4650      	mov	r0, sl
    6272:	4621      	mov	r1, r4
    6274:	f8cd c010 	str.w	ip, [sp, #16]
    6278:	f002 f9e4 	bl	8644 <__srefill_r>
    627c:	f8dd c010 	ldr.w	ip, [sp, #16]
    6280:	b908      	cbnz	r0, 6286 <__svfscanf_r+0x73e>
    6282:	3d01      	subs	r5, #1
    6284:	d192      	bne.n	61ac <__svfscanf_r+0x664>
    6286:	f418 7f80 	tst.w	r8, #256	; 0x100
    628a:	4667      	mov	r7, ip
    628c:	d00c      	beq.n	62a8 <__svfscanf_r+0x760>
    628e:	ab0f      	add	r3, sp, #60	; 0x3c
    6290:	4599      	cmp	r9, r3
    6292:	d905      	bls.n	62a0 <__svfscanf_r+0x758>
    6294:	4650      	mov	r0, sl
    6296:	f819 1d01 	ldrb.w	r1, [r9, #-1]!
    629a:	4622      	mov	r2, r4
    629c:	f003 fc82 	bl	9ba4 <_ungetc_r>
    62a0:	ab0f      	add	r3, sp, #60	; 0x3c
    62a2:	4599      	cmp	r9, r3
    62a4:	f000 8231 	beq.w	670a <__svfscanf_r+0xbc2>
    62a8:	f018 0210 	ands.w	r2, r8, #16
    62ac:	d131      	bne.n	6312 <__svfscanf_r+0x7ca>
    62ae:	f889 2000 	strb.w	r2, [r9]
    62b2:	465b      	mov	r3, fp
    62b4:	4650      	mov	r0, sl
    62b6:	a90f      	add	r1, sp, #60	; 0x3c
    62b8:	9d09      	ldr	r5, [sp, #36]	; 0x24
    62ba:	47a8      	blx	r5
    62bc:	f018 0f20 	tst.w	r8, #32
    62c0:	f106 0304 	add.w	r3, r6, #4
    62c4:	d11f      	bne.n	6306 <__svfscanf_r+0x7be>
    62c6:	f018 0f04 	tst.w	r8, #4
    62ca:	d002      	beq.n	62d2 <__svfscanf_r+0x78a>
    62cc:	6832      	ldr	r2, [r6, #0]
    62ce:	8010      	strh	r0, [r2, #0]
    62d0:	e01b      	b.n	630a <__svfscanf_r+0x7c2>
    62d2:	f018 0201 	ands.w	r2, r8, #1
    62d6:	d116      	bne.n	6306 <__svfscanf_r+0x7be>
    62d8:	f018 0f02 	tst.w	r8, #2
    62dc:	d013      	beq.n	6306 <__svfscanf_r+0x7be>
    62de:	4b12      	ldr	r3, [pc, #72]	; (6328 <__svfscanf_r+0x7e0>)
    62e0:	9809      	ldr	r0, [sp, #36]	; 0x24
    62e2:	4298      	cmp	r0, r3
    62e4:	d105      	bne.n	62f2 <__svfscanf_r+0x7aa>
    62e6:	4650      	mov	r0, sl
    62e8:	a90f      	add	r1, sp, #60	; 0x3c
    62ea:	465b      	mov	r3, fp
    62ec:	f003 fa66 	bl	97bc <_strtoull_r>
    62f0:	e004      	b.n	62fc <__svfscanf_r+0x7b4>
    62f2:	4650      	mov	r0, sl
    62f4:	a90f      	add	r1, sp, #60	; 0x3c
    62f6:	465b      	mov	r3, fp
    62f8:	f003 f92c 	bl	9554 <_strtoll_r>
    62fc:	6833      	ldr	r3, [r6, #0]
    62fe:	3604      	adds	r6, #4
    6300:	6018      	str	r0, [r3, #0]
    6302:	6059      	str	r1, [r3, #4]
    6304:	e002      	b.n	630c <__svfscanf_r+0x7c4>
    6306:	6832      	ldr	r2, [r6, #0]
    6308:	6010      	str	r0, [r2, #0]
    630a:	461e      	mov	r6, r3
    630c:	9908      	ldr	r1, [sp, #32]
    630e:	3101      	adds	r1, #1
    6310:	9108      	str	r1, [sp, #32]
    6312:	ab0f      	add	r3, sp, #60	; 0x3c
    6314:	9a05      	ldr	r2, [sp, #20]
    6316:	1aff      	subs	r7, r7, r3
    6318:	18bf      	adds	r7, r7, r2
    631a:	444f      	add	r7, r9
    631c:	e42f      	b.n	5b7e <__svfscanf_r+0x36>
    631e:	bf00      	nop
    6320:	10000520 	.word	0x10000520
    6324:	0000c114 	.word	0x0000c114
    6328:	000096c1 	.word	0x000096c1
    632c:	1e6b      	subs	r3, r5, #1
    632e:	f5b3 7fae 	cmp.w	r3, #348	; 0x15c
    6332:	d906      	bls.n	6342 <__svfscanf_r+0x7fa>
    6334:	f5a5 75ae 	sub.w	r5, r5, #348	; 0x15c
    6338:	3d01      	subs	r5, #1
    633a:	950b      	str	r5, [sp, #44]	; 0x2c
    633c:	f240 155d 	movw	r5, #349	; 0x15d
    6340:	e001      	b.n	6346 <__svfscanf_r+0x7fe>
    6342:	2300      	movs	r3, #0
    6344:	930b      	str	r3, [sp, #44]	; 0x2c
    6346:	f04f 0900 	mov.w	r9, #0
    634a:	ab0f      	add	r3, sp, #60	; 0x3c
    634c:	f8cd b014 	str.w	fp, [sp, #20]
    6350:	f448 68f0 	orr.w	r8, r8, #1920	; 0x780
    6354:	46bb      	mov	fp, r7
    6356:	9606      	str	r6, [sp, #24]
    6358:	461f      	mov	r7, r3
    635a:	464e      	mov	r6, r9
    635c:	4653      	mov	r3, sl
    635e:	46ca      	mov	sl, r9
    6360:	f8cd 9028 	str.w	r9, [sp, #40]	; 0x28
    6364:	f8cd 9034 	str.w	r9, [sp, #52]	; 0x34
    6368:	f8cd 9030 	str.w	r9, [sp, #48]	; 0x30
    636c:	6821      	ldr	r1, [r4, #0]
    636e:	7809      	ldrb	r1, [r1, #0]
    6370:	294e      	cmp	r1, #78	; 0x4e
    6372:	d058      	beq.n	6426 <__svfscanf_r+0x8de>
    6374:	d81d      	bhi.n	63b2 <__svfscanf_r+0x86a>
    6376:	2939      	cmp	r1, #57	; 0x39
    6378:	d80f      	bhi.n	639a <__svfscanf_r+0x852>
    637a:	2931      	cmp	r1, #49	; 0x31
    637c:	d244      	bcs.n	6408 <__svfscanf_r+0x8c0>
    637e:	292e      	cmp	r1, #46	; 0x2e
    6380:	f000 8092 	beq.w	64a8 <__svfscanf_r+0x960>
    6384:	d805      	bhi.n	6392 <__svfscanf_r+0x84a>
    6386:	292b      	cmp	r1, #43	; 0x2b
    6388:	d046      	beq.n	6418 <__svfscanf_r+0x8d0>
    638a:	292d      	cmp	r1, #45	; 0x2d
    638c:	f040 80cf 	bne.w	652e <__svfscanf_r+0x9e6>
    6390:	e042      	b.n	6418 <__svfscanf_r+0x8d0>
    6392:	2930      	cmp	r1, #48	; 0x30
    6394:	f040 80cb 	bne.w	652e <__svfscanf_r+0x9e6>
    6398:	e028      	b.n	63ec <__svfscanf_r+0x8a4>
    639a:	2945      	cmp	r1, #69	; 0x45
    639c:	f000 808b 	beq.w	64b6 <__svfscanf_r+0x96e>
    63a0:	d803      	bhi.n	63aa <__svfscanf_r+0x862>
    63a2:	2941      	cmp	r1, #65	; 0x41
    63a4:	f040 80c3 	bne.w	652e <__svfscanf_r+0x9e6>
    63a8:	e054      	b.n	6454 <__svfscanf_r+0x90c>
    63aa:	2946      	cmp	r1, #70	; 0x46
    63ac:	d070      	beq.n	6490 <__svfscanf_r+0x948>
    63ae:	2949      	cmp	r1, #73	; 0x49
    63b0:	e013      	b.n	63da <__svfscanf_r+0x892>
    63b2:	2966      	cmp	r1, #102	; 0x66
    63b4:	d06c      	beq.n	6490 <__svfscanf_r+0x948>
    63b6:	d80c      	bhi.n	63d2 <__svfscanf_r+0x88a>
    63b8:	2959      	cmp	r1, #89	; 0x59
    63ba:	d071      	beq.n	64a0 <__svfscanf_r+0x958>
    63bc:	d803      	bhi.n	63c6 <__svfscanf_r+0x87e>
    63be:	2954      	cmp	r1, #84	; 0x54
    63c0:	f040 80b5 	bne.w	652e <__svfscanf_r+0x9e6>
    63c4:	e068      	b.n	6498 <__svfscanf_r+0x950>
    63c6:	2961      	cmp	r1, #97	; 0x61
    63c8:	d044      	beq.n	6454 <__svfscanf_r+0x90c>
    63ca:	2965      	cmp	r1, #101	; 0x65
    63cc:	f040 80af 	bne.w	652e <__svfscanf_r+0x9e6>
    63d0:	e071      	b.n	64b6 <__svfscanf_r+0x96e>
    63d2:	296e      	cmp	r1, #110	; 0x6e
    63d4:	d027      	beq.n	6426 <__svfscanf_r+0x8de>
    63d6:	d803      	bhi.n	63e0 <__svfscanf_r+0x898>
    63d8:	2969      	cmp	r1, #105	; 0x69
    63da:	f040 80a8 	bne.w	652e <__svfscanf_r+0x9e6>
    63de:	e03d      	b.n	645c <__svfscanf_r+0x914>
    63e0:	2974      	cmp	r1, #116	; 0x74
    63e2:	d059      	beq.n	6498 <__svfscanf_r+0x950>
    63e4:	2979      	cmp	r1, #121	; 0x79
    63e6:	f040 80a2 	bne.w	652e <__svfscanf_r+0x9e6>
    63ea:	e059      	b.n	64a0 <__svfscanf_r+0x958>
    63ec:	f418 7f80 	tst.w	r8, #256	; 0x100
    63f0:	d00a      	beq.n	6408 <__svfscanf_r+0x8c0>
    63f2:	980b      	ldr	r0, [sp, #44]	; 0x2c
    63f4:	f028 0880 	bic.w	r8, r8, #128	; 0x80
    63f8:	3601      	adds	r6, #1
    63fa:	2800      	cmp	r0, #0
    63fc:	f000 8082 	beq.w	6504 <__svfscanf_r+0x9bc>
    6400:	3801      	subs	r0, #1
    6402:	3501      	adds	r5, #1
    6404:	900b      	str	r0, [sp, #44]	; 0x2c
    6406:	e07d      	b.n	6504 <__svfscanf_r+0x9bc>
    6408:	eb09 000a 	add.w	r0, r9, sl
    640c:	2800      	cmp	r0, #0
    640e:	f040 808e 	bne.w	652e <__svfscanf_r+0x9e6>
    6412:	f428 78c0 	bic.w	r8, r8, #384	; 0x180
    6416:	e073      	b.n	6500 <__svfscanf_r+0x9b8>
    6418:	f018 0f80 	tst.w	r8, #128	; 0x80
    641c:	f000 8087 	beq.w	652e <__svfscanf_r+0x9e6>
    6420:	f028 0880 	bic.w	r8, r8, #128	; 0x80
    6424:	e06c      	b.n	6500 <__svfscanf_r+0x9b8>
    6426:	f1ba 0f00 	cmp.w	sl, #0
    642a:	d10a      	bne.n	6442 <__svfscanf_r+0x8fa>
    642c:	b966      	cbnz	r6, 6448 <__svfscanf_r+0x900>
    642e:	f408 60e0 	and.w	r0, r8, #1792	; 0x700
    6432:	f5b0 6fe0 	cmp.w	r0, #1792	; 0x700
    6436:	d107      	bne.n	6448 <__svfscanf_r+0x900>
    6438:	f428 68f0 	bic.w	r8, r8, #1920	; 0x780
    643c:	f10a 0a01 	add.w	sl, sl, #1
    6440:	e05e      	b.n	6500 <__svfscanf_r+0x9b8>
    6442:	f1ba 0f02 	cmp.w	sl, #2
    6446:	d04d      	beq.n	64e4 <__svfscanf_r+0x99c>
    6448:	f1b9 0f01 	cmp.w	r9, #1
    644c:	d01b      	beq.n	6486 <__svfscanf_r+0x93e>
    644e:	f1b9 0f04 	cmp.w	r9, #4
    6452:	e017      	b.n	6484 <__svfscanf_r+0x93c>
    6454:	f1ba 0f01 	cmp.w	sl, #1
    6458:	d047      	beq.n	64ea <__svfscanf_r+0x9a2>
    645a:	e068      	b.n	652e <__svfscanf_r+0x9e6>
    645c:	f1b9 0f00 	cmp.w	r9, #0
    6460:	d10b      	bne.n	647a <__svfscanf_r+0x932>
    6462:	2e00      	cmp	r6, #0
    6464:	d16f      	bne.n	6546 <__svfscanf_r+0x9fe>
    6466:	f408 60e0 	and.w	r0, r8, #1792	; 0x700
    646a:	f5b0 6fe0 	cmp.w	r0, #1792	; 0x700
    646e:	d175      	bne.n	655c <__svfscanf_r+0xa14>
    6470:	f428 68f0 	bic.w	r8, r8, #1920	; 0x780
    6474:	f109 0901 	add.w	r9, r9, #1
    6478:	e042      	b.n	6500 <__svfscanf_r+0x9b8>
    647a:	f1b9 0f03 	cmp.w	r9, #3
    647e:	d002      	beq.n	6486 <__svfscanf_r+0x93e>
    6480:	f1b9 0f05 	cmp.w	r9, #5
    6484:	d153      	bne.n	652e <__svfscanf_r+0x9e6>
    6486:	f109 0901 	add.w	r9, r9, #1
    648a:	fa5f f989 	uxtb.w	r9, r9
    648e:	e037      	b.n	6500 <__svfscanf_r+0x9b8>
    6490:	f1b9 0f02 	cmp.w	r9, #2
    6494:	d02c      	beq.n	64f0 <__svfscanf_r+0x9a8>
    6496:	e04a      	b.n	652e <__svfscanf_r+0x9e6>
    6498:	f1b9 0f06 	cmp.w	r9, #6
    649c:	d02b      	beq.n	64f6 <__svfscanf_r+0x9ae>
    649e:	e046      	b.n	652e <__svfscanf_r+0x9e6>
    64a0:	f1b9 0f07 	cmp.w	r9, #7
    64a4:	d02a      	beq.n	64fc <__svfscanf_r+0x9b4>
    64a6:	e042      	b.n	652e <__svfscanf_r+0x9e6>
    64a8:	f418 7f00 	tst.w	r8, #512	; 0x200
    64ac:	d03f      	beq.n	652e <__svfscanf_r+0x9e6>
    64ae:	f428 7820 	bic.w	r8, r8, #640	; 0x280
    64b2:	960c      	str	r6, [sp, #48]	; 0x30
    64b4:	e024      	b.n	6500 <__svfscanf_r+0x9b8>
    64b6:	f408 60a0 	and.w	r0, r8, #1280	; 0x500
    64ba:	f5b0 6f80 	cmp.w	r0, #1024	; 0x400
    64be:	d004      	beq.n	64ca <__svfscanf_r+0x982>
    64c0:	f418 6f80 	tst.w	r8, #1024	; 0x400
    64c4:	d033      	beq.n	652e <__svfscanf_r+0x9e6>
    64c6:	2e00      	cmp	r6, #0
    64c8:	d048      	beq.n	655c <__svfscanf_r+0xa14>
    64ca:	f418 7f00 	tst.w	r8, #512	; 0x200
    64ce:	d103      	bne.n	64d8 <__svfscanf_r+0x990>
    64d0:	9a0c      	ldr	r2, [sp, #48]	; 0x30
    64d2:	970a      	str	r7, [sp, #40]	; 0x28
    64d4:	1ab6      	subs	r6, r6, r2
    64d6:	960d      	str	r6, [sp, #52]	; 0x34
    64d8:	f428 68f0 	bic.w	r8, r8, #1920	; 0x780
    64dc:	2600      	movs	r6, #0
    64de:	f448 78c0 	orr.w	r8, r8, #384	; 0x180
    64e2:	e00d      	b.n	6500 <__svfscanf_r+0x9b8>
    64e4:	f04f 0a03 	mov.w	sl, #3
    64e8:	e00a      	b.n	6500 <__svfscanf_r+0x9b8>
    64ea:	f04f 0a02 	mov.w	sl, #2
    64ee:	e007      	b.n	6500 <__svfscanf_r+0x9b8>
    64f0:	f04f 0903 	mov.w	r9, #3
    64f4:	e004      	b.n	6500 <__svfscanf_r+0x9b8>
    64f6:	f04f 0907 	mov.w	r9, #7
    64fa:	e001      	b.n	6500 <__svfscanf_r+0x9b8>
    64fc:	f04f 0908 	mov.w	r9, #8
    6500:	f807 1b01 	strb.w	r1, [r7], #1
    6504:	6861      	ldr	r1, [r4, #4]
    6506:	f10b 0b01 	add.w	fp, fp, #1
    650a:	3901      	subs	r1, #1
    650c:	6061      	str	r1, [r4, #4]
    650e:	2900      	cmp	r1, #0
    6510:	dd03      	ble.n	651a <__svfscanf_r+0x9d2>
    6512:	6821      	ldr	r1, [r4, #0]
    6514:	3101      	adds	r1, #1
    6516:	6021      	str	r1, [r4, #0]
    6518:	e006      	b.n	6528 <__svfscanf_r+0x9e0>
    651a:	4618      	mov	r0, r3
    651c:	4621      	mov	r1, r4
    651e:	9303      	str	r3, [sp, #12]
    6520:	f002 f890 	bl	8644 <__srefill_r>
    6524:	9b03      	ldr	r3, [sp, #12]
    6526:	b910      	cbnz	r0, 652e <__svfscanf_r+0x9e6>
    6528:	3d01      	subs	r5, #1
    652a:	f47f af1f 	bne.w	636c <__svfscanf_r+0x824>
    652e:	46b4      	mov	ip, r6
    6530:	4652      	mov	r2, sl
    6532:	9e06      	ldr	r6, [sp, #24]
    6534:	469a      	mov	sl, r3
    6536:	463b      	mov	r3, r7
    6538:	465f      	mov	r7, fp
    653a:	f8dd b014 	ldr.w	fp, [sp, #20]
    653e:	f1bc 0f00 	cmp.w	ip, #0
    6542:	d013      	beq.n	656c <__svfscanf_r+0xa24>
    6544:	e007      	b.n	6556 <__svfscanf_r+0xa0e>
    6546:	46b4      	mov	ip, r6
    6548:	4652      	mov	r2, sl
    654a:	9e06      	ldr	r6, [sp, #24]
    654c:	469a      	mov	sl, r3
    654e:	463b      	mov	r3, r7
    6550:	465f      	mov	r7, fp
    6552:	f8dd b014 	ldr.w	fp, [sp, #20]
    6556:	f428 7880 	bic.w	r8, r8, #256	; 0x100
    655a:	e007      	b.n	656c <__svfscanf_r+0xa24>
    655c:	46b4      	mov	ip, r6
    655e:	4652      	mov	r2, sl
    6560:	9e06      	ldr	r6, [sp, #24]
    6562:	469a      	mov	sl, r3
    6564:	463b      	mov	r3, r7
    6566:	465f      	mov	r7, fp
    6568:	f8dd b014 	ldr.w	fp, [sp, #20]
    656c:	3a01      	subs	r2, #1
    656e:	2a01      	cmp	r2, #1
    6570:	d80b      	bhi.n	658a <__svfscanf_r+0xa42>
    6572:	461d      	mov	r5, r3
    6574:	e005      	b.n	6582 <__svfscanf_r+0xa3a>
    6576:	4650      	mov	r0, sl
    6578:	f815 1d01 	ldrb.w	r1, [r5, #-1]!
    657c:	4622      	mov	r2, r4
    657e:	f003 fb11 	bl	9ba4 <_ungetc_r>
    6582:	ab0f      	add	r3, sp, #60	; 0x3c
    6584:	429d      	cmp	r5, r3
    6586:	d8f6      	bhi.n	6576 <__svfscanf_r+0xa2e>
    6588:	e0bf      	b.n	670a <__svfscanf_r+0xbc2>
    658a:	f109 32ff 	add.w	r2, r9, #4294967295
    658e:	2a06      	cmp	r2, #6
    6590:	d82c      	bhi.n	65ec <__svfscanf_r+0xaa4>
    6592:	f1b9 0f02 	cmp.w	r9, #2
    6596:	d801      	bhi.n	659c <__svfscanf_r+0xa54>
    6598:	461d      	mov	r5, r3
    659a:	e023      	b.n	65e4 <__svfscanf_r+0xa9c>
    659c:	9305      	str	r3, [sp, #20]
    659e:	464d      	mov	r5, r9
    65a0:	e00d      	b.n	65be <__svfscanf_r+0xa76>
    65a2:	9a05      	ldr	r2, [sp, #20]
    65a4:	4650      	mov	r0, sl
    65a6:	f812 1d01 	ldrb.w	r1, [r2, #-1]!
    65aa:	9303      	str	r3, [sp, #12]
    65ac:	f8cd c010 	str.w	ip, [sp, #16]
    65b0:	9205      	str	r2, [sp, #20]
    65b2:	4622      	mov	r2, r4
    65b4:	f003 faf6 	bl	9ba4 <_ungetc_r>
    65b8:	f8dd c010 	ldr.w	ip, [sp, #16]
    65bc:	9b03      	ldr	r3, [sp, #12]
    65be:	3d01      	subs	r5, #1
    65c0:	b2ed      	uxtb	r5, r5
    65c2:	2d02      	cmp	r5, #2
    65c4:	d1ed      	bne.n	65a2 <__svfscanf_r+0xa5a>
    65c6:	f1a9 0903 	sub.w	r9, r9, #3
    65ca:	fa5f f989 	uxtb.w	r9, r9
    65ce:	ebc9 0303 	rsb	r3, r9, r3
    65d2:	ebc9 0707 	rsb	r7, r9, r7
    65d6:	e009      	b.n	65ec <__svfscanf_r+0xaa4>
    65d8:	4650      	mov	r0, sl
    65da:	f815 1d01 	ldrb.w	r1, [r5, #-1]!
    65de:	4622      	mov	r2, r4
    65e0:	f003 fae0 	bl	9ba4 <_ungetc_r>
    65e4:	ab0f      	add	r3, sp, #60	; 0x3c
    65e6:	429d      	cmp	r5, r3
    65e8:	d8f6      	bhi.n	65d8 <__svfscanf_r+0xa90>
    65ea:	e08e      	b.n	670a <__svfscanf_r+0xbc2>
    65ec:	f418 7f80 	tst.w	r8, #256	; 0x100
    65f0:	d02c      	beq.n	664c <__svfscanf_r+0xb04>
    65f2:	f418 6f80 	tst.w	r8, #1024	; 0x400
    65f6:	d00b      	beq.n	6610 <__svfscanf_r+0xac8>
    65f8:	461d      	mov	r5, r3
    65fa:	e005      	b.n	6608 <__svfscanf_r+0xac0>
    65fc:	4650      	mov	r0, sl
    65fe:	f815 1d01 	ldrb.w	r1, [r5, #-1]!
    6602:	4622      	mov	r2, r4
    6604:	f003 face 	bl	9ba4 <_ungetc_r>
    6608:	ab0f      	add	r3, sp, #60	; 0x3c
    660a:	429d      	cmp	r5, r3
    660c:	d8f6      	bhi.n	65fc <__svfscanf_r+0xab4>
    660e:	e07c      	b.n	670a <__svfscanf_r+0xbc2>
    6610:	f813 1d01 	ldrb.w	r1, [r3, #-1]!
    6614:	3f01      	subs	r7, #1
    6616:	2965      	cmp	r1, #101	; 0x65
    6618:	d00e      	beq.n	6638 <__svfscanf_r+0xaf0>
    661a:	2945      	cmp	r1, #69	; 0x45
    661c:	d00c      	beq.n	6638 <__svfscanf_r+0xaf0>
    661e:	4650      	mov	r0, sl
    6620:	4622      	mov	r2, r4
    6622:	9303      	str	r3, [sp, #12]
    6624:	3f01      	subs	r7, #1
    6626:	f8cd c010 	str.w	ip, [sp, #16]
    662a:	f003 fabb 	bl	9ba4 <_ungetc_r>
    662e:	9b03      	ldr	r3, [sp, #12]
    6630:	f8dd c010 	ldr.w	ip, [sp, #16]
    6634:	f813 1d01 	ldrb.w	r1, [r3, #-1]!
    6638:	4650      	mov	r0, sl
    663a:	4622      	mov	r2, r4
    663c:	9303      	str	r3, [sp, #12]
    663e:	f8cd c010 	str.w	ip, [sp, #16]
    6642:	f003 faaf 	bl	9ba4 <_ungetc_r>
    6646:	f8dd c010 	ldr.w	ip, [sp, #16]
    664a:	9b03      	ldr	r3, [sp, #12]
    664c:	f018 0210 	ands.w	r2, r8, #16
    6650:	f47f aa95 	bne.w	5b7e <__svfscanf_r+0x36>
    6654:	f408 61c0 	and.w	r1, r8, #1536	; 0x600
    6658:	701a      	strb	r2, [r3, #0]
    665a:	f5b1 6f80 	cmp.w	r1, #1024	; 0x400
    665e:	d107      	bne.n	6670 <__svfscanf_r+0xb28>
    6660:	9d0c      	ldr	r5, [sp, #48]	; 0x30
    6662:	ebbc 0c05 	subs.w	ip, ip, r5
    6666:	d019      	beq.n	669c <__svfscanf_r+0xb54>
    6668:	f1cc 0200 	rsb	r2, ip, #0
    666c:	930a      	str	r3, [sp, #40]	; 0x28
    666e:	e009      	b.n	6684 <__svfscanf_r+0xb3c>
    6670:	980d      	ldr	r0, [sp, #52]	; 0x34
    6672:	b198      	cbz	r0, 669c <__svfscanf_r+0xb54>
    6674:	9b0a      	ldr	r3, [sp, #40]	; 0x28
    6676:	4650      	mov	r0, sl
    6678:	1c59      	adds	r1, r3, #1
    667a:	230a      	movs	r3, #10
    667c:	f002 fed8 	bl	9430 <_strtol_r>
    6680:	9d0d      	ldr	r5, [sp, #52]	; 0x34
    6682:	1b42      	subs	r2, r0, r5
    6684:	980a      	ldr	r0, [sp, #40]	; 0x28
    6686:	ab63      	add	r3, sp, #396	; 0x18c
    6688:	3303      	adds	r3, #3
    668a:	4298      	cmp	r0, r3
    668c:	bf24      	itt	cs
    668e:	f50d 71c7 	addcs.w	r1, sp, #398	; 0x18e
    6692:	910a      	strcs	r1, [sp, #40]	; 0x28
    6694:	4922      	ldr	r1, [pc, #136]	; (6720 <__svfscanf_r+0xbd8>)
    6696:	980a      	ldr	r0, [sp, #40]	; 0x28
    6698:	f7fc fa44 	bl	2b24 <sprintf>
    669c:	2200      	movs	r2, #0
    669e:	4650      	mov	r0, sl
    66a0:	a90f      	add	r1, sp, #60	; 0x3c
    66a2:	f106 0904 	add.w	r9, r6, #4
    66a6:	f002 f8d7 	bl	8858 <_strtod_r>
    66aa:	f018 0f01 	tst.w	r8, #1
    66ae:	4602      	mov	r2, r0
    66b0:	460b      	mov	r3, r1
    66b2:	d102      	bne.n	66ba <__svfscanf_r+0xb72>
    66b4:	f018 0f02 	tst.w	r8, #2
    66b8:	d003      	beq.n	66c2 <__svfscanf_r+0xb7a>
    66ba:	6831      	ldr	r1, [r6, #0]
    66bc:	e9c1 2300 	strd	r2, r3, [r1]
    66c0:	e00f      	b.n	66e2 <__svfscanf_r+0xb9a>
    66c2:	6835      	ldr	r5, [r6, #0]
    66c4:	9004      	str	r0, [sp, #16]
    66c6:	9103      	str	r1, [sp, #12]
    66c8:	f002 f848 	bl	875c <__fpclassifyd>
    66cc:	9a04      	ldr	r2, [sp, #16]
    66ce:	9b03      	ldr	r3, [sp, #12]
    66d0:	b910      	cbnz	r0, 66d8 <__svfscanf_r+0xb90>
    66d2:	f002 f8a7 	bl	8824 <nanf>
    66d6:	e003      	b.n	66e0 <__svfscanf_r+0xb98>
    66d8:	4610      	mov	r0, r2
    66da:	4619      	mov	r1, r3
    66dc:	f7fb f866 	bl	17ac <__aeabi_d2f>
    66e0:	6028      	str	r0, [r5, #0]
    66e2:	9a08      	ldr	r2, [sp, #32]
    66e4:	3201      	adds	r2, #1
    66e6:	9208      	str	r2, [sp, #32]
    66e8:	464e      	mov	r6, r9
    66ea:	f7ff ba48 	b.w	5b7e <__svfscanf_r+0x36>
    66ee:	f001 f8dc 	bl	78aa <__sfp_lock_release>
    66f2:	9b08      	ldr	r3, [sp, #32]
    66f4:	b163      	cbz	r3, 6710 <__svfscanf_r+0xbc8>
    66f6:	89a3      	ldrh	r3, [r4, #12]
    66f8:	9d08      	ldr	r5, [sp, #32]
    66fa:	f003 0340 	and.w	r3, r3, #64	; 0x40
    66fe:	2b00      	cmp	r3, #0
    6700:	bf18      	it	ne
    6702:	f04f 35ff 	movne.w	r5, #4294967295
    6706:	9508      	str	r5, [sp, #32]
    6708:	e005      	b.n	6716 <__svfscanf_r+0xbce>
    670a:	f001 f8ce 	bl	78aa <__sfp_lock_release>
    670e:	e002      	b.n	6716 <__svfscanf_r+0xbce>
    6710:	f04f 30ff 	mov.w	r0, #4294967295
    6714:	9008      	str	r0, [sp, #32]
    6716:	9808      	ldr	r0, [sp, #32]
    6718:	f50d 7d2d 	add.w	sp, sp, #692	; 0x2b4
    671c:	e8bd 8ff0 	ldmia.w	sp!, {r4, r5, r6, r7, r8, r9, sl, fp, pc}
    6720:	0000c0cc 	.word	0x0000c0cc

00006724 <_write_r>:
    6724:	b538      	push	{r3, r4, r5, lr}
    6726:	4605      	mov	r5, r0
    6728:	4c07      	ldr	r4, [pc, #28]	; (6748 <_write_r+0x24>)
    672a:	2000      	movs	r0, #0
    672c:	6020      	str	r0, [r4, #0]
    672e:	4608      	mov	r0, r1
    6730:	4611      	mov	r1, r2
    6732:	461a      	mov	r2, r3
    6734:	f7f9 feee 	bl	514 <_write>
    6738:	f1b0 3fff 	cmp.w	r0, #4294967295
    673c:	d102      	bne.n	6744 <_write_r+0x20>
    673e:	6823      	ldr	r3, [r4, #0]
    6740:	b103      	cbz	r3, 6744 <_write_r+0x20>
    6742:	602b      	str	r3, [r5, #0]
    6744:	bd38      	pop	{r3, r4, r5, pc}
    6746:	bf00      	nop
    6748:	10000640 	.word	0x10000640

0000674c <__swsetup_r>:
    674c:	b570      	push	{r4, r5, r6, lr}
    674e:	4605      	mov	r5, r0
    6750:	4e31      	ldr	r6, [pc, #196]	; (6818 <__swsetup_r+0xcc>)
    6752:	460c      	mov	r4, r1
    6754:	6830      	ldr	r0, [r6, #0]
    6756:	b118      	cbz	r0, 6760 <__swsetup_r+0x14>
    6758:	6983      	ldr	r3, [r0, #24]
    675a:	b90b      	cbnz	r3, 6760 <__swsetup_r+0x14>
    675c:	f001 f83a 	bl	77d4 <__sinit>
    6760:	4b2e      	ldr	r3, [pc, #184]	; (681c <__swsetup_r+0xd0>)
    6762:	429c      	cmp	r4, r3
    6764:	d102      	bne.n	676c <__swsetup_r+0x20>
    6766:	6833      	ldr	r3, [r6, #0]
    6768:	685c      	ldr	r4, [r3, #4]
    676a:	e00a      	b.n	6782 <__swsetup_r+0x36>
    676c:	4b2c      	ldr	r3, [pc, #176]	; (6820 <__swsetup_r+0xd4>)
    676e:	429c      	cmp	r4, r3
    6770:	d102      	bne.n	6778 <__swsetup_r+0x2c>
    6772:	6833      	ldr	r3, [r6, #0]
    6774:	689c      	ldr	r4, [r3, #8]
    6776:	e004      	b.n	6782 <__swsetup_r+0x36>
    6778:	4b2a      	ldr	r3, [pc, #168]	; (6824 <__swsetup_r+0xd8>)
    677a:	429c      	cmp	r4, r3
    677c:	bf04      	itt	eq
    677e:	6833      	ldreq	r3, [r6, #0]
    6780:	68dc      	ldreq	r4, [r3, #12]
    6782:	89a3      	ldrh	r3, [r4, #12]
    6784:	f013 0f08 	tst.w	r3, #8
    6788:	d11c      	bne.n	67c4 <__swsetup_r+0x78>
    678a:	f013 0f10 	tst.w	r3, #16
    678e:	d03e      	beq.n	680e <__swsetup_r+0xc2>
    6790:	f013 0f04 	tst.w	r3, #4
    6794:	d012      	beq.n	67bc <__swsetup_r+0x70>
    6796:	6b61      	ldr	r1, [r4, #52]	; 0x34
    6798:	b141      	cbz	r1, 67ac <__swsetup_r+0x60>
    679a:	f104 0344 	add.w	r3, r4, #68	; 0x44
    679e:	4299      	cmp	r1, r3
    67a0:	d002      	beq.n	67a8 <__swsetup_r+0x5c>
    67a2:	4628      	mov	r0, r5
    67a4:	f001 f946 	bl	7a34 <_free_r>
    67a8:	2300      	movs	r3, #0
    67aa:	6363      	str	r3, [r4, #52]	; 0x34
    67ac:	89a3      	ldrh	r3, [r4, #12]
    67ae:	f023 0324 	bic.w	r3, r3, #36	; 0x24
    67b2:	81a3      	strh	r3, [r4, #12]
    67b4:	2300      	movs	r3, #0
    67b6:	6063      	str	r3, [r4, #4]
    67b8:	6923      	ldr	r3, [r4, #16]
    67ba:	6023      	str	r3, [r4, #0]
    67bc:	89a3      	ldrh	r3, [r4, #12]
    67be:	f043 0308 	orr.w	r3, r3, #8
    67c2:	81a3      	strh	r3, [r4, #12]
    67c4:	6923      	ldr	r3, [r4, #16]
    67c6:	b94b      	cbnz	r3, 67dc <__swsetup_r+0x90>
    67c8:	89a3      	ldrh	r3, [r4, #12]
    67ca:	f403 7320 	and.w	r3, r3, #640	; 0x280
    67ce:	f5b3 7f00 	cmp.w	r3, #512	; 0x200
    67d2:	d003      	beq.n	67dc <__swsetup_r+0x90>
    67d4:	4628      	mov	r0, r5
    67d6:	4621      	mov	r1, r4
    67d8:	f001 fa62 	bl	7ca0 <__smakebuf_r>
    67dc:	89a3      	ldrh	r3, [r4, #12]
    67de:	f013 0201 	ands.w	r2, r3, #1
    67e2:	d005      	beq.n	67f0 <__swsetup_r+0xa4>
    67e4:	2300      	movs	r3, #0
    67e6:	60a3      	str	r3, [r4, #8]
    67e8:	6963      	ldr	r3, [r4, #20]
    67ea:	425b      	negs	r3, r3
    67ec:	61a3      	str	r3, [r4, #24]
    67ee:	e005      	b.n	67fc <__swsetup_r+0xb0>
    67f0:	f013 0f02 	tst.w	r3, #2
    67f4:	bf14      	ite	ne
    67f6:	4613      	movne	r3, r2
    67f8:	6963      	ldreq	r3, [r4, #20]
    67fa:	60a3      	str	r3, [r4, #8]
    67fc:	6923      	ldr	r3, [r4, #16]
    67fe:	b94b      	cbnz	r3, 6814 <__swsetup_r+0xc8>
    6800:	89a0      	ldrh	r0, [r4, #12]
    6802:	f010 0080 	ands.w	r0, r0, #128	; 0x80
    6806:	bf18      	it	ne
    6808:	f04f 30ff 	movne.w	r0, #4294967295
    680c:	bd70      	pop	{r4, r5, r6, pc}
    680e:	f04f 30ff 	mov.w	r0, #4294967295
    6812:	bd70      	pop	{r4, r5, r6, pc}
    6814:	2000      	movs	r0, #0
    6816:	bd70      	pop	{r4, r5, r6, pc}
    6818:	1000010c 	.word	0x1000010c
    681c:	0000c280 	.word	0x0000c280
    6820:	0000c2a0 	.word	0x0000c2a0
    6824:	0000c2c0 	.word	0x0000c2c0

00006828 <__assert_func>:
    6828:	b51f      	push	{r0, r1, r2, r3, r4, lr}
    682a:	4604      	mov	r4, r0
    682c:	4808      	ldr	r0, [pc, #32]	; (6850 <__assert_func+0x28>)
    682e:	6800      	ldr	r0, [r0, #0]
    6830:	68c0      	ldr	r0, [r0, #12]
    6832:	b912      	cbnz	r2, 683a <__assert_func+0x12>
    6834:	4d07      	ldr	r5, [pc, #28]	; (6854 <__assert_func+0x2c>)
    6836:	462a      	mov	r2, r5
    6838:	e000      	b.n	683c <__assert_func+0x14>
    683a:	4d07      	ldr	r5, [pc, #28]	; (6858 <__assert_func+0x30>)
    683c:	9100      	str	r1, [sp, #0]
    683e:	9202      	str	r2, [sp, #8]
    6840:	461a      	mov	r2, r3
    6842:	4906      	ldr	r1, [pc, #24]	; (685c <__assert_func+0x34>)
    6844:	4623      	mov	r3, r4
    6846:	9501      	str	r5, [sp, #4]
    6848:	f001 f830 	bl	78ac <fiprintf>
    684c:	f7fb fad2 	bl	1df4 <abort>
    6850:	1000010c 	.word	0x1000010c
    6854:	0000c171 	.word	0x0000c171
    6858:	0000c136 	.word	0x0000c136
    685c:	0000c143 	.word	0x0000c143

00006860 <__assert>:
    6860:	b508      	push	{r3, lr}
    6862:	4613      	mov	r3, r2
    6864:	2200      	movs	r2, #0
    6866:	f7ff ffdf 	bl	6828 <__assert_func>
	...

0000686c <_close_r>:
    686c:	b538      	push	{r3, r4, r5, lr}
    686e:	4605      	mov	r5, r0
    6870:	4c06      	ldr	r4, [pc, #24]	; (688c <_close_r+0x20>)
    6872:	4608      	mov	r0, r1
    6874:	2300      	movs	r3, #0
    6876:	6023      	str	r3, [r4, #0]
    6878:	f7f9 fd9a 	bl	3b0 <_close>
    687c:	f1b0 3fff 	cmp.w	r0, #4294967295
    6880:	d102      	bne.n	6888 <_close_r+0x1c>
    6882:	6823      	ldr	r3, [r4, #0]
    6884:	b103      	cbz	r3, 6888 <_close_r+0x1c>
    6886:	602b      	str	r3, [r5, #0]
    6888:	bd38      	pop	{r3, r4, r5, pc}
    688a:	bf00      	nop
    688c:	10000640 	.word	0x10000640

00006890 <quorem>:
    6890:	e92d 4ff7 	stmdb	sp!, {r0, r1, r2, r4, r5, r6, r7, r8, r9, sl, fp, lr}
    6894:	4604      	mov	r4, r0
    6896:	690b      	ldr	r3, [r1, #16]
    6898:	4689      	mov	r9, r1
    689a:	6902      	ldr	r2, [r0, #16]
    689c:	429a      	cmp	r2, r3
    689e:	f2c0 8086 	blt.w	69ae <quorem+0x11e>
    68a2:	1e5d      	subs	r5, r3, #1
    68a4:	3303      	adds	r3, #3
    68a6:	f101 0814 	add.w	r8, r1, #20
    68aa:	f100 0714 	add.w	r7, r0, #20
    68ae:	009b      	lsls	r3, r3, #2
    68b0:	18ca      	adds	r2, r1, r3
    68b2:	18c3      	adds	r3, r0, r3
    68b4:	f102 0a04 	add.w	sl, r2, #4
    68b8:	6851      	ldr	r1, [r2, #4]
    68ba:	6858      	ldr	r0, [r3, #4]
    68bc:	3101      	adds	r1, #1
    68be:	f004 fb93 	bl	afe8 <__aeabi_uidiv>
    68c2:	4606      	mov	r6, r0
    68c4:	2800      	cmp	r0, #0
    68c6:	d03c      	beq.n	6942 <quorem+0xb2>
    68c8:	2300      	movs	r3, #0
    68ca:	4639      	mov	r1, r7
    68cc:	4642      	mov	r2, r8
    68ce:	4618      	mov	r0, r3
    68d0:	9401      	str	r4, [sp, #4]
    68d2:	f852 eb04 	ldr.w	lr, [r2], #4
    68d6:	680c      	ldr	r4, [r1, #0]
    68d8:	4552      	cmp	r2, sl
    68da:	fa1f fc8e 	uxth.w	ip, lr
    68de:	ea4f 4e1e 	mov.w	lr, lr, lsr #16
    68e2:	fa1f fb84 	uxth.w	fp, r4
    68e6:	fb0c 3c06 	mla	ip, ip, r6, r3
    68ea:	4458      	add	r0, fp
    68ec:	fb0e fe06 	mul.w	lr, lr, r6
    68f0:	eb0e 4e1c 	add.w	lr, lr, ip, lsr #16
    68f4:	fa1f fc8c 	uxth.w	ip, ip
    68f8:	ebcc 0c00 	rsb	ip, ip, r0
    68fc:	ea4f 431e 	mov.w	r3, lr, lsr #16
    6900:	fa1f fe8e 	uxth.w	lr, lr
    6904:	ebce 4e14 	rsb	lr, lr, r4, lsr #16
    6908:	eb0e 4e2c 	add.w	lr, lr, ip, asr #16
    690c:	fa1f fc8c 	uxth.w	ip, ip
    6910:	ea4f 402e 	mov.w	r0, lr, asr #16
    6914:	ea4c 4e0e 	orr.w	lr, ip, lr, lsl #16
    6918:	f841 eb04 	str.w	lr, [r1], #4
    691c:	d9d9      	bls.n	68d2 <quorem+0x42>
    691e:	9c01      	ldr	r4, [sp, #4]
    6920:	1d2b      	adds	r3, r5, #4
    6922:	eb04 0383 	add.w	r3, r4, r3, lsl #2
    6926:	685a      	ldr	r2, [r3, #4]
    6928:	b95a      	cbnz	r2, 6942 <quorem+0xb2>
    692a:	3304      	adds	r3, #4
    692c:	e000      	b.n	6930 <quorem+0xa0>
    692e:	3d01      	subs	r5, #1
    6930:	1f1a      	subs	r2, r3, #4
    6932:	4297      	cmp	r7, r2
    6934:	d204      	bcs.n	6940 <quorem+0xb0>
    6936:	f853 1c04 	ldr.w	r1, [r3, #-4]
    693a:	4613      	mov	r3, r2
    693c:	2900      	cmp	r1, #0
    693e:	d0f6      	beq.n	692e <quorem+0x9e>
    6940:	6125      	str	r5, [r4, #16]
    6942:	4620      	mov	r0, r4
    6944:	4649      	mov	r1, r9
    6946:	f001 fcad 	bl	82a4 <__mcmp>
    694a:	2800      	cmp	r0, #0
    694c:	db2d      	blt.n	69aa <quorem+0x11a>
    694e:	3601      	adds	r6, #1
    6950:	463b      	mov	r3, r7
    6952:	2200      	movs	r2, #0
    6954:	4641      	mov	r1, r8
    6956:	f851 8b04 	ldr.w	r8, [r1], #4
    695a:	6818      	ldr	r0, [r3, #0]
    695c:	fa1f fc88 	uxth.w	ip, r8
    6960:	ea4f 4818 	mov.w	r8, r8, lsr #16
    6964:	fa1f f980 	uxth.w	r9, r0
    6968:	ebc8 4010 	rsb	r0, r8, r0, lsr #16
    696c:	ebcc 0c09 	rsb	ip, ip, r9
    6970:	4494      	add	ip, r2
    6972:	eb00 402c 	add.w	r0, r0, ip, asr #16
    6976:	fa1f fc8c 	uxth.w	ip, ip
    697a:	1402      	asrs	r2, r0, #16
    697c:	4551      	cmp	r1, sl
    697e:	ea4c 4000 	orr.w	r0, ip, r0, lsl #16
    6982:	f843 0b04 	str.w	r0, [r3], #4
    6986:	d9e6      	bls.n	6956 <quorem+0xc6>
    6988:	1d2b      	adds	r3, r5, #4
    698a:	eb04 0383 	add.w	r3, r4, r3, lsl #2
    698e:	685a      	ldr	r2, [r3, #4]
    6990:	b95a      	cbnz	r2, 69aa <quorem+0x11a>
    6992:	3304      	adds	r3, #4
    6994:	e000      	b.n	6998 <quorem+0x108>
    6996:	3d01      	subs	r5, #1
    6998:	1f1a      	subs	r2, r3, #4
    699a:	4297      	cmp	r7, r2
    699c:	d204      	bcs.n	69a8 <quorem+0x118>
    699e:	f853 1c04 	ldr.w	r1, [r3, #-4]
    69a2:	4613      	mov	r3, r2
    69a4:	2900      	cmp	r1, #0
    69a6:	d0f6      	beq.n	6996 <quorem+0x106>
    69a8:	6125      	str	r5, [r4, #16]
    69aa:	4630      	mov	r0, r6
    69ac:	e000      	b.n	69b0 <quorem+0x120>
    69ae:	2000      	movs	r0, #0
    69b0:	e8bd 8ffe 	ldmia.w	sp!, {r1, r2, r3, r4, r5, r6, r7, r8, r9, sl, fp, pc}
    69b4:	0000      	movs	r0, r0
	...

000069b8 <_dtoa_r>:
    69b8:	e92d 4ff0 	stmdb	sp!, {r4, r5, r6, r7, r8, r9, sl, fp, lr}
    69bc:	4605      	mov	r5, r0
    69be:	b09b      	sub	sp, #108	; 0x6c
    69c0:	4610      	mov	r0, r2
    69c2:	6a6e      	ldr	r6, [r5, #36]	; 0x24
    69c4:	4619      	mov	r1, r3
    69c6:	9c27      	ldr	r4, [sp, #156]	; 0x9c
    69c8:	e9cd 0104 	strd	r0, r1, [sp, #16]
    69cc:	b93e      	cbnz	r6, 69de <_dtoa_r+0x26>
    69ce:	2010      	movs	r0, #16
    69d0:	f7fb fc1c 	bl	220c <malloc>
    69d4:	6268      	str	r0, [r5, #36]	; 0x24
    69d6:	6046      	str	r6, [r0, #4]
    69d8:	6086      	str	r6, [r0, #8]
    69da:	6006      	str	r6, [r0, #0]
    69dc:	60c6      	str	r6, [r0, #12]
    69de:	6a6b      	ldr	r3, [r5, #36]	; 0x24
    69e0:	6819      	ldr	r1, [r3, #0]
    69e2:	b159      	cbz	r1, 69fc <_dtoa_r+0x44>
    69e4:	685b      	ldr	r3, [r3, #4]
    69e6:	2201      	movs	r2, #1
    69e8:	4628      	mov	r0, r5
    69ea:	604b      	str	r3, [r1, #4]
    69ec:	fa12 f303 	lsls.w	r3, r2, r3
    69f0:	608b      	str	r3, [r1, #8]
    69f2:	f001 fa39 	bl	7e68 <_Bfree>
    69f6:	6a6b      	ldr	r3, [r5, #36]	; 0x24
    69f8:	2200      	movs	r2, #0
    69fa:	601a      	str	r2, [r3, #0]
    69fc:	9b05      	ldr	r3, [sp, #20]
    69fe:	2b00      	cmp	r3, #0
    6a00:	da05      	bge.n	6a0e <_dtoa_r+0x56>
    6a02:	2201      	movs	r2, #1
    6a04:	f023 4300 	bic.w	r3, r3, #2147483648	; 0x80000000
    6a08:	6022      	str	r2, [r4, #0]
    6a0a:	9305      	str	r3, [sp, #20]
    6a0c:	e001      	b.n	6a12 <_dtoa_r+0x5a>
    6a0e:	2300      	movs	r3, #0
    6a10:	6023      	str	r3, [r4, #0]
    6a12:	9c05      	ldr	r4, [sp, #20]
    6a14:	4b9a      	ldr	r3, [pc, #616]	; (6c80 <_dtoa_r+0x2c8>)
    6a16:	4a9a      	ldr	r2, [pc, #616]	; (6c80 <_dtoa_r+0x2c8>)
    6a18:	ea04 0303 	and.w	r3, r4, r3
    6a1c:	4293      	cmp	r3, r2
    6a1e:	d11d      	bne.n	6a5c <_dtoa_r+0xa4>
    6a20:	9926      	ldr	r1, [sp, #152]	; 0x98
    6a22:	f242 730f 	movw	r3, #9999	; 0x270f
    6a26:	9a04      	ldr	r2, [sp, #16]
    6a28:	600b      	str	r3, [r1, #0]
    6a2a:	b94a      	cbnz	r2, 6a40 <_dtoa_r+0x88>
    6a2c:	f024 447f 	bic.w	r4, r4, #4278190080	; 0xff000000
    6a30:	4b94      	ldr	r3, [pc, #592]	; (6c84 <_dtoa_r+0x2cc>)
    6a32:	4895      	ldr	r0, [pc, #596]	; (6c88 <_dtoa_r+0x2d0>)
    6a34:	f424 0470 	bic.w	r4, r4, #15728640	; 0xf00000
    6a38:	2c00      	cmp	r4, #0
    6a3a:	bf18      	it	ne
    6a3c:	4618      	movne	r0, r3
    6a3e:	e000      	b.n	6a42 <_dtoa_r+0x8a>
    6a40:	4890      	ldr	r0, [pc, #576]	; (6c84 <_dtoa_r+0x2cc>)
    6a42:	9b28      	ldr	r3, [sp, #160]	; 0xa0
    6a44:	2b00      	cmp	r3, #0
    6a46:	f000 85b3 	beq.w	75b0 <_dtoa_r+0xbf8>
    6a4a:	78c2      	ldrb	r2, [r0, #3]
    6a4c:	1cc3      	adds	r3, r0, #3
    6a4e:	b10a      	cbz	r2, 6a54 <_dtoa_r+0x9c>
    6a50:	f100 0308 	add.w	r3, r0, #8
    6a54:	9928      	ldr	r1, [sp, #160]	; 0xa0
    6a56:	600b      	str	r3, [r1, #0]
    6a58:	f000 bdaa 	b.w	75b0 <_dtoa_r+0xbf8>
    6a5c:	e9dd ab04 	ldrd	sl, fp, [sp, #16]
    6a60:	2200      	movs	r2, #0
    6a62:	2300      	movs	r3, #0
    6a64:	2601      	movs	r6, #1
    6a66:	4650      	mov	r0, sl
    6a68:	4659      	mov	r1, fp
    6a6a:	f004 fda9 	bl	b5c0 <__aeabi_dcmpeq>
    6a6e:	b100      	cbz	r0, 6a72 <_dtoa_r+0xba>
    6a70:	2600      	movs	r6, #0
    6a72:	f016 0fff 	tst.w	r6, #255	; 0xff
    6a76:	d10b      	bne.n	6a90 <_dtoa_r+0xd8>
    6a78:	9a26      	ldr	r2, [sp, #152]	; 0x98
    6a7a:	2301      	movs	r3, #1
    6a7c:	6013      	str	r3, [r2, #0]
    6a7e:	9b28      	ldr	r3, [sp, #160]	; 0xa0
    6a80:	2b00      	cmp	r3, #0
    6a82:	f000 8592 	beq.w	75aa <_dtoa_r+0xbf2>
    6a86:	4881      	ldr	r0, [pc, #516]	; (6c8c <_dtoa_r+0x2d4>)
    6a88:	6018      	str	r0, [r3, #0]
    6a8a:	3801      	subs	r0, #1
    6a8c:	f000 bd90 	b.w	75b0 <_dtoa_r+0xbf8>
    6a90:	ab18      	add	r3, sp, #96	; 0x60
    6a92:	4628      	mov	r0, r5
    6a94:	9300      	str	r3, [sp, #0]
    6a96:	4652      	mov	r2, sl
    6a98:	ab19      	add	r3, sp, #100	; 0x64
    6a9a:	9301      	str	r3, [sp, #4]
    6a9c:	465b      	mov	r3, fp
    6a9e:	0d26      	lsrs	r6, r4, #20
    6aa0:	f001 fcf2 	bl	8488 <__d2b>
    6aa4:	0576      	lsls	r6, r6, #21
    6aa6:	0d76      	lsrs	r6, r6, #21
    6aa8:	4681      	mov	r9, r0
    6aaa:	b16e      	cbz	r6, 6ac8 <_dtoa_r+0x110>
    6aac:	f02b 437f 	bic.w	r3, fp, #4278190080	; 0xff000000
    6ab0:	f5a6 767e 	sub.w	r6, r6, #1016	; 0x3f8
    6ab4:	f423 0370 	bic.w	r3, r3, #15728640	; 0xf00000
    6ab8:	4650      	mov	r0, sl
    6aba:	f043 517e 	orr.w	r1, r3, #1065353216	; 0x3f800000
    6abe:	3e07      	subs	r6, #7
    6ac0:	f441 01e0 	orr.w	r1, r1, #7340032	; 0x700000
    6ac4:	2200      	movs	r2, #0
    6ac6:	e01e      	b.n	6b06 <_dtoa_r+0x14e>
    6ac8:	9b18      	ldr	r3, [sp, #96]	; 0x60
    6aca:	9819      	ldr	r0, [sp, #100]	; 0x64
    6acc:	18c0      	adds	r0, r0, r3
    6ace:	f500 6086 	add.w	r0, r0, #1072	; 0x430
    6ad2:	1c86      	adds	r6, r0, #2
    6ad4:	2e20      	cmp	r6, #32
    6ad6:	dd08      	ble.n	6aea <_dtoa_r+0x132>
    6ad8:	9b04      	ldr	r3, [sp, #16]
    6ada:	381e      	subs	r0, #30
    6adc:	fa33 f000 	lsrs.w	r0, r3, r0
    6ae0:	f1c6 0340 	rsb	r3, r6, #64	; 0x40
    6ae4:	409c      	lsls	r4, r3
    6ae6:	4320      	orrs	r0, r4
    6ae8:	e005      	b.n	6af6 <_dtoa_r+0x13e>
    6aea:	f8dd e010 	ldr.w	lr, [sp, #16]
    6aee:	f1c6 0020 	rsb	r0, r6, #32
    6af2:	fa0e f000 	lsl.w	r0, lr, r0
    6af6:	f7fa fba9 	bl	124c <__aeabi_ui2d>
    6afa:	f5a6 6686 	sub.w	r6, r6, #1072	; 0x430
    6afe:	3e03      	subs	r6, #3
    6b00:	2201      	movs	r2, #1
    6b02:	f1a1 71f8 	sub.w	r1, r1, #32505856	; 0x1f00000
    6b06:	9216      	str	r2, [sp, #88]	; 0x58
    6b08:	2200      	movs	r2, #0
    6b0a:	4b61      	ldr	r3, [pc, #388]	; (6c90 <_dtoa_r+0x2d8>)
    6b0c:	f7fa fa60 	bl	fd0 <__aeabi_dsub>
    6b10:	a355      	add	r3, pc, #340	; (adr r3, 6c68 <_dtoa_r+0x2b0>)
    6b12:	e9d3 2300 	ldrd	r2, r3, [r3]
    6b16:	f7fa fc0f 	bl	1338 <__aeabi_dmul>
    6b1a:	a355      	add	r3, pc, #340	; (adr r3, 6c70 <_dtoa_r+0x2b8>)
    6b1c:	e9d3 2300 	ldrd	r2, r3, [r3]
    6b20:	f7fa fa58 	bl	fd4 <__adddf3>
    6b24:	4682      	mov	sl, r0
    6b26:	4630      	mov	r0, r6
    6b28:	468b      	mov	fp, r1
    6b2a:	f7fa fb9f 	bl	126c <__aeabi_i2d>
    6b2e:	a352      	add	r3, pc, #328	; (adr r3, 6c78 <_dtoa_r+0x2c0>)
    6b30:	e9d3 2300 	ldrd	r2, r3, [r3]
    6b34:	f7fa fc00 	bl	1338 <__aeabi_dmul>
    6b38:	4602      	mov	r2, r0
    6b3a:	460b      	mov	r3, r1
    6b3c:	4650      	mov	r0, sl
    6b3e:	4659      	mov	r1, fp
    6b40:	f7fa fa48 	bl	fd4 <__adddf3>
    6b44:	4682      	mov	sl, r0
    6b46:	468b      	mov	fp, r1
    6b48:	f7fa fe08 	bl	175c <__aeabi_d2iz>
    6b4c:	4659      	mov	r1, fp
    6b4e:	2200      	movs	r2, #0
    6b50:	2300      	movs	r3, #0
    6b52:	4604      	mov	r4, r0
    6b54:	4650      	mov	r0, sl
    6b56:	f004 fd3d 	bl	b5d4 <__aeabi_dcmplt>
    6b5a:	b150      	cbz	r0, 6b72 <_dtoa_r+0x1ba>
    6b5c:	4620      	mov	r0, r4
    6b5e:	f7fa fb85 	bl	126c <__aeabi_i2d>
    6b62:	4602      	mov	r2, r0
    6b64:	460b      	mov	r3, r1
    6b66:	4650      	mov	r0, sl
    6b68:	4659      	mov	r1, fp
    6b6a:	f004 fd29 	bl	b5c0 <__aeabi_dcmpeq>
    6b6e:	b900      	cbnz	r0, 6b72 <_dtoa_r+0x1ba>
    6b70:	3c01      	subs	r4, #1
    6b72:	2c16      	cmp	r4, #22
    6b74:	d80d      	bhi.n	6b92 <_dtoa_r+0x1da>
    6b76:	4b47      	ldr	r3, [pc, #284]	; (6c94 <_dtoa_r+0x2dc>)
    6b78:	eb03 03c4 	add.w	r3, r3, r4, lsl #3
    6b7c:	e9d3 0100 	ldrd	r0, r1, [r3]
    6b80:	e9dd 2304 	ldrd	r2, r3, [sp, #16]
    6b84:	f004 fd44 	bl	b610 <__aeabi_dcmpgt>
    6b88:	b130      	cbz	r0, 6b98 <_dtoa_r+0x1e0>
    6b8a:	2300      	movs	r3, #0
    6b8c:	3c01      	subs	r4, #1
    6b8e:	9311      	str	r3, [sp, #68]	; 0x44
    6b90:	e004      	b.n	6b9c <_dtoa_r+0x1e4>
    6b92:	2001      	movs	r0, #1
    6b94:	9011      	str	r0, [sp, #68]	; 0x44
    6b96:	e001      	b.n	6b9c <_dtoa_r+0x1e4>
    6b98:	2100      	movs	r1, #0
    6b9a:	9111      	str	r1, [sp, #68]	; 0x44
    6b9c:	9b19      	ldr	r3, [sp, #100]	; 0x64
    6b9e:	f103 3bff 	add.w	fp, r3, #4294967295
    6ba2:	ebbb 0b06 	subs.w	fp, fp, r6
    6ba6:	d504      	bpl.n	6bb2 <_dtoa_r+0x1fa>
    6ba8:	2200      	movs	r2, #0
    6baa:	f1cb 0b00 	rsb	fp, fp, #0
    6bae:	9206      	str	r2, [sp, #24]
    6bb0:	e003      	b.n	6bba <_dtoa_r+0x202>
    6bb2:	f8cd b018 	str.w	fp, [sp, #24]
    6bb6:	f04f 0b00 	mov.w	fp, #0
    6bba:	2c00      	cmp	r4, #0
    6bbc:	db06      	blt.n	6bcc <_dtoa_r+0x214>
    6bbe:	9b06      	ldr	r3, [sp, #24]
    6bc0:	f04f 0800 	mov.w	r8, #0
    6bc4:	940f      	str	r4, [sp, #60]	; 0x3c
    6bc6:	191b      	adds	r3, r3, r4
    6bc8:	9306      	str	r3, [sp, #24]
    6bca:	e005      	b.n	6bd8 <_dtoa_r+0x220>
    6bcc:	ebc4 0b0b 	rsb	fp, r4, fp
    6bd0:	f1c4 0800 	rsb	r8, r4, #0
    6bd4:	2000      	movs	r0, #0
    6bd6:	900f      	str	r0, [sp, #60]	; 0x3c
    6bd8:	9924      	ldr	r1, [sp, #144]	; 0x90
    6bda:	2909      	cmp	r1, #9
    6bdc:	d813      	bhi.n	6c06 <_dtoa_r+0x24e>
    6bde:	2905      	cmp	r1, #5
    6be0:	dd03      	ble.n	6bea <_dtoa_r+0x232>
    6be2:	3904      	subs	r1, #4
    6be4:	2700      	movs	r7, #0
    6be6:	9124      	str	r1, [sp, #144]	; 0x90
    6be8:	e000      	b.n	6bec <_dtoa_r+0x234>
    6bea:	2701      	movs	r7, #1
    6bec:	9a24      	ldr	r2, [sp, #144]	; 0x90
    6bee:	1e93      	subs	r3, r2, #2
    6bf0:	2b03      	cmp	r3, #3
    6bf2:	d80b      	bhi.n	6c0c <_dtoa_r+0x254>
    6bf4:	e8df f003 	tbb	[pc, r3]
    6bf8:	02051e15 	.word	0x02051e15
    6bfc:	2001      	movs	r0, #1
    6bfe:	900e      	str	r0, [sp, #56]	; 0x38
    6c00:	e01a      	b.n	6c38 <_dtoa_r+0x280>
    6c02:	2101      	movs	r1, #1
    6c04:	e00e      	b.n	6c24 <_dtoa_r+0x26c>
    6c06:	2701      	movs	r7, #1
    6c08:	2200      	movs	r2, #0
    6c0a:	9224      	str	r2, [sp, #144]	; 0x90
    6c0c:	2301      	movs	r3, #1
    6c0e:	f04f 3eff 	mov.w	lr, #4294967295
    6c12:	930e      	str	r3, [sp, #56]	; 0x38
    6c14:	2000      	movs	r0, #0
    6c16:	f8cd e030 	str.w	lr, [sp, #48]	; 0x30
    6c1a:	46f2      	mov	sl, lr
    6c1c:	3311      	adds	r3, #17
    6c1e:	9025      	str	r0, [sp, #148]	; 0x94
    6c20:	e01a      	b.n	6c58 <_dtoa_r+0x2a0>
    6c22:	2100      	movs	r1, #0
    6c24:	9a25      	ldr	r2, [sp, #148]	; 0x94
    6c26:	910e      	str	r1, [sp, #56]	; 0x38
    6c28:	2a00      	cmp	r2, #0
    6c2a:	dd0d      	ble.n	6c48 <_dtoa_r+0x290>
    6c2c:	920c      	str	r2, [sp, #48]	; 0x30
    6c2e:	4692      	mov	sl, r2
    6c30:	4613      	mov	r3, r2
    6c32:	e011      	b.n	6c58 <_dtoa_r+0x2a0>
    6c34:	2300      	movs	r3, #0
    6c36:	930e      	str	r3, [sp, #56]	; 0x38
    6c38:	9825      	ldr	r0, [sp, #148]	; 0x94
    6c3a:	1820      	adds	r0, r4, r0
    6c3c:	900c      	str	r0, [sp, #48]	; 0x30
    6c3e:	1c43      	adds	r3, r0, #1
    6c40:	2b00      	cmp	r3, #0
    6c42:	dd07      	ble.n	6c54 <_dtoa_r+0x29c>
    6c44:	469a      	mov	sl, r3
    6c46:	e007      	b.n	6c58 <_dtoa_r+0x2a0>
    6c48:	2101      	movs	r1, #1
    6c4a:	910c      	str	r1, [sp, #48]	; 0x30
    6c4c:	468a      	mov	sl, r1
    6c4e:	460b      	mov	r3, r1
    6c50:	9125      	str	r1, [sp, #148]	; 0x94
    6c52:	e001      	b.n	6c58 <_dtoa_r+0x2a0>
    6c54:	469a      	mov	sl, r3
    6c56:	2301      	movs	r3, #1
    6c58:	6a6e      	ldr	r6, [r5, #36]	; 0x24
    6c5a:	2200      	movs	r2, #0
    6c5c:	6072      	str	r2, [r6, #4]
    6c5e:	3204      	adds	r2, #4
    6c60:	e01e      	b.n	6ca0 <_dtoa_r+0x2e8>
    6c62:	bf00      	nop
    6c64:	f3af 8000 	nop.w
    6c68:	636f4361 	.word	0x636f4361
    6c6c:	3fd287a7 	.word	0x3fd287a7
    6c70:	8b60c8b3 	.word	0x8b60c8b3
    6c74:	3fc68a28 	.word	0x3fc68a28
    6c78:	509f79fb 	.word	0x509f79fb
    6c7c:	3fd34413 	.word	0x3fd34413
    6c80:	7ff00000 	.word	0x7ff00000
    6c84:	0000c27c 	.word	0x0000c27c
    6c88:	0000c273 	.word	0x0000c273
    6c8c:	0000c0bb 	.word	0x0000c0bb
    6c90:	3ff80000 	.word	0x3ff80000
    6c94:	0000c2f8 	.word	0x0000c2f8
    6c98:	6871      	ldr	r1, [r6, #4]
    6c9a:	0052      	lsls	r2, r2, #1
    6c9c:	3101      	adds	r1, #1
    6c9e:	6071      	str	r1, [r6, #4]
    6ca0:	f102 0114 	add.w	r1, r2, #20
    6ca4:	4299      	cmp	r1, r3
    6ca6:	d9f7      	bls.n	6c98 <_dtoa_r+0x2e0>
    6ca8:	4628      	mov	r0, r5
    6caa:	6871      	ldr	r1, [r6, #4]
    6cac:	f001 f8ab 	bl	7e06 <_Balloc>
    6cb0:	6a6b      	ldr	r3, [r5, #36]	; 0x24
    6cb2:	f1ba 0f0e 	cmp.w	sl, #14
    6cb6:	6030      	str	r0, [r6, #0]
    6cb8:	681b      	ldr	r3, [r3, #0]
    6cba:	930d      	str	r3, [sp, #52]	; 0x34
    6cbc:	f200 81ac 	bhi.w	7018 <_dtoa_r+0x660>
    6cc0:	2f00      	cmp	r7, #0
    6cc2:	f000 81a9 	beq.w	7018 <_dtoa_r+0x660>
    6cc6:	e9dd 2304 	ldrd	r2, r3, [sp, #16]
    6cca:	2c00      	cmp	r4, #0
    6ccc:	e9cd 2312 	strd	r2, r3, [sp, #72]	; 0x48
    6cd0:	dd3f      	ble.n	6d52 <_dtoa_r+0x39a>
    6cd2:	f004 020f 	and.w	r2, r4, #15
    6cd6:	4b92      	ldr	r3, [pc, #584]	; (6f20 <_dtoa_r+0x568>)
    6cd8:	1127      	asrs	r7, r4, #4
    6cda:	eb03 03c2 	add.w	r3, r3, r2, lsl #3
    6cde:	f017 0f10 	tst.w	r7, #16
    6ce2:	e9d3 0100 	ldrd	r0, r1, [r3]
    6ce6:	e9cd 010a 	strd	r0, r1, [sp, #40]	; 0x28
    6cea:	d00e      	beq.n	6d0a <_dtoa_r+0x352>
    6cec:	4b8d      	ldr	r3, [pc, #564]	; (6f24 <_dtoa_r+0x56c>)
    6cee:	f007 070f 	and.w	r7, r7, #15
    6cf2:	e9dd 0112 	ldrd	r0, r1, [sp, #72]	; 0x48
    6cf6:	2603      	movs	r6, #3
    6cf8:	e9d3 2308 	ldrd	r2, r3, [r3, #32]
    6cfc:	f7fa fc46 	bl	158c <__aeabi_ddiv>
    6d00:	4602      	mov	r2, r0
    6d02:	460b      	mov	r3, r1
    6d04:	e9cd 2304 	strd	r2, r3, [sp, #16]
    6d08:	e000      	b.n	6d0c <_dtoa_r+0x354>
    6d0a:	2602      	movs	r6, #2
    6d0c:	f8df c214 	ldr.w	ip, [pc, #532]	; 6f24 <_dtoa_r+0x56c>
    6d10:	f8cd b020 	str.w	fp, [sp, #32]
    6d14:	46c3      	mov	fp, r8
    6d16:	e9dd 010a 	ldrd	r0, r1, [sp, #40]	; 0x28
    6d1a:	46a0      	mov	r8, r4
    6d1c:	4664      	mov	r4, ip
    6d1e:	e009      	b.n	6d34 <_dtoa_r+0x37c>
    6d20:	f017 0f01 	tst.w	r7, #1
    6d24:	d004      	beq.n	6d30 <_dtoa_r+0x378>
    6d26:	e9d4 2300 	ldrd	r2, r3, [r4]
    6d2a:	3601      	adds	r6, #1
    6d2c:	f7fa fb04 	bl	1338 <__aeabi_dmul>
    6d30:	107f      	asrs	r7, r7, #1
    6d32:	3408      	adds	r4, #8
    6d34:	2f00      	cmp	r7, #0
    6d36:	d1f3      	bne.n	6d20 <_dtoa_r+0x368>
    6d38:	e9cd 010a 	strd	r0, r1, [sp, #40]	; 0x28
    6d3c:	4644      	mov	r4, r8
    6d3e:	e9dd 0104 	ldrd	r0, r1, [sp, #16]
    6d42:	46d8      	mov	r8, fp
    6d44:	e9dd 230a 	ldrd	r2, r3, [sp, #40]	; 0x28
    6d48:	f8dd b020 	ldr.w	fp, [sp, #32]
    6d4c:	f7fa fc1e 	bl	158c <__aeabi_ddiv>
    6d50:	e026      	b.n	6da0 <_dtoa_r+0x3e8>
    6d52:	4267      	negs	r7, r4
    6d54:	b34f      	cbz	r7, 6daa <_dtoa_r+0x3f2>
    6d56:	f007 020f 	and.w	r2, r7, #15
    6d5a:	4b71      	ldr	r3, [pc, #452]	; (6f20 <_dtoa_r+0x568>)
    6d5c:	e9dd 0112 	ldrd	r0, r1, [sp, #72]	; 0x48
    6d60:	113f      	asrs	r7, r7, #4
    6d62:	eb03 03c2 	add.w	r3, r3, r2, lsl #3
    6d66:	2602      	movs	r6, #2
    6d68:	e9d3 2300 	ldrd	r2, r3, [r3]
    6d6c:	f7fa fae4 	bl	1338 <__aeabi_dmul>
    6d70:	f8df c1b0 	ldr.w	ip, [pc, #432]	; 6f24 <_dtoa_r+0x56c>
    6d74:	f8cd b010 	str.w	fp, [sp, #16]
    6d78:	46c3      	mov	fp, r8
    6d7a:	46a0      	mov	r8, r4
    6d7c:	4664      	mov	r4, ip
    6d7e:	e009      	b.n	6d94 <_dtoa_r+0x3dc>
    6d80:	f017 0f01 	tst.w	r7, #1
    6d84:	d004      	beq.n	6d90 <_dtoa_r+0x3d8>
    6d86:	e9d4 2300 	ldrd	r2, r3, [r4]
    6d8a:	3601      	adds	r6, #1
    6d8c:	f7fa fad4 	bl	1338 <__aeabi_dmul>
    6d90:	107f      	asrs	r7, r7, #1
    6d92:	3408      	adds	r4, #8
    6d94:	2f00      	cmp	r7, #0
    6d96:	d1f3      	bne.n	6d80 <_dtoa_r+0x3c8>
    6d98:	4644      	mov	r4, r8
    6d9a:	46d8      	mov	r8, fp
    6d9c:	f8dd b010 	ldr.w	fp, [sp, #16]
    6da0:	4602      	mov	r2, r0
    6da2:	460b      	mov	r3, r1
    6da4:	e9cd 2304 	strd	r2, r3, [sp, #16]
    6da8:	e000      	b.n	6dac <_dtoa_r+0x3f4>
    6daa:	2602      	movs	r6, #2
    6dac:	9b11      	ldr	r3, [sp, #68]	; 0x44
    6dae:	b1f3      	cbz	r3, 6dee <_dtoa_r+0x436>
    6db0:	e9dd 0104 	ldrd	r0, r1, [sp, #16]
    6db4:	2200      	movs	r2, #0
    6db6:	4b5c      	ldr	r3, [pc, #368]	; (6f28 <_dtoa_r+0x570>)
    6db8:	e9cd 0108 	strd	r0, r1, [sp, #32]
    6dbc:	f004 fc0a 	bl	b5d4 <__aeabi_dcmplt>
    6dc0:	b1a8      	cbz	r0, 6dee <_dtoa_r+0x436>
    6dc2:	f1ba 0f00 	cmp.w	sl, #0
    6dc6:	d012      	beq.n	6dee <_dtoa_r+0x436>
    6dc8:	990c      	ldr	r1, [sp, #48]	; 0x30
    6dca:	2900      	cmp	r1, #0
    6dcc:	f340 8120 	ble.w	7010 <_dtoa_r+0x658>
    6dd0:	1e62      	subs	r2, r4, #1
    6dd2:	4b56      	ldr	r3, [pc, #344]	; (6f2c <_dtoa_r+0x574>)
    6dd4:	920a      	str	r2, [sp, #40]	; 0x28
    6dd6:	2200      	movs	r2, #0
    6dd8:	e9dd 0108 	ldrd	r0, r1, [sp, #32]
    6ddc:	3601      	adds	r6, #1
    6dde:	f7fa faab 	bl	1338 <__aeabi_dmul>
    6de2:	9f0c      	ldr	r7, [sp, #48]	; 0x30
    6de4:	4602      	mov	r2, r0
    6de6:	460b      	mov	r3, r1
    6de8:	e9cd 2304 	strd	r2, r3, [sp, #16]
    6dec:	e001      	b.n	6df2 <_dtoa_r+0x43a>
    6dee:	4657      	mov	r7, sl
    6df0:	940a      	str	r4, [sp, #40]	; 0x28
    6df2:	4630      	mov	r0, r6
    6df4:	f7fa fa3a 	bl	126c <__aeabi_i2d>
    6df8:	e9dd 2304 	ldrd	r2, r3, [sp, #16]
    6dfc:	f7fa fa9c 	bl	1338 <__aeabi_dmul>
    6e00:	2200      	movs	r2, #0
    6e02:	4b4b      	ldr	r3, [pc, #300]	; (6f30 <_dtoa_r+0x578>)
    6e04:	f7fa f8e6 	bl	fd4 <__adddf3>
    6e08:	460b      	mov	r3, r1
    6e0a:	4602      	mov	r2, r0
    6e0c:	e9cd 2308 	strd	r2, r3, [sp, #32]
    6e10:	9b09      	ldr	r3, [sp, #36]	; 0x24
    6e12:	f1a3 7650 	sub.w	r6, r3, #54525952	; 0x3400000
    6e16:	9609      	str	r6, [sp, #36]	; 0x24
    6e18:	b9ef      	cbnz	r7, 6e56 <_dtoa_r+0x49e>
    6e1a:	e9dd 0104 	ldrd	r0, r1, [sp, #16]
    6e1e:	2200      	movs	r2, #0
    6e20:	4b44      	ldr	r3, [pc, #272]	; (6f34 <_dtoa_r+0x57c>)
    6e22:	f7fa f8d5 	bl	fd0 <__aeabi_dsub>
    6e26:	f8dd e020 	ldr.w	lr, [sp, #32]
    6e2a:	4633      	mov	r3, r6
    6e2c:	4672      	mov	r2, lr
    6e2e:	e9cd 0104 	strd	r0, r1, [sp, #16]
    6e32:	f004 fbed 	bl	b610 <__aeabi_dcmpgt>
    6e36:	2800      	cmp	r0, #0
    6e38:	f040 8296 	bne.w	7368 <_dtoa_r+0x9b0>
    6e3c:	f8dd e020 	ldr.w	lr, [sp, #32]
    6e40:	f106 4300 	add.w	r3, r6, #2147483648	; 0x80000000
    6e44:	e9dd 0104 	ldrd	r0, r1, [sp, #16]
    6e48:	4672      	mov	r2, lr
    6e4a:	f004 fbc3 	bl	b5d4 <__aeabi_dcmplt>
    6e4e:	2800      	cmp	r0, #0
    6e50:	f040 827e 	bne.w	7350 <_dtoa_r+0x998>
    6e54:	e0dc      	b.n	7010 <_dtoa_r+0x658>
    6e56:	980e      	ldr	r0, [sp, #56]	; 0x38
    6e58:	1e7a      	subs	r2, r7, #1
    6e5a:	4b31      	ldr	r3, [pc, #196]	; (6f20 <_dtoa_r+0x568>)
    6e5c:	2800      	cmp	r0, #0
    6e5e:	d06d      	beq.n	6f3c <_dtoa_r+0x584>
    6e60:	eb03 03c2 	add.w	r3, r3, r2, lsl #3
    6e64:	2000      	movs	r0, #0
    6e66:	4934      	ldr	r1, [pc, #208]	; (6f38 <_dtoa_r+0x580>)
    6e68:	e9d3 2300 	ldrd	r2, r3, [r3]
    6e6c:	f7fa fb8e 	bl	158c <__aeabi_ddiv>
    6e70:	e9dd 2308 	ldrd	r2, r3, [sp, #32]
    6e74:	f7fa f8ac 	bl	fd0 <__aeabi_dsub>
    6e78:	e9dd 2304 	ldrd	r2, r3, [sp, #16]
    6e7c:	f8cd b054 	str.w	fp, [sp, #84]	; 0x54
    6e80:	46d3      	mov	fp, sl
    6e82:	f8cd 805c 	str.w	r8, [sp, #92]	; 0x5c
    6e86:	46a2      	mov	sl, r4
    6e88:	46a8      	mov	r8, r5
    6e8a:	4614      	mov	r4, r2
    6e8c:	461d      	mov	r5, r3
    6e8e:	f04f 0e00 	mov.w	lr, #0
    6e92:	f8cd e010 	str.w	lr, [sp, #16]
    6e96:	e9cd 0108 	strd	r0, r1, [sp, #32]
    6e9a:	990d      	ldr	r1, [sp, #52]	; 0x34
    6e9c:	9110      	str	r1, [sp, #64]	; 0x40
    6e9e:	4629      	mov	r1, r5
    6ea0:	4620      	mov	r0, r4
    6ea2:	f7fa fc5b 	bl	175c <__aeabi_d2iz>
    6ea6:	4606      	mov	r6, r0
    6ea8:	f7fa f9e0 	bl	126c <__aeabi_i2d>
    6eac:	3630      	adds	r6, #48	; 0x30
    6eae:	4602      	mov	r2, r0
    6eb0:	460b      	mov	r3, r1
    6eb2:	4620      	mov	r0, r4
    6eb4:	4629      	mov	r1, r5
    6eb6:	f7fa f88b 	bl	fd0 <__aeabi_dsub>
    6eba:	9a10      	ldr	r2, [sp, #64]	; 0x40
    6ebc:	f802 6b01 	strb.w	r6, [r2], #1
    6ec0:	4616      	mov	r6, r2
    6ec2:	9210      	str	r2, [sp, #64]	; 0x40
    6ec4:	e9dd 2308 	ldrd	r2, r3, [sp, #32]
    6ec8:	4604      	mov	r4, r0
    6eca:	460d      	mov	r5, r1
    6ecc:	f004 fb82 	bl	b5d4 <__aeabi_dcmplt>
    6ed0:	2800      	cmp	r0, #0
    6ed2:	f040 835b 	bne.w	758c <_dtoa_r+0xbd4>
    6ed6:	4622      	mov	r2, r4
    6ed8:	462b      	mov	r3, r5
    6eda:	2000      	movs	r0, #0
    6edc:	4912      	ldr	r1, [pc, #72]	; (6f28 <_dtoa_r+0x570>)
    6ede:	f7fa f877 	bl	fd0 <__aeabi_dsub>
    6ee2:	e9dd 2308 	ldrd	r2, r3, [sp, #32]
    6ee6:	f004 fb75 	bl	b5d4 <__aeabi_dcmplt>
    6eea:	2800      	cmp	r0, #0
    6eec:	f040 8102 	bne.w	70f4 <_dtoa_r+0x73c>
    6ef0:	9b04      	ldr	r3, [sp, #16]
    6ef2:	3301      	adds	r3, #1
    6ef4:	9304      	str	r3, [sp, #16]
    6ef6:	42bb      	cmp	r3, r7
    6ef8:	f280 8083 	bge.w	7002 <_dtoa_r+0x64a>
    6efc:	e9dd 0108 	ldrd	r0, r1, [sp, #32]
    6f00:	2200      	movs	r2, #0
    6f02:	4b0a      	ldr	r3, [pc, #40]	; (6f2c <_dtoa_r+0x574>)
    6f04:	f7fa fa18 	bl	1338 <__aeabi_dmul>
    6f08:	2200      	movs	r2, #0
    6f0a:	4b08      	ldr	r3, [pc, #32]	; (6f2c <_dtoa_r+0x574>)
    6f0c:	e9cd 0108 	strd	r0, r1, [sp, #32]
    6f10:	4620      	mov	r0, r4
    6f12:	4629      	mov	r1, r5
    6f14:	f7fa fa10 	bl	1338 <__aeabi_dmul>
    6f18:	4604      	mov	r4, r0
    6f1a:	460d      	mov	r5, r1
    6f1c:	e7bf      	b.n	6e9e <_dtoa_r+0x4e6>
    6f1e:	bf00      	nop
    6f20:	0000c2f8 	.word	0x0000c2f8
    6f24:	0000c3c0 	.word	0x0000c3c0
    6f28:	3ff00000 	.word	0x3ff00000
    6f2c:	40240000 	.word	0x40240000
    6f30:	401c0000 	.word	0x401c0000
    6f34:	40140000 	.word	0x40140000
    6f38:	3fe00000 	.word	0x3fe00000
    6f3c:	eb03 03c2 	add.w	r3, r3, r2, lsl #3
    6f40:	e9d3 0100 	ldrd	r0, r1, [r3]
    6f44:	e9dd 2308 	ldrd	r2, r3, [sp, #32]
    6f48:	f7fa f9f6 	bl	1338 <__aeabi_dmul>
    6f4c:	e9dd 2304 	ldrd	r2, r3, [sp, #16]
    6f50:	9e0e      	ldr	r6, [sp, #56]	; 0x38
    6f52:	f8cd b040 	str.w	fp, [sp, #64]	; 0x40
    6f56:	46d3      	mov	fp, sl
    6f58:	f8cd 8054 	str.w	r8, [sp, #84]	; 0x54
    6f5c:	46a2      	mov	sl, r4
    6f5e:	46a8      	mov	r8, r5
    6f60:	4614      	mov	r4, r2
    6f62:	461d      	mov	r5, r3
    6f64:	e9cd 0108 	strd	r0, r1, [sp, #32]
    6f68:	4629      	mov	r1, r5
    6f6a:	4620      	mov	r0, r4
    6f6c:	f7fa fbf6 	bl	175c <__aeabi_d2iz>
    6f70:	9003      	str	r0, [sp, #12]
    6f72:	f7fa f97b 	bl	126c <__aeabi_i2d>
    6f76:	4602      	mov	r2, r0
    6f78:	460b      	mov	r3, r1
    6f7a:	4620      	mov	r0, r4
    6f7c:	4629      	mov	r1, r5
    6f7e:	f7fa f827 	bl	fd0 <__aeabi_dsub>
    6f82:	f8dd e034 	ldr.w	lr, [sp, #52]	; 0x34
    6f86:	f8dd c00c 	ldr.w	ip, [sp, #12]
    6f8a:	f10c 0c30 	add.w	ip, ip, #48	; 0x30
    6f8e:	e9cd 0104 	strd	r0, r1, [sp, #16]
    6f92:	f80e c006 	strb.w	ip, [lr, r6]
    6f96:	3601      	adds	r6, #1
    6f98:	42be      	cmp	r6, r7
    6f9a:	d12b      	bne.n	6ff4 <_dtoa_r+0x63c>
    6f9c:	2200      	movs	r2, #0
    6f9e:	4b81      	ldr	r3, [pc, #516]	; (71a4 <_dtoa_r+0x7ec>)
    6fa0:	e9dd 0108 	ldrd	r0, r1, [sp, #32]
    6fa4:	4476      	add	r6, lr
    6fa6:	f7fa f815 	bl	fd4 <__adddf3>
    6faa:	4654      	mov	r4, sl
    6fac:	4645      	mov	r5, r8
    6fae:	46da      	mov	sl, fp
    6fb0:	f8dd 8054 	ldr.w	r8, [sp, #84]	; 0x54
    6fb4:	f8dd b040 	ldr.w	fp, [sp, #64]	; 0x40
    6fb8:	4602      	mov	r2, r0
    6fba:	460b      	mov	r3, r1
    6fbc:	e9dd 0104 	ldrd	r0, r1, [sp, #16]
    6fc0:	f004 fb26 	bl	b610 <__aeabi_dcmpgt>
    6fc4:	2800      	cmp	r0, #0
    6fc6:	f040 8096 	bne.w	70f6 <_dtoa_r+0x73e>
    6fca:	e9dd 2308 	ldrd	r2, r3, [sp, #32]
    6fce:	2000      	movs	r0, #0
    6fd0:	4974      	ldr	r1, [pc, #464]	; (71a4 <_dtoa_r+0x7ec>)
    6fd2:	f7f9 fffd 	bl	fd0 <__aeabi_dsub>
    6fd6:	4602      	mov	r2, r0
    6fd8:	460b      	mov	r3, r1
    6fda:	e9dd 0104 	ldrd	r0, r1, [sp, #16]
    6fde:	f004 faf9 	bl	b5d4 <__aeabi_dcmplt>
    6fe2:	b1a8      	cbz	r0, 7010 <_dtoa_r+0x658>
    6fe4:	4633      	mov	r3, r6
    6fe6:	f813 2c01 	ldrb.w	r2, [r3, #-1]
    6fea:	461e      	mov	r6, r3
    6fec:	3b01      	subs	r3, #1
    6fee:	2a30      	cmp	r2, #48	; 0x30
    6ff0:	d0f9      	beq.n	6fe6 <_dtoa_r+0x62e>
    6ff2:	e2cc      	b.n	758e <_dtoa_r+0xbd6>
    6ff4:	2200      	movs	r2, #0
    6ff6:	4b6c      	ldr	r3, [pc, #432]	; (71a8 <_dtoa_r+0x7f0>)
    6ff8:	f7fa f99e 	bl	1338 <__aeabi_dmul>
    6ffc:	4604      	mov	r4, r0
    6ffe:	460d      	mov	r5, r1
    7000:	e7b2      	b.n	6f68 <_dtoa_r+0x5b0>
    7002:	4654      	mov	r4, sl
    7004:	4645      	mov	r5, r8
    7006:	46da      	mov	sl, fp
    7008:	f8dd 805c 	ldr.w	r8, [sp, #92]	; 0x5c
    700c:	f8dd b054 	ldr.w	fp, [sp, #84]	; 0x54
    7010:	e9dd 2312 	ldrd	r2, r3, [sp, #72]	; 0x48
    7014:	e9cd 2304 	strd	r2, r3, [sp, #16]
    7018:	9a18      	ldr	r2, [sp, #96]	; 0x60
    701a:	2a00      	cmp	r2, #0
    701c:	f2c0 808a 	blt.w	7134 <_dtoa_r+0x77c>
    7020:	2c0e      	cmp	r4, #14
    7022:	f300 8087 	bgt.w	7134 <_dtoa_r+0x77c>
    7026:	4b61      	ldr	r3, [pc, #388]	; (71ac <_dtoa_r+0x7f4>)
    7028:	eb03 03c4 	add.w	r3, r3, r4, lsl #3
    702c:	e9d3 0100 	ldrd	r0, r1, [r3]
    7030:	e9cd 0106 	strd	r0, r1, [sp, #24]
    7034:	9925      	ldr	r1, [sp, #148]	; 0x94
    7036:	2900      	cmp	r1, #0
    7038:	da14      	bge.n	7064 <_dtoa_r+0x6ac>
    703a:	f1ba 0f00 	cmp.w	sl, #0
    703e:	dc11      	bgt.n	7064 <_dtoa_r+0x6ac>
    7040:	f040 8188 	bne.w	7354 <_dtoa_r+0x99c>
    7044:	2200      	movs	r2, #0
    7046:	4b5a      	ldr	r3, [pc, #360]	; (71b0 <_dtoa_r+0x7f8>)
    7048:	e9dd 0106 	ldrd	r0, r1, [sp, #24]
    704c:	f7fa f974 	bl	1338 <__aeabi_dmul>
    7050:	e9dd 2304 	ldrd	r2, r3, [sp, #16]
    7054:	f004 fad2 	bl	b5fc <__aeabi_dcmpge>
    7058:	2800      	cmp	r0, #0
    705a:	f040 817f 	bne.w	735c <_dtoa_r+0x9a4>
    705e:	46d0      	mov	r8, sl
    7060:	4657      	mov	r7, sl
    7062:	e183      	b.n	736c <_dtoa_r+0x9b4>
    7064:	e9dd 2304 	ldrd	r2, r3, [sp, #16]
    7068:	f8dd 8034 	ldr.w	r8, [sp, #52]	; 0x34
    706c:	469b      	mov	fp, r3
    706e:	9404      	str	r4, [sp, #16]
    7070:	44c2      	add	sl, r8
    7072:	f8cd a030 	str.w	sl, [sp, #48]	; 0x30
    7076:	4692      	mov	sl, r2
    7078:	e9dd 2306 	ldrd	r2, r3, [sp, #24]
    707c:	4650      	mov	r0, sl
    707e:	4659      	mov	r1, fp
    7080:	4646      	mov	r6, r8
    7082:	f7fa fa83 	bl	158c <__aeabi_ddiv>
    7086:	f7fa fb69 	bl	175c <__aeabi_d2iz>
    708a:	4607      	mov	r7, r0
    708c:	f7fa f8ee 	bl	126c <__aeabi_i2d>
    7090:	e9dd 2306 	ldrd	r2, r3, [sp, #24]
    7094:	f7fa f950 	bl	1338 <__aeabi_dmul>
    7098:	4602      	mov	r2, r0
    709a:	460b      	mov	r3, r1
    709c:	4650      	mov	r0, sl
    709e:	4659      	mov	r1, fp
    70a0:	f7f9 ff96 	bl	fd0 <__aeabi_dsub>
    70a4:	f107 0330 	add.w	r3, r7, #48	; 0x30
    70a8:	f806 3b01 	strb.w	r3, [r6], #1
    70ac:	46b0      	mov	r8, r6
    70ae:	9a0c      	ldr	r2, [sp, #48]	; 0x30
    70b0:	4296      	cmp	r6, r2
    70b2:	d12d      	bne.n	7110 <_dtoa_r+0x758>
    70b4:	4602      	mov	r2, r0
    70b6:	460b      	mov	r3, r1
    70b8:	f7f9 ff8c 	bl	fd4 <__adddf3>
    70bc:	e9dd 2306 	ldrd	r2, r3, [sp, #24]
    70c0:	9c04      	ldr	r4, [sp, #16]
    70c2:	4682      	mov	sl, r0
    70c4:	468b      	mov	fp, r1
    70c6:	f004 faa3 	bl	b610 <__aeabi_dcmpgt>
    70ca:	b9a8      	cbnz	r0, 70f8 <_dtoa_r+0x740>
    70cc:	4650      	mov	r0, sl
    70ce:	4659      	mov	r1, fp
    70d0:	e9dd 2306 	ldrd	r2, r3, [sp, #24]
    70d4:	f004 fa74 	bl	b5c0 <__aeabi_dcmpeq>
    70d8:	2800      	cmp	r0, #0
    70da:	f000 8259 	beq.w	7590 <_dtoa_r+0xbd8>
    70de:	f017 0f01 	tst.w	r7, #1
    70e2:	d109      	bne.n	70f8 <_dtoa_r+0x740>
    70e4:	e254      	b.n	7590 <_dtoa_r+0xbd8>
    70e6:	980d      	ldr	r0, [sp, #52]	; 0x34
    70e8:	4282      	cmp	r2, r0
    70ea:	d106      	bne.n	70fa <_dtoa_r+0x742>
    70ec:	2230      	movs	r2, #48	; 0x30
    70ee:	3401      	adds	r4, #1
    70f0:	7002      	strb	r2, [r0, #0]
    70f2:	e009      	b.n	7108 <_dtoa_r+0x750>
    70f4:	4645      	mov	r5, r8
    70f6:	9c0a      	ldr	r4, [sp, #40]	; 0x28
    70f8:	4632      	mov	r2, r6
    70fa:	f812 1c01 	ldrb.w	r1, [r2, #-1]
    70fe:	1e53      	subs	r3, r2, #1
    7100:	4616      	mov	r6, r2
    7102:	461a      	mov	r2, r3
    7104:	2939      	cmp	r1, #57	; 0x39
    7106:	d0ee      	beq.n	70e6 <_dtoa_r+0x72e>
    7108:	781a      	ldrb	r2, [r3, #0]
    710a:	3201      	adds	r2, #1
    710c:	701a      	strb	r2, [r3, #0]
    710e:	e23f      	b.n	7590 <_dtoa_r+0xbd8>
    7110:	2200      	movs	r2, #0
    7112:	4b25      	ldr	r3, [pc, #148]	; (71a8 <_dtoa_r+0x7f0>)
    7114:	f7fa f910 	bl	1338 <__aeabi_dmul>
    7118:	2200      	movs	r2, #0
    711a:	2300      	movs	r3, #0
    711c:	2401      	movs	r4, #1
    711e:	4682      	mov	sl, r0
    7120:	468b      	mov	fp, r1
    7122:	f004 fa4d 	bl	b5c0 <__aeabi_dcmpeq>
    7126:	b100      	cbz	r0, 712a <_dtoa_r+0x772>
    7128:	2400      	movs	r4, #0
    712a:	f014 0fff 	tst.w	r4, #255	; 0xff
    712e:	d1a3      	bne.n	7078 <_dtoa_r+0x6c0>
    7130:	9c04      	ldr	r4, [sp, #16]
    7132:	e22d      	b.n	7590 <_dtoa_r+0xbd8>
    7134:	990e      	ldr	r1, [sp, #56]	; 0x38
    7136:	2900      	cmp	r1, #0
    7138:	d03c      	beq.n	71b4 <_dtoa_r+0x7fc>
    713a:	9b24      	ldr	r3, [sp, #144]	; 0x90
    713c:	2b01      	cmp	r3, #1
    713e:	dc0b      	bgt.n	7158 <_dtoa_r+0x7a0>
    7140:	9816      	ldr	r0, [sp, #88]	; 0x58
    7142:	b118      	cbz	r0, 714c <_dtoa_r+0x794>
    7144:	f502 6286 	add.w	r2, r2, #1072	; 0x430
    7148:	3203      	adds	r2, #3
    714a:	e002      	b.n	7152 <_dtoa_r+0x79a>
    714c:	9a19      	ldr	r2, [sp, #100]	; 0x64
    714e:	f1c2 0236 	rsb	r2, r2, #54	; 0x36
    7152:	4643      	mov	r3, r8
    7154:	465e      	mov	r6, fp
    7156:	e016      	b.n	7186 <_dtoa_r+0x7ce>
    7158:	f10a 33ff 	add.w	r3, sl, #4294967295
    715c:	4598      	cmp	r8, r3
    715e:	db02      	blt.n	7166 <_dtoa_r+0x7ae>
    7160:	ebc3 0308 	rsb	r3, r3, r8
    7164:	e006      	b.n	7174 <_dtoa_r+0x7bc>
    7166:	990f      	ldr	r1, [sp, #60]	; 0x3c
    7168:	ebc8 0303 	rsb	r3, r8, r3
    716c:	4498      	add	r8, r3
    716e:	18c9      	adds	r1, r1, r3
    7170:	2300      	movs	r3, #0
    7172:	910f      	str	r1, [sp, #60]	; 0x3c
    7174:	f1ba 0f00 	cmp.w	sl, #0
    7178:	da03      	bge.n	7182 <_dtoa_r+0x7ca>
    717a:	ebca 060b 	rsb	r6, sl, fp
    717e:	2200      	movs	r2, #0
    7180:	e001      	b.n	7186 <_dtoa_r+0x7ce>
    7182:	465e      	mov	r6, fp
    7184:	4652      	mov	r2, sl
    7186:	f8dd e018 	ldr.w	lr, [sp, #24]
    718a:	4628      	mov	r0, r5
    718c:	2101      	movs	r1, #1
    718e:	9302      	str	r3, [sp, #8]
    7190:	4496      	add	lr, r2
    7192:	4493      	add	fp, r2
    7194:	f8cd e018 	str.w	lr, [sp, #24]
    7198:	f000 ff4b 	bl	8032 <__i2b>
    719c:	9b02      	ldr	r3, [sp, #8]
    719e:	4607      	mov	r7, r0
    71a0:	e00b      	b.n	71ba <_dtoa_r+0x802>
    71a2:	bf00      	nop
    71a4:	3fe00000 	.word	0x3fe00000
    71a8:	40240000 	.word	0x40240000
    71ac:	0000c2f8 	.word	0x0000c2f8
    71b0:	40140000 	.word	0x40140000
    71b4:	9f0e      	ldr	r7, [sp, #56]	; 0x38
    71b6:	4643      	mov	r3, r8
    71b8:	465e      	mov	r6, fp
    71ba:	b15e      	cbz	r6, 71d4 <_dtoa_r+0x81c>
    71bc:	9806      	ldr	r0, [sp, #24]
    71be:	2800      	cmp	r0, #0
    71c0:	dd08      	ble.n	71d4 <_dtoa_r+0x81c>
    71c2:	4602      	mov	r2, r0
    71c4:	42b2      	cmp	r2, r6
    71c6:	bfa8      	it	ge
    71c8:	4632      	movge	r2, r6
    71ca:	ebc2 0b0b 	rsb	fp, r2, fp
    71ce:	1ab6      	subs	r6, r6, r2
    71d0:	1a80      	subs	r0, r0, r2
    71d2:	9006      	str	r0, [sp, #24]
    71d4:	f1b8 0f00 	cmp.w	r8, #0
    71d8:	dd24      	ble.n	7224 <_dtoa_r+0x86c>
    71da:	990e      	ldr	r1, [sp, #56]	; 0x38
    71dc:	b1e1      	cbz	r1, 7218 <_dtoa_r+0x860>
    71de:	2b00      	cmp	r3, #0
    71e0:	dd14      	ble.n	720c <_dtoa_r+0x854>
    71e2:	461a      	mov	r2, r3
    71e4:	4639      	mov	r1, r7
    71e6:	4628      	mov	r0, r5
    71e8:	9302      	str	r3, [sp, #8]
    71ea:	f000 ffbd 	bl	8168 <__pow5mult>
    71ee:	464a      	mov	r2, r9
    71f0:	4607      	mov	r7, r0
    71f2:	4628      	mov	r0, r5
    71f4:	4639      	mov	r1, r7
    71f6:	f000 ff25 	bl	8044 <__multiply>
    71fa:	4649      	mov	r1, r9
    71fc:	4602      	mov	r2, r0
    71fe:	4628      	mov	r0, r5
    7200:	9203      	str	r2, [sp, #12]
    7202:	f000 fe31 	bl	7e68 <_Bfree>
    7206:	9a03      	ldr	r2, [sp, #12]
    7208:	9b02      	ldr	r3, [sp, #8]
    720a:	4691      	mov	r9, r2
    720c:	ebb8 0203 	subs.w	r2, r8, r3
    7210:	d008      	beq.n	7224 <_dtoa_r+0x86c>
    7212:	4628      	mov	r0, r5
    7214:	4649      	mov	r1, r9
    7216:	e002      	b.n	721e <_dtoa_r+0x866>
    7218:	4628      	mov	r0, r5
    721a:	4649      	mov	r1, r9
    721c:	4642      	mov	r2, r8
    721e:	f000 ffa3 	bl	8168 <__pow5mult>
    7222:	4681      	mov	r9, r0
    7224:	2101      	movs	r1, #1
    7226:	4628      	mov	r0, r5
    7228:	f000 ff03 	bl	8032 <__i2b>
    722c:	9a0f      	ldr	r2, [sp, #60]	; 0x3c
    722e:	2a00      	cmp	r2, #0
    7230:	4680      	mov	r8, r0
    7232:	dd04      	ble.n	723e <_dtoa_r+0x886>
    7234:	4641      	mov	r1, r8
    7236:	4628      	mov	r0, r5
    7238:	f000 ff96 	bl	8168 <__pow5mult>
    723c:	4680      	mov	r8, r0
    723e:	9b24      	ldr	r3, [sp, #144]	; 0x90
    7240:	2b01      	cmp	r3, #1
    7242:	dc13      	bgt.n	726c <_dtoa_r+0x8b4>
    7244:	9804      	ldr	r0, [sp, #16]
    7246:	b998      	cbnz	r0, 7270 <_dtoa_r+0x8b8>
    7248:	9a05      	ldr	r2, [sp, #20]
    724a:	f022 437f 	bic.w	r3, r2, #4278190080	; 0xff000000
    724e:	f423 0370 	bic.w	r3, r3, #15728640	; 0xf00000
    7252:	b983      	cbnz	r3, 7276 <_dtoa_r+0x8be>
    7254:	4b8c      	ldr	r3, [pc, #560]	; (7488 <_dtoa_r+0xad0>)
    7256:	ea02 0303 	and.w	r3, r2, r3
    725a:	b17b      	cbz	r3, 727c <_dtoa_r+0x8c4>
    725c:	9906      	ldr	r1, [sp, #24]
    725e:	2201      	movs	r2, #1
    7260:	f10b 0b01 	add.w	fp, fp, #1
    7264:	920a      	str	r2, [sp, #40]	; 0x28
    7266:	3101      	adds	r1, #1
    7268:	9106      	str	r1, [sp, #24]
    726a:	e008      	b.n	727e <_dtoa_r+0x8c6>
    726c:	2300      	movs	r3, #0
    726e:	e005      	b.n	727c <_dtoa_r+0x8c4>
    7270:	2000      	movs	r0, #0
    7272:	900a      	str	r0, [sp, #40]	; 0x28
    7274:	e003      	b.n	727e <_dtoa_r+0x8c6>
    7276:	9904      	ldr	r1, [sp, #16]
    7278:	910a      	str	r1, [sp, #40]	; 0x28
    727a:	e000      	b.n	727e <_dtoa_r+0x8c6>
    727c:	930a      	str	r3, [sp, #40]	; 0x28
    727e:	9a0f      	ldr	r2, [sp, #60]	; 0x3c
    7280:	b14a      	cbz	r2, 7296 <_dtoa_r+0x8de>
    7282:	f8d8 3010 	ldr.w	r3, [r8, #16]
    7286:	eb08 0383 	add.w	r3, r8, r3, lsl #2
    728a:	6918      	ldr	r0, [r3, #16]
    728c:	f000 fe7f 	bl	7f8e <__hi0bits>
    7290:	f1c0 0320 	rsb	r3, r0, #32
    7294:	e000      	b.n	7298 <_dtoa_r+0x8e0>
    7296:	2301      	movs	r3, #1
    7298:	f8dd e018 	ldr.w	lr, [sp, #24]
    729c:	4473      	add	r3, lr
    729e:	f013 031f 	ands.w	r3, r3, #31
    72a2:	d00b      	beq.n	72bc <_dtoa_r+0x904>
    72a4:	f1c3 0320 	rsb	r3, r3, #32
    72a8:	2b04      	cmp	r3, #4
    72aa:	dd06      	ble.n	72ba <_dtoa_r+0x902>
    72ac:	3b04      	subs	r3, #4
    72ae:	449e      	add	lr, r3
    72b0:	449b      	add	fp, r3
    72b2:	18f6      	adds	r6, r6, r3
    72b4:	f8cd e018 	str.w	lr, [sp, #24]
    72b8:	e006      	b.n	72c8 <_dtoa_r+0x910>
    72ba:	d005      	beq.n	72c8 <_dtoa_r+0x910>
    72bc:	331c      	adds	r3, #28
    72be:	9806      	ldr	r0, [sp, #24]
    72c0:	449b      	add	fp, r3
    72c2:	18f6      	adds	r6, r6, r3
    72c4:	18c0      	adds	r0, r0, r3
    72c6:	9006      	str	r0, [sp, #24]
    72c8:	f1bb 0f00 	cmp.w	fp, #0
    72cc:	dd05      	ble.n	72da <_dtoa_r+0x922>
    72ce:	4649      	mov	r1, r9
    72d0:	4628      	mov	r0, r5
    72d2:	465a      	mov	r2, fp
    72d4:	f000 ff9a 	bl	820c <__lshift>
    72d8:	4681      	mov	r9, r0
    72da:	9906      	ldr	r1, [sp, #24]
    72dc:	2900      	cmp	r1, #0
    72de:	dd05      	ble.n	72ec <_dtoa_r+0x934>
    72e0:	4641      	mov	r1, r8
    72e2:	4628      	mov	r0, r5
    72e4:	9a06      	ldr	r2, [sp, #24]
    72e6:	f000 ff91 	bl	820c <__lshift>
    72ea:	4680      	mov	r8, r0
    72ec:	9a11      	ldr	r2, [sp, #68]	; 0x44
    72ee:	b1c2      	cbz	r2, 7322 <_dtoa_r+0x96a>
    72f0:	4648      	mov	r0, r9
    72f2:	4641      	mov	r1, r8
    72f4:	f000 ffd6 	bl	82a4 <__mcmp>
    72f8:	2800      	cmp	r0, #0
    72fa:	da12      	bge.n	7322 <_dtoa_r+0x96a>
    72fc:	4649      	mov	r1, r9
    72fe:	2300      	movs	r3, #0
    7300:	4628      	mov	r0, r5
    7302:	220a      	movs	r2, #10
    7304:	f000 fdc7 	bl	7e96 <__multadd>
    7308:	9b0e      	ldr	r3, [sp, #56]	; 0x38
    730a:	3c01      	subs	r4, #1
    730c:	4681      	mov	r9, r0
    730e:	b133      	cbz	r3, 731e <_dtoa_r+0x966>
    7310:	4639      	mov	r1, r7
    7312:	4628      	mov	r0, r5
    7314:	220a      	movs	r2, #10
    7316:	2300      	movs	r3, #0
    7318:	f000 fdbd 	bl	7e96 <__multadd>
    731c:	4607      	mov	r7, r0
    731e:	f8dd a030 	ldr.w	sl, [sp, #48]	; 0x30
    7322:	f1ba 0f00 	cmp.w	sl, #0
    7326:	dc29      	bgt.n	737c <_dtoa_r+0x9c4>
    7328:	9824      	ldr	r0, [sp, #144]	; 0x90
    732a:	2802      	cmp	r0, #2
    732c:	dd26      	ble.n	737c <_dtoa_r+0x9c4>
    732e:	f1ba 0f00 	cmp.w	sl, #0
    7332:	d115      	bne.n	7360 <_dtoa_r+0x9a8>
    7334:	4641      	mov	r1, r8
    7336:	2205      	movs	r2, #5
    7338:	4653      	mov	r3, sl
    733a:	4628      	mov	r0, r5
    733c:	f000 fdab 	bl	7e96 <__multadd>
    7340:	4680      	mov	r8, r0
    7342:	4648      	mov	r0, r9
    7344:	4641      	mov	r1, r8
    7346:	f000 ffad 	bl	82a4 <__mcmp>
    734a:	2800      	cmp	r0, #0
    734c:	dc0e      	bgt.n	736c <_dtoa_r+0x9b4>
    734e:	e007      	b.n	7360 <_dtoa_r+0x9a8>
    7350:	46b8      	mov	r8, r7
    7352:	e005      	b.n	7360 <_dtoa_r+0x9a8>
    7354:	f04f 0800 	mov.w	r8, #0
    7358:	4647      	mov	r7, r8
    735a:	e001      	b.n	7360 <_dtoa_r+0x9a8>
    735c:	46d0      	mov	r8, sl
    735e:	4657      	mov	r7, sl
    7360:	9925      	ldr	r1, [sp, #148]	; 0x94
    7362:	9e0d      	ldr	r6, [sp, #52]	; 0x34
    7364:	43cc      	mvns	r4, r1
    7366:	e006      	b.n	7376 <_dtoa_r+0x9be>
    7368:	9c0a      	ldr	r4, [sp, #40]	; 0x28
    736a:	46b8      	mov	r8, r7
    736c:	9e0d      	ldr	r6, [sp, #52]	; 0x34
    736e:	3401      	adds	r4, #1
    7370:	2331      	movs	r3, #49	; 0x31
    7372:	f806 3b01 	strb.w	r3, [r6], #1
    7376:	f04f 0a00 	mov.w	sl, #0
    737a:	e0f4      	b.n	7566 <_dtoa_r+0xbae>
    737c:	9a0e      	ldr	r2, [sp, #56]	; 0x38
    737e:	2a00      	cmp	r2, #0
    7380:	f000 80aa 	beq.w	74d8 <_dtoa_r+0xb20>
    7384:	2e00      	cmp	r6, #0
    7386:	dd05      	ble.n	7394 <_dtoa_r+0x9dc>
    7388:	4639      	mov	r1, r7
    738a:	4628      	mov	r0, r5
    738c:	4632      	mov	r2, r6
    738e:	f000 ff3d 	bl	820c <__lshift>
    7392:	4607      	mov	r7, r0
    7394:	9b0a      	ldr	r3, [sp, #40]	; 0x28
    7396:	b193      	cbz	r3, 73be <_dtoa_r+0xa06>
    7398:	6879      	ldr	r1, [r7, #4]
    739a:	4628      	mov	r0, r5
    739c:	f000 fd33 	bl	7e06 <_Balloc>
    73a0:	693a      	ldr	r2, [r7, #16]
    73a2:	f107 010c 	add.w	r1, r7, #12
    73a6:	3202      	adds	r2, #2
    73a8:	0092      	lsls	r2, r2, #2
    73aa:	4606      	mov	r6, r0
    73ac:	300c      	adds	r0, #12
    73ae:	f7fb f94f 	bl	2650 <memcpy>
    73b2:	4628      	mov	r0, r5
    73b4:	4631      	mov	r1, r6
    73b6:	2201      	movs	r2, #1
    73b8:	f000 ff28 	bl	820c <__lshift>
    73bc:	e000      	b.n	73c0 <_dtoa_r+0xa08>
    73be:	4638      	mov	r0, r7
    73c0:	9e0d      	ldr	r6, [sp, #52]	; 0x34
    73c2:	9406      	str	r4, [sp, #24]
    73c4:	44b2      	add	sl, r6
    73c6:	f8cd a038 	str.w	sl, [sp, #56]	; 0x38
    73ca:	46ba      	mov	sl, r7
    73cc:	4607      	mov	r7, r0
    73ce:	4641      	mov	r1, r8
    73d0:	4648      	mov	r0, r9
    73d2:	f7ff fa5d 	bl	6890 <quorem>
    73d6:	4651      	mov	r1, sl
    73d8:	f100 0b30 	add.w	fp, r0, #48	; 0x30
    73dc:	4648      	mov	r0, r9
    73de:	f000 ff61 	bl	82a4 <__mcmp>
    73e2:	463a      	mov	r2, r7
    73e4:	4641      	mov	r1, r8
    73e6:	900c      	str	r0, [sp, #48]	; 0x30
    73e8:	4628      	mov	r0, r5
    73ea:	f000 ff78 	bl	82de <__mdiff>
    73ee:	68c2      	ldr	r2, [r0, #12]
    73f0:	4603      	mov	r3, r0
    73f2:	b93a      	cbnz	r2, 7404 <_dtoa_r+0xa4c>
    73f4:	4619      	mov	r1, r3
    73f6:	4648      	mov	r0, r9
    73f8:	9302      	str	r3, [sp, #8]
    73fa:	f000 ff53 	bl	82a4 <__mcmp>
    73fe:	9b02      	ldr	r3, [sp, #8]
    7400:	4604      	mov	r4, r0
    7402:	e000      	b.n	7406 <_dtoa_r+0xa4e>
    7404:	2401      	movs	r4, #1
    7406:	4628      	mov	r0, r5
    7408:	4619      	mov	r1, r3
    740a:	f000 fd2d 	bl	7e68 <_Bfree>
    740e:	b96c      	cbnz	r4, 742c <_dtoa_r+0xa74>
    7410:	9824      	ldr	r0, [sp, #144]	; 0x90
    7412:	b958      	cbnz	r0, 742c <_dtoa_r+0xa74>
    7414:	9904      	ldr	r1, [sp, #16]
    7416:	f001 0301 	and.w	r3, r1, #1
    741a:	b93b      	cbnz	r3, 742c <_dtoa_r+0xa74>
    741c:	f1bb 0f39 	cmp.w	fp, #57	; 0x39
    7420:	9c06      	ldr	r4, [sp, #24]
    7422:	d027      	beq.n	7474 <_dtoa_r+0xabc>
    7424:	9a0c      	ldr	r2, [sp, #48]	; 0x30
    7426:	2a00      	cmp	r2, #0
    7428:	dc29      	bgt.n	747e <_dtoa_r+0xac6>
    742a:	e02a      	b.n	7482 <_dtoa_r+0xaca>
    742c:	9b0c      	ldr	r3, [sp, #48]	; 0x30
    742e:	2b00      	cmp	r3, #0
    7430:	db06      	blt.n	7440 <_dtoa_r+0xa88>
    7432:	d119      	bne.n	7468 <_dtoa_r+0xab0>
    7434:	9824      	ldr	r0, [sp, #144]	; 0x90
    7436:	b9b8      	cbnz	r0, 7468 <_dtoa_r+0xab0>
    7438:	9904      	ldr	r1, [sp, #16]
    743a:	f001 0301 	and.w	r3, r1, #1
    743e:	b99b      	cbnz	r3, 7468 <_dtoa_r+0xab0>
    7440:	4622      	mov	r2, r4
    7442:	9c06      	ldr	r4, [sp, #24]
    7444:	2a00      	cmp	r2, #0
    7446:	dd1c      	ble.n	7482 <_dtoa_r+0xaca>
    7448:	4649      	mov	r1, r9
    744a:	2201      	movs	r2, #1
    744c:	4628      	mov	r0, r5
    744e:	f000 fedd 	bl	820c <__lshift>
    7452:	4641      	mov	r1, r8
    7454:	4681      	mov	r9, r0
    7456:	f000 ff25 	bl	82a4 <__mcmp>
    745a:	2800      	cmp	r0, #0
    745c:	dc07      	bgt.n	746e <_dtoa_r+0xab6>
    745e:	d110      	bne.n	7482 <_dtoa_r+0xaca>
    7460:	f01b 0f01 	tst.w	fp, #1
    7464:	d00d      	beq.n	7482 <_dtoa_r+0xaca>
    7466:	e002      	b.n	746e <_dtoa_r+0xab6>
    7468:	2c00      	cmp	r4, #0
    746a:	dd0f      	ble.n	748c <_dtoa_r+0xad4>
    746c:	9c06      	ldr	r4, [sp, #24]
    746e:	f1bb 0f39 	cmp.w	fp, #57	; 0x39
    7472:	d104      	bne.n	747e <_dtoa_r+0xac6>
    7474:	4633      	mov	r3, r6
    7476:	2239      	movs	r2, #57	; 0x39
    7478:	f803 2b01 	strb.w	r2, [r3], #1
    747c:	e065      	b.n	754a <_dtoa_r+0xb92>
    747e:	f10b 0b01 	add.w	fp, fp, #1
    7482:	f806 bb01 	strb.w	fp, [r6], #1
    7486:	e06e      	b.n	7566 <_dtoa_r+0xbae>
    7488:	7ff00000 	.word	0x7ff00000
    748c:	f806 bb01 	strb.w	fp, [r6], #1
    7490:	4633      	mov	r3, r6
    7492:	9a0e      	ldr	r2, [sp, #56]	; 0x38
    7494:	4296      	cmp	r6, r2
    7496:	d03e      	beq.n	7516 <_dtoa_r+0xb5e>
    7498:	4649      	mov	r1, r9
    749a:	220a      	movs	r2, #10
    749c:	2300      	movs	r3, #0
    749e:	4628      	mov	r0, r5
    74a0:	f000 fcf9 	bl	7e96 <__multadd>
    74a4:	45ba      	cmp	sl, r7
    74a6:	4681      	mov	r9, r0
    74a8:	d107      	bne.n	74ba <_dtoa_r+0xb02>
    74aa:	4651      	mov	r1, sl
    74ac:	4628      	mov	r0, r5
    74ae:	220a      	movs	r2, #10
    74b0:	2300      	movs	r3, #0
    74b2:	f000 fcf0 	bl	7e96 <__multadd>
    74b6:	4682      	mov	sl, r0
    74b8:	e00c      	b.n	74d4 <_dtoa_r+0xb1c>
    74ba:	4651      	mov	r1, sl
    74bc:	220a      	movs	r2, #10
    74be:	2300      	movs	r3, #0
    74c0:	4628      	mov	r0, r5
    74c2:	f000 fce8 	bl	7e96 <__multadd>
    74c6:	4639      	mov	r1, r7
    74c8:	220a      	movs	r2, #10
    74ca:	2300      	movs	r3, #0
    74cc:	4682      	mov	sl, r0
    74ce:	4628      	mov	r0, r5
    74d0:	f000 fce1 	bl	7e96 <__multadd>
    74d4:	4607      	mov	r7, r0
    74d6:	e77a      	b.n	73ce <_dtoa_r+0xa16>
    74d8:	f04f 0c01 	mov.w	ip, #1
    74dc:	9e0d      	ldr	r6, [sp, #52]	; 0x34
    74de:	46cb      	mov	fp, r9
    74e0:	46a1      	mov	r9, r4
    74e2:	4664      	mov	r4, ip
    74e4:	4658      	mov	r0, fp
    74e6:	4641      	mov	r1, r8
    74e8:	f7ff f9d2 	bl	6890 <quorem>
    74ec:	3030      	adds	r0, #48	; 0x30
    74ee:	4554      	cmp	r4, sl
    74f0:	f806 0b01 	strb.w	r0, [r6], #1
    74f4:	4633      	mov	r3, r6
    74f6:	da08      	bge.n	750a <_dtoa_r+0xb52>
    74f8:	4659      	mov	r1, fp
    74fa:	4628      	mov	r0, r5
    74fc:	220a      	movs	r2, #10
    74fe:	2300      	movs	r3, #0
    7500:	f000 fcc9 	bl	7e96 <__multadd>
    7504:	3401      	adds	r4, #1
    7506:	4683      	mov	fp, r0
    7508:	e7ec      	b.n	74e4 <_dtoa_r+0xb2c>
    750a:	464c      	mov	r4, r9
    750c:	f04f 0a00 	mov.w	sl, #0
    7510:	46d9      	mov	r9, fp
    7512:	4683      	mov	fp, r0
    7514:	e000      	b.n	7518 <_dtoa_r+0xb60>
    7516:	9c06      	ldr	r4, [sp, #24]
    7518:	4649      	mov	r1, r9
    751a:	2201      	movs	r2, #1
    751c:	4628      	mov	r0, r5
    751e:	9302      	str	r3, [sp, #8]
    7520:	f000 fe74 	bl	820c <__lshift>
    7524:	4641      	mov	r1, r8
    7526:	4681      	mov	r9, r0
    7528:	f000 febc 	bl	82a4 <__mcmp>
    752c:	9b02      	ldr	r3, [sp, #8]
    752e:	2800      	cmp	r0, #0
    7530:	dc0b      	bgt.n	754a <_dtoa_r+0xb92>
    7532:	d113      	bne.n	755c <_dtoa_r+0xba4>
    7534:	f01b 0f01 	tst.w	fp, #1
    7538:	d107      	bne.n	754a <_dtoa_r+0xb92>
    753a:	e00f      	b.n	755c <_dtoa_r+0xba4>
    753c:	980d      	ldr	r0, [sp, #52]	; 0x34
    753e:	4283      	cmp	r3, r0
    7540:	d103      	bne.n	754a <_dtoa_r+0xb92>
    7542:	2331      	movs	r3, #49	; 0x31
    7544:	3401      	adds	r4, #1
    7546:	7003      	strb	r3, [r0, #0]
    7548:	e00d      	b.n	7566 <_dtoa_r+0xbae>
    754a:	f813 2c01 	ldrb.w	r2, [r3, #-1]
    754e:	461e      	mov	r6, r3
    7550:	3b01      	subs	r3, #1
    7552:	2a39      	cmp	r2, #57	; 0x39
    7554:	d0f2      	beq.n	753c <_dtoa_r+0xb84>
    7556:	3201      	adds	r2, #1
    7558:	701a      	strb	r2, [r3, #0]
    755a:	e004      	b.n	7566 <_dtoa_r+0xbae>
    755c:	461e      	mov	r6, r3
    755e:	f813 2d01 	ldrb.w	r2, [r3, #-1]!
    7562:	2a30      	cmp	r2, #48	; 0x30
    7564:	d0fa      	beq.n	755c <_dtoa_r+0xba4>
    7566:	4628      	mov	r0, r5
    7568:	4641      	mov	r1, r8
    756a:	f000 fc7d 	bl	7e68 <_Bfree>
    756e:	b17f      	cbz	r7, 7590 <_dtoa_r+0xbd8>
    7570:	f1ba 0f00 	cmp.w	sl, #0
    7574:	d005      	beq.n	7582 <_dtoa_r+0xbca>
    7576:	45ba      	cmp	sl, r7
    7578:	d003      	beq.n	7582 <_dtoa_r+0xbca>
    757a:	4628      	mov	r0, r5
    757c:	4651      	mov	r1, sl
    757e:	f000 fc73 	bl	7e68 <_Bfree>
    7582:	4628      	mov	r0, r5
    7584:	4639      	mov	r1, r7
    7586:	f000 fc6f 	bl	7e68 <_Bfree>
    758a:	e001      	b.n	7590 <_dtoa_r+0xbd8>
    758c:	4645      	mov	r5, r8
    758e:	9c0a      	ldr	r4, [sp, #40]	; 0x28
    7590:	4649      	mov	r1, r9
    7592:	4628      	mov	r0, r5
    7594:	f000 fc68 	bl	7e68 <_Bfree>
    7598:	2300      	movs	r3, #0
    759a:	7033      	strb	r3, [r6, #0]
    759c:	3401      	adds	r4, #1
    759e:	9926      	ldr	r1, [sp, #152]	; 0x98
    75a0:	9a28      	ldr	r2, [sp, #160]	; 0xa0
    75a2:	600c      	str	r4, [r1, #0]
    75a4:	b11a      	cbz	r2, 75ae <_dtoa_r+0xbf6>
    75a6:	6016      	str	r6, [r2, #0]
    75a8:	e001      	b.n	75ae <_dtoa_r+0xbf6>
    75aa:	4803      	ldr	r0, [pc, #12]	; (75b8 <_dtoa_r+0xc00>)
    75ac:	e000      	b.n	75b0 <_dtoa_r+0xbf8>
    75ae:	980d      	ldr	r0, [sp, #52]	; 0x34
    75b0:	b01b      	add	sp, #108	; 0x6c
    75b2:	e8bd 8ff0 	ldmia.w	sp!, {r4, r5, r6, r7, r8, r9, sl, fp, pc}
    75b6:	bf00      	nop
    75b8:	0000c0ba 	.word	0x0000c0ba
    75bc:	f3af 8000 	nop.w

000075c0 <_fflush_r>:
    75c0:	e92d 41f0 	stmdb	sp!, {r4, r5, r6, r7, r8, lr}
    75c4:	4605      	mov	r5, r0
    75c6:	690e      	ldr	r6, [r1, #16]
    75c8:	460c      	mov	r4, r1
    75ca:	2e00      	cmp	r6, #0
    75cc:	f000 80a7 	beq.w	771e <_fflush_r+0x15e>
    75d0:	b118      	cbz	r0, 75da <_fflush_r+0x1a>
    75d2:	6983      	ldr	r3, [r0, #24]
    75d4:	b90b      	cbnz	r3, 75da <_fflush_r+0x1a>
    75d6:	f000 f8fd 	bl	77d4 <__sinit>
    75da:	4b52      	ldr	r3, [pc, #328]	; (7724 <_fflush_r+0x164>)
    75dc:	429c      	cmp	r4, r3
    75de:	d101      	bne.n	75e4 <_fflush_r+0x24>
    75e0:	686c      	ldr	r4, [r5, #4]
    75e2:	e008      	b.n	75f6 <_fflush_r+0x36>
    75e4:	4b50      	ldr	r3, [pc, #320]	; (7728 <_fflush_r+0x168>)
    75e6:	429c      	cmp	r4, r3
    75e8:	d101      	bne.n	75ee <_fflush_r+0x2e>
    75ea:	68ac      	ldr	r4, [r5, #8]
    75ec:	e003      	b.n	75f6 <_fflush_r+0x36>
    75ee:	4b4f      	ldr	r3, [pc, #316]	; (772c <_fflush_r+0x16c>)
    75f0:	429c      	cmp	r4, r3
    75f2:	bf08      	it	eq
    75f4:	68ec      	ldreq	r4, [r5, #12]
    75f6:	89a2      	ldrh	r2, [r4, #12]
    75f8:	2a00      	cmp	r2, #0
    75fa:	f000 808d 	beq.w	7718 <_fflush_r+0x158>
    75fe:	b213      	sxth	r3, r2
    7600:	f013 0608 	ands.w	r6, r3, #8
    7604:	d163      	bne.n	76ce <_fflush_r+0x10e>
    7606:	f442 6300 	orr.w	r3, r2, #2048	; 0x800
    760a:	6862      	ldr	r2, [r4, #4]
    760c:	81a3      	strh	r3, [r4, #12]
    760e:	2a00      	cmp	r2, #0
    7610:	dc03      	bgt.n	761a <_fflush_r+0x5a>
    7612:	6c22      	ldr	r2, [r4, #64]	; 0x40
    7614:	2a00      	cmp	r2, #0
    7616:	f340 8082 	ble.w	771e <_fflush_r+0x15e>
    761a:	6ae6      	ldr	r6, [r4, #44]	; 0x2c
    761c:	2e00      	cmp	r6, #0
    761e:	d07e      	beq.n	771e <_fflush_r+0x15e>
    7620:	2200      	movs	r2, #0
    7622:	682f      	ldr	r7, [r5, #0]
    7624:	602a      	str	r2, [r5, #0]
    7626:	f413 5280 	ands.w	r2, r3, #4096	; 0x1000
    762a:	d001      	beq.n	7630 <_fflush_r+0x70>
    762c:	6d62      	ldr	r2, [r4, #84]	; 0x54
    762e:	e015      	b.n	765c <_fflush_r+0x9c>
    7630:	2301      	movs	r3, #1
    7632:	4628      	mov	r0, r5
    7634:	6a21      	ldr	r1, [r4, #32]
    7636:	47b0      	blx	r6
    7638:	f1b0 3fff 	cmp.w	r0, #4294967295
    763c:	4602      	mov	r2, r0
    763e:	d10d      	bne.n	765c <_fflush_r+0x9c>
    7640:	682b      	ldr	r3, [r5, #0]
    7642:	b15b      	cbz	r3, 765c <_fflush_r+0x9c>
    7644:	2b1d      	cmp	r3, #29
    7646:	d001      	beq.n	764c <_fflush_r+0x8c>
    7648:	2b16      	cmp	r3, #22
    764a:	d101      	bne.n	7650 <_fflush_r+0x90>
    764c:	602f      	str	r7, [r5, #0]
    764e:	e061      	b.n	7714 <_fflush_r+0x154>
    7650:	89a3      	ldrh	r3, [r4, #12]
    7652:	4606      	mov	r6, r0
    7654:	f043 0340 	orr.w	r3, r3, #64	; 0x40
    7658:	81a3      	strh	r3, [r4, #12]
    765a:	e060      	b.n	771e <_fflush_r+0x15e>
    765c:	89a3      	ldrh	r3, [r4, #12]
    765e:	f013 0f04 	tst.w	r3, #4
    7662:	d005      	beq.n	7670 <_fflush_r+0xb0>
    7664:	6863      	ldr	r3, [r4, #4]
    7666:	1ad2      	subs	r2, r2, r3
    7668:	6b63      	ldr	r3, [r4, #52]	; 0x34
    766a:	b10b      	cbz	r3, 7670 <_fflush_r+0xb0>
    766c:	6c23      	ldr	r3, [r4, #64]	; 0x40
    766e:	1ad2      	subs	r2, r2, r3
    7670:	2300      	movs	r3, #0
    7672:	6ae6      	ldr	r6, [r4, #44]	; 0x2c
    7674:	4628      	mov	r0, r5
    7676:	6a21      	ldr	r1, [r4, #32]
    7678:	47b0      	blx	r6
    767a:	f1b0 3fff 	cmp.w	r0, #4294967295
    767e:	d105      	bne.n	768c <_fflush_r+0xcc>
    7680:	682b      	ldr	r3, [r5, #0]
    7682:	2b1d      	cmp	r3, #29
    7684:	d839      	bhi.n	76fa <_fflush_r+0x13a>
    7686:	4a2a      	ldr	r2, [pc, #168]	; (7730 <_fflush_r+0x170>)
    7688:	409a      	lsls	r2, r3
    768a:	d536      	bpl.n	76fa <_fflush_r+0x13a>
    768c:	89a3      	ldrh	r3, [r4, #12]
    768e:	2200      	movs	r2, #0
    7690:	6062      	str	r2, [r4, #4]
    7692:	f423 6300 	bic.w	r3, r3, #2048	; 0x800
    7696:	6922      	ldr	r2, [r4, #16]
    7698:	041b      	lsls	r3, r3, #16
    769a:	6022      	str	r2, [r4, #0]
    769c:	0c1b      	lsrs	r3, r3, #16
    769e:	81a3      	strh	r3, [r4, #12]
    76a0:	f413 5f80 	tst.w	r3, #4096	; 0x1000
    76a4:	d005      	beq.n	76b2 <_fflush_r+0xf2>
    76a6:	f1b0 3fff 	cmp.w	r0, #4294967295
    76aa:	d101      	bne.n	76b0 <_fflush_r+0xf0>
    76ac:	682b      	ldr	r3, [r5, #0]
    76ae:	b903      	cbnz	r3, 76b2 <_fflush_r+0xf2>
    76b0:	6560      	str	r0, [r4, #84]	; 0x54
    76b2:	6b61      	ldr	r1, [r4, #52]	; 0x34
    76b4:	602f      	str	r7, [r5, #0]
    76b6:	2900      	cmp	r1, #0
    76b8:	d030      	beq.n	771c <_fflush_r+0x15c>
    76ba:	f104 0344 	add.w	r3, r4, #68	; 0x44
    76be:	4299      	cmp	r1, r3
    76c0:	d002      	beq.n	76c8 <_fflush_r+0x108>
    76c2:	4628      	mov	r0, r5
    76c4:	f000 f9b6 	bl	7a34 <_free_r>
    76c8:	2600      	movs	r6, #0
    76ca:	6366      	str	r6, [r4, #52]	; 0x34
    76cc:	e027      	b.n	771e <_fflush_r+0x15e>
    76ce:	6926      	ldr	r6, [r4, #16]
    76d0:	b32e      	cbz	r6, 771e <_fflush_r+0x15e>
    76d2:	f013 0f03 	tst.w	r3, #3
    76d6:	6822      	ldr	r2, [r4, #0]
    76d8:	6026      	str	r6, [r4, #0]
    76da:	bf08      	it	eq
    76dc:	6963      	ldreq	r3, [r4, #20]
    76de:	ebc6 0802 	rsb	r8, r6, r2
    76e2:	bf18      	it	ne
    76e4:	2300      	movne	r3, #0
    76e6:	60a3      	str	r3, [r4, #8]
    76e8:	e011      	b.n	770e <_fflush_r+0x14e>
    76ea:	6aa7      	ldr	r7, [r4, #40]	; 0x28
    76ec:	4628      	mov	r0, r5
    76ee:	6a21      	ldr	r1, [r4, #32]
    76f0:	4632      	mov	r2, r6
    76f2:	4643      	mov	r3, r8
    76f4:	47b8      	blx	r7
    76f6:	2800      	cmp	r0, #0
    76f8:	dc06      	bgt.n	7708 <_fflush_r+0x148>
    76fa:	89a3      	ldrh	r3, [r4, #12]
    76fc:	f04f 36ff 	mov.w	r6, #4294967295
    7700:	f043 0340 	orr.w	r3, r3, #64	; 0x40
    7704:	81a3      	strh	r3, [r4, #12]
    7706:	e00a      	b.n	771e <_fflush_r+0x15e>
    7708:	1836      	adds	r6, r6, r0
    770a:	ebc0 0808 	rsb	r8, r0, r8
    770e:	f1b8 0f00 	cmp.w	r8, #0
    7712:	dcea      	bgt.n	76ea <_fflush_r+0x12a>
    7714:	2600      	movs	r6, #0
    7716:	e002      	b.n	771e <_fflush_r+0x15e>
    7718:	4616      	mov	r6, r2
    771a:	e000      	b.n	771e <_fflush_r+0x15e>
    771c:	460e      	mov	r6, r1
    771e:	4630      	mov	r0, r6
    7720:	e8bd 81f0 	ldmia.w	sp!, {r4, r5, r6, r7, r8, pc}
    7724:	0000c280 	.word	0x0000c280
    7728:	0000c2a0 	.word	0x0000c2a0
    772c:	0000c2c0 	.word	0x0000c2c0
    7730:	80000204 	.word	0x80000204

00007734 <fflush>:
    7734:	4601      	mov	r1, r0
    7736:	b920      	cbnz	r0, 7742 <fflush+0xe>
    7738:	4b04      	ldr	r3, [pc, #16]	; (774c <fflush+0x18>)
    773a:	4905      	ldr	r1, [pc, #20]	; (7750 <fflush+0x1c>)
    773c:	6818      	ldr	r0, [r3, #0]
    773e:	f000 ba5b 	b.w	7bf8 <_fwalk_reent>
    7742:	4b04      	ldr	r3, [pc, #16]	; (7754 <fflush+0x20>)
    7744:	6818      	ldr	r0, [r3, #0]
    7746:	f7ff bf3b 	b.w	75c0 <_fflush_r>
    774a:	bf00      	nop
    774c:	0000c074 	.word	0x0000c074
    7750:	000075c1 	.word	0x000075c1
    7754:	1000010c 	.word	0x1000010c

00007758 <_cleanup_r>:
    7758:	4901      	ldr	r1, [pc, #4]	; (7760 <_cleanup_r+0x8>)
    775a:	f000 ba2b 	b.w	7bb4 <_fwalk>
    775e:	bf00      	nop
    7760:	0000a731 	.word	0x0000a731

00007764 <std.clone.0>:
    7764:	2300      	movs	r3, #0
    7766:	b510      	push	{r4, lr}
    7768:	4604      	mov	r4, r0
    776a:	6003      	str	r3, [r0, #0]
    776c:	6043      	str	r3, [r0, #4]
    776e:	6083      	str	r3, [r0, #8]
    7770:	8181      	strh	r1, [r0, #12]
    7772:	4619      	mov	r1, r3
    7774:	6643      	str	r3, [r0, #100]	; 0x64
    7776:	81c2      	strh	r2, [r0, #14]
    7778:	2208      	movs	r2, #8
    777a:	6103      	str	r3, [r0, #16]
    777c:	6143      	str	r3, [r0, #20]
    777e:	6183      	str	r3, [r0, #24]
    7780:	305c      	adds	r0, #92	; 0x5c
    7782:	f000 fb38 	bl	7df6 <memset>
    7786:	4b05      	ldr	r3, [pc, #20]	; (779c <std.clone.0+0x38>)
    7788:	6224      	str	r4, [r4, #32]
    778a:	6263      	str	r3, [r4, #36]	; 0x24
    778c:	4b04      	ldr	r3, [pc, #16]	; (77a0 <std.clone.0+0x3c>)
    778e:	62a3      	str	r3, [r4, #40]	; 0x28
    7790:	4b04      	ldr	r3, [pc, #16]	; (77a4 <std.clone.0+0x40>)
    7792:	62e3      	str	r3, [r4, #44]	; 0x2c
    7794:	4b04      	ldr	r3, [pc, #16]	; (77a8 <std.clone.0+0x44>)
    7796:	6323      	str	r3, [r4, #48]	; 0x30
    7798:	bd10      	pop	{r4, pc}
    779a:	bf00      	nop
    779c:	00002bc1 	.word	0x00002bc1
    77a0:	00002be7 	.word	0x00002be7
    77a4:	00002c21 	.word	0x00002c21
    77a8:	00002c47 	.word	0x00002c47

000077ac <__sfmoreglue>:
    77ac:	b570      	push	{r4, r5, r6, lr}
    77ae:	460e      	mov	r6, r1
    77b0:	2568      	movs	r5, #104	; 0x68
    77b2:	434d      	muls	r5, r1
    77b4:	f105 010c 	add.w	r1, r5, #12
    77b8:	f7fa fd38 	bl	222c <_malloc_r>
    77bc:	4604      	mov	r4, r0
    77be:	b138      	cbz	r0, 77d0 <__sfmoreglue+0x24>
    77c0:	300c      	adds	r0, #12
    77c2:	2100      	movs	r1, #0
    77c4:	6066      	str	r6, [r4, #4]
    77c6:	462a      	mov	r2, r5
    77c8:	6021      	str	r1, [r4, #0]
    77ca:	60a0      	str	r0, [r4, #8]
    77cc:	f000 fb13 	bl	7df6 <memset>
    77d0:	4620      	mov	r0, r4
    77d2:	bd70      	pop	{r4, r5, r6, pc}

000077d4 <__sinit>:
    77d4:	b570      	push	{r4, r5, r6, lr}
    77d6:	4604      	mov	r4, r0
    77d8:	6986      	ldr	r6, [r0, #24]
    77da:	2e00      	cmp	r6, #0
    77dc:	d125      	bne.n	782a <__sinit+0x56>
    77de:	4b13      	ldr	r3, [pc, #76]	; (782c <__sinit+0x58>)
    77e0:	2501      	movs	r5, #1
    77e2:	f8c0 60d8 	str.w	r6, [r0, #216]	; 0xd8
    77e6:	6185      	str	r5, [r0, #24]
    77e8:	6283      	str	r3, [r0, #40]	; 0x28
    77ea:	f8c0 60dc 	str.w	r6, [r0, #220]	; 0xdc
    77ee:	f8c0 60e0 	str.w	r6, [r0, #224]	; 0xe0
    77f2:	f000 f81d 	bl	7830 <__sfp>
    77f6:	6060      	str	r0, [r4, #4]
    77f8:	4620      	mov	r0, r4
    77fa:	f000 f819 	bl	7830 <__sfp>
    77fe:	60a0      	str	r0, [r4, #8]
    7800:	4620      	mov	r0, r4
    7802:	f000 f815 	bl	7830 <__sfp>
    7806:	2104      	movs	r1, #4
    7808:	4632      	mov	r2, r6
    780a:	60e0      	str	r0, [r4, #12]
    780c:	6860      	ldr	r0, [r4, #4]
    780e:	f7ff ffa9 	bl	7764 <std.clone.0>
    7812:	68a0      	ldr	r0, [r4, #8]
    7814:	2109      	movs	r1, #9
    7816:	462a      	mov	r2, r5
    7818:	f7ff ffa4 	bl	7764 <std.clone.0>
    781c:	68e0      	ldr	r0, [r4, #12]
    781e:	2112      	movs	r1, #18
    7820:	2202      	movs	r2, #2
    7822:	e8bd 4070 	ldmia.w	sp!, {r4, r5, r6, lr}
    7826:	f7ff bf9d 	b.w	7764 <std.clone.0>
    782a:	bd70      	pop	{r4, r5, r6, pc}
    782c:	00007759 	.word	0x00007759

00007830 <__sfp>:
    7830:	b5f8      	push	{r3, r4, r5, r6, r7, lr}
    7832:	4607      	mov	r7, r0
    7834:	4b1b      	ldr	r3, [pc, #108]	; (78a4 <__sfp+0x74>)
    7836:	681e      	ldr	r6, [r3, #0]
    7838:	69b3      	ldr	r3, [r6, #24]
    783a:	b913      	cbnz	r3, 7842 <__sfp+0x12>
    783c:	4630      	mov	r0, r6
    783e:	f7ff ffc9 	bl	77d4 <__sinit>
    7842:	36d8      	adds	r6, #216	; 0xd8
    7844:	68b4      	ldr	r4, [r6, #8]
    7846:	6873      	ldr	r3, [r6, #4]
    7848:	e003      	b.n	7852 <__sfp+0x22>
    784a:	f9b4 500c 	ldrsh.w	r5, [r4, #12]
    784e:	b185      	cbz	r5, 7872 <__sfp+0x42>
    7850:	3468      	adds	r4, #104	; 0x68
    7852:	3b01      	subs	r3, #1
    7854:	d5f9      	bpl.n	784a <__sfp+0x1a>
    7856:	6833      	ldr	r3, [r6, #0]
    7858:	b92b      	cbnz	r3, 7866 <__sfp+0x36>
    785a:	4638      	mov	r0, r7
    785c:	2104      	movs	r1, #4
    785e:	f7ff ffa5 	bl	77ac <__sfmoreglue>
    7862:	6030      	str	r0, [r6, #0]
    7864:	b108      	cbz	r0, 786a <__sfp+0x3a>
    7866:	6836      	ldr	r6, [r6, #0]
    7868:	e7ec      	b.n	7844 <__sfp+0x14>
    786a:	230c      	movs	r3, #12
    786c:	4604      	mov	r4, r0
    786e:	603b      	str	r3, [r7, #0]
    7870:	e015      	b.n	789e <__sfp+0x6e>
    7872:	f04f 33ff 	mov.w	r3, #4294967295
    7876:	6665      	str	r5, [r4, #100]	; 0x64
    7878:	81e3      	strh	r3, [r4, #14]
    787a:	f104 005c 	add.w	r0, r4, #92	; 0x5c
    787e:	2301      	movs	r3, #1
    7880:	6025      	str	r5, [r4, #0]
    7882:	81a3      	strh	r3, [r4, #12]
    7884:	4629      	mov	r1, r5
    7886:	60a5      	str	r5, [r4, #8]
    7888:	2208      	movs	r2, #8
    788a:	6065      	str	r5, [r4, #4]
    788c:	6125      	str	r5, [r4, #16]
    788e:	6165      	str	r5, [r4, #20]
    7890:	61a5      	str	r5, [r4, #24]
    7892:	f000 fab0 	bl	7df6 <memset>
    7896:	6365      	str	r5, [r4, #52]	; 0x34
    7898:	63a5      	str	r5, [r4, #56]	; 0x38
    789a:	64a5      	str	r5, [r4, #72]	; 0x48
    789c:	64e5      	str	r5, [r4, #76]	; 0x4c
    789e:	4620      	mov	r0, r4
    78a0:	bdf8      	pop	{r3, r4, r5, r6, r7, pc}
    78a2:	bf00      	nop
    78a4:	0000c074 	.word	0x0000c074

000078a8 <__sfp_lock_acquire>:
    78a8:	4770      	bx	lr

000078aa <__sfp_lock_release>:
    78aa:	4770      	bx	lr

000078ac <fiprintf>:
    78ac:	b40e      	push	{r1, r2, r3}
    78ae:	b503      	push	{r0, r1, lr}
    78b0:	ab03      	add	r3, sp, #12
    78b2:	4601      	mov	r1, r0
    78b4:	4805      	ldr	r0, [pc, #20]	; (78cc <fiprintf+0x20>)
    78b6:	f853 2b04 	ldr.w	r2, [r3], #4
    78ba:	6800      	ldr	r0, [r0, #0]
    78bc:	9301      	str	r3, [sp, #4]
    78be:	f002 fa2b 	bl	9d18 <_vfiprintf_r>
    78c2:	e8bd 400c 	ldmia.w	sp!, {r2, r3, lr}
    78c6:	b003      	add	sp, #12
    78c8:	4770      	bx	lr
    78ca:	bf00      	nop
    78cc:	1000010c 	.word	0x1000010c

000078d0 <_fread_r>:
    78d0:	e92d 4ff8 	stmdb	sp!, {r3, r4, r5, r6, r7, r8, r9, sl, fp, lr}
    78d4:	461f      	mov	r7, r3
    78d6:	4604      	mov	r4, r0
    78d8:	4613      	mov	r3, r2
    78da:	4689      	mov	r9, r1
    78dc:	437b      	muls	r3, r7
    78de:	4693      	mov	fp, r2
    78e0:	9d0a      	ldr	r5, [sp, #40]	; 0x28
    78e2:	469a      	mov	sl, r3
    78e4:	d051      	beq.n	798a <_fread_r+0xba>
    78e6:	b118      	cbz	r0, 78f0 <_fread_r+0x20>
    78e8:	6983      	ldr	r3, [r0, #24]
    78ea:	b90b      	cbnz	r3, 78f0 <_fread_r+0x20>
    78ec:	f7ff ff72 	bl	77d4 <__sinit>
    78f0:	4b28      	ldr	r3, [pc, #160]	; (7994 <_fread_r+0xc4>)
    78f2:	429d      	cmp	r5, r3
    78f4:	d101      	bne.n	78fa <_fread_r+0x2a>
    78f6:	6865      	ldr	r5, [r4, #4]
    78f8:	e008      	b.n	790c <_fread_r+0x3c>
    78fa:	4b27      	ldr	r3, [pc, #156]	; (7998 <_fread_r+0xc8>)
    78fc:	429d      	cmp	r5, r3
    78fe:	d101      	bne.n	7904 <_fread_r+0x34>
    7900:	68a5      	ldr	r5, [r4, #8]
    7902:	e003      	b.n	790c <_fread_r+0x3c>
    7904:	4b25      	ldr	r3, [pc, #148]	; (799c <_fread_r+0xcc>)
    7906:	429d      	cmp	r5, r3
    7908:	bf08      	it	eq
    790a:	68e5      	ldreq	r5, [r4, #12]
    790c:	f7ff ffcc 	bl	78a8 <__sfp_lock_acquire>
    7910:	89ab      	ldrh	r3, [r5, #12]
    7912:	f413 5f00 	tst.w	r3, #8192	; 0x2000
    7916:	d106      	bne.n	7926 <_fread_r+0x56>
    7918:	f443 5300 	orr.w	r3, r3, #8192	; 0x2000
    791c:	81ab      	strh	r3, [r5, #12]
    791e:	6e6b      	ldr	r3, [r5, #100]	; 0x64
    7920:	f423 5300 	bic.w	r3, r3, #8192	; 0x2000
    7924:	666b      	str	r3, [r5, #100]	; 0x64
    7926:	686b      	ldr	r3, [r5, #4]
    7928:	2b00      	cmp	r3, #0
    792a:	da01      	bge.n	7930 <_fread_r+0x60>
    792c:	2300      	movs	r3, #0
    792e:	606b      	str	r3, [r5, #4]
    7930:	4656      	mov	r6, sl
    7932:	e018      	b.n	7966 <_fread_r+0x96>
    7934:	6829      	ldr	r1, [r5, #0]
    7936:	4648      	mov	r0, r9
    7938:	4642      	mov	r2, r8
    793a:	ebc8 0606 	rsb	r6, r8, r6
    793e:	f7fa fe87 	bl	2650 <memcpy>
    7942:	682b      	ldr	r3, [r5, #0]
    7944:	4620      	mov	r0, r4
    7946:	4629      	mov	r1, r5
    7948:	4443      	add	r3, r8
    794a:	602b      	str	r3, [r5, #0]
    794c:	f000 fe7a 	bl	8644 <__srefill_r>
    7950:	b140      	cbz	r0, 7964 <_fread_r+0x94>
    7952:	f7ff ffaa 	bl	78aa <__sfp_lock_release>
    7956:	ebc6 000a 	rsb	r0, r6, sl
    795a:	4659      	mov	r1, fp
    795c:	f003 fb44 	bl	afe8 <__aeabi_uidiv>
    7960:	4607      	mov	r7, r0
    7962:	e013      	b.n	798c <_fread_r+0xbc>
    7964:	44c1      	add	r9, r8
    7966:	f8d5 8004 	ldr.w	r8, [r5, #4]
    796a:	4546      	cmp	r6, r8
    796c:	d8e2      	bhi.n	7934 <_fread_r+0x64>
    796e:	4632      	mov	r2, r6
    7970:	4648      	mov	r0, r9
    7972:	6829      	ldr	r1, [r5, #0]
    7974:	f7fa fe6c 	bl	2650 <memcpy>
    7978:	686b      	ldr	r3, [r5, #4]
    797a:	1b9b      	subs	r3, r3, r6
    797c:	606b      	str	r3, [r5, #4]
    797e:	682b      	ldr	r3, [r5, #0]
    7980:	199e      	adds	r6, r3, r6
    7982:	602e      	str	r6, [r5, #0]
    7984:	f7ff ff91 	bl	78aa <__sfp_lock_release>
    7988:	e000      	b.n	798c <_fread_r+0xbc>
    798a:	461f      	mov	r7, r3
    798c:	4638      	mov	r0, r7
    798e:	e8bd 8ff8 	ldmia.w	sp!, {r3, r4, r5, r6, r7, r8, r9, sl, fp, pc}
    7992:	bf00      	nop
    7994:	0000c280 	.word	0x0000c280
    7998:	0000c2a0 	.word	0x0000c2a0
    799c:	0000c2c0 	.word	0x0000c2c0

000079a0 <_malloc_trim_r>:
    79a0:	b5f8      	push	{r3, r4, r5, r6, r7, lr}
    79a2:	460d      	mov	r5, r1
    79a4:	4e20      	ldr	r6, [pc, #128]	; (7a28 <_malloc_trim_r+0x88>)
    79a6:	4604      	mov	r4, r0
    79a8:	f7fa fe75 	bl	2696 <__malloc_lock>
    79ac:	68b3      	ldr	r3, [r6, #8]
    79ae:	685f      	ldr	r7, [r3, #4]
    79b0:	f027 0703 	bic.w	r7, r7, #3
    79b4:	f107 036f 	add.w	r3, r7, #111	; 0x6f
    79b8:	1b5d      	subs	r5, r3, r5
    79ba:	f025 057f 	bic.w	r5, r5, #127	; 0x7f
    79be:	3d80      	subs	r5, #128	; 0x80
    79c0:	2d7f      	cmp	r5, #127	; 0x7f
    79c2:	dd1e      	ble.n	7a02 <_malloc_trim_r+0x62>
    79c4:	2100      	movs	r1, #0
    79c6:	4620      	mov	r0, r4
    79c8:	f7fb f83c 	bl	2a44 <_sbrk_r>
    79cc:	68b3      	ldr	r3, [r6, #8]
    79ce:	19db      	adds	r3, r3, r7
    79d0:	4298      	cmp	r0, r3
    79d2:	d116      	bne.n	7a02 <_malloc_trim_r+0x62>
    79d4:	4269      	negs	r1, r5
    79d6:	4620      	mov	r0, r4
    79d8:	f7fb f834 	bl	2a44 <_sbrk_r>
    79dc:	f1b0 3fff 	cmp.w	r0, #4294967295
    79e0:	d114      	bne.n	7a0c <_malloc_trim_r+0x6c>
    79e2:	2100      	movs	r1, #0
    79e4:	4620      	mov	r0, r4
    79e6:	f7fb f82d 	bl	2a44 <_sbrk_r>
    79ea:	68b3      	ldr	r3, [r6, #8]
    79ec:	1ac2      	subs	r2, r0, r3
    79ee:	2a0f      	cmp	r2, #15
    79f0:	dd07      	ble.n	7a02 <_malloc_trim_r+0x62>
    79f2:	490e      	ldr	r1, [pc, #56]	; (7a2c <_malloc_trim_r+0x8c>)
    79f4:	f042 0201 	orr.w	r2, r2, #1
    79f8:	605a      	str	r2, [r3, #4]
    79fa:	6809      	ldr	r1, [r1, #0]
    79fc:	1a40      	subs	r0, r0, r1
    79fe:	490c      	ldr	r1, [pc, #48]	; (7a30 <_malloc_trim_r+0x90>)
    7a00:	6008      	str	r0, [r1, #0]
    7a02:	4620      	mov	r0, r4
    7a04:	f7fa fe48 	bl	2698 <__malloc_unlock>
    7a08:	2000      	movs	r0, #0
    7a0a:	bdf8      	pop	{r3, r4, r5, r6, r7, pc}
    7a0c:	68b3      	ldr	r3, [r6, #8]
    7a0e:	1b7f      	subs	r7, r7, r5
    7a10:	f047 0701 	orr.w	r7, r7, #1
    7a14:	4620      	mov	r0, r4
    7a16:	605f      	str	r7, [r3, #4]
    7a18:	4b05      	ldr	r3, [pc, #20]	; (7a30 <_malloc_trim_r+0x90>)
    7a1a:	681a      	ldr	r2, [r3, #0]
    7a1c:	1b55      	subs	r5, r2, r5
    7a1e:	601d      	str	r5, [r3, #0]
    7a20:	f7fa fe3a 	bl	2698 <__malloc_unlock>
    7a24:	2001      	movs	r0, #1
    7a26:	bdf8      	pop	{r3, r4, r5, r6, r7, pc}
    7a28:	10000110 	.word	0x10000110
    7a2c:	1000051c 	.word	0x1000051c
    7a30:	1000060c 	.word	0x1000060c

00007a34 <_free_r>:
    7a34:	e92d 41f0 	stmdb	sp!, {r4, r5, r6, r7, r8, lr}
    7a38:	4604      	mov	r4, r0
    7a3a:	460d      	mov	r5, r1
    7a3c:	2900      	cmp	r1, #0
    7a3e:	f000 80ae 	beq.w	7b9e <_free_r+0x16a>
    7a42:	f7fa fe28 	bl	2696 <__malloc_lock>
    7a46:	f1a5 0308 	sub.w	r3, r5, #8
    7a4a:	4856      	ldr	r0, [pc, #344]	; (7ba4 <_free_r+0x170>)
    7a4c:	685f      	ldr	r7, [r3, #4]
    7a4e:	f027 0201 	bic.w	r2, r7, #1
    7a52:	f8d0 c008 	ldr.w	ip, [r0, #8]
    7a56:	1899      	adds	r1, r3, r2
    7a58:	f007 0701 	and.w	r7, r7, #1
    7a5c:	4561      	cmp	r1, ip
    7a5e:	684e      	ldr	r6, [r1, #4]
    7a60:	f026 0603 	bic.w	r6, r6, #3
    7a64:	d118      	bne.n	7a98 <_free_r+0x64>
    7a66:	18b2      	adds	r2, r6, r2
    7a68:	b93f      	cbnz	r7, 7a7a <_free_r+0x46>
    7a6a:	f855 1c08 	ldr.w	r1, [r5, #-8]
    7a6e:	1a5b      	subs	r3, r3, r1
    7a70:	1852      	adds	r2, r2, r1
    7a72:	689d      	ldr	r5, [r3, #8]
    7a74:	68d9      	ldr	r1, [r3, #12]
    7a76:	60e9      	str	r1, [r5, #12]
    7a78:	608d      	str	r5, [r1, #8]
    7a7a:	f042 0101 	orr.w	r1, r2, #1
    7a7e:	6083      	str	r3, [r0, #8]
    7a80:	6059      	str	r1, [r3, #4]
    7a82:	4b49      	ldr	r3, [pc, #292]	; (7ba8 <_free_r+0x174>)
    7a84:	681b      	ldr	r3, [r3, #0]
    7a86:	429a      	cmp	r2, r3
    7a88:	f0c0 8084 	bcc.w	7b94 <_free_r+0x160>
    7a8c:	4b47      	ldr	r3, [pc, #284]	; (7bac <_free_r+0x178>)
    7a8e:	4620      	mov	r0, r4
    7a90:	6819      	ldr	r1, [r3, #0]
    7a92:	f7ff ff85 	bl	79a0 <_malloc_trim_r>
    7a96:	e07d      	b.n	7b94 <_free_r+0x160>
    7a98:	604e      	str	r6, [r1, #4]
    7a9a:	b987      	cbnz	r7, 7abe <_free_r+0x8a>
    7a9c:	f855 5c08 	ldr.w	r5, [r5, #-8]
    7aa0:	f100 0c08 	add.w	ip, r0, #8
    7aa4:	1b5b      	subs	r3, r3, r5
    7aa6:	1952      	adds	r2, r2, r5
    7aa8:	689d      	ldr	r5, [r3, #8]
    7aaa:	4565      	cmp	r5, ip
    7aac:	d009      	beq.n	7ac2 <_free_r+0x8e>
    7aae:	f8d3 c00c 	ldr.w	ip, [r3, #12]
    7ab2:	f8c5 c00c 	str.w	ip, [r5, #12]
    7ab6:	f8cc 5008 	str.w	r5, [ip, #8]
    7aba:	463d      	mov	r5, r7
    7abc:	e002      	b.n	7ac4 <_free_r+0x90>
    7abe:	2500      	movs	r5, #0
    7ac0:	e000      	b.n	7ac4 <_free_r+0x90>
    7ac2:	2501      	movs	r5, #1
    7ac4:	198f      	adds	r7, r1, r6
    7ac6:	687f      	ldr	r7, [r7, #4]
    7ac8:	f017 0f01 	tst.w	r7, #1
    7acc:	d10f      	bne.n	7aee <_free_r+0xba>
    7ace:	1992      	adds	r2, r2, r6
    7ad0:	b94d      	cbnz	r5, 7ae6 <_free_r+0xb2>
    7ad2:	688e      	ldr	r6, [r1, #8]
    7ad4:	4f36      	ldr	r7, [pc, #216]	; (7bb0 <_free_r+0x17c>)
    7ad6:	42be      	cmp	r6, r7
    7ad8:	d105      	bne.n	7ae6 <_free_r+0xb2>
    7ada:	60f3      	str	r3, [r6, #12]
    7adc:	3501      	adds	r5, #1
    7ade:	60b3      	str	r3, [r6, #8]
    7ae0:	60de      	str	r6, [r3, #12]
    7ae2:	609e      	str	r6, [r3, #8]
    7ae4:	e003      	b.n	7aee <_free_r+0xba>
    7ae6:	68ce      	ldr	r6, [r1, #12]
    7ae8:	6889      	ldr	r1, [r1, #8]
    7aea:	60ce      	str	r6, [r1, #12]
    7aec:	60b1      	str	r1, [r6, #8]
    7aee:	f042 0101 	orr.w	r1, r2, #1
    7af2:	509a      	str	r2, [r3, r2]
    7af4:	6059      	str	r1, [r3, #4]
    7af6:	2d00      	cmp	r5, #0
    7af8:	d14c      	bne.n	7b94 <_free_r+0x160>
    7afa:	f5b2 7f00 	cmp.w	r2, #512	; 0x200
    7afe:	d210      	bcs.n	7b22 <_free_r+0xee>
    7b00:	08d2      	lsrs	r2, r2, #3
    7b02:	3501      	adds	r5, #1
    7b04:	1091      	asrs	r1, r2, #2
    7b06:	fa15 f101 	lsls.w	r1, r5, r1
    7b0a:	6845      	ldr	r5, [r0, #4]
    7b0c:	ea45 0101 	orr.w	r1, r5, r1
    7b10:	6041      	str	r1, [r0, #4]
    7b12:	eb00 00c2 	add.w	r0, r0, r2, lsl #3
    7b16:	60d8      	str	r0, [r3, #12]
    7b18:	6882      	ldr	r2, [r0, #8]
    7b1a:	609a      	str	r2, [r3, #8]
    7b1c:	60d3      	str	r3, [r2, #12]
    7b1e:	6083      	str	r3, [r0, #8]
    7b20:	e038      	b.n	7b94 <_free_r+0x160>
    7b22:	0a55      	lsrs	r5, r2, #9
    7b24:	2d04      	cmp	r5, #4
    7b26:	d802      	bhi.n	7b2e <_free_r+0xfa>
    7b28:	0995      	lsrs	r5, r2, #6
    7b2a:	3538      	adds	r5, #56	; 0x38
    7b2c:	e016      	b.n	7b5c <_free_r+0x128>
    7b2e:	2d14      	cmp	r5, #20
    7b30:	d801      	bhi.n	7b36 <_free_r+0x102>
    7b32:	355b      	adds	r5, #91	; 0x5b
    7b34:	e012      	b.n	7b5c <_free_r+0x128>
    7b36:	2d54      	cmp	r5, #84	; 0x54
    7b38:	d802      	bhi.n	7b40 <_free_r+0x10c>
    7b3a:	0b15      	lsrs	r5, r2, #12
    7b3c:	356e      	adds	r5, #110	; 0x6e
    7b3e:	e00d      	b.n	7b5c <_free_r+0x128>
    7b40:	f5b5 7faa 	cmp.w	r5, #340	; 0x154
    7b44:	d802      	bhi.n	7b4c <_free_r+0x118>
    7b46:	0bd5      	lsrs	r5, r2, #15
    7b48:	3577      	adds	r5, #119	; 0x77
    7b4a:	e007      	b.n	7b5c <_free_r+0x128>
    7b4c:	f240 5154 	movw	r1, #1364	; 0x554
    7b50:	428d      	cmp	r5, r1
    7b52:	d802      	bhi.n	7b5a <_free_r+0x126>
    7b54:	0c95      	lsrs	r5, r2, #18
    7b56:	357c      	adds	r5, #124	; 0x7c
    7b58:	e000      	b.n	7b5c <_free_r+0x128>
    7b5a:	257e      	movs	r5, #126	; 0x7e
    7b5c:	eb00 06c5 	add.w	r6, r0, r5, lsl #3
    7b60:	68b1      	ldr	r1, [r6, #8]
    7b62:	42b1      	cmp	r1, r6
    7b64:	d10c      	bne.n	7b80 <_free_r+0x14c>
    7b66:	2201      	movs	r2, #1
    7b68:	10ad      	asrs	r5, r5, #2
    7b6a:	fa12 f505 	lsls.w	r5, r2, r5
    7b6e:	6842      	ldr	r2, [r0, #4]
    7b70:	ea42 0505 	orr.w	r5, r2, r5
    7b74:	460a      	mov	r2, r1
    7b76:	6045      	str	r5, [r0, #4]
    7b78:	e008      	b.n	7b8c <_free_r+0x158>
    7b7a:	6889      	ldr	r1, [r1, #8]
    7b7c:	42b1      	cmp	r1, r6
    7b7e:	d004      	beq.n	7b8a <_free_r+0x156>
    7b80:	6848      	ldr	r0, [r1, #4]
    7b82:	f020 0003 	bic.w	r0, r0, #3
    7b86:	4282      	cmp	r2, r0
    7b88:	d3f7      	bcc.n	7b7a <_free_r+0x146>
    7b8a:	68ca      	ldr	r2, [r1, #12]
    7b8c:	60da      	str	r2, [r3, #12]
    7b8e:	6099      	str	r1, [r3, #8]
    7b90:	60cb      	str	r3, [r1, #12]
    7b92:	6093      	str	r3, [r2, #8]
    7b94:	4620      	mov	r0, r4
    7b96:	e8bd 41f0 	ldmia.w	sp!, {r4, r5, r6, r7, r8, lr}
    7b9a:	f7fa bd7d 	b.w	2698 <__malloc_unlock>
    7b9e:	e8bd 81f0 	ldmia.w	sp!, {r4, r5, r6, r7, r8, pc}
    7ba2:	bf00      	nop
    7ba4:	10000110 	.word	0x10000110
    7ba8:	10000518 	.word	0x10000518
    7bac:	10000608 	.word	0x10000608
    7bb0:	10000118 	.word	0x10000118

00007bb4 <_fwalk>:
    7bb4:	e92d 41f0 	stmdb	sp!, {r4, r5, r6, r7, r8, lr}
    7bb8:	4604      	mov	r4, r0
    7bba:	4688      	mov	r8, r1
    7bbc:	34d8      	adds	r4, #216	; 0xd8
    7bbe:	f7ff fe73 	bl	78a8 <__sfp_lock_acquire>
    7bc2:	2600      	movs	r6, #0
    7bc4:	e011      	b.n	7bea <_fwalk+0x36>
    7bc6:	68a5      	ldr	r5, [r4, #8]
    7bc8:	6867      	ldr	r7, [r4, #4]
    7bca:	e00b      	b.n	7be4 <_fwalk+0x30>
    7bcc:	f9b5 300c 	ldrsh.w	r3, [r5, #12]
    7bd0:	b13b      	cbz	r3, 7be2 <_fwalk+0x2e>
    7bd2:	f9b5 300e 	ldrsh.w	r3, [r5, #14]
    7bd6:	f1b3 3fff 	cmp.w	r3, #4294967295
    7bda:	d002      	beq.n	7be2 <_fwalk+0x2e>
    7bdc:	4628      	mov	r0, r5
    7bde:	47c0      	blx	r8
    7be0:	4306      	orrs	r6, r0
    7be2:	3568      	adds	r5, #104	; 0x68
    7be4:	3f01      	subs	r7, #1
    7be6:	d5f1      	bpl.n	7bcc <_fwalk+0x18>
    7be8:	6824      	ldr	r4, [r4, #0]
    7bea:	2c00      	cmp	r4, #0
    7bec:	d1eb      	bne.n	7bc6 <_fwalk+0x12>
    7bee:	f7ff fe5c 	bl	78aa <__sfp_lock_release>
    7bf2:	4630      	mov	r0, r6
    7bf4:	e8bd 81f0 	ldmia.w	sp!, {r4, r5, r6, r7, r8, pc}

00007bf8 <_fwalk_reent>:
    7bf8:	e92d 43f8 	stmdb	sp!, {r3, r4, r5, r6, r7, r8, r9, lr}
    7bfc:	4680      	mov	r8, r0
    7bfe:	4689      	mov	r9, r1
    7c00:	f108 04d8 	add.w	r4, r8, #216	; 0xd8
    7c04:	f7ff fe50 	bl	78a8 <__sfp_lock_acquire>
    7c08:	2600      	movs	r6, #0
    7c0a:	e012      	b.n	7c32 <_fwalk_reent+0x3a>
    7c0c:	68a5      	ldr	r5, [r4, #8]
    7c0e:	6867      	ldr	r7, [r4, #4]
    7c10:	e00c      	b.n	7c2c <_fwalk_reent+0x34>
    7c12:	f9b5 300c 	ldrsh.w	r3, [r5, #12]
    7c16:	b143      	cbz	r3, 7c2a <_fwalk_reent+0x32>
    7c18:	f9b5 300e 	ldrsh.w	r3, [r5, #14]
    7c1c:	f1b3 3fff 	cmp.w	r3, #4294967295
    7c20:	d003      	beq.n	7c2a <_fwalk_reent+0x32>
    7c22:	4640      	mov	r0, r8
    7c24:	4629      	mov	r1, r5
    7c26:	47c8      	blx	r9
    7c28:	4306      	orrs	r6, r0
    7c2a:	3568      	adds	r5, #104	; 0x68
    7c2c:	3f01      	subs	r7, #1
    7c2e:	d5f0      	bpl.n	7c12 <_fwalk_reent+0x1a>
    7c30:	6824      	ldr	r4, [r4, #0]
    7c32:	2c00      	cmp	r4, #0
    7c34:	d1ea      	bne.n	7c0c <_fwalk_reent+0x14>
    7c36:	f7ff fe38 	bl	78aa <__sfp_lock_release>
    7c3a:	4630      	mov	r0, r6
    7c3c:	e8bd 83f8 	ldmia.w	sp!, {r3, r4, r5, r6, r7, r8, r9, pc}

00007c40 <iswspace>:
    7c40:	28ff      	cmp	r0, #255	; 0xff
    7c42:	d806      	bhi.n	7c52 <iswspace+0x12>
    7c44:	4b04      	ldr	r3, [pc, #16]	; (7c58 <iswspace+0x18>)
    7c46:	681b      	ldr	r3, [r3, #0]
    7c48:	1818      	adds	r0, r3, r0
    7c4a:	7840      	ldrb	r0, [r0, #1]
    7c4c:	f000 0008 	and.w	r0, r0, #8
    7c50:	4770      	bx	lr
    7c52:	2000      	movs	r0, #0
    7c54:	4770      	bx	lr
    7c56:	bf00      	nop
    7c58:	10000520 	.word	0x10000520

00007c5c <__locale_charset>:
    7c5c:	4800      	ldr	r0, [pc, #0]	; (7c60 <__locale_charset+0x4>)
    7c5e:	4770      	bx	lr
    7c60:	1000055c 	.word	0x1000055c

00007c64 <__locale_mb_cur_max>:
    7c64:	4b01      	ldr	r3, [pc, #4]	; (7c6c <__locale_mb_cur_max+0x8>)
    7c66:	6818      	ldr	r0, [r3, #0]
    7c68:	4770      	bx	lr
    7c6a:	bf00      	nop
    7c6c:	1000057c 	.word	0x1000057c

00007c70 <_localeconv_r>:
    7c70:	4800      	ldr	r0, [pc, #0]	; (7c74 <_localeconv_r+0x4>)
    7c72:	4770      	bx	lr
    7c74:	10000524 	.word	0x10000524

00007c78 <_lseek_r>:
    7c78:	b538      	push	{r3, r4, r5, lr}
    7c7a:	4605      	mov	r5, r0
    7c7c:	4c07      	ldr	r4, [pc, #28]	; (7c9c <_lseek_r+0x24>)
    7c7e:	2000      	movs	r0, #0
    7c80:	6020      	str	r0, [r4, #0]
    7c82:	4608      	mov	r0, r1
    7c84:	4611      	mov	r1, r2
    7c86:	461a      	mov	r2, r3
    7c88:	f7f8 fb9a 	bl	3c0 <_lseek>
    7c8c:	f1b0 3fff 	cmp.w	r0, #4294967295
    7c90:	d102      	bne.n	7c98 <_lseek_r+0x20>
    7c92:	6823      	ldr	r3, [r4, #0]
    7c94:	b103      	cbz	r3, 7c98 <_lseek_r+0x20>
    7c96:	602b      	str	r3, [r5, #0]
    7c98:	bd38      	pop	{r3, r4, r5, pc}
    7c9a:	bf00      	nop
    7c9c:	10000640 	.word	0x10000640

00007ca0 <__smakebuf_r>:
    7ca0:	898b      	ldrh	r3, [r1, #12]
    7ca2:	b5f0      	push	{r4, r5, r6, r7, lr}
    7ca4:	f013 0f02 	tst.w	r3, #2
    7ca8:	b091      	sub	sp, #68	; 0x44
    7caa:	4605      	mov	r5, r0
    7cac:	460c      	mov	r4, r1
    7cae:	d006      	beq.n	7cbe <__smakebuf_r+0x1e>
    7cb0:	f101 0347 	add.w	r3, r1, #71	; 0x47
    7cb4:	600b      	str	r3, [r1, #0]
    7cb6:	610b      	str	r3, [r1, #16]
    7cb8:	2301      	movs	r3, #1
    7cba:	614b      	str	r3, [r1, #20]
    7cbc:	e057      	b.n	7d6e <__smakebuf_r+0xce>
    7cbe:	f9b1 100e 	ldrsh.w	r1, [r1, #14]
    7cc2:	2900      	cmp	r1, #0
    7cc4:	db04      	blt.n	7cd0 <__smakebuf_r+0x30>
    7cc6:	aa01      	add	r2, sp, #4
    7cc8:	f002 fd9a 	bl	a800 <_fstat_r>
    7ccc:	2800      	cmp	r0, #0
    7cce:	da0b      	bge.n	7ce8 <__smakebuf_r+0x48>
    7cd0:	89a3      	ldrh	r3, [r4, #12]
    7cd2:	2700      	movs	r7, #0
    7cd4:	f003 0680 	and.w	r6, r3, #128	; 0x80
    7cd8:	f443 6300 	orr.w	r3, r3, #2048	; 0x800
    7cdc:	2e00      	cmp	r6, #0
    7cde:	bf0c      	ite	eq
    7ce0:	2680      	moveq	r6, #128	; 0x80
    7ce2:	2640      	movne	r6, #64	; 0x40
    7ce4:	81a3      	strh	r3, [r4, #12]
    7ce6:	e01b      	b.n	7d20 <__smakebuf_r+0x80>
    7ce8:	9b02      	ldr	r3, [sp, #8]
    7cea:	f403 4370 	and.w	r3, r3, #61440	; 0xf000
    7cee:	f5a3 5200 	sub.w	r2, r3, #8192	; 0x2000
    7cf2:	4257      	negs	r7, r2
    7cf4:	eb47 0702 	adc.w	r7, r7, r2
    7cf8:	f5b3 4f00 	cmp.w	r3, #32768	; 0x8000
    7cfc:	d10b      	bne.n	7d16 <__smakebuf_r+0x76>
    7cfe:	6ae2      	ldr	r2, [r4, #44]	; 0x2c
    7d00:	4b1c      	ldr	r3, [pc, #112]	; (7d74 <__smakebuf_r+0xd4>)
    7d02:	429a      	cmp	r2, r3
    7d04:	d107      	bne.n	7d16 <__smakebuf_r+0x76>
    7d06:	89a3      	ldrh	r3, [r4, #12]
    7d08:	f443 6380 	orr.w	r3, r3, #1024	; 0x400
    7d0c:	81a3      	strh	r3, [r4, #12]
    7d0e:	f44f 6380 	mov.w	r3, #1024	; 0x400
    7d12:	6523      	str	r3, [r4, #80]	; 0x50
    7d14:	e003      	b.n	7d1e <__smakebuf_r+0x7e>
    7d16:	89a3      	ldrh	r3, [r4, #12]
    7d18:	f443 6300 	orr.w	r3, r3, #2048	; 0x800
    7d1c:	81a3      	strh	r3, [r4, #12]
    7d1e:	2680      	movs	r6, #128	; 0x80
    7d20:	4628      	mov	r0, r5
    7d22:	4631      	mov	r1, r6
    7d24:	f7fa fa82 	bl	222c <_malloc_r>
    7d28:	b968      	cbnz	r0, 7d46 <__smakebuf_r+0xa6>
    7d2a:	89a3      	ldrh	r3, [r4, #12]
    7d2c:	f413 7f00 	tst.w	r3, #512	; 0x200
    7d30:	d11d      	bne.n	7d6e <__smakebuf_r+0xce>
    7d32:	f043 0302 	orr.w	r3, r3, #2
    7d36:	81a3      	strh	r3, [r4, #12]
    7d38:	f104 0347 	add.w	r3, r4, #71	; 0x47
    7d3c:	6023      	str	r3, [r4, #0]
    7d3e:	6123      	str	r3, [r4, #16]
    7d40:	2301      	movs	r3, #1
    7d42:	6163      	str	r3, [r4, #20]
    7d44:	e013      	b.n	7d6e <__smakebuf_r+0xce>
    7d46:	4b0c      	ldr	r3, [pc, #48]	; (7d78 <__smakebuf_r+0xd8>)
    7d48:	62ab      	str	r3, [r5, #40]	; 0x28
    7d4a:	89a3      	ldrh	r3, [r4, #12]
    7d4c:	6020      	str	r0, [r4, #0]
    7d4e:	f043 0380 	orr.w	r3, r3, #128	; 0x80
    7d52:	6120      	str	r0, [r4, #16]
    7d54:	81a3      	strh	r3, [r4, #12]
    7d56:	6166      	str	r6, [r4, #20]
    7d58:	b14f      	cbz	r7, 7d6e <__smakebuf_r+0xce>
    7d5a:	4628      	mov	r0, r5
    7d5c:	f9b4 100e 	ldrsh.w	r1, [r4, #14]
    7d60:	f003 f892 	bl	ae88 <_isatty_r>
    7d64:	b118      	cbz	r0, 7d6e <__smakebuf_r+0xce>
    7d66:	89a3      	ldrh	r3, [r4, #12]
    7d68:	f043 0301 	orr.w	r3, r3, #1
    7d6c:	81a3      	strh	r3, [r4, #12]
    7d6e:	b011      	add	sp, #68	; 0x44
    7d70:	bdf0      	pop	{r4, r5, r6, r7, pc}
    7d72:	bf00      	nop
    7d74:	00002c21 	.word	0x00002c21
    7d78:	00007759 	.word	0x00007759

00007d7c <_mbrtowc_r>:
    7d7c:	e92d 43f7 	stmdb	sp!, {r0, r1, r2, r4, r5, r6, r7, r8, r9, lr}
    7d80:	461f      	mov	r7, r3
    7d82:	4604      	mov	r4, r0
    7d84:	4688      	mov	r8, r1
    7d86:	9d0a      	ldr	r5, [sp, #40]	; 0x28
    7d88:	4691      	mov	r9, r2
    7d8a:	4b0f      	ldr	r3, [pc, #60]	; (7dc8 <_mbrtowc_r+0x4c>)
    7d8c:	b94a      	cbnz	r2, 7da2 <_mbrtowc_r+0x26>
    7d8e:	681e      	ldr	r6, [r3, #0]
    7d90:	f7ff ff64 	bl	7c5c <__locale_charset>
    7d94:	9501      	str	r5, [sp, #4]
    7d96:	4649      	mov	r1, r9
    7d98:	4a0c      	ldr	r2, [pc, #48]	; (7dcc <_mbrtowc_r+0x50>)
    7d9a:	2301      	movs	r3, #1
    7d9c:	9000      	str	r0, [sp, #0]
    7d9e:	4620      	mov	r0, r4
    7da0:	e008      	b.n	7db4 <_mbrtowc_r+0x38>
    7da2:	681e      	ldr	r6, [r3, #0]
    7da4:	f7ff ff5a 	bl	7c5c <__locale_charset>
    7da8:	4641      	mov	r1, r8
    7daa:	464a      	mov	r2, r9
    7dac:	463b      	mov	r3, r7
    7dae:	9501      	str	r5, [sp, #4]
    7db0:	9000      	str	r0, [sp, #0]
    7db2:	4620      	mov	r0, r4
    7db4:	47b0      	blx	r6
    7db6:	f1b0 3fff 	cmp.w	r0, #4294967295
    7dba:	d103      	bne.n	7dc4 <_mbrtowc_r+0x48>
    7dbc:	2300      	movs	r3, #0
    7dbe:	602b      	str	r3, [r5, #0]
    7dc0:	338a      	adds	r3, #138	; 0x8a
    7dc2:	6023      	str	r3, [r4, #0]
    7dc4:	e8bd 83fe 	ldmia.w	sp!, {r1, r2, r3, r4, r5, r6, r7, r8, r9, pc}
    7dc8:	10000580 	.word	0x10000580
    7dcc:	0000c171 	.word	0x0000c171

00007dd0 <__ascii_mbtowc>:
    7dd0:	b082      	sub	sp, #8
    7dd2:	b909      	cbnz	r1, 7dd8 <__ascii_mbtowc+0x8>
    7dd4:	f10d 0106 	add.w	r1, sp, #6
    7dd8:	b13a      	cbz	r2, 7dea <__ascii_mbtowc+0x1a>
    7dda:	b143      	cbz	r3, 7dee <__ascii_mbtowc+0x1e>
    7ddc:	7813      	ldrb	r3, [r2, #0]
    7dde:	800b      	strh	r3, [r1, #0]
    7de0:	7810      	ldrb	r0, [r2, #0]
    7de2:	3800      	subs	r0, #0
    7de4:	bf18      	it	ne
    7de6:	2001      	movne	r0, #1
    7de8:	e003      	b.n	7df2 <__ascii_mbtowc+0x22>
    7dea:	4610      	mov	r0, r2
    7dec:	e001      	b.n	7df2 <__ascii_mbtowc+0x22>
    7dee:	f06f 0001 	mvn.w	r0, #1
    7df2:	b002      	add	sp, #8
    7df4:	4770      	bx	lr

00007df6 <memset>:
    7df6:	1882      	adds	r2, r0, r2
    7df8:	4603      	mov	r3, r0
    7dfa:	e001      	b.n	7e00 <memset+0xa>
    7dfc:	f803 1b01 	strb.w	r1, [r3], #1
    7e00:	4293      	cmp	r3, r2
    7e02:	d3fb      	bcc.n	7dfc <memset+0x6>
    7e04:	4770      	bx	lr

00007e06 <_Balloc>:
    7e06:	b570      	push	{r4, r5, r6, lr}
    7e08:	4604      	mov	r4, r0
    7e0a:	6a46      	ldr	r6, [r0, #36]	; 0x24
    7e0c:	460d      	mov	r5, r1
    7e0e:	b93e      	cbnz	r6, 7e20 <_Balloc+0x1a>
    7e10:	2010      	movs	r0, #16
    7e12:	f7fa f9fb 	bl	220c <malloc>
    7e16:	6260      	str	r0, [r4, #36]	; 0x24
    7e18:	6046      	str	r6, [r0, #4]
    7e1a:	6086      	str	r6, [r0, #8]
    7e1c:	6006      	str	r6, [r0, #0]
    7e1e:	60c6      	str	r6, [r0, #12]
    7e20:	6a66      	ldr	r6, [r4, #36]	; 0x24
    7e22:	68f3      	ldr	r3, [r6, #12]
    7e24:	b943      	cbnz	r3, 7e38 <_Balloc+0x32>
    7e26:	4620      	mov	r0, r4
    7e28:	2104      	movs	r1, #4
    7e2a:	2221      	movs	r2, #33	; 0x21
    7e2c:	f002 fbfe 	bl	a62c <_calloc_r>
    7e30:	6a63      	ldr	r3, [r4, #36]	; 0x24
    7e32:	60f0      	str	r0, [r6, #12]
    7e34:	68d8      	ldr	r0, [r3, #12]
    7e36:	b1b0      	cbz	r0, 7e66 <_Balloc+0x60>
    7e38:	6a63      	ldr	r3, [r4, #36]	; 0x24
    7e3a:	68db      	ldr	r3, [r3, #12]
    7e3c:	f853 0025 	ldr.w	r0, [r3, r5, lsl #2]
    7e40:	b118      	cbz	r0, 7e4a <_Balloc+0x44>
    7e42:	6802      	ldr	r2, [r0, #0]
    7e44:	f843 2025 	str.w	r2, [r3, r5, lsl #2]
    7e48:	e00a      	b.n	7e60 <_Balloc+0x5a>
    7e4a:	2101      	movs	r1, #1
    7e4c:	4620      	mov	r0, r4
    7e4e:	fa11 f605 	lsls.w	r6, r1, r5
    7e52:	1d72      	adds	r2, r6, #5
    7e54:	0092      	lsls	r2, r2, #2
    7e56:	f002 fbe9 	bl	a62c <_calloc_r>
    7e5a:	b120      	cbz	r0, 7e66 <_Balloc+0x60>
    7e5c:	6045      	str	r5, [r0, #4]
    7e5e:	6086      	str	r6, [r0, #8]
    7e60:	2300      	movs	r3, #0
    7e62:	6103      	str	r3, [r0, #16]
    7e64:	60c3      	str	r3, [r0, #12]
    7e66:	bd70      	pop	{r4, r5, r6, pc}

00007e68 <_Bfree>:
    7e68:	b570      	push	{r4, r5, r6, lr}
    7e6a:	4604      	mov	r4, r0
    7e6c:	6a45      	ldr	r5, [r0, #36]	; 0x24
    7e6e:	460e      	mov	r6, r1
    7e70:	b93d      	cbnz	r5, 7e82 <_Bfree+0x1a>
    7e72:	2010      	movs	r0, #16
    7e74:	f7fa f9ca 	bl	220c <malloc>
    7e78:	6260      	str	r0, [r4, #36]	; 0x24
    7e7a:	6045      	str	r5, [r0, #4]
    7e7c:	6085      	str	r5, [r0, #8]
    7e7e:	6005      	str	r5, [r0, #0]
    7e80:	60c5      	str	r5, [r0, #12]
    7e82:	b13e      	cbz	r6, 7e94 <_Bfree+0x2c>
    7e84:	6a63      	ldr	r3, [r4, #36]	; 0x24
    7e86:	6872      	ldr	r2, [r6, #4]
    7e88:	68db      	ldr	r3, [r3, #12]
    7e8a:	f853 1022 	ldr.w	r1, [r3, r2, lsl #2]
    7e8e:	6031      	str	r1, [r6, #0]
    7e90:	f843 6022 	str.w	r6, [r3, r2, lsl #2]
    7e94:	bd70      	pop	{r4, r5, r6, pc}

00007e96 <__multadd>:
    7e96:	e92d 41f0 	stmdb	sp!, {r4, r5, r6, r7, r8, lr}
    7e9a:	460c      	mov	r4, r1
    7e9c:	461f      	mov	r7, r3
    7e9e:	690e      	ldr	r6, [r1, #16]
    7ea0:	4605      	mov	r5, r0
    7ea2:	3114      	adds	r1, #20
    7ea4:	2300      	movs	r3, #0
    7ea6:	f8d1 c000 	ldr.w	ip, [r1]
    7eaa:	3301      	adds	r3, #1
    7eac:	42b3      	cmp	r3, r6
    7eae:	fa1f f08c 	uxth.w	r0, ip
    7eb2:	ea4f 4c1c 	mov.w	ip, ip, lsr #16
    7eb6:	fb00 7002 	mla	r0, r0, r2, r7
    7eba:	fb0c fc02 	mul.w	ip, ip, r2
    7ebe:	eb0c 4c10 	add.w	ip, ip, r0, lsr #16
    7ec2:	b280      	uxth	r0, r0
    7ec4:	ea4f 471c 	mov.w	r7, ip, lsr #16
    7ec8:	ea4f 4c0c 	mov.w	ip, ip, lsl #16
    7ecc:	4460      	add	r0, ip
    7ece:	f841 0b04 	str.w	r0, [r1], #4
    7ed2:	dbe8      	blt.n	7ea6 <__multadd+0x10>
    7ed4:	b1d7      	cbz	r7, 7f0c <__multadd+0x76>
    7ed6:	68a3      	ldr	r3, [r4, #8]
    7ed8:	429e      	cmp	r6, r3
    7eda:	db12      	blt.n	7f02 <__multadd+0x6c>
    7edc:	6861      	ldr	r1, [r4, #4]
    7ede:	4628      	mov	r0, r5
    7ee0:	3101      	adds	r1, #1
    7ee2:	f7ff ff90 	bl	7e06 <_Balloc>
    7ee6:	6922      	ldr	r2, [r4, #16]
    7ee8:	f104 010c 	add.w	r1, r4, #12
    7eec:	3202      	adds	r2, #2
    7eee:	0092      	lsls	r2, r2, #2
    7ef0:	4680      	mov	r8, r0
    7ef2:	300c      	adds	r0, #12
    7ef4:	f7fa fbac 	bl	2650 <memcpy>
    7ef8:	4621      	mov	r1, r4
    7efa:	4628      	mov	r0, r5
    7efc:	4644      	mov	r4, r8
    7efe:	f7ff ffb3 	bl	7e68 <_Bfree>
    7f02:	eb04 0386 	add.w	r3, r4, r6, lsl #2
    7f06:	3601      	adds	r6, #1
    7f08:	6126      	str	r6, [r4, #16]
    7f0a:	615f      	str	r7, [r3, #20]
    7f0c:	4620      	mov	r0, r4
    7f0e:	e8bd 81f0 	ldmia.w	sp!, {r4, r5, r6, r7, r8, pc}

00007f12 <__s2b>:
    7f12:	e92d 43f8 	stmdb	sp!, {r3, r4, r5, r6, r7, r8, r9, lr}
    7f16:	4606      	mov	r6, r0
    7f18:	460d      	mov	r5, r1
    7f1a:	f103 0008 	add.w	r0, r3, #8
    7f1e:	2109      	movs	r1, #9
    7f20:	4698      	mov	r8, r3
    7f22:	4617      	mov	r7, r2
    7f24:	f003 f99c 	bl	b260 <__aeabi_idiv>
    7f28:	2301      	movs	r3, #1
    7f2a:	2100      	movs	r1, #0
    7f2c:	e001      	b.n	7f32 <__s2b+0x20>
    7f2e:	005b      	lsls	r3, r3, #1
    7f30:	3101      	adds	r1, #1
    7f32:	4298      	cmp	r0, r3
    7f34:	dcfb      	bgt.n	7f2e <__s2b+0x1c>
    7f36:	4630      	mov	r0, r6
    7f38:	f7ff ff65 	bl	7e06 <_Balloc>
    7f3c:	9b08      	ldr	r3, [sp, #32]
    7f3e:	6143      	str	r3, [r0, #20]
    7f40:	2301      	movs	r3, #1
    7f42:	2f09      	cmp	r7, #9
    7f44:	4601      	mov	r1, r0
    7f46:	6103      	str	r3, [r0, #16]
    7f48:	dd10      	ble.n	7f6c <__s2b+0x5a>
    7f4a:	f105 0909 	add.w	r9, r5, #9
    7f4e:	2409      	movs	r4, #9
    7f50:	5d2b      	ldrb	r3, [r5, r4]
    7f52:	220a      	movs	r2, #10
    7f54:	4630      	mov	r0, r6
    7f56:	3401      	adds	r4, #1
    7f58:	3b30      	subs	r3, #48	; 0x30
    7f5a:	f7ff ff9c 	bl	7e96 <__multadd>
    7f5e:	42bc      	cmp	r4, r7
    7f60:	4601      	mov	r1, r0
    7f62:	d1f5      	bne.n	7f50 <__s2b+0x3e>
    7f64:	eb09 0504 	add.w	r5, r9, r4
    7f68:	3d08      	subs	r5, #8
    7f6a:	e00b      	b.n	7f84 <__s2b+0x72>
    7f6c:	350a      	adds	r5, #10
    7f6e:	2409      	movs	r4, #9
    7f70:	e008      	b.n	7f84 <__s2b+0x72>
    7f72:	f815 3b01 	ldrb.w	r3, [r5], #1
    7f76:	4630      	mov	r0, r6
    7f78:	220a      	movs	r2, #10
    7f7a:	3401      	adds	r4, #1
    7f7c:	3b30      	subs	r3, #48	; 0x30
    7f7e:	f7ff ff8a 	bl	7e96 <__multadd>
    7f82:	4601      	mov	r1, r0
    7f84:	4544      	cmp	r4, r8
    7f86:	dbf4      	blt.n	7f72 <__s2b+0x60>
    7f88:	4608      	mov	r0, r1
    7f8a:	e8bd 83f8 	ldmia.w	sp!, {r3, r4, r5, r6, r7, r8, r9, pc}

00007f8e <__hi0bits>:
    7f8e:	0c02      	lsrs	r2, r0, #16
    7f90:	4603      	mov	r3, r0
    7f92:	0412      	lsls	r2, r2, #16
    7f94:	b912      	cbnz	r2, 7f9c <__hi0bits+0xe>
    7f96:	0403      	lsls	r3, r0, #16
    7f98:	2010      	movs	r0, #16
    7f9a:	e000      	b.n	7f9e <__hi0bits+0x10>
    7f9c:	2000      	movs	r0, #0
    7f9e:	f013 4f7f 	tst.w	r3, #4278190080	; 0xff000000
    7fa2:	d101      	bne.n	7fa8 <__hi0bits+0x1a>
    7fa4:	3008      	adds	r0, #8
    7fa6:	021b      	lsls	r3, r3, #8
    7fa8:	f013 4f70 	tst.w	r3, #4026531840	; 0xf0000000
    7fac:	d101      	bne.n	7fb2 <__hi0bits+0x24>
    7fae:	3004      	adds	r0, #4
    7fb0:	011b      	lsls	r3, r3, #4
    7fb2:	f013 4f40 	tst.w	r3, #3221225472	; 0xc0000000
    7fb6:	d101      	bne.n	7fbc <__hi0bits+0x2e>
    7fb8:	3002      	adds	r0, #2
    7fba:	009b      	lsls	r3, r3, #2
    7fbc:	2b00      	cmp	r3, #0
    7fbe:	db05      	blt.n	7fcc <__hi0bits+0x3e>
    7fc0:	f013 4f80 	tst.w	r3, #1073741824	; 0x40000000
    7fc4:	d001      	beq.n	7fca <__hi0bits+0x3c>
    7fc6:	3001      	adds	r0, #1
    7fc8:	4770      	bx	lr
    7fca:	2020      	movs	r0, #32
    7fcc:	4770      	bx	lr

00007fce <__lo0bits>:
    7fce:	6803      	ldr	r3, [r0, #0]
    7fd0:	4602      	mov	r2, r0
    7fd2:	f013 0007 	ands.w	r0, r3, #7
    7fd6:	d00d      	beq.n	7ff4 <__lo0bits+0x26>
    7fd8:	f013 0f01 	tst.w	r3, #1
    7fdc:	d125      	bne.n	802a <__lo0bits+0x5c>
    7fde:	f013 0f02 	tst.w	r3, #2
    7fe2:	d003      	beq.n	7fec <__lo0bits+0x1e>
    7fe4:	085b      	lsrs	r3, r3, #1
    7fe6:	2001      	movs	r0, #1
    7fe8:	6013      	str	r3, [r2, #0]
    7fea:	4770      	bx	lr
    7fec:	089b      	lsrs	r3, r3, #2
    7fee:	2002      	movs	r0, #2
    7ff0:	6013      	str	r3, [r2, #0]
    7ff2:	4770      	bx	lr
    7ff4:	b299      	uxth	r1, r3
    7ff6:	b909      	cbnz	r1, 7ffc <__lo0bits+0x2e>
    7ff8:	0c1b      	lsrs	r3, r3, #16
    7ffa:	2010      	movs	r0, #16
    7ffc:	f013 0fff 	tst.w	r3, #255	; 0xff
    8000:	d101      	bne.n	8006 <__lo0bits+0x38>
    8002:	3008      	adds	r0, #8
    8004:	0a1b      	lsrs	r3, r3, #8
    8006:	f013 0f0f 	tst.w	r3, #15
    800a:	d101      	bne.n	8010 <__lo0bits+0x42>
    800c:	3004      	adds	r0, #4
    800e:	091b      	lsrs	r3, r3, #4
    8010:	f013 0f03 	tst.w	r3, #3
    8014:	d101      	bne.n	801a <__lo0bits+0x4c>
    8016:	3002      	adds	r0, #2
    8018:	089b      	lsrs	r3, r3, #2
    801a:	f013 0f01 	tst.w	r3, #1
    801e:	d102      	bne.n	8026 <__lo0bits+0x58>
    8020:	085b      	lsrs	r3, r3, #1
    8022:	d004      	beq.n	802e <__lo0bits+0x60>
    8024:	3001      	adds	r0, #1
    8026:	6013      	str	r3, [r2, #0]
    8028:	4770      	bx	lr
    802a:	2000      	movs	r0, #0
    802c:	4770      	bx	lr
    802e:	2020      	movs	r0, #32
    8030:	4770      	bx	lr

00008032 <__i2b>:
    8032:	b510      	push	{r4, lr}
    8034:	460c      	mov	r4, r1
    8036:	2101      	movs	r1, #1
    8038:	f7ff fee5 	bl	7e06 <_Balloc>
    803c:	2201      	movs	r2, #1
    803e:	6144      	str	r4, [r0, #20]
    8040:	6102      	str	r2, [r0, #16]
    8042:	bd10      	pop	{r4, pc}

00008044 <__multiply>:
    8044:	e92d 4ff0 	stmdb	sp!, {r4, r5, r6, r7, r8, r9, sl, fp, lr}
    8048:	4616      	mov	r6, r2
    804a:	690a      	ldr	r2, [r1, #16]
    804c:	460d      	mov	r5, r1
    804e:	6933      	ldr	r3, [r6, #16]
    8050:	b085      	sub	sp, #20
    8052:	429a      	cmp	r2, r3
    8054:	bfbc      	itt	lt
    8056:	4635      	movlt	r5, r6
    8058:	460e      	movlt	r6, r1
    805a:	f8d5 8010 	ldr.w	r8, [r5, #16]
    805e:	6937      	ldr	r7, [r6, #16]
    8060:	68ab      	ldr	r3, [r5, #8]
    8062:	6869      	ldr	r1, [r5, #4]
    8064:	eb07 0408 	add.w	r4, r7, r8
    8068:	429c      	cmp	r4, r3
    806a:	bfc8      	it	gt
    806c:	3101      	addgt	r1, #1
    806e:	f7ff feca 	bl	7e06 <_Balloc>
    8072:	f100 0314 	add.w	r3, r0, #20
    8076:	eb00 0284 	add.w	r2, r0, r4, lsl #2
    807a:	3214      	adds	r2, #20
    807c:	9201      	str	r2, [sp, #4]
    807e:	461a      	mov	r2, r3
    8080:	e002      	b.n	8088 <__multiply+0x44>
    8082:	2100      	movs	r1, #0
    8084:	f842 1b04 	str.w	r1, [r2], #4
    8088:	9901      	ldr	r1, [sp, #4]
    808a:	428a      	cmp	r2, r1
    808c:	d3f9      	bcc.n	8082 <__multiply+0x3e>
    808e:	f105 0b14 	add.w	fp, r5, #20
    8092:	eb06 0787 	add.w	r7, r6, r7, lsl #2
    8096:	eb05 0588 	add.w	r5, r5, r8, lsl #2
    809a:	3714      	adds	r7, #20
    809c:	3514      	adds	r5, #20
    809e:	9703      	str	r7, [sp, #12]
    80a0:	9502      	str	r5, [sp, #8]
    80a2:	f106 0214 	add.w	r2, r6, #20
    80a6:	e04e      	b.n	8146 <__multiply+0x102>
    80a8:	f852 7b04 	ldr.w	r7, [r2], #4
    80ac:	b2bf      	uxth	r7, r7
    80ae:	b317      	cbz	r7, 80f6 <__multiply+0xb2>
    80b0:	465e      	mov	r6, fp
    80b2:	4619      	mov	r1, r3
    80b4:	2500      	movs	r5, #0
    80b6:	f856 cb04 	ldr.w	ip, [r6], #4
    80ba:	f8d1 a000 	ldr.w	sl, [r1]
    80be:	fa1f f98c 	uxth.w	r9, ip
    80c2:	ea4f 4c1c 	mov.w	ip, ip, lsr #16
    80c6:	fa1f f88a 	uxth.w	r8, sl
    80ca:	ea4f 4a1a 	mov.w	sl, sl, lsr #16
    80ce:	fb07 8809 	mla	r8, r7, r9, r8
    80d2:	f8dd 9008 	ldr.w	r9, [sp, #8]
    80d6:	fb07 ac0c 	mla	ip, r7, ip, sl
    80da:	45b1      	cmp	r9, r6
    80dc:	44a8      	add	r8, r5
    80de:	eb0c 4c18 	add.w	ip, ip, r8, lsr #16
    80e2:	fa1f f888 	uxth.w	r8, r8
    80e6:	ea48 480c 	orr.w	r8, r8, ip, lsl #16
    80ea:	ea4f 451c 	mov.w	r5, ip, lsr #16
    80ee:	f841 8b04 	str.w	r8, [r1], #4
    80f2:	d8e0      	bhi.n	80b6 <__multiply+0x72>
    80f4:	600d      	str	r5, [r1, #0]
    80f6:	f832 7c02 	ldrh.w	r7, [r2, #-2]
    80fa:	b31f      	cbz	r7, 8144 <__multiply+0x100>
    80fc:	681d      	ldr	r5, [r3, #0]
    80fe:	465e      	mov	r6, fp
    8100:	4698      	mov	r8, r3
    8102:	4619      	mov	r1, r3
    8104:	f04f 0c00 	mov.w	ip, #0
    8108:	f8b6 a000 	ldrh.w	sl, [r6]
    810c:	b2ad      	uxth	r5, r5
    810e:	f8b1 9002 	ldrh.w	r9, [r1, #2]
    8112:	fb07 990a 	mla	r9, r7, sl, r9
    8116:	44cc      	add	ip, r9
    8118:	ea45 450c 	orr.w	r5, r5, ip, lsl #16
    811c:	f841 5b04 	str.w	r5, [r1], #4
    8120:	f856 9b04 	ldr.w	r9, [r6], #4
    8124:	f858 5f04 	ldr.w	r5, [r8, #4]!
    8128:	ea4f 4919 	mov.w	r9, r9, lsr #16
    812c:	b2ad      	uxth	r5, r5
    812e:	fb07 5509 	mla	r5, r7, r9, r5
    8132:	f8dd 9008 	ldr.w	r9, [sp, #8]
    8136:	45b1      	cmp	r9, r6
    8138:	eb05 451c 	add.w	r5, r5, ip, lsr #16
    813c:	ea4f 4c15 	mov.w	ip, r5, lsr #16
    8140:	d8e2      	bhi.n	8108 <__multiply+0xc4>
    8142:	600d      	str	r5, [r1, #0]
    8144:	3304      	adds	r3, #4
    8146:	f8dd c00c 	ldr.w	ip, [sp, #12]
    814a:	4594      	cmp	ip, r2
    814c:	d8ac      	bhi.n	80a8 <__multiply+0x64>
    814e:	9b01      	ldr	r3, [sp, #4]
    8150:	e000      	b.n	8154 <__multiply+0x110>
    8152:	3c01      	subs	r4, #1
    8154:	2c00      	cmp	r4, #0
    8156:	dd03      	ble.n	8160 <__multiply+0x11c>
    8158:	f853 2d04 	ldr.w	r2, [r3, #-4]!
    815c:	2a00      	cmp	r2, #0
    815e:	d0f8      	beq.n	8152 <__multiply+0x10e>
    8160:	6104      	str	r4, [r0, #16]
    8162:	b005      	add	sp, #20
    8164:	e8bd 8ff0 	ldmia.w	sp!, {r4, r5, r6, r7, r8, r9, sl, fp, pc}

00008168 <__pow5mult>:
    8168:	f012 0303 	ands.w	r3, r2, #3
    816c:	e92d 41f0 	stmdb	sp!, {r4, r5, r6, r7, r8, lr}
    8170:	4604      	mov	r4, r0
    8172:	460f      	mov	r7, r1
    8174:	4615      	mov	r5, r2
    8176:	d007      	beq.n	8188 <__pow5mult+0x20>
    8178:	4a23      	ldr	r2, [pc, #140]	; (8208 <__pow5mult+0xa0>)
    817a:	3b01      	subs	r3, #1
    817c:	f852 2023 	ldr.w	r2, [r2, r3, lsl #2]
    8180:	2300      	movs	r3, #0
    8182:	f7ff fe88 	bl	7e96 <__multadd>
    8186:	4607      	mov	r7, r0
    8188:	10ad      	asrs	r5, r5, #2
    818a:	d039      	beq.n	8200 <__pow5mult+0x98>
    818c:	6a66      	ldr	r6, [r4, #36]	; 0x24
    818e:	b93e      	cbnz	r6, 81a0 <__pow5mult+0x38>
    8190:	2010      	movs	r0, #16
    8192:	f7fa f83b 	bl	220c <malloc>
    8196:	6260      	str	r0, [r4, #36]	; 0x24
    8198:	6046      	str	r6, [r0, #4]
    819a:	6086      	str	r6, [r0, #8]
    819c:	6006      	str	r6, [r0, #0]
    819e:	60c6      	str	r6, [r0, #12]
    81a0:	f8d4 8024 	ldr.w	r8, [r4, #36]	; 0x24
    81a4:	f8d8 6008 	ldr.w	r6, [r8, #8]
    81a8:	b966      	cbnz	r6, 81c4 <__pow5mult+0x5c>
    81aa:	4620      	mov	r0, r4
    81ac:	f240 2171 	movw	r1, #625	; 0x271
    81b0:	f7ff ff3f 	bl	8032 <__i2b>
    81b4:	2300      	movs	r3, #0
    81b6:	f8c8 0008 	str.w	r0, [r8, #8]
    81ba:	4606      	mov	r6, r0
    81bc:	6003      	str	r3, [r0, #0]
    81be:	e001      	b.n	81c4 <__pow5mult+0x5c>
    81c0:	4640      	mov	r0, r8
    81c2:	4606      	mov	r6, r0
    81c4:	f015 0f01 	tst.w	r5, #1
    81c8:	d00a      	beq.n	81e0 <__pow5mult+0x78>
    81ca:	4639      	mov	r1, r7
    81cc:	4632      	mov	r2, r6
    81ce:	4620      	mov	r0, r4
    81d0:	f7ff ff38 	bl	8044 <__multiply>
    81d4:	4639      	mov	r1, r7
    81d6:	4680      	mov	r8, r0
    81d8:	4620      	mov	r0, r4
    81da:	f7ff fe45 	bl	7e68 <_Bfree>
    81de:	4647      	mov	r7, r8
    81e0:	106d      	asrs	r5, r5, #1
    81e2:	d00d      	beq.n	8200 <__pow5mult+0x98>
    81e4:	f8d6 8000 	ldr.w	r8, [r6]
    81e8:	f1b8 0f00 	cmp.w	r8, #0
    81ec:	d1e8      	bne.n	81c0 <__pow5mult+0x58>
    81ee:	4620      	mov	r0, r4
    81f0:	4631      	mov	r1, r6
    81f2:	4632      	mov	r2, r6
    81f4:	f7ff ff26 	bl	8044 <__multiply>
    81f8:	6030      	str	r0, [r6, #0]
    81fa:	f8c0 8000 	str.w	r8, [r0]
    81fe:	e7e0      	b.n	81c2 <__pow5mult+0x5a>
    8200:	4638      	mov	r0, r7
    8202:	e8bd 81f0 	ldmia.w	sp!, {r4, r5, r6, r7, r8, pc}
    8206:	bf00      	nop
    8208:	0000c2e8 	.word	0x0000c2e8

0000820c <__lshift>:
    820c:	e92d 43f8 	stmdb	sp!, {r3, r4, r5, r6, r7, r8, r9, lr}
    8210:	460c      	mov	r4, r1
    8212:	ea4f 1962 	mov.w	r9, r2, asr #5
    8216:	4605      	mov	r5, r0
    8218:	6926      	ldr	r6, [r4, #16]
    821a:	4690      	mov	r8, r2
    821c:	6849      	ldr	r1, [r1, #4]
    821e:	3601      	adds	r6, #1
    8220:	68a3      	ldr	r3, [r4, #8]
    8222:	444e      	add	r6, r9
    8224:	e001      	b.n	822a <__lshift+0x1e>
    8226:	3101      	adds	r1, #1
    8228:	005b      	lsls	r3, r3, #1
    822a:	429e      	cmp	r6, r3
    822c:	dcfb      	bgt.n	8226 <__lshift+0x1a>
    822e:	4628      	mov	r0, r5
    8230:	f7ff fde9 	bl	7e06 <_Balloc>
    8234:	2200      	movs	r2, #0
    8236:	4607      	mov	r7, r0
    8238:	f100 0314 	add.w	r3, r0, #20
    823c:	e003      	b.n	8246 <__lshift+0x3a>
    823e:	3201      	adds	r2, #1
    8240:	2100      	movs	r1, #0
    8242:	f843 1b04 	str.w	r1, [r3], #4
    8246:	454a      	cmp	r2, r9
    8248:	dbf9      	blt.n	823e <__lshift+0x32>
    824a:	6920      	ldr	r0, [r4, #16]
    824c:	f104 0114 	add.w	r1, r4, #20
    8250:	eb04 0080 	add.w	r0, r4, r0, lsl #2
    8254:	3014      	adds	r0, #20
    8256:	f018 081f 	ands.w	r8, r8, #31
    825a:	d014      	beq.n	8286 <__lshift+0x7a>
    825c:	f1c8 0e20 	rsb	lr, r8, #32
    8260:	2200      	movs	r2, #0
    8262:	f8d1 c000 	ldr.w	ip, [r1]
    8266:	fa0c fc08 	lsl.w	ip, ip, r8
    826a:	ea42 020c 	orr.w	r2, r2, ip
    826e:	f843 2b04 	str.w	r2, [r3], #4
    8272:	f851 2b04 	ldr.w	r2, [r1], #4
    8276:	4288      	cmp	r0, r1
    8278:	fa22 f20e 	lsr.w	r2, r2, lr
    827c:	d8f1      	bhi.n	8262 <__lshift+0x56>
    827e:	601a      	str	r2, [r3, #0]
    8280:	b13a      	cbz	r2, 8292 <__lshift+0x86>
    8282:	3601      	adds	r6, #1
    8284:	e005      	b.n	8292 <__lshift+0x86>
    8286:	f851 2b04 	ldr.w	r2, [r1], #4
    828a:	4288      	cmp	r0, r1
    828c:	f843 2b04 	str.w	r2, [r3], #4
    8290:	d8f9      	bhi.n	8286 <__lshift+0x7a>
    8292:	4628      	mov	r0, r5
    8294:	3e01      	subs	r6, #1
    8296:	4621      	mov	r1, r4
    8298:	613e      	str	r6, [r7, #16]
    829a:	f7ff fde5 	bl	7e68 <_Bfree>
    829e:	4638      	mov	r0, r7
    82a0:	e8bd 83f8 	ldmia.w	sp!, {r3, r4, r5, r6, r7, r8, r9, pc}

000082a4 <__mcmp>:
    82a4:	4603      	mov	r3, r0
    82a6:	690a      	ldr	r2, [r1, #16]
    82a8:	6900      	ldr	r0, [r0, #16]
    82aa:	b530      	push	{r4, r5, lr}
    82ac:	1a80      	subs	r0, r0, r2
    82ae:	d115      	bne.n	82dc <__mcmp+0x38>
    82b0:	3204      	adds	r2, #4
    82b2:	f103 0414 	add.w	r4, r3, #20
    82b6:	0092      	lsls	r2, r2, #2
    82b8:	189b      	adds	r3, r3, r2
    82ba:	188a      	adds	r2, r1, r2
    82bc:	3304      	adds	r3, #4
    82be:	3204      	adds	r2, #4
    82c0:	f853 5d04 	ldr.w	r5, [r3, #-4]!
    82c4:	f852 1d04 	ldr.w	r1, [r2, #-4]!
    82c8:	428d      	cmp	r5, r1
    82ca:	d003      	beq.n	82d4 <__mcmp+0x30>
    82cc:	d205      	bcs.n	82da <__mcmp+0x36>
    82ce:	f04f 30ff 	mov.w	r0, #4294967295
    82d2:	bd30      	pop	{r4, r5, pc}
    82d4:	429c      	cmp	r4, r3
    82d6:	d3f3      	bcc.n	82c0 <__mcmp+0x1c>
    82d8:	bd30      	pop	{r4, r5, pc}
    82da:	2001      	movs	r0, #1
    82dc:	bd30      	pop	{r4, r5, pc}

000082de <__mdiff>:
    82de:	e92d 47f0 	stmdb	sp!, {r4, r5, r6, r7, r8, r9, sl, lr}
    82e2:	4605      	mov	r5, r0
    82e4:	460c      	mov	r4, r1
    82e6:	4608      	mov	r0, r1
    82e8:	4611      	mov	r1, r2
    82ea:	4616      	mov	r6, r2
    82ec:	f7ff ffda 	bl	82a4 <__mcmp>
    82f0:	1e07      	subs	r7, r0, #0
    82f2:	d108      	bne.n	8306 <__mdiff+0x28>
    82f4:	4628      	mov	r0, r5
    82f6:	4639      	mov	r1, r7
    82f8:	f7ff fd85 	bl	7e06 <_Balloc>
    82fc:	2301      	movs	r3, #1
    82fe:	6147      	str	r7, [r0, #20]
    8300:	6103      	str	r3, [r0, #16]
    8302:	e8bd 87f0 	ldmia.w	sp!, {r4, r5, r6, r7, r8, r9, sl, pc}
    8306:	db01      	blt.n	830c <__mdiff+0x2e>
    8308:	2700      	movs	r7, #0
    830a:	e003      	b.n	8314 <__mdiff+0x36>
    830c:	4623      	mov	r3, r4
    830e:	2701      	movs	r7, #1
    8310:	4634      	mov	r4, r6
    8312:	461e      	mov	r6, r3
    8314:	6861      	ldr	r1, [r4, #4]
    8316:	4628      	mov	r0, r5
    8318:	f7ff fd75 	bl	7e06 <_Balloc>
    831c:	6932      	ldr	r2, [r6, #16]
    831e:	6923      	ldr	r3, [r4, #16]
    8320:	eb06 0882 	add.w	r8, r6, r2, lsl #2
    8324:	3614      	adds	r6, #20
    8326:	eb04 0c83 	add.w	ip, r4, r3, lsl #2
    832a:	f108 0814 	add.w	r8, r8, #20
    832e:	f10c 0c14 	add.w	ip, ip, #20
    8332:	3414      	adds	r4, #20
    8334:	2200      	movs	r2, #0
    8336:	60c7      	str	r7, [r0, #12]
    8338:	f100 0714 	add.w	r7, r0, #20
    833c:	f854 5b04 	ldr.w	r5, [r4], #4
    8340:	f856 1b04 	ldr.w	r1, [r6], #4
    8344:	fa1f fa85 	uxth.w	sl, r5
    8348:	fa1f f981 	uxth.w	r9, r1
    834c:	0c09      	lsrs	r1, r1, #16
    834e:	ebc9 090a 	rsb	r9, r9, sl
    8352:	ebc1 4115 	rsb	r1, r1, r5, lsr #16
    8356:	4491      	add	r9, r2
    8358:	4625      	mov	r5, r4
    835a:	eb01 4129 	add.w	r1, r1, r9, asr #16
    835e:	fa1f f989 	uxth.w	r9, r9
    8362:	140a      	asrs	r2, r1, #16
    8364:	45b0      	cmp	r8, r6
    8366:	ea49 4101 	orr.w	r1, r9, r1, lsl #16
    836a:	f847 1b04 	str.w	r1, [r7], #4
    836e:	4639      	mov	r1, r7
    8370:	d8e4      	bhi.n	833c <__mdiff+0x5e>
    8372:	e00c      	b.n	838e <__mdiff+0xb0>
    8374:	f855 4b04 	ldr.w	r4, [r5], #4
    8378:	b2a6      	uxth	r6, r4
    837a:	0c24      	lsrs	r4, r4, #16
    837c:	1996      	adds	r6, r2, r6
    837e:	eb04 4426 	add.w	r4, r4, r6, asr #16
    8382:	b2b6      	uxth	r6, r6
    8384:	1422      	asrs	r2, r4, #16
    8386:	ea46 4404 	orr.w	r4, r6, r4, lsl #16
    838a:	f841 4b04 	str.w	r4, [r1], #4
    838e:	4565      	cmp	r5, ip
    8390:	d3f0      	bcc.n	8374 <__mdiff+0x96>
    8392:	e000      	b.n	8396 <__mdiff+0xb8>
    8394:	3b01      	subs	r3, #1
    8396:	f851 2d04 	ldr.w	r2, [r1, #-4]!
    839a:	2a00      	cmp	r2, #0
    839c:	d0fa      	beq.n	8394 <__mdiff+0xb6>
    839e:	6103      	str	r3, [r0, #16]
    83a0:	e8bd 87f0 	ldmia.w	sp!, {r4, r5, r6, r7, r8, r9, sl, pc}

000083a4 <__ulp>:
    83a4:	4b0e      	ldr	r3, [pc, #56]	; (83e0 <__ulp+0x3c>)
    83a6:	ea01 0303 	and.w	r3, r1, r3
    83aa:	f1a3 7350 	sub.w	r3, r3, #54525952	; 0x3400000
    83ae:	2b00      	cmp	r3, #0
    83b0:	dd01      	ble.n	83b6 <__ulp+0x12>
    83b2:	4619      	mov	r1, r3
    83b4:	e007      	b.n	83c6 <__ulp+0x22>
    83b6:	425b      	negs	r3, r3
    83b8:	151b      	asrs	r3, r3, #20
    83ba:	2b13      	cmp	r3, #19
    83bc:	dc05      	bgt.n	83ca <__ulp+0x26>
    83be:	f44f 2200 	mov.w	r2, #524288	; 0x80000
    83c2:	fa52 f103 	asrs.w	r1, r2, r3
    83c6:	2000      	movs	r0, #0
    83c8:	4770      	bx	lr
    83ca:	f1a3 0214 	sub.w	r2, r3, #20
    83ce:	2100      	movs	r1, #0
    83d0:	2301      	movs	r3, #1
    83d2:	2a1e      	cmp	r2, #30
    83d4:	bfdc      	itt	le
    83d6:	f1c2 021f 	rsble	r2, r2, #31
    83da:	4093      	lslle	r3, r2
    83dc:	4618      	mov	r0, r3
    83de:	4770      	bx	lr
    83e0:	7ff00000 	.word	0x7ff00000

000083e4 <__b2d>:
    83e4:	6903      	ldr	r3, [r0, #16]
    83e6:	e92d 41f0 	stmdb	sp!, {r4, r5, r6, r7, r8, lr}
    83ea:	3304      	adds	r3, #4
    83ec:	f100 0614 	add.w	r6, r0, #20
    83f0:	4688      	mov	r8, r1
    83f2:	f850 5023 	ldr.w	r5, [r0, r3, lsl #2]
    83f6:	eb00 0483 	add.w	r4, r0, r3, lsl #2
    83fa:	4627      	mov	r7, r4
    83fc:	4628      	mov	r0, r5
    83fe:	f7ff fdc6 	bl	7f8e <__hi0bits>
    8402:	280a      	cmp	r0, #10
    8404:	f1c0 0320 	rsb	r3, r0, #32
    8408:	f8c8 3000 	str.w	r3, [r8]
    840c:	dc13      	bgt.n	8436 <__b2d+0x52>
    840e:	f1c0 010b 	rsb	r1, r0, #11
    8412:	fa35 f701 	lsrs.w	r7, r5, r1
    8416:	42b4      	cmp	r4, r6
    8418:	f047 537e 	orr.w	r3, r7, #1065353216	; 0x3f800000
    841c:	bf8c      	ite	hi
    841e:	f854 4c04 	ldrhi.w	r4, [r4, #-4]
    8422:	2400      	movls	r4, #0
    8424:	3015      	adds	r0, #21
    8426:	f443 03e0 	orr.w	r3, r3, #7340032	; 0x700000
    842a:	4085      	lsls	r5, r0
    842c:	fa34 f101 	lsrs.w	r1, r4, r1
    8430:	ea41 0205 	orr.w	r2, r1, r5
    8434:	e024      	b.n	8480 <__b2d+0x9c>
    8436:	42b4      	cmp	r4, r6
    8438:	d903      	bls.n	8442 <__b2d+0x5e>
    843a:	3c04      	subs	r4, #4
    843c:	f857 1c04 	ldr.w	r1, [r7, #-4]
    8440:	e000      	b.n	8444 <__b2d+0x60>
    8442:	2100      	movs	r1, #0
    8444:	380b      	subs	r0, #11
    8446:	d016      	beq.n	8476 <__b2d+0x92>
    8448:	4085      	lsls	r5, r0
    844a:	42b4      	cmp	r4, r6
    844c:	f1c0 0720 	rsb	r7, r0, #32
    8450:	f045 557e 	orr.w	r5, r5, #1065353216	; 0x3f800000
    8454:	bf8c      	ite	hi
    8456:	f854 4c04 	ldrhi.w	r4, [r4, #-4]
    845a:	2400      	movls	r4, #0
    845c:	fa21 fc07 	lsr.w	ip, r1, r7
    8460:	f445 05e0 	orr.w	r5, r5, #7340032	; 0x700000
    8464:	fa11 f000 	lsls.w	r0, r1, r0
    8468:	ea45 030c 	orr.w	r3, r5, ip
    846c:	fa34 f707 	lsrs.w	r7, r4, r7
    8470:	ea47 0200 	orr.w	r2, r7, r0
    8474:	e004      	b.n	8480 <__b2d+0x9c>
    8476:	f045 537e 	orr.w	r3, r5, #1065353216	; 0x3f800000
    847a:	460a      	mov	r2, r1
    847c:	f443 03e0 	orr.w	r3, r3, #7340032	; 0x700000
    8480:	4610      	mov	r0, r2
    8482:	4619      	mov	r1, r3
    8484:	e8bd 81f0 	ldmia.w	sp!, {r4, r5, r6, r7, r8, pc}

00008488 <__d2b>:
    8488:	e92d 43f7 	stmdb	sp!, {r0, r1, r2, r4, r5, r6, r7, r8, r9, lr}
    848c:	2101      	movs	r1, #1
    848e:	461d      	mov	r5, r3
    8490:	9f0a      	ldr	r7, [sp, #40]	; 0x28
    8492:	9e0b      	ldr	r6, [sp, #44]	; 0x2c
    8494:	4614      	mov	r4, r2
    8496:	f7ff fcb6 	bl	7e06 <_Balloc>
    849a:	f025 4900 	bic.w	r9, r5, #2147483648	; 0x80000000
    849e:	f025 437f 	bic.w	r3, r5, #4278190080	; 0xff000000
    84a2:	f423 0370 	bic.w	r3, r3, #15728640	; 0xf00000
    84a6:	ea5f 5919 	movs.w	r9, r9, lsr #20
    84aa:	9300      	str	r3, [sp, #0]
    84ac:	bf1c      	itt	ne
    84ae:	f443 1380 	orrne.w	r3, r3, #1048576	; 0x100000
    84b2:	9300      	strne	r3, [sp, #0]
    84b4:	4680      	mov	r8, r0
    84b6:	b1f4      	cbz	r4, 84f6 <__d2b+0x6e>
    84b8:	a802      	add	r0, sp, #8
    84ba:	f840 4d04 	str.w	r4, [r0, #-4]!
    84be:	f7ff fd86 	bl	7fce <__lo0bits>
    84c2:	9b01      	ldr	r3, [sp, #4]
    84c4:	b158      	cbz	r0, 84de <__d2b+0x56>
    84c6:	9a00      	ldr	r2, [sp, #0]
    84c8:	f1c0 0120 	rsb	r1, r0, #32
    84cc:	fa12 f101 	lsls.w	r1, r2, r1
    84d0:	40c2      	lsrs	r2, r0
    84d2:	ea41 0303 	orr.w	r3, r1, r3
    84d6:	9200      	str	r2, [sp, #0]
    84d8:	f8c8 3014 	str.w	r3, [r8, #20]
    84dc:	e001      	b.n	84e2 <__d2b+0x5a>
    84de:	f8c8 3014 	str.w	r3, [r8, #20]
    84e2:	9c00      	ldr	r4, [sp, #0]
    84e4:	f8c8 4018 	str.w	r4, [r8, #24]
    84e8:	2c00      	cmp	r4, #0
    84ea:	bf0c      	ite	eq
    84ec:	2401      	moveq	r4, #1
    84ee:	2402      	movne	r4, #2
    84f0:	f8c8 4010 	str.w	r4, [r8, #16]
    84f4:	e009      	b.n	850a <__d2b+0x82>
    84f6:	4668      	mov	r0, sp
    84f8:	2401      	movs	r4, #1
    84fa:	f7ff fd68 	bl	7fce <__lo0bits>
    84fe:	9b00      	ldr	r3, [sp, #0]
    8500:	f8c8 4010 	str.w	r4, [r8, #16]
    8504:	f8c8 3014 	str.w	r3, [r8, #20]
    8508:	3020      	adds	r0, #32
    850a:	f1b9 0f00 	cmp.w	r9, #0
    850e:	d00a      	beq.n	8526 <__d2b+0x9e>
    8510:	f5a9 6986 	sub.w	r9, r9, #1072	; 0x430
    8514:	f1a9 0903 	sub.w	r9, r9, #3
    8518:	eb09 0300 	add.w	r3, r9, r0
    851c:	f1c0 0035 	rsb	r0, r0, #53	; 0x35
    8520:	603b      	str	r3, [r7, #0]
    8522:	6030      	str	r0, [r6, #0]
    8524:	e00b      	b.n	853e <__d2b+0xb6>
    8526:	eb08 0384 	add.w	r3, r8, r4, lsl #2
    852a:	f5a0 6086 	sub.w	r0, r0, #1072	; 0x430
    852e:	3802      	subs	r0, #2
    8530:	6038      	str	r0, [r7, #0]
    8532:	6918      	ldr	r0, [r3, #16]
    8534:	0164      	lsls	r4, r4, #5
    8536:	f7ff fd2a 	bl	7f8e <__hi0bits>
    853a:	1a24      	subs	r4, r4, r0
    853c:	6034      	str	r4, [r6, #0]
    853e:	4640      	mov	r0, r8
    8540:	e8bd 83fe 	ldmia.w	sp!, {r1, r2, r3, r4, r5, r6, r7, r8, r9, pc}

00008544 <__ratio>:
    8544:	b5f7      	push	{r0, r1, r2, r4, r5, r6, r7, lr}
    8546:	460e      	mov	r6, r1
    8548:	a901      	add	r1, sp, #4
    854a:	4607      	mov	r7, r0
    854c:	f7ff ff4a 	bl	83e4 <__b2d>
    8550:	4604      	mov	r4, r0
    8552:	460d      	mov	r5, r1
    8554:	4630      	mov	r0, r6
    8556:	4669      	mov	r1, sp
    8558:	f7ff ff44 	bl	83e4 <__b2d>
    855c:	693f      	ldr	r7, [r7, #16]
    855e:	4602      	mov	r2, r0
    8560:	460b      	mov	r3, r1
    8562:	9801      	ldr	r0, [sp, #4]
    8564:	9900      	ldr	r1, [sp, #0]
    8566:	1a41      	subs	r1, r0, r1
    8568:	6930      	ldr	r0, [r6, #16]
    856a:	1a38      	subs	r0, r7, r0
    856c:	0140      	lsls	r0, r0, #5
    856e:	1809      	adds	r1, r1, r0
    8570:	2900      	cmp	r1, #0
    8572:	dd02      	ble.n	857a <__ratio+0x36>
    8574:	0509      	lsls	r1, r1, #20
    8576:	194d      	adds	r5, r1, r5
    8578:	e001      	b.n	857e <__ratio+0x3a>
    857a:	0509      	lsls	r1, r1, #20
    857c:	1a5b      	subs	r3, r3, r1
    857e:	4620      	mov	r0, r4
    8580:	4629      	mov	r1, r5
    8582:	f7f9 f803 	bl	158c <__aeabi_ddiv>
    8586:	b003      	add	sp, #12
    8588:	bdf0      	pop	{r4, r5, r6, r7, pc}

0000858a <__copybits>:
    858a:	1e4b      	subs	r3, r1, #1
    858c:	6911      	ldr	r1, [r2, #16]
    858e:	b510      	push	{r4, lr}
    8590:	115b      	asrs	r3, r3, #5
    8592:	3301      	adds	r3, #1
    8594:	eb02 0181 	add.w	r1, r2, r1, lsl #2
    8598:	3114      	adds	r1, #20
    859a:	3214      	adds	r2, #20
    859c:	eb00 0383 	add.w	r3, r0, r3, lsl #2
    85a0:	e003      	b.n	85aa <__copybits+0x20>
    85a2:	f852 4b04 	ldr.w	r4, [r2], #4
    85a6:	f840 4b04 	str.w	r4, [r0], #4
    85aa:	4291      	cmp	r1, r2
    85ac:	d8f9      	bhi.n	85a2 <__copybits+0x18>
    85ae:	e002      	b.n	85b6 <__copybits+0x2c>
    85b0:	2200      	movs	r2, #0
    85b2:	f840 2b04 	str.w	r2, [r0], #4
    85b6:	4298      	cmp	r0, r3
    85b8:	d3fa      	bcc.n	85b0 <__copybits+0x26>
    85ba:	bd10      	pop	{r4, pc}

000085bc <__any_on>:
    85bc:	6902      	ldr	r2, [r0, #16]
    85be:	114b      	asrs	r3, r1, #5
    85c0:	b530      	push	{r4, r5, lr}
    85c2:	4293      	cmp	r3, r2
    85c4:	f100 0414 	add.w	r4, r0, #20
    85c8:	dc0d      	bgt.n	85e6 <__any_on+0x2a>
    85ca:	da0d      	bge.n	85e8 <__any_on+0x2c>
    85cc:	f011 011f 	ands.w	r1, r1, #31
    85d0:	d00a      	beq.n	85e8 <__any_on+0x2c>
    85d2:	eb00 0283 	add.w	r2, r0, r3, lsl #2
    85d6:	6952      	ldr	r2, [r2, #20]
    85d8:	fa32 f501 	lsrs.w	r5, r2, r1
    85dc:	fa15 f101 	lsls.w	r1, r5, r1
    85e0:	4291      	cmp	r1, r2
    85e2:	d10c      	bne.n	85fe <__any_on+0x42>
    85e4:	e000      	b.n	85e8 <__any_on+0x2c>
    85e6:	4613      	mov	r3, r2
    85e8:	eb00 0383 	add.w	r3, r0, r3, lsl #2
    85ec:	3314      	adds	r3, #20
    85ee:	e002      	b.n	85f6 <__any_on+0x3a>
    85f0:	f853 2d04 	ldr.w	r2, [r3, #-4]!
    85f4:	b92a      	cbnz	r2, 8602 <__any_on+0x46>
    85f6:	429c      	cmp	r4, r3
    85f8:	d3fa      	bcc.n	85f0 <__any_on+0x34>
    85fa:	2000      	movs	r0, #0
    85fc:	bd30      	pop	{r4, r5, pc}
    85fe:	2001      	movs	r0, #1
    8600:	bd30      	pop	{r4, r5, pc}
    8602:	2001      	movs	r0, #1
    8604:	bd30      	pop	{r4, r5, pc}
	...

00008608 <_read_r>:
    8608:	b538      	push	{r3, r4, r5, lr}
    860a:	4605      	mov	r5, r0
    860c:	4c07      	ldr	r4, [pc, #28]	; (862c <_read_r+0x24>)
    860e:	2000      	movs	r0, #0
    8610:	6020      	str	r0, [r4, #0]
    8612:	4608      	mov	r0, r1
    8614:	4611      	mov	r1, r2
    8616:	461a      	mov	r2, r3
    8618:	f7f7 ff62 	bl	4e0 <_read>
    861c:	f1b0 3fff 	cmp.w	r0, #4294967295
    8620:	d102      	bne.n	8628 <_read_r+0x20>
    8622:	6823      	ldr	r3, [r4, #0]
    8624:	b103      	cbz	r3, 8628 <_read_r+0x20>
    8626:	602b      	str	r3, [r5, #0]
    8628:	bd38      	pop	{r3, r4, r5, pc}
    862a:	bf00      	nop
    862c:	10000640 	.word	0x10000640

00008630 <lflush>:
    8630:	8983      	ldrh	r3, [r0, #12]
    8632:	f003 0309 	and.w	r3, r3, #9
    8636:	2b09      	cmp	r3, #9
    8638:	d101      	bne.n	863e <lflush+0xe>
    863a:	f7ff b87b 	b.w	7734 <fflush>
    863e:	2000      	movs	r0, #0
    8640:	4770      	bx	lr
	...

00008644 <__srefill_r>:
    8644:	b570      	push	{r4, r5, r6, lr}
    8646:	460c      	mov	r4, r1
    8648:	4606      	mov	r6, r0
    864a:	b118      	cbz	r0, 8654 <__srefill_r+0x10>
    864c:	6983      	ldr	r3, [r0, #24]
    864e:	b90b      	cbnz	r3, 8654 <__srefill_r+0x10>
    8650:	f7ff f8c0 	bl	77d4 <__sinit>
    8654:	4b3c      	ldr	r3, [pc, #240]	; (8748 <__srefill_r+0x104>)
    8656:	429c      	cmp	r4, r3
    8658:	d101      	bne.n	865e <__srefill_r+0x1a>
    865a:	6874      	ldr	r4, [r6, #4]
    865c:	e008      	b.n	8670 <__srefill_r+0x2c>
    865e:	4b3b      	ldr	r3, [pc, #236]	; (874c <__srefill_r+0x108>)
    8660:	429c      	cmp	r4, r3
    8662:	d101      	bne.n	8668 <__srefill_r+0x24>
    8664:	68b4      	ldr	r4, [r6, #8]
    8666:	e003      	b.n	8670 <__srefill_r+0x2c>
    8668:	4b39      	ldr	r3, [pc, #228]	; (8750 <__srefill_r+0x10c>)
    866a:	429c      	cmp	r4, r3
    866c:	bf08      	it	eq
    866e:	68f4      	ldreq	r4, [r6, #12]
    8670:	89a3      	ldrh	r3, [r4, #12]
    8672:	f413 5f00 	tst.w	r3, #8192	; 0x2000
    8676:	d106      	bne.n	8686 <__srefill_r+0x42>
    8678:	f443 5300 	orr.w	r3, r3, #8192	; 0x2000
    867c:	81a3      	strh	r3, [r4, #12]
    867e:	6e63      	ldr	r3, [r4, #100]	; 0x64
    8680:	f423 5300 	bic.w	r3, r3, #8192	; 0x2000
    8684:	6663      	str	r3, [r4, #100]	; 0x64
    8686:	89a2      	ldrh	r2, [r4, #12]
    8688:	2300      	movs	r3, #0
    868a:	6063      	str	r3, [r4, #4]
    868c:	b293      	uxth	r3, r2
    868e:	f013 0f20 	tst.w	r3, #32
    8692:	d153      	bne.n	873c <__srefill_r+0xf8>
    8694:	f013 0f04 	tst.w	r3, #4
    8698:	d11c      	bne.n	86d4 <__srefill_r+0x90>
    869a:	f013 0f10 	tst.w	r3, #16
    869e:	d105      	bne.n	86ac <__srefill_r+0x68>
    86a0:	2309      	movs	r3, #9
    86a2:	f042 0240 	orr.w	r2, r2, #64	; 0x40
    86a6:	6033      	str	r3, [r6, #0]
    86a8:	81a2      	strh	r2, [r4, #12]
    86aa:	e047      	b.n	873c <__srefill_r+0xf8>
    86ac:	f013 0f08 	tst.w	r3, #8
    86b0:	d00b      	beq.n	86ca <__srefill_r+0x86>
    86b2:	4630      	mov	r0, r6
    86b4:	4621      	mov	r1, r4
    86b6:	f7fe ff83 	bl	75c0 <_fflush_r>
    86ba:	2800      	cmp	r0, #0
    86bc:	d13e      	bne.n	873c <__srefill_r+0xf8>
    86be:	89a3      	ldrh	r3, [r4, #12]
    86c0:	60a0      	str	r0, [r4, #8]
    86c2:	f023 0308 	bic.w	r3, r3, #8
    86c6:	61a0      	str	r0, [r4, #24]
    86c8:	81a3      	strh	r3, [r4, #12]
    86ca:	89a3      	ldrh	r3, [r4, #12]
    86cc:	f043 0304 	orr.w	r3, r3, #4
    86d0:	81a3      	strh	r3, [r4, #12]
    86d2:	e010      	b.n	86f6 <__srefill_r+0xb2>
    86d4:	6b61      	ldr	r1, [r4, #52]	; 0x34
    86d6:	b171      	cbz	r1, 86f6 <__srefill_r+0xb2>
    86d8:	f104 0344 	add.w	r3, r4, #68	; 0x44
    86dc:	4299      	cmp	r1, r3
    86de:	d002      	beq.n	86e6 <__srefill_r+0xa2>
    86e0:	4630      	mov	r0, r6
    86e2:	f7ff f9a7 	bl	7a34 <_free_r>
    86e6:	6c23      	ldr	r3, [r4, #64]	; 0x40
    86e8:	2000      	movs	r0, #0
    86ea:	6360      	str	r0, [r4, #52]	; 0x34
    86ec:	6063      	str	r3, [r4, #4]
    86ee:	b113      	cbz	r3, 86f6 <__srefill_r+0xb2>
    86f0:	6be3      	ldr	r3, [r4, #60]	; 0x3c
    86f2:	6023      	str	r3, [r4, #0]
    86f4:	bd70      	pop	{r4, r5, r6, pc}
    86f6:	6923      	ldr	r3, [r4, #16]
    86f8:	b91b      	cbnz	r3, 8702 <__srefill_r+0xbe>
    86fa:	4630      	mov	r0, r6
    86fc:	4621      	mov	r1, r4
    86fe:	f7ff facf 	bl	7ca0 <__smakebuf_r>
    8702:	89a3      	ldrh	r3, [r4, #12]
    8704:	f013 0f03 	tst.w	r3, #3
    8708:	d004      	beq.n	8714 <__srefill_r+0xd0>
    870a:	4b12      	ldr	r3, [pc, #72]	; (8754 <__srefill_r+0x110>)
    870c:	4912      	ldr	r1, [pc, #72]	; (8758 <__srefill_r+0x114>)
    870e:	6818      	ldr	r0, [r3, #0]
    8710:	f7ff fa50 	bl	7bb4 <_fwalk>
    8714:	6922      	ldr	r2, [r4, #16]
    8716:	4630      	mov	r0, r6
    8718:	6a65      	ldr	r5, [r4, #36]	; 0x24
    871a:	6a21      	ldr	r1, [r4, #32]
    871c:	6022      	str	r2, [r4, #0]
    871e:	6963      	ldr	r3, [r4, #20]
    8720:	47a8      	blx	r5
    8722:	2800      	cmp	r0, #0
    8724:	6060      	str	r0, [r4, #4]
    8726:	dc0c      	bgt.n	8742 <__srefill_r+0xfe>
    8728:	89a3      	ldrh	r3, [r4, #12]
    872a:	d102      	bne.n	8732 <__srefill_r+0xee>
    872c:	f043 0320 	orr.w	r3, r3, #32
    8730:	e003      	b.n	873a <__srefill_r+0xf6>
    8732:	f043 0340 	orr.w	r3, r3, #64	; 0x40
    8736:	2200      	movs	r2, #0
    8738:	6062      	str	r2, [r4, #4]
    873a:	81a3      	strh	r3, [r4, #12]
    873c:	f04f 30ff 	mov.w	r0, #4294967295
    8740:	bd70      	pop	{r4, r5, r6, pc}
    8742:	2000      	movs	r0, #0
    8744:	bd70      	pop	{r4, r5, r6, pc}
    8746:	bf00      	nop
    8748:	0000c280 	.word	0x0000c280
    874c:	0000c2a0 	.word	0x0000c2a0
    8750:	0000c2c0 	.word	0x0000c2c0
    8754:	0000c074 	.word	0x0000c074
    8758:	00008631 	.word	0x00008631

0000875c <__fpclassifyd>:
    875c:	460b      	mov	r3, r1
    875e:	b113      	cbz	r3, 8766 <__fpclassifyd+0xa>
    8760:	f1b1 4f00 	cmp.w	r1, #2147483648	; 0x80000000
    8764:	d100      	bne.n	8768 <__fpclassifyd+0xc>
    8766:	b1e0      	cbz	r0, 87a2 <__fpclassifyd+0x46>
    8768:	4a12      	ldr	r2, [pc, #72]	; (87b4 <__fpclassifyd+0x58>)
    876a:	f5a1 1380 	sub.w	r3, r1, #1048576	; 0x100000
    876e:	4293      	cmp	r3, r2
    8770:	d919      	bls.n	87a6 <__fpclassifyd+0x4a>
    8772:	f101 43fe 	add.w	r3, r1, #2130706432	; 0x7f000000
    8776:	f503 0370 	add.w	r3, r3, #15728640	; 0xf00000
    877a:	4293      	cmp	r3, r2
    877c:	d913      	bls.n	87a6 <__fpclassifyd+0x4a>
    877e:	4b0e      	ldr	r3, [pc, #56]	; (87b8 <__fpclassifyd+0x5c>)
    8780:	4299      	cmp	r1, r3
    8782:	d912      	bls.n	87aa <__fpclassifyd+0x4e>
    8784:	f101 4200 	add.w	r2, r1, #2147483648	; 0x80000000
    8788:	429a      	cmp	r2, r3
    878a:	d90e      	bls.n	87aa <__fpclassifyd+0x4e>
    878c:	4b0b      	ldr	r3, [pc, #44]	; (87bc <__fpclassifyd+0x60>)
    878e:	4299      	cmp	r1, r3
    8790:	d002      	beq.n	8798 <__fpclassifyd+0x3c>
    8792:	f511 1f80 	cmn.w	r1, #1048576	; 0x100000
    8796:	d10a      	bne.n	87ae <__fpclassifyd+0x52>
    8798:	f1d0 0001 	rsbs	r0, r0, #1
    879c:	bf38      	it	cc
    879e:	2000      	movcc	r0, #0
    87a0:	4770      	bx	lr
    87a2:	2002      	movs	r0, #2
    87a4:	4770      	bx	lr
    87a6:	2004      	movs	r0, #4
    87a8:	4770      	bx	lr
    87aa:	2003      	movs	r0, #3
    87ac:	4770      	bx	lr
    87ae:	2000      	movs	r0, #0
    87b0:	4770      	bx	lr
    87b2:	bf00      	nop
    87b4:	7fdfffff 	.word	0x7fdfffff
    87b8:	000fffff 	.word	0x000fffff
    87bc:	7ff00000 	.word	0x7ff00000

000087c0 <__sccl>:
    87c0:	4603      	mov	r3, r0
    87c2:	4608      	mov	r0, r1
    87c4:	b5f0      	push	{r4, r5, r6, r7, lr}
    87c6:	f810 2b01 	ldrb.w	r2, [r0], #1
    87ca:	2a5e      	cmp	r2, #94	; 0x5e
    87cc:	d103      	bne.n	87d6 <__sccl+0x16>
    87ce:	784a      	ldrb	r2, [r1, #1]
    87d0:	3001      	adds	r0, #1
    87d2:	2401      	movs	r4, #1
    87d4:	e000      	b.n	87d8 <__sccl+0x18>
    87d6:	2400      	movs	r4, #0
    87d8:	2100      	movs	r1, #0
    87da:	545c      	strb	r4, [r3, r1]
    87dc:	3101      	adds	r1, #1
    87de:	f5b1 7f80 	cmp.w	r1, #256	; 0x100
    87e2:	d1fa      	bne.n	87da <__sccl+0x1a>
    87e4:	b90a      	cbnz	r2, 87ea <__sccl+0x2a>
    87e6:	3801      	subs	r0, #1
    87e8:	bdf0      	pop	{r4, r5, r6, r7, pc}
    87ea:	f1c4 0701 	rsb	r7, r4, #1
    87ee:	e001      	b.n	87f4 <__sccl+0x34>
    87f0:	460a      	mov	r2, r1
    87f2:	4620      	mov	r0, r4
    87f4:	463e      	mov	r6, r7
    87f6:	549f      	strb	r7, [r3, r2]
    87f8:	4604      	mov	r4, r0
    87fa:	f814 1b01 	ldrb.w	r1, [r4], #1
    87fe:	292d      	cmp	r1, #45	; 0x2d
    8800:	d003      	beq.n	880a <__sccl+0x4a>
    8802:	295d      	cmp	r1, #93	; 0x5d
    8804:	d00c      	beq.n	8820 <__sccl+0x60>
    8806:	b161      	cbz	r1, 8822 <__sccl+0x62>
    8808:	e7f2      	b.n	87f0 <__sccl+0x30>
    880a:	7845      	ldrb	r5, [r0, #1]
    880c:	2d5d      	cmp	r5, #93	; 0x5d
    880e:	d0ef      	beq.n	87f0 <__sccl+0x30>
    8810:	4295      	cmp	r5, r2
    8812:	dbed      	blt.n	87f0 <__sccl+0x30>
    8814:	3002      	adds	r0, #2
    8816:	3201      	adds	r2, #1
    8818:	42aa      	cmp	r2, r5
    881a:	549e      	strb	r6, [r3, r2]
    881c:	dbfb      	blt.n	8816 <__sccl+0x56>
    881e:	e7eb      	b.n	87f8 <__sccl+0x38>
    8820:	4620      	mov	r0, r4
    8822:	bdf0      	pop	{r4, r5, r6, r7, pc}

00008824 <nanf>:
    8824:	4800      	ldr	r0, [pc, #0]	; (8828 <nanf+0x4>)
    8826:	4770      	bx	lr
    8828:	7fc00000 	.word	0x7fc00000

0000882c <match>:
    882c:	b530      	push	{r4, r5, lr}
    882e:	6802      	ldr	r2, [r0, #0]
    8830:	e008      	b.n	8844 <match+0x18>
    8832:	7853      	ldrb	r3, [r2, #1]
    8834:	4622      	mov	r2, r4
    8836:	2b40      	cmp	r3, #64	; 0x40
    8838:	dd02      	ble.n	8840 <match+0x14>
    883a:	2b5a      	cmp	r3, #90	; 0x5a
    883c:	bfd8      	it	le
    883e:	3320      	addle	r3, #32
    8840:	42ab      	cmp	r3, r5
    8842:	d107      	bne.n	8854 <match+0x28>
    8844:	f811 5b01 	ldrb.w	r5, [r1], #1
    8848:	1c54      	adds	r4, r2, #1
    884a:	2d00      	cmp	r5, #0
    884c:	d1f1      	bne.n	8832 <match+0x6>
    884e:	6004      	str	r4, [r0, #0]
    8850:	2001      	movs	r0, #1
    8852:	bd30      	pop	{r4, r5, pc}
    8854:	2000      	movs	r0, #0
    8856:	bd30      	pop	{r4, r5, pc}

00008858 <_strtod_r>:
    8858:	e92d 4ff0 	stmdb	sp!, {r4, r5, r6, r7, r8, r9, sl, fp, lr}
    885c:	4606      	mov	r6, r0
    885e:	b099      	sub	sp, #100	; 0x64
    8860:	468b      	mov	fp, r1
    8862:	2400      	movs	r4, #0
    8864:	2500      	movs	r5, #0
    8866:	920f      	str	r2, [sp, #60]	; 0x3c
    8868:	9115      	str	r1, [sp, #84]	; 0x54
    886a:	9a15      	ldr	r2, [sp, #84]	; 0x54
    886c:	7813      	ldrb	r3, [r2, #0]
    886e:	2b0d      	cmp	r3, #13
    8870:	d805      	bhi.n	887e <_strtod_r+0x26>
    8872:	2b09      	cmp	r3, #9
    8874:	d214      	bcs.n	88a0 <_strtod_r+0x48>
    8876:	2b00      	cmp	r3, #0
    8878:	f000 81c7 	beq.w	8c0a <_strtod_r+0x3b2>
    887c:	e013      	b.n	88a6 <_strtod_r+0x4e>
    887e:	2b2b      	cmp	r3, #43	; 0x2b
    8880:	d007      	beq.n	8892 <_strtod_r+0x3a>
    8882:	2b2d      	cmp	r3, #45	; 0x2d
    8884:	d002      	beq.n	888c <_strtod_r+0x34>
    8886:	2b20      	cmp	r3, #32
    8888:	d10d      	bne.n	88a6 <_strtod_r+0x4e>
    888a:	e009      	b.n	88a0 <_strtod_r+0x48>
    888c:	2001      	movs	r0, #1
    888e:	900b      	str	r0, [sp, #44]	; 0x2c
    8890:	e001      	b.n	8896 <_strtod_r+0x3e>
    8892:	2100      	movs	r1, #0
    8894:	910b      	str	r1, [sp, #44]	; 0x2c
    8896:	1c53      	adds	r3, r2, #1
    8898:	9315      	str	r3, [sp, #84]	; 0x54
    889a:	7853      	ldrb	r3, [r2, #1]
    889c:	b92b      	cbnz	r3, 88aa <_strtod_r+0x52>
    889e:	e1b4      	b.n	8c0a <_strtod_r+0x3b2>
    88a0:	3201      	adds	r2, #1
    88a2:	9215      	str	r2, [sp, #84]	; 0x54
    88a4:	e7e1      	b.n	886a <_strtod_r+0x12>
    88a6:	2200      	movs	r2, #0
    88a8:	920b      	str	r2, [sp, #44]	; 0x2c
    88aa:	9b15      	ldr	r3, [sp, #84]	; 0x54
    88ac:	781a      	ldrb	r2, [r3, #0]
    88ae:	2a30      	cmp	r2, #48	; 0x30
    88b0:	d15c      	bne.n	896c <_strtod_r+0x114>
    88b2:	f103 0a01 	add.w	sl, r3, #1
    88b6:	785b      	ldrb	r3, [r3, #1]
    88b8:	2b58      	cmp	r3, #88	; 0x58
    88ba:	d001      	beq.n	88c0 <_strtod_r+0x68>
    88bc:	2b78      	cmp	r3, #120	; 0x78
    88be:	d149      	bne.n	8954 <_strtod_r+0xfc>
    88c0:	ab14      	add	r3, sp, #80	; 0x50
    88c2:	9300      	str	r3, [sp, #0]
    88c4:	9b0b      	ldr	r3, [sp, #44]	; 0x2c
    88c6:	4630      	mov	r0, r6
    88c8:	4f98      	ldr	r7, [pc, #608]	; (8b2c <_strtod_r+0x2d4>)
    88ca:	a915      	add	r1, sp, #84	; 0x54
    88cc:	9301      	str	r3, [sp, #4]
    88ce:	463a      	mov	r2, r7
    88d0:	ab13      	add	r3, sp, #76	; 0x4c
    88d2:	f002 f801 	bl	a8d8 <__gethex>
    88d6:	f010 0907 	ands.w	r9, r0, #7
    88da:	4680      	mov	r8, r0
    88dc:	f000 8580 	beq.w	93e0 <_strtod_r+0xb88>
    88e0:	f1b9 0f06 	cmp.w	r9, #6
    88e4:	d103      	bne.n	88ee <_strtod_r+0x96>
    88e6:	f8cd a054 	str.w	sl, [sp, #84]	; 0x54
    88ea:	f000 bd79 	b.w	93e0 <_strtod_r+0xb88>
    88ee:	9a14      	ldr	r2, [sp, #80]	; 0x50
    88f0:	b13a      	cbz	r2, 8902 <_strtod_r+0xaa>
    88f2:	a811      	add	r0, sp, #68	; 0x44
    88f4:	6839      	ldr	r1, [r7, #0]
    88f6:	f7ff fe48 	bl	858a <__copybits>
    88fa:	4630      	mov	r0, r6
    88fc:	9914      	ldr	r1, [sp, #80]	; 0x50
    88fe:	f7ff fab3 	bl	7e68 <_Bfree>
    8902:	9b13      	ldr	r3, [sp, #76]	; 0x4c
    8904:	f1b9 0f06 	cmp.w	r9, #6
    8908:	d81c      	bhi.n	8944 <_strtod_r+0xec>
    890a:	e8df f009 	tbb	[pc, r9]
    890e:	0a04      	.short	0x0a04
    8910:	0a171407 	.word	0x0a171407
    8914:	04          	.byte	0x04
    8915:	00          	.byte	0x00
    8916:	2500      	movs	r5, #0
    8918:	462c      	mov	r4, r5
    891a:	e013      	b.n	8944 <_strtod_r+0xec>
    891c:	9c11      	ldr	r4, [sp, #68]	; 0x44
    891e:	9d12      	ldr	r5, [sp, #72]	; 0x48
    8920:	e010      	b.n	8944 <_strtod_r+0xec>
    8922:	f503 6386 	add.w	r3, r3, #1072	; 0x430
    8926:	9a12      	ldr	r2, [sp, #72]	; 0x48
    8928:	3303      	adds	r3, #3
    892a:	9c11      	ldr	r4, [sp, #68]	; 0x44
    892c:	f422 1280 	bic.w	r2, r2, #1048576	; 0x100000
    8930:	ea42 5503 	orr.w	r5, r2, r3, lsl #20
    8934:	e006      	b.n	8944 <_strtod_r+0xec>
    8936:	4d7e      	ldr	r5, [pc, #504]	; (8b30 <_strtod_r+0x2d8>)
    8938:	2400      	movs	r4, #0
    893a:	e003      	b.n	8944 <_strtod_r+0xec>
    893c:	f06f 4500 	mvn.w	r5, #2147483648	; 0x80000000
    8940:	f04f 34ff 	mov.w	r4, #4294967295
    8944:	f018 0f08 	tst.w	r8, #8
    8948:	f000 854a 	beq.w	93e0 <_strtod_r+0xb88>
    894c:	f045 4500 	orr.w	r5, r5, #2147483648	; 0x80000000
    8950:	f000 bd46 	b.w	93e0 <_strtod_r+0xb88>
    8954:	9b15      	ldr	r3, [sp, #84]	; 0x54
    8956:	1c5a      	adds	r2, r3, #1
    8958:	9215      	str	r2, [sp, #84]	; 0x54
    895a:	785b      	ldrb	r3, [r3, #1]
    895c:	2b30      	cmp	r3, #48	; 0x30
    895e:	d0f9      	beq.n	8954 <_strtod_r+0xfc>
    8960:	2b00      	cmp	r3, #0
    8962:	f000 853d 	beq.w	93e0 <_strtod_r+0xb88>
    8966:	2101      	movs	r1, #1
    8968:	9108      	str	r1, [sp, #32]
    896a:	e001      	b.n	8970 <_strtod_r+0x118>
    896c:	2200      	movs	r2, #0
    896e:	9208      	str	r2, [sp, #32]
    8970:	9b15      	ldr	r3, [sp, #84]	; 0x54
    8972:	f04f 0a00 	mov.w	sl, #0
    8976:	46d1      	mov	r9, sl
    8978:	f8cd a018 	str.w	sl, [sp, #24]
    897c:	9309      	str	r3, [sp, #36]	; 0x24
    897e:	4653      	mov	r3, sl
    8980:	e014      	b.n	89ac <_strtod_r+0x154>
    8982:	f1b9 0f08 	cmp.w	r9, #8
    8986:	dc05      	bgt.n	8994 <_strtod_r+0x13c>
    8988:	f1a8 0830 	sub.w	r8, r8, #48	; 0x30
    898c:	220a      	movs	r2, #10
    898e:	fb02 8303 	mla	r3, r2, r3, r8
    8992:	e007      	b.n	89a4 <_strtod_r+0x14c>
    8994:	f1b9 0f0f 	cmp.w	r9, #15
    8998:	dc04      	bgt.n	89a4 <_strtod_r+0x14c>
    899a:	f1a8 0830 	sub.w	r8, r8, #48	; 0x30
    899e:	220a      	movs	r2, #10
    89a0:	fb02 8a0a 	mla	sl, r2, sl, r8
    89a4:	f109 0901 	add.w	r9, r9, #1
    89a8:	3701      	adds	r7, #1
    89aa:	9715      	str	r7, [sp, #84]	; 0x54
    89ac:	9f15      	ldr	r7, [sp, #84]	; 0x54
    89ae:	f897 8000 	ldrb.w	r8, [r7]
    89b2:	f1b8 0f2f 	cmp.w	r8, #47	; 0x2f
    89b6:	dd02      	ble.n	89be <_strtod_r+0x166>
    89b8:	f1b8 0f39 	cmp.w	r8, #57	; 0x39
    89bc:	dde1      	ble.n	8982 <_strtod_r+0x12a>
    89be:	4630      	mov	r0, r6
    89c0:	9306      	str	r3, [sp, #24]
    89c2:	f7ff f955 	bl	7c70 <_localeconv_r>
    89c6:	6801      	ldr	r1, [r0, #0]
    89c8:	4630      	mov	r0, r6
    89ca:	9103      	str	r1, [sp, #12]
    89cc:	f7ff f950 	bl	7c70 <_localeconv_r>
    89d0:	6800      	ldr	r0, [r0, #0]
    89d2:	f7fa f947 	bl	2c64 <strlen>
    89d6:	9903      	ldr	r1, [sp, #12]
    89d8:	4602      	mov	r2, r0
    89da:	4638      	mov	r0, r7
    89dc:	f7fa f94a 	bl	2c74 <strncmp>
    89e0:	4603      	mov	r3, r0
    89e2:	2800      	cmp	r0, #0
    89e4:	d15e      	bne.n	8aa4 <_strtod_r+0x24c>
    89e6:	4630      	mov	r0, r6
    89e8:	9f15      	ldr	r7, [sp, #84]	; 0x54
    89ea:	9303      	str	r3, [sp, #12]
    89ec:	f7ff f940 	bl	7c70 <_localeconv_r>
    89f0:	6800      	ldr	r0, [r0, #0]
    89f2:	f7fa f937 	bl	2c64 <strlen>
    89f6:	9b03      	ldr	r3, [sp, #12]
    89f8:	183a      	adds	r2, r7, r0
    89fa:	9215      	str	r2, [sp, #84]	; 0x54
    89fc:	f817 8000 	ldrb.w	r8, [r7, r0]
    8a00:	f1b9 0f00 	cmp.w	r9, #0
    8a04:	d145      	bne.n	8a92 <_strtod_r+0x23a>
    8a06:	4648      	mov	r0, r9
    8a08:	e005      	b.n	8a16 <_strtod_r+0x1be>
    8a0a:	9b15      	ldr	r3, [sp, #84]	; 0x54
    8a0c:	3001      	adds	r0, #1
    8a0e:	1c5a      	adds	r2, r3, #1
    8a10:	9215      	str	r2, [sp, #84]	; 0x54
    8a12:	f893 8001 	ldrb.w	r8, [r3, #1]
    8a16:	f1b8 0f30 	cmp.w	r8, #48	; 0x30
    8a1a:	d0f6      	beq.n	8a0a <_strtod_r+0x1b2>
    8a1c:	f1a8 0331 	sub.w	r3, r8, #49	; 0x31
    8a20:	2b08      	cmp	r3, #8
    8a22:	d844      	bhi.n	8aae <_strtod_r+0x256>
    8a24:	9915      	ldr	r1, [sp, #84]	; 0x54
    8a26:	4603      	mov	r3, r0
    8a28:	2000      	movs	r0, #0
    8a2a:	4607      	mov	r7, r0
    8a2c:	9109      	str	r1, [sp, #36]	; 0x24
    8a2e:	3001      	adds	r0, #1
    8a30:	f1b8 0830 	subs.w	r8, r8, #48	; 0x30
    8a34:	d027      	beq.n	8a86 <_strtod_r+0x22e>
    8a36:	181b      	adds	r3, r3, r0
    8a38:	2201      	movs	r2, #1
    8a3a:	f8dd c018 	ldr.w	ip, [sp, #24]
    8a3e:	e00d      	b.n	8a5c <_strtod_r+0x204>
    8a40:	460f      	mov	r7, r1
    8a42:	3901      	subs	r1, #1
    8a44:	2908      	cmp	r1, #8
    8a46:	dc03      	bgt.n	8a50 <_strtod_r+0x1f8>
    8a48:	210a      	movs	r1, #10
    8a4a:	fb01 fc0c 	mul.w	ip, r1, ip
    8a4e:	e004      	b.n	8a5a <_strtod_r+0x202>
    8a50:	2f10      	cmp	r7, #16
    8a52:	dc02      	bgt.n	8a5a <_strtod_r+0x202>
    8a54:	210a      	movs	r1, #10
    8a56:	fb01 fa0a 	mul.w	sl, r1, sl
    8a5a:	3201      	adds	r2, #1
    8a5c:	4282      	cmp	r2, r0
    8a5e:	f107 0101 	add.w	r1, r7, #1
    8a62:	dbed      	blt.n	8a40 <_strtod_r+0x1e8>
    8a64:	463a      	mov	r2, r7
    8a66:	f8cd c018 	str.w	ip, [sp, #24]
    8a6a:	2a08      	cmp	r2, #8
    8a6c:	460f      	mov	r7, r1
    8a6e:	dc04      	bgt.n	8a7a <_strtod_r+0x222>
    8a70:	220a      	movs	r2, #10
    8a72:	fb02 800c 	mla	r0, r2, ip, r8
    8a76:	9006      	str	r0, [sp, #24]
    8a78:	e004      	b.n	8a84 <_strtod_r+0x22c>
    8a7a:	2910      	cmp	r1, #16
    8a7c:	dc02      	bgt.n	8a84 <_strtod_r+0x22c>
    8a7e:	220a      	movs	r2, #10
    8a80:	fb02 8a0a 	mla	sl, r2, sl, r8
    8a84:	2000      	movs	r0, #0
    8a86:	9a15      	ldr	r2, [sp, #84]	; 0x54
    8a88:	1c51      	adds	r1, r2, #1
    8a8a:	9115      	str	r1, [sp, #84]	; 0x54
    8a8c:	f892 8001 	ldrb.w	r8, [r2, #1]
    8a90:	e001      	b.n	8a96 <_strtod_r+0x23e>
    8a92:	464f      	mov	r7, r9
    8a94:	4618      	mov	r0, r3
    8a96:	f1a8 0230 	sub.w	r2, r8, #48	; 0x30
    8a9a:	2a09      	cmp	r2, #9
    8a9c:	d9c7      	bls.n	8a2e <_strtod_r+0x1d6>
    8a9e:	2101      	movs	r1, #1
    8aa0:	9104      	str	r1, [sp, #16]
    8aa2:	e008      	b.n	8ab6 <_strtod_r+0x25e>
    8aa4:	2000      	movs	r0, #0
    8aa6:	464f      	mov	r7, r9
    8aa8:	4603      	mov	r3, r0
    8aaa:	9004      	str	r0, [sp, #16]
    8aac:	e003      	b.n	8ab6 <_strtod_r+0x25e>
    8aae:	2700      	movs	r7, #0
    8ab0:	2201      	movs	r2, #1
    8ab2:	463b      	mov	r3, r7
    8ab4:	9204      	str	r2, [sp, #16]
    8ab6:	f1b8 0f65 	cmp.w	r8, #101	; 0x65
    8aba:	d002      	beq.n	8ac2 <_strtod_r+0x26a>
    8abc:	f1b8 0f45 	cmp.w	r8, #69	; 0x45
    8ac0:	d15b      	bne.n	8b7a <_strtod_r+0x322>
    8ac2:	b927      	cbnz	r7, 8ace <_strtod_r+0x276>
    8ac4:	b918      	cbnz	r0, 8ace <_strtod_r+0x276>
    8ac6:	9908      	ldr	r1, [sp, #32]
    8ac8:	2900      	cmp	r1, #0
    8aca:	f000 809e 	beq.w	8c0a <_strtod_r+0x3b2>
    8ace:	f8dd b054 	ldr.w	fp, [sp, #84]	; 0x54
    8ad2:	f10b 0201 	add.w	r2, fp, #1
    8ad6:	9215      	str	r2, [sp, #84]	; 0x54
    8ad8:	f89b 8001 	ldrb.w	r8, [fp, #1]
    8adc:	f1b8 0f2b 	cmp.w	r8, #43	; 0x2b
    8ae0:	d003      	beq.n	8aea <_strtod_r+0x292>
    8ae2:	f1b8 0f2d 	cmp.w	r8, #45	; 0x2d
    8ae6:	d102      	bne.n	8aee <_strtod_r+0x296>
    8ae8:	e004      	b.n	8af4 <_strtod_r+0x29c>
    8aea:	2100      	movs	r1, #0
    8aec:	e003      	b.n	8af6 <_strtod_r+0x29e>
    8aee:	2200      	movs	r2, #0
    8af0:	9207      	str	r2, [sp, #28]
    8af2:	e005      	b.n	8b00 <_strtod_r+0x2a8>
    8af4:	2101      	movs	r1, #1
    8af6:	9107      	str	r1, [sp, #28]
    8af8:	1c51      	adds	r1, r2, #1
    8afa:	9115      	str	r1, [sp, #84]	; 0x54
    8afc:	f892 8001 	ldrb.w	r8, [r2, #1]
    8b00:	f1a8 0230 	sub.w	r2, r8, #48	; 0x30
    8b04:	2a09      	cmp	r2, #9
    8b06:	d836      	bhi.n	8b76 <_strtod_r+0x31e>
    8b08:	e004      	b.n	8b14 <_strtod_r+0x2bc>
    8b0a:	9a15      	ldr	r2, [sp, #84]	; 0x54
    8b0c:	1c51      	adds	r1, r2, #1
    8b0e:	9115      	str	r1, [sp, #84]	; 0x54
    8b10:	f892 8001 	ldrb.w	r8, [r2, #1]
    8b14:	f1b8 0f30 	cmp.w	r8, #48	; 0x30
    8b18:	d0f7      	beq.n	8b0a <_strtod_r+0x2b2>
    8b1a:	f1a8 0231 	sub.w	r2, r8, #49	; 0x31
    8b1e:	2a08      	cmp	r2, #8
    8b20:	d82b      	bhi.n	8b7a <_strtod_r+0x322>
    8b22:	9a15      	ldr	r2, [sp, #84]	; 0x54
    8b24:	f1a8 0130 	sub.w	r1, r8, #48	; 0x30
    8b28:	920a      	str	r2, [sp, #40]	; 0x28
    8b2a:	e008      	b.n	8b3e <_strtod_r+0x2e6>
    8b2c:	10000598 	.word	0x10000598
    8b30:	7ff00000 	.word	0x7ff00000
    8b34:	f1a8 0830 	sub.w	r8, r8, #48	; 0x30
    8b38:	220a      	movs	r2, #10
    8b3a:	fb02 8101 	mla	r1, r2, r1, r8
    8b3e:	9a15      	ldr	r2, [sp, #84]	; 0x54
    8b40:	f102 0c01 	add.w	ip, r2, #1
    8b44:	f8cd c054 	str.w	ip, [sp, #84]	; 0x54
    8b48:	f892 8001 	ldrb.w	r8, [r2, #1]
    8b4c:	f1b8 0f2f 	cmp.w	r8, #47	; 0x2f
    8b50:	dd02      	ble.n	8b58 <_strtod_r+0x300>
    8b52:	f1b8 0f39 	cmp.w	r8, #57	; 0x39
    8b56:	dded      	ble.n	8b34 <_strtod_r+0x2dc>
    8b58:	9a0a      	ldr	r2, [sp, #40]	; 0x28
    8b5a:	ebc2 0c0c 	rsb	ip, r2, ip
    8b5e:	f644 621f 	movw	r2, #19999	; 0x4e1f
    8b62:	f1bc 0f08 	cmp.w	ip, #8
    8b66:	dc02      	bgt.n	8b6e <_strtod_r+0x316>
    8b68:	4291      	cmp	r1, r2
    8b6a:	bfb8      	it	lt
    8b6c:	460a      	movlt	r2, r1
    8b6e:	9907      	ldr	r1, [sp, #28]
    8b70:	b121      	cbz	r1, 8b7c <_strtod_r+0x324>
    8b72:	4252      	negs	r2, r2
    8b74:	e002      	b.n	8b7c <_strtod_r+0x324>
    8b76:	f8cd b054 	str.w	fp, [sp, #84]	; 0x54
    8b7a:	2200      	movs	r2, #0
    8b7c:	2f00      	cmp	r7, #0
    8b7e:	d149      	bne.n	8c14 <_strtod_r+0x3bc>
    8b80:	2800      	cmp	r0, #0
    8b82:	f040 842d 	bne.w	93e0 <_strtod_r+0xb88>
    8b86:	9a08      	ldr	r2, [sp, #32]
    8b88:	2a00      	cmp	r2, #0
    8b8a:	f040 8429 	bne.w	93e0 <_strtod_r+0xb88>
    8b8e:	9b04      	ldr	r3, [sp, #16]
    8b90:	2b00      	cmp	r3, #0
    8b92:	d13a      	bne.n	8c0a <_strtod_r+0x3b2>
    8b94:	f1b8 0f4e 	cmp.w	r8, #78	; 0x4e
    8b98:	d01d      	beq.n	8bd6 <_strtod_r+0x37e>
    8b9a:	dc03      	bgt.n	8ba4 <_strtod_r+0x34c>
    8b9c:	f1b8 0f49 	cmp.w	r8, #73	; 0x49
    8ba0:	d133      	bne.n	8c0a <_strtod_r+0x3b2>
    8ba2:	e006      	b.n	8bb2 <_strtod_r+0x35a>
    8ba4:	f1b8 0f69 	cmp.w	r8, #105	; 0x69
    8ba8:	d003      	beq.n	8bb2 <_strtod_r+0x35a>
    8baa:	f1b8 0f6e 	cmp.w	r8, #110	; 0x6e
    8bae:	d12c      	bne.n	8c0a <_strtod_r+0x3b2>
    8bb0:	e011      	b.n	8bd6 <_strtod_r+0x37e>
    8bb2:	a815      	add	r0, sp, #84	; 0x54
    8bb4:	49a2      	ldr	r1, [pc, #648]	; (8e40 <_strtod_r+0x5e8>)
    8bb6:	f7ff fe39 	bl	882c <match>
    8bba:	b330      	cbz	r0, 8c0a <_strtod_r+0x3b2>
    8bbc:	9b15      	ldr	r3, [sp, #84]	; 0x54
    8bbe:	a815      	add	r0, sp, #84	; 0x54
    8bc0:	49a0      	ldr	r1, [pc, #640]	; (8e44 <_strtod_r+0x5ec>)
    8bc2:	3b01      	subs	r3, #1
    8bc4:	9315      	str	r3, [sp, #84]	; 0x54
    8bc6:	f7ff fe31 	bl	882c <match>
    8bca:	b910      	cbnz	r0, 8bd2 <_strtod_r+0x37a>
    8bcc:	9b15      	ldr	r3, [sp, #84]	; 0x54
    8bce:	3301      	adds	r3, #1
    8bd0:	9315      	str	r3, [sp, #84]	; 0x54
    8bd2:	4d9d      	ldr	r5, [pc, #628]	; (8e48 <_strtod_r+0x5f0>)
    8bd4:	e017      	b.n	8c06 <_strtod_r+0x3ae>
    8bd6:	a815      	add	r0, sp, #84	; 0x54
    8bd8:	499c      	ldr	r1, [pc, #624]	; (8e4c <_strtod_r+0x5f4>)
    8bda:	f7ff fe27 	bl	882c <match>
    8bde:	b1a0      	cbz	r0, 8c0a <_strtod_r+0x3b2>
    8be0:	9b15      	ldr	r3, [sp, #84]	; 0x54
    8be2:	781b      	ldrb	r3, [r3, #0]
    8be4:	2b28      	cmp	r3, #40	; 0x28
    8be6:	d10d      	bne.n	8c04 <_strtod_r+0x3ac>
    8be8:	a815      	add	r0, sp, #84	; 0x54
    8bea:	4999      	ldr	r1, [pc, #612]	; (8e50 <_strtod_r+0x5f8>)
    8bec:	aa11      	add	r2, sp, #68	; 0x44
    8bee:	f002 f8bd 	bl	ad6c <__hexnan>
    8bf2:	2805      	cmp	r0, #5
    8bf4:	d106      	bne.n	8c04 <_strtod_r+0x3ac>
    8bf6:	9b12      	ldr	r3, [sp, #72]	; 0x48
    8bf8:	9c11      	ldr	r4, [sp, #68]	; 0x44
    8bfa:	f043 45fe 	orr.w	r5, r3, #2130706432	; 0x7f000000
    8bfe:	f445 0570 	orr.w	r5, r5, #15728640	; 0xf00000
    8c02:	e3ed      	b.n	93e0 <_strtod_r+0xb88>
    8c04:	4d93      	ldr	r5, [pc, #588]	; (8e54 <_strtod_r+0x5fc>)
    8c06:	2400      	movs	r4, #0
    8c08:	e3ea      	b.n	93e0 <_strtod_r+0xb88>
    8c0a:	2000      	movs	r0, #0
    8c0c:	f8cd b054 	str.w	fp, [sp, #84]	; 0x54
    8c10:	900b      	str	r0, [sp, #44]	; 0x2c
    8c12:	e3e5      	b.n	93e0 <_strtod_r+0xb88>
    8c14:	9806      	ldr	r0, [sp, #24]
    8c16:	1ad3      	subs	r3, r2, r3
    8c18:	f1b9 0f00 	cmp.w	r9, #0
    8c1c:	bf08      	it	eq
    8c1e:	46b9      	moveq	r9, r7
    8c20:	9307      	str	r3, [sp, #28]
    8c22:	f8cd 9010 	str.w	r9, [sp, #16]
    8c26:	f7f8 fb11 	bl	124c <__aeabi_ui2d>
    8c2a:	2f10      	cmp	r7, #16
    8c2c:	bfb4      	ite	lt
    8c2e:	46bb      	movlt	fp, r7
    8c30:	f04f 0b10 	movge.w	fp, #16
    8c34:	f1bb 0f09 	cmp.w	fp, #9
    8c38:	4604      	mov	r4, r0
    8c3a:	460d      	mov	r5, r1
    8c3c:	dd15      	ble.n	8c6a <_strtod_r+0x412>
    8c3e:	f1ab 0209 	sub.w	r2, fp, #9
    8c42:	4b85      	ldr	r3, [pc, #532]	; (8e58 <_strtod_r+0x600>)
    8c44:	eb03 03c2 	add.w	r3, r3, r2, lsl #3
    8c48:	e9d3 2300 	ldrd	r2, r3, [r3]
    8c4c:	f7f8 fb74 	bl	1338 <__aeabi_dmul>
    8c50:	4604      	mov	r4, r0
    8c52:	4650      	mov	r0, sl
    8c54:	460d      	mov	r5, r1
    8c56:	f7f8 faf9 	bl	124c <__aeabi_ui2d>
    8c5a:	4602      	mov	r2, r0
    8c5c:	460b      	mov	r3, r1
    8c5e:	4620      	mov	r0, r4
    8c60:	4629      	mov	r1, r5
    8c62:	f7f8 f9b7 	bl	fd4 <__adddf3>
    8c66:	4604      	mov	r4, r0
    8c68:	460d      	mov	r5, r1
    8c6a:	2f0f      	cmp	r7, #15
    8c6c:	dc39      	bgt.n	8ce2 <_strtod_r+0x48a>
    8c6e:	9907      	ldr	r1, [sp, #28]
    8c70:	2900      	cmp	r1, #0
    8c72:	f000 83b5 	beq.w	93e0 <_strtod_r+0xb88>
    8c76:	dd25      	ble.n	8cc4 <_strtod_r+0x46c>
    8c78:	2916      	cmp	r1, #22
    8c7a:	dc07      	bgt.n	8c8c <_strtod_r+0x434>
    8c7c:	4b76      	ldr	r3, [pc, #472]	; (8e58 <_strtod_r+0x600>)
    8c7e:	4622      	mov	r2, r4
    8c80:	eb03 03c1 	add.w	r3, r3, r1, lsl #3
    8c84:	e9d3 0100 	ldrd	r0, r1, [r3]
    8c88:	462b      	mov	r3, r5
    8c8a:	e016      	b.n	8cba <_strtod_r+0x462>
    8c8c:	f1c7 080f 	rsb	r8, r7, #15
    8c90:	9a07      	ldr	r2, [sp, #28]
    8c92:	f108 0316 	add.w	r3, r8, #22
    8c96:	429a      	cmp	r2, r3
    8c98:	dc23      	bgt.n	8ce2 <_strtod_r+0x48a>
    8c9a:	4e6f      	ldr	r6, [pc, #444]	; (8e58 <_strtod_r+0x600>)
    8c9c:	4622      	mov	r2, r4
    8c9e:	eb06 03c8 	add.w	r3, r6, r8, lsl #3
    8ca2:	e9d3 0100 	ldrd	r0, r1, [r3]
    8ca6:	462b      	mov	r3, r5
    8ca8:	f7f8 fb46 	bl	1338 <__aeabi_dmul>
    8cac:	9b07      	ldr	r3, [sp, #28]
    8cae:	ebc8 0803 	rsb	r8, r8, r3
    8cb2:	eb06 06c8 	add.w	r6, r6, r8, lsl #3
    8cb6:	e9d6 2300 	ldrd	r2, r3, [r6]
    8cba:	f7f8 fb3d 	bl	1338 <__aeabi_dmul>
    8cbe:	4604      	mov	r4, r0
    8cc0:	460d      	mov	r5, r1
    8cc2:	e38d      	b.n	93e0 <_strtod_r+0xb88>
    8cc4:	9807      	ldr	r0, [sp, #28]
    8cc6:	f110 0f16 	cmn.w	r0, #22
    8cca:	db0a      	blt.n	8ce2 <_strtod_r+0x48a>
    8ccc:	4242      	negs	r2, r0
    8cce:	4b62      	ldr	r3, [pc, #392]	; (8e58 <_strtod_r+0x600>)
    8cd0:	4620      	mov	r0, r4
    8cd2:	4629      	mov	r1, r5
    8cd4:	eb03 03c2 	add.w	r3, r3, r2, lsl #3
    8cd8:	e9d3 2300 	ldrd	r2, r3, [r3]
    8cdc:	f7f8 fc56 	bl	158c <__aeabi_ddiv>
    8ce0:	e7ed      	b.n	8cbe <_strtod_r+0x466>
    8ce2:	9907      	ldr	r1, [sp, #28]
    8ce4:	ebcb 0b07 	rsb	fp, fp, r7
    8ce8:	448b      	add	fp, r1
    8cea:	f1bb 0f00 	cmp.w	fp, #0
    8cee:	dd5c      	ble.n	8daa <_strtod_r+0x552>
    8cf0:	f01b 030f 	ands.w	r3, fp, #15
    8cf4:	d00a      	beq.n	8d0c <_strtod_r+0x4b4>
    8cf6:	4a58      	ldr	r2, [pc, #352]	; (8e58 <_strtod_r+0x600>)
    8cf8:	eb02 03c3 	add.w	r3, r2, r3, lsl #3
    8cfc:	4622      	mov	r2, r4
    8cfe:	e9d3 0100 	ldrd	r0, r1, [r3]
    8d02:	462b      	mov	r3, r5
    8d04:	f7f8 fb18 	bl	1338 <__aeabi_dmul>
    8d08:	4604      	mov	r4, r0
    8d0a:	460d      	mov	r5, r1
    8d0c:	f03b 0b0f 	bics.w	fp, fp, #15
    8d10:	f000 80d8 	beq.w	8ec4 <_strtod_r+0x66c>
    8d14:	f5bb 7f9a 	cmp.w	fp, #308	; 0x134
    8d18:	dd11      	ble.n	8d3e <_strtod_r+0x4e6>
    8d1a:	f04f 0800 	mov.w	r8, #0
    8d1e:	f8cd 8020 	str.w	r8, [sp, #32]
    8d22:	46c1      	mov	r9, r8
    8d24:	f8cd 8018 	str.w	r8, [sp, #24]
    8d28:	e000      	b.n	8d2c <_strtod_r+0x4d4>
    8d2a:	46b8      	mov	r8, r7
    8d2c:	9a08      	ldr	r2, [sp, #32]
    8d2e:	2322      	movs	r3, #34	; 0x22
    8d30:	4d45      	ldr	r5, [pc, #276]	; (8e48 <_strtod_r+0x5f0>)
    8d32:	2400      	movs	r4, #0
    8d34:	6033      	str	r3, [r6, #0]
    8d36:	2a00      	cmp	r2, #0
    8d38:	f040 833e 	bne.w	93b8 <_strtod_r+0xb60>
    8d3c:	e350      	b.n	93e0 <_strtod_r+0xb88>
    8d3e:	4629      	mov	r1, r5
    8d40:	4d46      	ldr	r5, [pc, #280]	; (8e5c <_strtod_r+0x604>)
    8d42:	ea4f 1b2b 	mov.w	fp, fp, asr #4
    8d46:	4620      	mov	r0, r4
    8d48:	f04f 0800 	mov.w	r8, #0
    8d4c:	46a9      	mov	r9, r5
    8d4e:	e00b      	b.n	8d68 <_strtod_r+0x510>
    8d50:	f01b 0f01 	tst.w	fp, #1
    8d54:	d003      	beq.n	8d5e <_strtod_r+0x506>
    8d56:	e9d5 2300 	ldrd	r2, r3, [r5]
    8d5a:	f7f8 faed 	bl	1338 <__aeabi_dmul>
    8d5e:	f108 0801 	add.w	r8, r8, #1
    8d62:	ea4f 0b6b 	mov.w	fp, fp, asr #1
    8d66:	3508      	adds	r5, #8
    8d68:	f1bb 0f01 	cmp.w	fp, #1
    8d6c:	dcf0      	bgt.n	8d50 <_strtod_r+0x4f8>
    8d6e:	eb09 03c8 	add.w	r3, r9, r8, lsl #3
    8d72:	4604      	mov	r4, r0
    8d74:	f1a1 7554 	sub.w	r5, r1, #55574528	; 0x3500000
    8d78:	4622      	mov	r2, r4
    8d7a:	e9d3 0100 	ldrd	r0, r1, [r3]
    8d7e:	462b      	mov	r3, r5
    8d80:	f7f8 fada 	bl	1338 <__aeabi_dmul>
    8d84:	4b30      	ldr	r3, [pc, #192]	; (8e48 <_strtod_r+0x5f0>)
    8d86:	460d      	mov	r5, r1
    8d88:	ea01 0303 	and.w	r3, r1, r3
    8d8c:	4934      	ldr	r1, [pc, #208]	; (8e60 <_strtod_r+0x608>)
    8d8e:	4604      	mov	r4, r0
    8d90:	428b      	cmp	r3, r1
    8d92:	d8c2      	bhi.n	8d1a <_strtod_r+0x4c2>
    8d94:	4933      	ldr	r1, [pc, #204]	; (8e64 <_strtod_r+0x60c>)
    8d96:	f04f 0b00 	mov.w	fp, #0
    8d9a:	428b      	cmp	r3, r1
    8d9c:	bf8a      	itet	hi
    8d9e:	f04f 34ff 	movhi.w	r4, #4294967295
    8da2:	f105 7554 	addls.w	r5, r5, #55574528	; 0x3500000
    8da6:	4d30      	ldrhi	r5, [pc, #192]	; (8e68 <_strtod_r+0x610>)
    8da8:	e08c      	b.n	8ec4 <_strtod_r+0x66c>
    8daa:	f000 808b 	beq.w	8ec4 <_strtod_r+0x66c>
    8dae:	f1cb 0b00 	rsb	fp, fp, #0
    8db2:	f01b 030f 	ands.w	r3, fp, #15
    8db6:	d00a      	beq.n	8dce <_strtod_r+0x576>
    8db8:	4a27      	ldr	r2, [pc, #156]	; (8e58 <_strtod_r+0x600>)
    8dba:	4620      	mov	r0, r4
    8dbc:	4629      	mov	r1, r5
    8dbe:	eb02 03c3 	add.w	r3, r2, r3, lsl #3
    8dc2:	e9d3 2300 	ldrd	r2, r3, [r3]
    8dc6:	f7f8 fbe1 	bl	158c <__aeabi_ddiv>
    8dca:	4604      	mov	r4, r0
    8dcc:	460d      	mov	r5, r1
    8dce:	ea5f 182b 	movs.w	r8, fp, asr #4
    8dd2:	d076      	beq.n	8ec2 <_strtod_r+0x66a>
    8dd4:	f1b8 0f1f 	cmp.w	r8, #31
    8dd8:	dc61      	bgt.n	8e9e <_strtod_r+0x646>
    8dda:	f018 0b10 	ands.w	fp, r8, #16
    8dde:	4620      	mov	r0, r4
    8de0:	bf18      	it	ne
    8de2:	f04f 0b6a 	movne.w	fp, #106	; 0x6a
    8de6:	4629      	mov	r1, r5
    8de8:	4c20      	ldr	r4, [pc, #128]	; (8e6c <_strtod_r+0x614>)
    8dea:	e009      	b.n	8e00 <_strtod_r+0x5a8>
    8dec:	f018 0f01 	tst.w	r8, #1
    8df0:	d003      	beq.n	8dfa <_strtod_r+0x5a2>
    8df2:	e9d4 2300 	ldrd	r2, r3, [r4]
    8df6:	f7f8 fa9f 	bl	1338 <__aeabi_dmul>
    8dfa:	ea4f 0868 	mov.w	r8, r8, asr #1
    8dfe:	3408      	adds	r4, #8
    8e00:	f1b8 0f00 	cmp.w	r8, #0
    8e04:	dcf2      	bgt.n	8dec <_strtod_r+0x594>
    8e06:	4604      	mov	r4, r0
    8e08:	460d      	mov	r5, r1
    8e0a:	f1bb 0f00 	cmp.w	fp, #0
    8e0e:	d035      	beq.n	8e7c <_strtod_r+0x624>
    8e10:	4a0d      	ldr	r2, [pc, #52]	; (8e48 <_strtod_r+0x5f0>)
    8e12:	ea01 0202 	and.w	r2, r1, r2
    8e16:	0d12      	lsrs	r2, r2, #20
    8e18:	f1c2 026b 	rsb	r2, r2, #107	; 0x6b
    8e1c:	2a00      	cmp	r2, #0
    8e1e:	dd2d      	ble.n	8e7c <_strtod_r+0x624>
    8e20:	2a1f      	cmp	r2, #31
    8e22:	dd25      	ble.n	8e70 <_strtod_r+0x618>
    8e24:	2400      	movs	r4, #0
    8e26:	2a34      	cmp	r2, #52	; 0x34
    8e28:	dd02      	ble.n	8e30 <_strtod_r+0x5d8>
    8e2a:	f04f 755c 	mov.w	r5, #57671680	; 0x3700000
    8e2e:	e025      	b.n	8e7c <_strtod_r+0x624>
    8e30:	f04f 31ff 	mov.w	r1, #4294967295
    8e34:	3a20      	subs	r2, #32
    8e36:	fa11 f202 	lsls.w	r2, r1, r2
    8e3a:	ea02 0505 	and.w	r5, r2, r5
    8e3e:	e01d      	b.n	8e7c <_strtod_r+0x624>
    8e40:	0000c08d 	.word	0x0000c08d
    8e44:	0000c276 	.word	0x0000c276
    8e48:	7ff00000 	.word	0x7ff00000
    8e4c:	0000c095 	.word	0x0000c095
    8e50:	10000584 	.word	0x10000584
    8e54:	fff80000 	.word	0xfff80000
    8e58:	0000c2f8 	.word	0x0000c2f8
    8e5c:	0000c3c0 	.word	0x0000c3c0
    8e60:	7ca00000 	.word	0x7ca00000
    8e64:	7c900000 	.word	0x7c900000
    8e68:	7fefffff 	.word	0x7fefffff
    8e6c:	0000c3e8 	.word	0x0000c3e8
    8e70:	f04f 33ff 	mov.w	r3, #4294967295
    8e74:	fa13 f202 	lsls.w	r2, r3, r2
    8e78:	ea02 0400 	and.w	r4, r2, r0
    8e7c:	4620      	mov	r0, r4
    8e7e:	4629      	mov	r1, r5
    8e80:	2200      	movs	r2, #0
    8e82:	2300      	movs	r3, #0
    8e84:	f04f 0801 	mov.w	r8, #1
    8e88:	f002 fb9a 	bl	b5c0 <__aeabi_dcmpeq>
    8e8c:	b108      	cbz	r0, 8e92 <_strtod_r+0x63a>
    8e8e:	f04f 0800 	mov.w	r8, #0
    8e92:	fa5f f888 	uxtb.w	r8, r8
    8e96:	f1b8 0f00 	cmp.w	r8, #0
    8e9a:	d113      	bne.n	8ec4 <_strtod_r+0x66c>
    8e9c:	e001      	b.n	8ea2 <_strtod_r+0x64a>
    8e9e:	f04f 0800 	mov.w	r8, #0
    8ea2:	46c1      	mov	r9, r8
    8ea4:	f8cd 8020 	str.w	r8, [sp, #32]
    8ea8:	f8cd 8018 	str.w	r8, [sp, #24]
    8eac:	e000      	b.n	8eb0 <_strtod_r+0x658>
    8eae:	46b8      	mov	r8, r7
    8eb0:	2322      	movs	r3, #34	; 0x22
    8eb2:	6033      	str	r3, [r6, #0]
    8eb4:	9b08      	ldr	r3, [sp, #32]
    8eb6:	2400      	movs	r4, #0
    8eb8:	2500      	movs	r5, #0
    8eba:	2b00      	cmp	r3, #0
    8ebc:	f040 827c 	bne.w	93b8 <_strtod_r+0xb60>
    8ec0:	e28e      	b.n	93e0 <_strtod_r+0xb88>
    8ec2:	46c3      	mov	fp, r8
    8ec4:	9806      	ldr	r0, [sp, #24]
    8ec6:	463b      	mov	r3, r7
    8ec8:	9909      	ldr	r1, [sp, #36]	; 0x24
    8eca:	46a2      	mov	sl, r4
    8ecc:	9a04      	ldr	r2, [sp, #16]
    8ece:	9000      	str	r0, [sp, #0]
    8ed0:	4630      	mov	r0, r6
    8ed2:	f7ff f81e 	bl	7f12 <__s2b>
    8ed6:	f8cd b028 	str.w	fp, [sp, #40]	; 0x28
    8eda:	46ab      	mov	fp, r5
    8edc:	9008      	str	r0, [sp, #32]
    8ede:	9a08      	ldr	r2, [sp, #32]
    8ee0:	4630      	mov	r0, r6
    8ee2:	6851      	ldr	r1, [r2, #4]
    8ee4:	f7fe ff8f 	bl	7e06 <_Balloc>
    8ee8:	9b08      	ldr	r3, [sp, #32]
    8eea:	f103 010c 	add.w	r1, r3, #12
    8eee:	691a      	ldr	r2, [r3, #16]
    8ef0:	3202      	adds	r2, #2
    8ef2:	0092      	lsls	r2, r2, #2
    8ef4:	9006      	str	r0, [sp, #24]
    8ef6:	300c      	adds	r0, #12
    8ef8:	f7f9 fbaa 	bl	2650 <memcpy>
    8efc:	ab17      	add	r3, sp, #92	; 0x5c
    8efe:	4652      	mov	r2, sl
    8f00:	9300      	str	r3, [sp, #0]
    8f02:	4630      	mov	r0, r6
    8f04:	ab16      	add	r3, sp, #88	; 0x58
    8f06:	9301      	str	r3, [sp, #4]
    8f08:	465b      	mov	r3, fp
    8f0a:	e9cd ab04 	strd	sl, fp, [sp, #16]
    8f0e:	f7ff fabb 	bl	8488 <__d2b>
    8f12:	2101      	movs	r1, #1
    8f14:	9014      	str	r0, [sp, #80]	; 0x50
    8f16:	4630      	mov	r0, r6
    8f18:	f7ff f88b 	bl	8032 <__i2b>
    8f1c:	4681      	mov	r9, r0
    8f1e:	9807      	ldr	r0, [sp, #28]
    8f20:	2800      	cmp	r0, #0
    8f22:	da02      	bge.n	8f2a <_strtod_r+0x6d2>
    8f24:	4242      	negs	r2, r0
    8f26:	2400      	movs	r4, #0
    8f28:	e001      	b.n	8f2e <_strtod_r+0x6d6>
    8f2a:	9c07      	ldr	r4, [sp, #28]
    8f2c:	2200      	movs	r2, #0
    8f2e:	9f17      	ldr	r7, [sp, #92]	; 0x5c
    8f30:	f46f 707f 	mvn.w	r0, #1020	; 0x3fc
    8f34:	990a      	ldr	r1, [sp, #40]	; 0x28
    8f36:	2f00      	cmp	r7, #0
    8f38:	bfac      	ite	ge
    8f3a:	eb02 0807 	addge.w	r8, r2, r7
    8f3e:	ebc7 0304 	rsblt	r3, r7, r4
    8f42:	ebc1 0707 	rsb	r7, r1, r7
    8f46:	9916      	ldr	r1, [sp, #88]	; 0x58
    8f48:	bfac      	ite	ge
    8f4a:	4623      	movge	r3, r4
    8f4c:	4690      	movlt	r8, r2
    8f4e:	187d      	adds	r5, r7, r1
    8f50:	4285      	cmp	r5, r0
    8f52:	da03      	bge.n	8f5c <_strtod_r+0x704>
    8f54:	f507 6186 	add.w	r1, r7, #1072	; 0x430
    8f58:	3103      	adds	r1, #3
    8f5a:	e001      	b.n	8f60 <_strtod_r+0x708>
    8f5c:	f1c1 0136 	rsb	r1, r1, #54	; 0x36
    8f60:	980a      	ldr	r0, [sp, #40]	; 0x28
    8f62:	eb01 0508 	add.w	r5, r1, r8
    8f66:	181f      	adds	r7, r3, r0
    8f68:	187f      	adds	r7, r7, r1
    8f6a:	42bd      	cmp	r5, r7
    8f6c:	bfb4      	ite	lt
    8f6e:	462b      	movlt	r3, r5
    8f70:	463b      	movge	r3, r7
    8f72:	4543      	cmp	r3, r8
    8f74:	bfa8      	it	ge
    8f76:	4643      	movge	r3, r8
    8f78:	2b00      	cmp	r3, #0
    8f7a:	dd03      	ble.n	8f84 <_strtod_r+0x72c>
    8f7c:	1aed      	subs	r5, r5, r3
    8f7e:	1aff      	subs	r7, r7, r3
    8f80:	ebc3 0808 	rsb	r8, r3, r8
    8f84:	b18a      	cbz	r2, 8faa <_strtod_r+0x752>
    8f86:	4649      	mov	r1, r9
    8f88:	4630      	mov	r0, r6
    8f8a:	f7ff f8ed 	bl	8168 <__pow5mult>
    8f8e:	9a14      	ldr	r2, [sp, #80]	; 0x50
    8f90:	4681      	mov	r9, r0
    8f92:	4630      	mov	r0, r6
    8f94:	4649      	mov	r1, r9
    8f96:	f7ff f855 	bl	8044 <__multiply>
    8f9a:	9914      	ldr	r1, [sp, #80]	; 0x50
    8f9c:	4603      	mov	r3, r0
    8f9e:	4630      	mov	r0, r6
    8fa0:	9303      	str	r3, [sp, #12]
    8fa2:	f7fe ff61 	bl	7e68 <_Bfree>
    8fa6:	9b03      	ldr	r3, [sp, #12]
    8fa8:	9314      	str	r3, [sp, #80]	; 0x50
    8faa:	2d00      	cmp	r5, #0
    8fac:	dd05      	ble.n	8fba <_strtod_r+0x762>
    8fae:	4630      	mov	r0, r6
    8fb0:	9914      	ldr	r1, [sp, #80]	; 0x50
    8fb2:	462a      	mov	r2, r5
    8fb4:	f7ff f92a 	bl	820c <__lshift>
    8fb8:	9014      	str	r0, [sp, #80]	; 0x50
    8fba:	b12c      	cbz	r4, 8fc8 <_strtod_r+0x770>
    8fbc:	4630      	mov	r0, r6
    8fbe:	9906      	ldr	r1, [sp, #24]
    8fc0:	4622      	mov	r2, r4
    8fc2:	f7ff f8d1 	bl	8168 <__pow5mult>
    8fc6:	9006      	str	r0, [sp, #24]
    8fc8:	2f00      	cmp	r7, #0
    8fca:	dd05      	ble.n	8fd8 <_strtod_r+0x780>
    8fcc:	4630      	mov	r0, r6
    8fce:	9906      	ldr	r1, [sp, #24]
    8fd0:	463a      	mov	r2, r7
    8fd2:	f7ff f91b 	bl	820c <__lshift>
    8fd6:	9006      	str	r0, [sp, #24]
    8fd8:	f1b8 0f00 	cmp.w	r8, #0
    8fdc:	dd05      	ble.n	8fea <_strtod_r+0x792>
    8fde:	4649      	mov	r1, r9
    8fe0:	4630      	mov	r0, r6
    8fe2:	4642      	mov	r2, r8
    8fe4:	f7ff f912 	bl	820c <__lshift>
    8fe8:	4681      	mov	r9, r0
    8fea:	9914      	ldr	r1, [sp, #80]	; 0x50
    8fec:	4630      	mov	r0, r6
    8fee:	9a06      	ldr	r2, [sp, #24]
    8ff0:	2500      	movs	r5, #0
    8ff2:	f7ff f974 	bl	82de <__mdiff>
    8ff6:	68c1      	ldr	r1, [r0, #12]
    8ff8:	4607      	mov	r7, r0
    8ffa:	60c5      	str	r5, [r0, #12]
    8ffc:	9109      	str	r1, [sp, #36]	; 0x24
    8ffe:	4649      	mov	r1, r9
    9000:	f7ff f950 	bl	82a4 <__mcmp>
    9004:	42a8      	cmp	r0, r5
    9006:	da2b      	bge.n	9060 <_strtod_r+0x808>
    9008:	9a09      	ldr	r2, [sp, #36]	; 0x24
    900a:	465d      	mov	r5, fp
    900c:	46b8      	mov	r8, r7
    900e:	4654      	mov	r4, sl
    9010:	f8dd b028 	ldr.w	fp, [sp, #40]	; 0x28
    9014:	2a00      	cmp	r2, #0
    9016:	f040 81b8 	bne.w	938a <_strtod_r+0xb32>
    901a:	2c00      	cmp	r4, #0
    901c:	f040 81b5 	bne.w	938a <_strtod_r+0xb32>
    9020:	f025 437f 	bic.w	r3, r5, #4278190080	; 0xff000000
    9024:	f423 0370 	bic.w	r3, r3, #15728640	; 0xf00000
    9028:	2b00      	cmp	r3, #0
    902a:	f040 81ae 	bne.w	938a <_strtod_r+0xb32>
    902e:	4b8d      	ldr	r3, [pc, #564]	; (9264 <_strtod_r+0xa0c>)
    9030:	ea05 0303 	and.w	r3, r5, r3
    9034:	f1b3 6fd6 	cmp.w	r3, #112197632	; 0x6b00000
    9038:	f240 81a7 	bls.w	938a <_strtod_r+0xb32>
    903c:	697b      	ldr	r3, [r7, #20]
    903e:	b91b      	cbnz	r3, 9048 <_strtod_r+0x7f0>
    9040:	693b      	ldr	r3, [r7, #16]
    9042:	2b01      	cmp	r3, #1
    9044:	f340 81a1 	ble.w	938a <_strtod_r+0xb32>
    9048:	4641      	mov	r1, r8
    904a:	2201      	movs	r2, #1
    904c:	4630      	mov	r0, r6
    904e:	f7ff f8dd 	bl	820c <__lshift>
    9052:	4649      	mov	r1, r9
    9054:	4680      	mov	r8, r0
    9056:	f7ff f925 	bl	82a4 <__mcmp>
    905a:	2800      	cmp	r0, #0
    905c:	dc33      	bgt.n	90c6 <_strtod_r+0x86e>
    905e:	e194      	b.n	938a <_strtod_r+0xb32>
    9060:	d176      	bne.n	9150 <_strtod_r+0x8f8>
    9062:	9b09      	ldr	r3, [sp, #36]	; 0x24
    9064:	465d      	mov	r5, fp
    9066:	46b8      	mov	r8, r7
    9068:	4654      	mov	r4, sl
    906a:	f8dd b028 	ldr.w	fp, [sp, #40]	; 0x28
    906e:	b323      	cbz	r3, 90ba <_strtod_r+0x862>
    9070:	f025 427f 	bic.w	r2, r5, #4278190080	; 0xff000000
    9074:	497c      	ldr	r1, [pc, #496]	; (9268 <_strtod_r+0xa10>)
    9076:	f422 0270 	bic.w	r2, r2, #15728640	; 0xf00000
    907a:	462b      	mov	r3, r5
    907c:	428a      	cmp	r2, r1
    907e:	d13a      	bne.n	90f6 <_strtod_r+0x89e>
    9080:	4652      	mov	r2, sl
    9082:	f1bb 0f00 	cmp.w	fp, #0
    9086:	d00d      	beq.n	90a4 <_strtod_r+0x84c>
    9088:	4976      	ldr	r1, [pc, #472]	; (9264 <_strtod_r+0xa0c>)
    908a:	ea05 0101 	and.w	r1, r5, r1
    908e:	f1b1 6fd4 	cmp.w	r1, #111149056	; 0x6a00000
    9092:	d807      	bhi.n	90a4 <_strtod_r+0x84c>
    9094:	0d09      	lsrs	r1, r1, #20
    9096:	f04f 30ff 	mov.w	r0, #4294967295
    909a:	f1c1 016b 	rsb	r1, r1, #107	; 0x6b
    909e:	fa10 f101 	lsls.w	r1, r0, r1
    90a2:	e001      	b.n	90a8 <_strtod_r+0x850>
    90a4:	f04f 31ff 	mov.w	r1, #4294967295
    90a8:	428a      	cmp	r2, r1
    90aa:	d124      	bne.n	90f6 <_strtod_r+0x89e>
    90ac:	4a6d      	ldr	r2, [pc, #436]	; (9264 <_strtod_r+0xa0c>)
    90ae:	2400      	movs	r4, #0
    90b0:	ea03 0202 	and.w	r2, r3, r2
    90b4:	f502 1580 	add.w	r5, r2, #1048576	; 0x100000
    90b8:	e167      	b.n	938a <_strtod_r+0xb32>
    90ba:	f025 437f 	bic.w	r3, r5, #4278190080	; 0xff000000
    90be:	f423 0370 	bic.w	r3, r3, #15728640	; 0xf00000
    90c2:	b9c3      	cbnz	r3, 90f6 <_strtod_r+0x89e>
    90c4:	b9bc      	cbnz	r4, 90f6 <_strtod_r+0x89e>
    90c6:	f025 4300 	bic.w	r3, r5, #2147483648	; 0x80000000
    90ca:	0d1b      	lsrs	r3, r3, #20
    90cc:	051b      	lsls	r3, r3, #20
    90ce:	f1bb 0f00 	cmp.w	fp, #0
    90d2:	d007      	beq.n	90e4 <_strtod_r+0x88c>
    90d4:	f1b3 6fd6 	cmp.w	r3, #112197632	; 0x6b00000
    90d8:	d804      	bhi.n	90e4 <_strtod_r+0x88c>
    90da:	f1b3 7f5c 	cmp.w	r3, #57671680	; 0x3700000
    90de:	f200 8157 	bhi.w	9390 <_strtod_r+0xb38>
    90e2:	e6e5      	b.n	8eb0 <_strtod_r+0x658>
    90e4:	f5a3 1380 	sub.w	r3, r3, #1048576	; 0x100000
    90e8:	f04f 34ff 	mov.w	r4, #4294967295
    90ec:	ea6f 5513 	mvn.w	r5, r3, lsr #20
    90f0:	ea6f 5505 	mvn.w	r5, r5, lsl #20
    90f4:	e149      	b.n	938a <_strtod_r+0xb32>
    90f6:	f004 0301 	and.w	r3, r4, #1
    90fa:	2b00      	cmp	r3, #0
    90fc:	f000 8145 	beq.w	938a <_strtod_r+0xb32>
    9100:	9809      	ldr	r0, [sp, #36]	; 0x24
    9102:	b160      	cbz	r0, 911e <_strtod_r+0x8c6>
    9104:	e9dd 0104 	ldrd	r0, r1, [sp, #16]
    9108:	f7ff f94c 	bl	83a4 <__ulp>
    910c:	4602      	mov	r2, r0
    910e:	460b      	mov	r3, r1
    9110:	e9dd 0104 	ldrd	r0, r1, [sp, #16]
    9114:	f7f7 ff5e 	bl	fd4 <__adddf3>
    9118:	4604      	mov	r4, r0
    911a:	460d      	mov	r5, r1
    911c:	e135      	b.n	938a <_strtod_r+0xb32>
    911e:	e9dd 0104 	ldrd	r0, r1, [sp, #16]
    9122:	2701      	movs	r7, #1
    9124:	f7ff f93e 	bl	83a4 <__ulp>
    9128:	4602      	mov	r2, r0
    912a:	460b      	mov	r3, r1
    912c:	e9dd 0104 	ldrd	r0, r1, [sp, #16]
    9130:	f7f7 ff4e 	bl	fd0 <__aeabi_dsub>
    9134:	2200      	movs	r2, #0
    9136:	2300      	movs	r3, #0
    9138:	4604      	mov	r4, r0
    913a:	460d      	mov	r5, r1
    913c:	f002 fa40 	bl	b5c0 <__aeabi_dcmpeq>
    9140:	b108      	cbz	r0, 9146 <_strtod_r+0x8ee>
    9142:	9909      	ldr	r1, [sp, #36]	; 0x24
    9144:	460f      	mov	r7, r1
    9146:	f017 0fff 	tst.w	r7, #255	; 0xff
    914a:	f43f aeb1 	beq.w	8eb0 <_strtod_r+0x658>
    914e:	e11c      	b.n	938a <_strtod_r+0xb32>
    9150:	4638      	mov	r0, r7
    9152:	4649      	mov	r1, r9
    9154:	f7ff f9f6 	bl	8544 <__ratio>
    9158:	2200      	movs	r2, #0
    915a:	f04f 4380 	mov.w	r3, #1073741824	; 0x40000000
    915e:	e9cd 0104 	strd	r0, r1, [sp, #16]
    9162:	f002 fa41 	bl	b5e8 <__aeabi_dcmple>
    9166:	2800      	cmp	r0, #0
    9168:	d034      	beq.n	91d4 <_strtod_r+0x97c>
    916a:	9a09      	ldr	r2, [sp, #36]	; 0x24
    916c:	b122      	cbz	r2, 9178 <_strtod_r+0x920>
    916e:	493f      	ldr	r1, [pc, #252]	; (926c <_strtod_r+0xa14>)
    9170:	2000      	movs	r0, #0
    9172:	e9cd 0104 	strd	r0, r1, [sp, #16]
    9176:	e014      	b.n	91a2 <_strtod_r+0x94a>
    9178:	f1ba 0f00 	cmp.w	sl, #0
    917c:	d105      	bne.n	918a <_strtod_r+0x932>
    917e:	f02b 437f 	bic.w	r3, fp, #4278190080	; 0xff000000
    9182:	f423 0370 	bic.w	r3, r3, #15728640	; 0xf00000
    9186:	b93b      	cbnz	r3, 9198 <_strtod_r+0x940>
    9188:	e00d      	b.n	91a6 <_strtod_r+0x94e>
    918a:	f1ba 0f01 	cmp.w	sl, #1
    918e:	d103      	bne.n	9198 <_strtod_r+0x940>
    9190:	f1bb 0f00 	cmp.w	fp, #0
    9194:	f43f ae8b 	beq.w	8eae <_strtod_r+0x656>
    9198:	4b35      	ldr	r3, [pc, #212]	; (9270 <_strtod_r+0xa18>)
    919a:	2500      	movs	r5, #0
    919c:	2200      	movs	r2, #0
    919e:	e9cd 2304 	strd	r2, r3, [sp, #16]
    91a2:	4c32      	ldr	r4, [pc, #200]	; (926c <_strtod_r+0xa14>)
    91a4:	e027      	b.n	91f6 <_strtod_r+0x99e>
    91a6:	e9dd 0104 	ldrd	r0, r1, [sp, #16]
    91aa:	2200      	movs	r2, #0
    91ac:	4b2f      	ldr	r3, [pc, #188]	; (926c <_strtod_r+0xa14>)
    91ae:	f002 fa11 	bl	b5d4 <__aeabi_dcmplt>
    91b2:	b940      	cbnz	r0, 91c6 <_strtod_r+0x96e>
    91b4:	e9dd 0104 	ldrd	r0, r1, [sp, #16]
    91b8:	2200      	movs	r2, #0
    91ba:	4b2e      	ldr	r3, [pc, #184]	; (9274 <_strtod_r+0xa1c>)
    91bc:	f7f8 f8bc 	bl	1338 <__aeabi_dmul>
    91c0:	4605      	mov	r5, r0
    91c2:	460c      	mov	r4, r1
    91c4:	e001      	b.n	91ca <_strtod_r+0x972>
    91c6:	9d09      	ldr	r5, [sp, #36]	; 0x24
    91c8:	4c2a      	ldr	r4, [pc, #168]	; (9274 <_strtod_r+0xa1c>)
    91ca:	f104 4300 	add.w	r3, r4, #2147483648	; 0x80000000
    91ce:	4628      	mov	r0, r5
    91d0:	4619      	mov	r1, r3
    91d2:	e00e      	b.n	91f2 <_strtod_r+0x99a>
    91d4:	e9dd 0104 	ldrd	r0, r1, [sp, #16]
    91d8:	2200      	movs	r2, #0
    91da:	4b26      	ldr	r3, [pc, #152]	; (9274 <_strtod_r+0xa1c>)
    91dc:	f7f8 f8ac 	bl	1338 <__aeabi_dmul>
    91e0:	460c      	mov	r4, r1
    91e2:	9909      	ldr	r1, [sp, #36]	; 0x24
    91e4:	4605      	mov	r5, r0
    91e6:	b911      	cbnz	r1, 91ee <_strtod_r+0x996>
    91e8:	f104 4100 	add.w	r1, r4, #2147483648	; 0x80000000
    91ec:	e000      	b.n	91f0 <_strtod_r+0x998>
    91ee:	4621      	mov	r1, r4
    91f0:	4628      	mov	r0, r5
    91f2:	e9cd 0104 	strd	r0, r1, [sp, #16]
    91f6:	f8df 806c 	ldr.w	r8, [pc, #108]	; 9264 <_strtod_r+0xa0c>
    91fa:	4a1f      	ldr	r2, [pc, #124]	; (9278 <_strtod_r+0xa20>)
    91fc:	ea0b 0808 	and.w	r8, fp, r8
    9200:	4590      	cmp	r8, r2
    9202:	d13f      	bne.n	9284 <_strtod_r+0xa2c>
    9204:	4659      	mov	r1, fp
    9206:	f1ab 7b54 	sub.w	fp, fp, #55574528	; 0x3500000
    920a:	4650      	mov	r0, sl
    920c:	e9cd 010c 	strd	r0, r1, [sp, #48]	; 0x30
    9210:	4650      	mov	r0, sl
    9212:	4659      	mov	r1, fp
    9214:	f7ff f8c6 	bl	83a4 <__ulp>
    9218:	4602      	mov	r2, r0
    921a:	460b      	mov	r3, r1
    921c:	e9dd 0104 	ldrd	r0, r1, [sp, #16]
    9220:	f7f8 f88a 	bl	1338 <__aeabi_dmul>
    9224:	460b      	mov	r3, r1
    9226:	4602      	mov	r2, r0
    9228:	4659      	mov	r1, fp
    922a:	4650      	mov	r0, sl
    922c:	f7f7 fed2 	bl	fd4 <__adddf3>
    9230:	4b0c      	ldr	r3, [pc, #48]	; (9264 <_strtod_r+0xa0c>)
    9232:	468b      	mov	fp, r1
    9234:	ea01 0303 	and.w	r3, r1, r3
    9238:	4910      	ldr	r1, [pc, #64]	; (927c <_strtod_r+0xa24>)
    923a:	4682      	mov	sl, r0
    923c:	428b      	cmp	r3, r1
    923e:	d90d      	bls.n	925c <_strtod_r+0xa04>
    9240:	4b0f      	ldr	r3, [pc, #60]	; (9280 <_strtod_r+0xa28>)
    9242:	980d      	ldr	r0, [sp, #52]	; 0x34
    9244:	4298      	cmp	r0, r3
    9246:	d104      	bne.n	9252 <_strtod_r+0x9fa>
    9248:	990c      	ldr	r1, [sp, #48]	; 0x30
    924a:	f1b1 3fff 	cmp.w	r1, #4294967295
    924e:	f43f ad6c 	beq.w	8d2a <_strtod_r+0x4d2>
    9252:	f8df b02c 	ldr.w	fp, [pc, #44]	; 9280 <_strtod_r+0xa28>
    9256:	f04f 3aff 	mov.w	sl, #4294967295
    925a:	e085      	b.n	9368 <_strtod_r+0xb10>
    925c:	f10b 7b54 	add.w	fp, fp, #55574528	; 0x3500000
    9260:	e047      	b.n	92f2 <_strtod_r+0xa9a>
    9262:	bf00      	nop
    9264:	7ff00000 	.word	0x7ff00000
    9268:	000fffff 	.word	0x000fffff
    926c:	3ff00000 	.word	0x3ff00000
    9270:	bff00000 	.word	0xbff00000
    9274:	3fe00000 	.word	0x3fe00000
    9278:	7fe00000 	.word	0x7fe00000
    927c:	7c9fffff 	.word	0x7c9fffff
    9280:	7fefffff 	.word	0x7fefffff
    9284:	9a0a      	ldr	r2, [sp, #40]	; 0x28
    9286:	b312      	cbz	r2, 92ce <_strtod_r+0xa76>
    9288:	f1b8 6fd4 	cmp.w	r8, #111149056	; 0x6a00000
    928c:	d81f      	bhi.n	92ce <_strtod_r+0xa76>
    928e:	4628      	mov	r0, r5
    9290:	4621      	mov	r1, r4
    9292:	a35d      	add	r3, pc, #372	; (adr r3, 9408 <_strtod_r+0xbb0>)
    9294:	e9d3 2300 	ldrd	r2, r3, [r3]
    9298:	f002 f9a6 	bl	b5e8 <__aeabi_dcmple>
    929c:	b188      	cbz	r0, 92c2 <_strtod_r+0xa6a>
    929e:	4621      	mov	r1, r4
    92a0:	4628      	mov	r0, r5
    92a2:	f002 f9bf 	bl	b624 <__aeabi_d2uiz>
    92a6:	2800      	cmp	r0, #0
    92a8:	bf08      	it	eq
    92aa:	2001      	moveq	r0, #1
    92ac:	f7f7 ffce 	bl	124c <__aeabi_ui2d>
    92b0:	9b09      	ldr	r3, [sp, #36]	; 0x24
    92b2:	4605      	mov	r5, r0
    92b4:	460c      	mov	r4, r1
    92b6:	b90b      	cbnz	r3, 92bc <_strtod_r+0xa64>
    92b8:	f101 4100 	add.w	r1, r1, #2147483648	; 0x80000000
    92bc:	4628      	mov	r0, r5
    92be:	e9cd 0104 	strd	r0, r1, [sp, #16]
    92c2:	9905      	ldr	r1, [sp, #20]
    92c4:	f101 63d6 	add.w	r3, r1, #112197632	; 0x6b00000
    92c8:	ebc8 0303 	rsb	r3, r8, r3
    92cc:	9305      	str	r3, [sp, #20]
    92ce:	4650      	mov	r0, sl
    92d0:	4659      	mov	r1, fp
    92d2:	f7ff f867 	bl	83a4 <__ulp>
    92d6:	4602      	mov	r2, r0
    92d8:	460b      	mov	r3, r1
    92da:	e9dd 0104 	ldrd	r0, r1, [sp, #16]
    92de:	f7f8 f82b 	bl	1338 <__aeabi_dmul>
    92e2:	4602      	mov	r2, r0
    92e4:	460b      	mov	r3, r1
    92e6:	4650      	mov	r0, sl
    92e8:	4659      	mov	r1, fp
    92ea:	f7f7 fe73 	bl	fd4 <__adddf3>
    92ee:	4682      	mov	sl, r0
    92f0:	468b      	mov	fp, r1
    92f2:	9b0a      	ldr	r3, [sp, #40]	; 0x28
    92f4:	2b00      	cmp	r3, #0
    92f6:	d137      	bne.n	9368 <_strtod_r+0xb10>
    92f8:	4b4b      	ldr	r3, [pc, #300]	; (9428 <_strtod_r+0xbd0>)
    92fa:	ea0b 0303 	and.w	r3, fp, r3
    92fe:	4598      	cmp	r8, r3
    9300:	d132      	bne.n	9368 <_strtod_r+0xb10>
    9302:	4621      	mov	r1, r4
    9304:	4628      	mov	r0, r5
    9306:	f8cd b00c 	str.w	fp, [sp, #12]
    930a:	f7f8 fa27 	bl	175c <__aeabi_d2iz>
    930e:	f7f7 ffad 	bl	126c <__aeabi_i2d>
    9312:	4602      	mov	r2, r0
    9314:	460b      	mov	r3, r1
    9316:	4628      	mov	r0, r5
    9318:	4621      	mov	r1, r4
    931a:	f7f7 fe59 	bl	fd0 <__aeabi_dsub>
    931e:	9a09      	ldr	r2, [sp, #36]	; 0x24
    9320:	f8dd c00c 	ldr.w	ip, [sp, #12]
    9324:	4604      	mov	r4, r0
    9326:	460d      	mov	r5, r1
    9328:	b93a      	cbnz	r2, 933a <_strtod_r+0xae2>
    932a:	f1ba 0f00 	cmp.w	sl, #0
    932e:	d104      	bne.n	933a <_strtod_r+0xae2>
    9330:	f02c 437f 	bic.w	r3, ip, #4278190080	; 0xff000000
    9334:	f423 0370 	bic.w	r3, r3, #15728640	; 0xf00000
    9338:	b183      	cbz	r3, 935c <_strtod_r+0xb04>
    933a:	4620      	mov	r0, r4
    933c:	4629      	mov	r1, r5
    933e:	a334      	add	r3, pc, #208	; (adr r3, 9410 <_strtod_r+0xbb8>)
    9340:	e9d3 2300 	ldrd	r2, r3, [r3]
    9344:	f002 f946 	bl	b5d4 <__aeabi_dcmplt>
    9348:	2800      	cmp	r0, #0
    934a:	d132      	bne.n	93b2 <_strtod_r+0xb5a>
    934c:	4620      	mov	r0, r4
    934e:	4629      	mov	r1, r5
    9350:	a331      	add	r3, pc, #196	; (adr r3, 9418 <_strtod_r+0xbc0>)
    9352:	e9d3 2300 	ldrd	r2, r3, [r3]
    9356:	f002 f95b 	bl	b610 <__aeabi_dcmpgt>
    935a:	e004      	b.n	9366 <_strtod_r+0xb0e>
    935c:	a330      	add	r3, pc, #192	; (adr r3, 9420 <_strtod_r+0xbc8>)
    935e:	e9d3 2300 	ldrd	r2, r3, [r3]
    9362:	f002 f937 	bl	b5d4 <__aeabi_dcmplt>
    9366:	bb20      	cbnz	r0, 93b2 <_strtod_r+0xb5a>
    9368:	4630      	mov	r0, r6
    936a:	9914      	ldr	r1, [sp, #80]	; 0x50
    936c:	f7fe fd7c 	bl	7e68 <_Bfree>
    9370:	4630      	mov	r0, r6
    9372:	9906      	ldr	r1, [sp, #24]
    9374:	f7fe fd78 	bl	7e68 <_Bfree>
    9378:	4630      	mov	r0, r6
    937a:	4649      	mov	r1, r9
    937c:	f7fe fd74 	bl	7e68 <_Bfree>
    9380:	4630      	mov	r0, r6
    9382:	4639      	mov	r1, r7
    9384:	f7fe fd70 	bl	7e68 <_Bfree>
    9388:	e5a9      	b.n	8ede <_strtod_r+0x686>
    938a:	f1bb 0f00 	cmp.w	fp, #0
    938e:	d013      	beq.n	93b8 <_strtod_r+0xb60>
    9390:	4b26      	ldr	r3, [pc, #152]	; (942c <_strtod_r+0xbd4>)
    9392:	2000      	movs	r0, #0
    9394:	900c      	str	r0, [sp, #48]	; 0x30
    9396:	4629      	mov	r1, r5
    9398:	4620      	mov	r0, r4
    939a:	930d      	str	r3, [sp, #52]	; 0x34
    939c:	e9dd 230c 	ldrd	r2, r3, [sp, #48]	; 0x30
    93a0:	f7f7 ffca 	bl	1338 <__aeabi_dmul>
    93a4:	4604      	mov	r4, r0
    93a6:	460d      	mov	r5, r1
    93a8:	b931      	cbnz	r1, 93b8 <_strtod_r+0xb60>
    93aa:	b928      	cbnz	r0, 93b8 <_strtod_r+0xb60>
    93ac:	2322      	movs	r3, #34	; 0x22
    93ae:	6033      	str	r3, [r6, #0]
    93b0:	e002      	b.n	93b8 <_strtod_r+0xb60>
    93b2:	46b8      	mov	r8, r7
    93b4:	4654      	mov	r4, sl
    93b6:	465d      	mov	r5, fp
    93b8:	4630      	mov	r0, r6
    93ba:	9914      	ldr	r1, [sp, #80]	; 0x50
    93bc:	f7fe fd54 	bl	7e68 <_Bfree>
    93c0:	4630      	mov	r0, r6
    93c2:	9906      	ldr	r1, [sp, #24]
    93c4:	f7fe fd50 	bl	7e68 <_Bfree>
    93c8:	4630      	mov	r0, r6
    93ca:	4649      	mov	r1, r9
    93cc:	f7fe fd4c 	bl	7e68 <_Bfree>
    93d0:	4630      	mov	r0, r6
    93d2:	9908      	ldr	r1, [sp, #32]
    93d4:	f7fe fd48 	bl	7e68 <_Bfree>
    93d8:	4630      	mov	r0, r6
    93da:	4641      	mov	r1, r8
    93dc:	f7fe fd44 	bl	7e68 <_Bfree>
    93e0:	990f      	ldr	r1, [sp, #60]	; 0x3c
    93e2:	b109      	cbz	r1, 93e8 <_strtod_r+0xb90>
    93e4:	9b15      	ldr	r3, [sp, #84]	; 0x54
    93e6:	600b      	str	r3, [r1, #0]
    93e8:	9a0b      	ldr	r2, [sp, #44]	; 0x2c
    93ea:	b11a      	cbz	r2, 93f4 <_strtod_r+0xb9c>
    93ec:	4622      	mov	r2, r4
    93ee:	f105 4300 	add.w	r3, r5, #2147483648	; 0x80000000
    93f2:	e001      	b.n	93f8 <_strtod_r+0xba0>
    93f4:	4622      	mov	r2, r4
    93f6:	462b      	mov	r3, r5
    93f8:	4610      	mov	r0, r2
    93fa:	4619      	mov	r1, r3
    93fc:	b019      	add	sp, #100	; 0x64
    93fe:	e8bd 8ff0 	ldmia.w	sp!, {r4, r5, r6, r7, r8, r9, sl, fp, pc}
    9402:	bf00      	nop
    9404:	f3af 8000 	nop.w
    9408:	ffc00000 	.word	0xffc00000
    940c:	41dfffff 	.word	0x41dfffff
    9410:	94a03595 	.word	0x94a03595
    9414:	3fdfffff 	.word	0x3fdfffff
    9418:	35afe535 	.word	0x35afe535
    941c:	3fe00000 	.word	0x3fe00000
    9420:	94a03595 	.word	0x94a03595
    9424:	3fcfffff 	.word	0x3fcfffff
    9428:	7ff00000 	.word	0x7ff00000
    942c:	39500000 	.word	0x39500000

00009430 <_strtol_r>:
    9430:	e92d 4ff7 	stmdb	sp!, {r0, r1, r2, r4, r5, r6, r7, r8, r9, sl, fp, lr}
    9434:	4698      	mov	r8, r3
    9436:	4b46      	ldr	r3, [pc, #280]	; (9550 <_strtol_r+0x120>)
    9438:	460c      	mov	r4, r1
    943a:	4615      	mov	r5, r2
    943c:	9001      	str	r0, [sp, #4]
    943e:	f8d3 b000 	ldr.w	fp, [r3]
    9442:	460b      	mov	r3, r1
    9444:	f813 6b01 	ldrb.w	r6, [r3], #1
    9448:	eb0b 0206 	add.w	r2, fp, r6
    944c:	461f      	mov	r7, r3
    944e:	f892 9001 	ldrb.w	r9, [r2, #1]
    9452:	f019 0908 	ands.w	r9, r9, #8
    9456:	d1f5      	bne.n	9444 <_strtol_r+0x14>
    9458:	2e2d      	cmp	r6, #45	; 0x2d
    945a:	d104      	bne.n	9466 <_strtol_r+0x36>
    945c:	f817 6b01 	ldrb.w	r6, [r7], #1
    9460:	f04f 0901 	mov.w	r9, #1
    9464:	e003      	b.n	946e <_strtol_r+0x3e>
    9466:	2e2b      	cmp	r6, #43	; 0x2b
    9468:	bf08      	it	eq
    946a:	f817 6b01 	ldrbeq.w	r6, [r7], #1
    946e:	f1b8 0f00 	cmp.w	r8, #0
    9472:	d002      	beq.n	947a <_strtol_r+0x4a>
    9474:	f1b8 0f10 	cmp.w	r8, #16
    9478:	d114      	bne.n	94a4 <_strtol_r+0x74>
    947a:	2e30      	cmp	r6, #48	; 0x30
    947c:	d109      	bne.n	9492 <_strtol_r+0x62>
    947e:	783b      	ldrb	r3, [r7, #0]
    9480:	2b78      	cmp	r3, #120	; 0x78
    9482:	d001      	beq.n	9488 <_strtol_r+0x58>
    9484:	2b58      	cmp	r3, #88	; 0x58
    9486:	d104      	bne.n	9492 <_strtol_r+0x62>
    9488:	787e      	ldrb	r6, [r7, #1]
    948a:	f04f 0810 	mov.w	r8, #16
    948e:	3702      	adds	r7, #2
    9490:	e008      	b.n	94a4 <_strtol_r+0x74>
    9492:	f1b8 0f00 	cmp.w	r8, #0
    9496:	d105      	bne.n	94a4 <_strtol_r+0x74>
    9498:	2e30      	cmp	r6, #48	; 0x30
    949a:	bf14      	ite	ne
    949c:	f04f 080a 	movne.w	r8, #10
    94a0:	f04f 0808 	moveq.w	r8, #8
    94a4:	f1b9 0f00 	cmp.w	r9, #0
    94a8:	4641      	mov	r1, r8
    94aa:	bf0c      	ite	eq
    94ac:	f06f 4a00 	mvneq.w	sl, #2147483648	; 0x80000000
    94b0:	f04f 4a00 	movne.w	sl, #2147483648	; 0x80000000
    94b4:	4650      	mov	r0, sl
    94b6:	f001 fec5 	bl	b244 <__aeabi_uidivmod>
    94ba:	4650      	mov	r0, sl
    94bc:	460b      	mov	r3, r1
    94be:	4641      	mov	r1, r8
    94c0:	9300      	str	r3, [sp, #0]
    94c2:	f001 fd91 	bl	afe8 <__aeabi_uidiv>
    94c6:	2100      	movs	r1, #0
    94c8:	9b00      	ldr	r3, [sp, #0]
    94ca:	460a      	mov	r2, r1
    94cc:	eb0b 0c06 	add.w	ip, fp, r6
    94d0:	f89c c001 	ldrb.w	ip, [ip, #1]
    94d4:	f01c 0f04 	tst.w	ip, #4
    94d8:	d001      	beq.n	94de <_strtol_r+0xae>
    94da:	3e30      	subs	r6, #48	; 0x30
    94dc:	e00b      	b.n	94f6 <_strtol_r+0xc6>
    94de:	f01c 0c03 	ands.w	ip, ip, #3
    94e2:	d01b      	beq.n	951c <_strtol_r+0xec>
    94e4:	f1bc 0f01 	cmp.w	ip, #1
    94e8:	bf14      	ite	ne
    94ea:	f04f 0c57 	movne.w	ip, #87	; 0x57
    94ee:	f04f 0c37 	moveq.w	ip, #55	; 0x37
    94f2:	ebcc 0606 	rsb	r6, ip, r6
    94f6:	4546      	cmp	r6, r8
    94f8:	da10      	bge.n	951c <_strtol_r+0xec>
    94fa:	f1b1 3fff 	cmp.w	r1, #4294967295
    94fe:	d00a      	beq.n	9516 <_strtol_r+0xe6>
    9500:	4282      	cmp	r2, r0
    9502:	d806      	bhi.n	9512 <_strtol_r+0xe2>
    9504:	d101      	bne.n	950a <_strtol_r+0xda>
    9506:	429e      	cmp	r6, r3
    9508:	dc03      	bgt.n	9512 <_strtol_r+0xe2>
    950a:	fb08 6202 	mla	r2, r8, r2, r6
    950e:	2101      	movs	r1, #1
    9510:	e001      	b.n	9516 <_strtol_r+0xe6>
    9512:	f04f 31ff 	mov.w	r1, #4294967295
    9516:	f817 6b01 	ldrb.w	r6, [r7], #1
    951a:	e7d7      	b.n	94cc <_strtol_r+0x9c>
    951c:	f1b1 3fff 	cmp.w	r1, #4294967295
    9520:	d10a      	bne.n	9538 <_strtol_r+0x108>
    9522:	9801      	ldr	r0, [sp, #4]
    9524:	f1b9 0f00 	cmp.w	r9, #0
    9528:	bf0c      	ite	eq
    952a:	f06f 4200 	mvneq.w	r2, #2147483648	; 0x80000000
    952e:	f04f 4200 	movne.w	r2, #2147483648	; 0x80000000
    9532:	2322      	movs	r3, #34	; 0x22
    9534:	6003      	str	r3, [r0, #0]
    9536:	e003      	b.n	9540 <_strtol_r+0x110>
    9538:	f1b9 0f00 	cmp.w	r9, #0
    953c:	d000      	beq.n	9540 <_strtol_r+0x110>
    953e:	4252      	negs	r2, r2
    9540:	b115      	cbz	r5, 9548 <_strtol_r+0x118>
    9542:	b101      	cbz	r1, 9546 <_strtol_r+0x116>
    9544:	1e7c      	subs	r4, r7, #1
    9546:	602c      	str	r4, [r5, #0]
    9548:	4610      	mov	r0, r2
    954a:	e8bd 8ffe 	ldmia.w	sp!, {r1, r2, r3, r4, r5, r6, r7, r8, r9, sl, fp, pc}
    954e:	bf00      	nop
    9550:	10000520 	.word	0x10000520

00009554 <_strtoll_r>:
    9554:	e92d 4ff0 	stmdb	sp!, {r4, r5, r6, r7, r8, r9, sl, fp, lr}
    9558:	461e      	mov	r6, r3
    955a:	4b58      	ldr	r3, [pc, #352]	; (96bc <_strtoll_r+0x168>)
    955c:	b089      	sub	sp, #36	; 0x24
    955e:	4688      	mov	r8, r1
    9560:	4694      	mov	ip, r2
    9562:	9007      	str	r0, [sp, #28]
    9564:	f8d3 9000 	ldr.w	r9, [r3]
    9568:	460b      	mov	r3, r1
    956a:	f813 4b01 	ldrb.w	r4, [r3], #1
    956e:	eb09 0204 	add.w	r2, r9, r4
    9572:	461d      	mov	r5, r3
    9574:	7857      	ldrb	r7, [r2, #1]
    9576:	f017 0708 	ands.w	r7, r7, #8
    957a:	d1f6      	bne.n	956a <_strtoll_r+0x16>
    957c:	2c2d      	cmp	r4, #45	; 0x2d
    957e:	d103      	bne.n	9588 <_strtoll_r+0x34>
    9580:	f815 4b01 	ldrb.w	r4, [r5], #1
    9584:	2701      	movs	r7, #1
    9586:	e003      	b.n	9590 <_strtoll_r+0x3c>
    9588:	2c2b      	cmp	r4, #43	; 0x2b
    958a:	bf08      	it	eq
    958c:	f815 4b01 	ldrbeq.w	r4, [r5], #1
    9590:	b10e      	cbz	r6, 9596 <_strtoll_r+0x42>
    9592:	2e10      	cmp	r6, #16
    9594:	d10f      	bne.n	95b6 <_strtoll_r+0x62>
    9596:	2c30      	cmp	r4, #48	; 0x30
    9598:	d108      	bne.n	95ac <_strtoll_r+0x58>
    959a:	782b      	ldrb	r3, [r5, #0]
    959c:	2b78      	cmp	r3, #120	; 0x78
    959e:	d001      	beq.n	95a4 <_strtoll_r+0x50>
    95a0:	2b58      	cmp	r3, #88	; 0x58
    95a2:	d103      	bne.n	95ac <_strtoll_r+0x58>
    95a4:	786c      	ldrb	r4, [r5, #1]
    95a6:	2610      	movs	r6, #16
    95a8:	3502      	adds	r5, #2
    95aa:	e004      	b.n	95b6 <_strtoll_r+0x62>
    95ac:	b91e      	cbnz	r6, 95b6 <_strtoll_r+0x62>
    95ae:	2c30      	cmp	r4, #48	; 0x30
    95b0:	bf14      	ite	ne
    95b2:	260a      	movne	r6, #10
    95b4:	2608      	moveq	r6, #8
    95b6:	b127      	cbz	r7, 95c2 <_strtoll_r+0x6e>
    95b8:	f04f 0a00 	mov.w	sl, #0
    95bc:	f04f 4b00 	mov.w	fp, #2147483648	; 0x80000000
    95c0:	e003      	b.n	95ca <_strtoll_r+0x76>
    95c2:	f04f 3aff 	mov.w	sl, #4294967295
    95c6:	f06f 4b00 	mvn.w	fp, #2147483648	; 0x80000000
    95ca:	4630      	mov	r0, r6
    95cc:	17f1      	asrs	r1, r6, #31
    95ce:	e9cd 0104 	strd	r0, r1, [sp, #16]
    95d2:	4650      	mov	r0, sl
    95d4:	4659      	mov	r1, fp
    95d6:	e9dd 2304 	ldrd	r2, r3, [sp, #16]
    95da:	f8cd c00c 	str.w	ip, [sp, #12]
    95de:	f002 f841 	bl	b664 <__aeabi_uldivmod>
    95e2:	4650      	mov	r0, sl
    95e4:	4659      	mov	r1, fp
    95e6:	9206      	str	r2, [sp, #24]
    95e8:	e9dd 2304 	ldrd	r2, r3, [sp, #16]
    95ec:	f002 f83a 	bl	b664 <__aeabi_uldivmod>
    95f0:	f8dd c00c 	ldr.w	ip, [sp, #12]
    95f4:	2200      	movs	r2, #0
    95f6:	2300      	movs	r3, #0
    95f8:	f8cd c004 	str.w	ip, [sp, #4]
    95fc:	468b      	mov	fp, r1
    95fe:	4682      	mov	sl, r0
    9600:	2100      	movs	r1, #0
    9602:	eb09 0004 	add.w	r0, r9, r4
    9606:	7840      	ldrb	r0, [r0, #1]
    9608:	f010 0f04 	tst.w	r0, #4
    960c:	d001      	beq.n	9612 <_strtoll_r+0xbe>
    960e:	3c30      	subs	r4, #48	; 0x30
    9610:	e007      	b.n	9622 <_strtoll_r+0xce>
    9612:	f010 0003 	ands.w	r0, r0, #3
    9616:	d02d      	beq.n	9674 <_strtoll_r+0x120>
    9618:	2801      	cmp	r0, #1
    961a:	bf14      	ite	ne
    961c:	2057      	movne	r0, #87	; 0x57
    961e:	2037      	moveq	r0, #55	; 0x37
    9620:	1a24      	subs	r4, r4, r0
    9622:	42b4      	cmp	r4, r6
    9624:	da26      	bge.n	9674 <_strtoll_r+0x120>
    9626:	f1b1 3fff 	cmp.w	r1, #4294967295
    962a:	d020      	beq.n	966e <_strtoll_r+0x11a>
    962c:	4592      	cmp	sl, r2
    962e:	eb7b 0103 	sbcs.w	r1, fp, r3
    9632:	d31a      	bcc.n	966a <_strtoll_r+0x116>
    9634:	ea82 000a 	eor.w	r0, r2, sl
    9638:	ea83 010b 	eor.w	r1, r3, fp
    963c:	ea50 0c01 	orrs.w	ip, r0, r1
    9640:	d102      	bne.n	9648 <_strtoll_r+0xf4>
    9642:	9806      	ldr	r0, [sp, #24]
    9644:	4284      	cmp	r4, r0
    9646:	dc0e      	bgt.n	9666 <_strtoll_r+0x112>
    9648:	f8dd c014 	ldr.w	ip, [sp, #20]
    964c:	9804      	ldr	r0, [sp, #16]
    964e:	fb02 f10c 	mul.w	r1, r2, ip
    9652:	fb00 1103 	mla	r1, r0, r3, r1
    9656:	fba2 2300 	umull	r2, r3, r2, r0
    965a:	18cb      	adds	r3, r1, r3
    965c:	1912      	adds	r2, r2, r4
    965e:	eb43 73e4 	adc.w	r3, r3, r4, asr #31
    9662:	2101      	movs	r1, #1
    9664:	e003      	b.n	966e <_strtoll_r+0x11a>
    9666:	4652      	mov	r2, sl
    9668:	465b      	mov	r3, fp
    966a:	f04f 31ff 	mov.w	r1, #4294967295
    966e:	f815 4b01 	ldrb.w	r4, [r5], #1
    9672:	e7c6      	b.n	9602 <_strtoll_r+0xae>
    9674:	f1b1 3fff 	cmp.w	r1, #4294967295
    9678:	f8dd c004 	ldr.w	ip, [sp, #4]
    967c:	d10c      	bne.n	9698 <_strtoll_r+0x144>
    967e:	b11f      	cbz	r7, 9688 <_strtoll_r+0x134>
    9680:	2200      	movs	r2, #0
    9682:	f04f 4300 	mov.w	r3, #2147483648	; 0x80000000
    9686:	e003      	b.n	9690 <_strtoll_r+0x13c>
    9688:	f04f 32ff 	mov.w	r2, #4294967295
    968c:	f06f 4300 	mvn.w	r3, #2147483648	; 0x80000000
    9690:	9c07      	ldr	r4, [sp, #28]
    9692:	2022      	movs	r0, #34	; 0x22
    9694:	6020      	str	r0, [r4, #0]
    9696:	e003      	b.n	96a0 <_strtoll_r+0x14c>
    9698:	b117      	cbz	r7, 96a0 <_strtoll_r+0x14c>
    969a:	4252      	negs	r2, r2
    969c:	eb63 0343 	sbc.w	r3, r3, r3, lsl #1
    96a0:	f1bc 0f00 	cmp.w	ip, #0
    96a4:	d004      	beq.n	96b0 <_strtoll_r+0x15c>
    96a6:	b109      	cbz	r1, 96ac <_strtoll_r+0x158>
    96a8:	f105 38ff 	add.w	r8, r5, #4294967295
    96ac:	f8cc 8000 	str.w	r8, [ip]
    96b0:	4610      	mov	r0, r2
    96b2:	4619      	mov	r1, r3
    96b4:	b009      	add	sp, #36	; 0x24
    96b6:	e8bd 8ff0 	ldmia.w	sp!, {r4, r5, r6, r7, r8, r9, sl, fp, pc}
    96ba:	bf00      	nop
    96bc:	10000520 	.word	0x10000520

000096c0 <_strtoul_r>:
    96c0:	e92d 4ff7 	stmdb	sp!, {r0, r1, r2, r4, r5, r6, r7, r8, r9, sl, fp, lr}
    96c4:	4698      	mov	r8, r3
    96c6:	4b3c      	ldr	r3, [pc, #240]	; (97b8 <_strtoul_r+0xf8>)
    96c8:	460c      	mov	r4, r1
    96ca:	4615      	mov	r5, r2
    96cc:	9001      	str	r0, [sp, #4]
    96ce:	f8d3 a000 	ldr.w	sl, [r3]
    96d2:	460b      	mov	r3, r1
    96d4:	f813 6b01 	ldrb.w	r6, [r3], #1
    96d8:	eb0a 0206 	add.w	r2, sl, r6
    96dc:	461f      	mov	r7, r3
    96de:	f892 9001 	ldrb.w	r9, [r2, #1]
    96e2:	f019 0908 	ands.w	r9, r9, #8
    96e6:	d1f5      	bne.n	96d4 <_strtoul_r+0x14>
    96e8:	2e2d      	cmp	r6, #45	; 0x2d
    96ea:	d104      	bne.n	96f6 <_strtoul_r+0x36>
    96ec:	f817 6b01 	ldrb.w	r6, [r7], #1
    96f0:	f04f 0901 	mov.w	r9, #1
    96f4:	e003      	b.n	96fe <_strtoul_r+0x3e>
    96f6:	2e2b      	cmp	r6, #43	; 0x2b
    96f8:	bf08      	it	eq
    96fa:	f817 6b01 	ldrbeq.w	r6, [r7], #1
    96fe:	f1b8 0f00 	cmp.w	r8, #0
    9702:	d002      	beq.n	970a <_strtoul_r+0x4a>
    9704:	f1b8 0f10 	cmp.w	r8, #16
    9708:	d114      	bne.n	9734 <_strtoul_r+0x74>
    970a:	2e30      	cmp	r6, #48	; 0x30
    970c:	d109      	bne.n	9722 <_strtoul_r+0x62>
    970e:	783b      	ldrb	r3, [r7, #0]
    9710:	2b78      	cmp	r3, #120	; 0x78
    9712:	d001      	beq.n	9718 <_strtoul_r+0x58>
    9714:	2b58      	cmp	r3, #88	; 0x58
    9716:	d104      	bne.n	9722 <_strtoul_r+0x62>
    9718:	787e      	ldrb	r6, [r7, #1]
    971a:	f04f 0810 	mov.w	r8, #16
    971e:	3702      	adds	r7, #2
    9720:	e008      	b.n	9734 <_strtoul_r+0x74>
    9722:	f1b8 0f00 	cmp.w	r8, #0
    9726:	d105      	bne.n	9734 <_strtoul_r+0x74>
    9728:	2e30      	cmp	r6, #48	; 0x30
    972a:	bf14      	ite	ne
    972c:	f04f 080a 	movne.w	r8, #10
    9730:	f04f 0808 	moveq.w	r8, #8
    9734:	4641      	mov	r1, r8
    9736:	f04f 30ff 	mov.w	r0, #4294967295
    973a:	f001 fc55 	bl	afe8 <__aeabi_uidiv>
    973e:	4641      	mov	r1, r8
    9740:	4683      	mov	fp, r0
    9742:	f04f 30ff 	mov.w	r0, #4294967295
    9746:	f001 fd7d 	bl	b244 <__aeabi_uidivmod>
    974a:	2300      	movs	r3, #0
    974c:	4618      	mov	r0, r3
    974e:	eb0a 0206 	add.w	r2, sl, r6
    9752:	7852      	ldrb	r2, [r2, #1]
    9754:	f012 0f04 	tst.w	r2, #4
    9758:	d001      	beq.n	975e <_strtoul_r+0x9e>
    975a:	3e30      	subs	r6, #48	; 0x30
    975c:	e007      	b.n	976e <_strtoul_r+0xae>
    975e:	f012 0203 	ands.w	r2, r2, #3
    9762:	d017      	beq.n	9794 <_strtoul_r+0xd4>
    9764:	2a01      	cmp	r2, #1
    9766:	bf14      	ite	ne
    9768:	2257      	movne	r2, #87	; 0x57
    976a:	2237      	moveq	r2, #55	; 0x37
    976c:	1ab6      	subs	r6, r6, r2
    976e:	4546      	cmp	r6, r8
    9770:	da10      	bge.n	9794 <_strtoul_r+0xd4>
    9772:	f1b3 3fff 	cmp.w	r3, #4294967295
    9776:	d00a      	beq.n	978e <_strtoul_r+0xce>
    9778:	4558      	cmp	r0, fp
    977a:	d806      	bhi.n	978a <_strtoul_r+0xca>
    977c:	d101      	bne.n	9782 <_strtoul_r+0xc2>
    977e:	428e      	cmp	r6, r1
    9780:	dc03      	bgt.n	978a <_strtoul_r+0xca>
    9782:	fb08 6000 	mla	r0, r8, r0, r6
    9786:	2301      	movs	r3, #1
    9788:	e001      	b.n	978e <_strtoul_r+0xce>
    978a:	f04f 33ff 	mov.w	r3, #4294967295
    978e:	f817 6b01 	ldrb.w	r6, [r7], #1
    9792:	e7dc      	b.n	974e <_strtoul_r+0x8e>
    9794:	f1b3 3fff 	cmp.w	r3, #4294967295
    9798:	d104      	bne.n	97a4 <_strtoul_r+0xe4>
    979a:	9901      	ldr	r1, [sp, #4]
    979c:	2222      	movs	r2, #34	; 0x22
    979e:	4618      	mov	r0, r3
    97a0:	600a      	str	r2, [r1, #0]
    97a2:	e003      	b.n	97ac <_strtoul_r+0xec>
    97a4:	f1b9 0f00 	cmp.w	r9, #0
    97a8:	d000      	beq.n	97ac <_strtoul_r+0xec>
    97aa:	4240      	negs	r0, r0
    97ac:	b115      	cbz	r5, 97b4 <_strtoul_r+0xf4>
    97ae:	b103      	cbz	r3, 97b2 <_strtoul_r+0xf2>
    97b0:	1e7c      	subs	r4, r7, #1
    97b2:	602c      	str	r4, [r5, #0]
    97b4:	e8bd 8ffe 	ldmia.w	sp!, {r1, r2, r3, r4, r5, r6, r7, r8, r9, sl, fp, pc}
    97b8:	10000520 	.word	0x10000520

000097bc <_strtoull_r>:
    97bc:	e92d 4ff0 	stmdb	sp!, {r4, r5, r6, r7, r8, r9, sl, fp, lr}
    97c0:	461e      	mov	r6, r3
    97c2:	4b52      	ldr	r3, [pc, #328]	; (990c <_strtoull_r+0x150>)
    97c4:	b08b      	sub	sp, #44	; 0x2c
    97c6:	4688      	mov	r8, r1
    97c8:	4694      	mov	ip, r2
    97ca:	9009      	str	r0, [sp, #36]	; 0x24
    97cc:	f8d3 9000 	ldr.w	r9, [r3]
    97d0:	460b      	mov	r3, r1
    97d2:	f813 4b01 	ldrb.w	r4, [r3], #1
    97d6:	eb09 0204 	add.w	r2, r9, r4
    97da:	461d      	mov	r5, r3
    97dc:	7857      	ldrb	r7, [r2, #1]
    97de:	f017 0708 	ands.w	r7, r7, #8
    97e2:	d1f6      	bne.n	97d2 <_strtoull_r+0x16>
    97e4:	2c2d      	cmp	r4, #45	; 0x2d
    97e6:	d103      	bne.n	97f0 <_strtoull_r+0x34>
    97e8:	f815 4b01 	ldrb.w	r4, [r5], #1
    97ec:	2701      	movs	r7, #1
    97ee:	e003      	b.n	97f8 <_strtoull_r+0x3c>
    97f0:	2c2b      	cmp	r4, #43	; 0x2b
    97f2:	bf08      	it	eq
    97f4:	f815 4b01 	ldrbeq.w	r4, [r5], #1
    97f8:	b10e      	cbz	r6, 97fe <_strtoull_r+0x42>
    97fa:	2e10      	cmp	r6, #16
    97fc:	d10f      	bne.n	981e <_strtoull_r+0x62>
    97fe:	2c30      	cmp	r4, #48	; 0x30
    9800:	d108      	bne.n	9814 <_strtoull_r+0x58>
    9802:	782b      	ldrb	r3, [r5, #0]
    9804:	2b78      	cmp	r3, #120	; 0x78
    9806:	d001      	beq.n	980c <_strtoull_r+0x50>
    9808:	2b58      	cmp	r3, #88	; 0x58
    980a:	d103      	bne.n	9814 <_strtoull_r+0x58>
    980c:	786c      	ldrb	r4, [r5, #1]
    980e:	2610      	movs	r6, #16
    9810:	3502      	adds	r5, #2
    9812:	e004      	b.n	981e <_strtoull_r+0x62>
    9814:	b91e      	cbnz	r6, 981e <_strtoull_r+0x62>
    9816:	2c30      	cmp	r4, #48	; 0x30
    9818:	bf14      	ite	ne
    981a:	260a      	movne	r6, #10
    981c:	2608      	moveq	r6, #8
    981e:	ea4f 7be6 	mov.w	fp, r6, asr #31
    9822:	4632      	mov	r2, r6
    9824:	465b      	mov	r3, fp
    9826:	f04f 30ff 	mov.w	r0, #4294967295
    982a:	f04f 31ff 	mov.w	r1, #4294967295
    982e:	f8cd c014 	str.w	ip, [sp, #20]
    9832:	f001 ff17 	bl	b664 <__aeabi_uldivmod>
    9836:	4632      	mov	r2, r6
    9838:	465b      	mov	r3, fp
    983a:	46b2      	mov	sl, r6
    983c:	9006      	str	r0, [sp, #24]
    983e:	f04f 30ff 	mov.w	r0, #4294967295
    9842:	9107      	str	r1, [sp, #28]
    9844:	f04f 31ff 	mov.w	r1, #4294967295
    9848:	f001 ff0c 	bl	b664 <__aeabi_uldivmod>
    984c:	f8dd c014 	ldr.w	ip, [sp, #20]
    9850:	2100      	movs	r1, #0
    9852:	2300      	movs	r3, #0
    9854:	9701      	str	r7, [sp, #4]
    9856:	9600      	str	r6, [sp, #0]
    9858:	9208      	str	r2, [sp, #32]
    985a:	2200      	movs	r2, #0
    985c:	eb09 0004 	add.w	r0, r9, r4
    9860:	7840      	ldrb	r0, [r0, #1]
    9862:	f010 0f04 	tst.w	r0, #4
    9866:	d001      	beq.n	986c <_strtoull_r+0xb0>
    9868:	3c30      	subs	r4, #48	; 0x30
    986a:	e007      	b.n	987c <_strtoull_r+0xc0>
    986c:	f010 0003 	ands.w	r0, r0, #3
    9870:	d02e      	beq.n	98d0 <_strtoull_r+0x114>
    9872:	2801      	cmp	r0, #1
    9874:	bf14      	ite	ne
    9876:	2057      	movne	r0, #87	; 0x57
    9878:	2037      	moveq	r0, #55	; 0x37
    987a:	1a24      	subs	r4, r4, r0
    987c:	9800      	ldr	r0, [sp, #0]
    987e:	4284      	cmp	r4, r0
    9880:	da26      	bge.n	98d0 <_strtoull_r+0x114>
    9882:	f1b1 3fff 	cmp.w	r1, #4294967295
    9886:	d020      	beq.n	98ca <_strtoull_r+0x10e>
    9888:	e9dd 6706 	ldrd	r6, r7, [sp, #24]
    988c:	4296      	cmp	r6, r2
    988e:	419f      	sbcs	r7, r3
    9890:	d319      	bcc.n	98c6 <_strtoull_r+0x10a>
    9892:	e9dd 6706 	ldrd	r6, r7, [sp, #24]
    9896:	ea82 0006 	eor.w	r0, r2, r6
    989a:	ea83 0107 	eor.w	r1, r3, r7
    989e:	ea50 0701 	orrs.w	r7, r0, r1
    98a2:	d102      	bne.n	98aa <_strtoull_r+0xee>
    98a4:	9808      	ldr	r0, [sp, #32]
    98a6:	4284      	cmp	r4, r0
    98a8:	dc0b      	bgt.n	98c2 <_strtoull_r+0x106>
    98aa:	fb02 f10b 	mul.w	r1, r2, fp
    98ae:	fb0a 1103 	mla	r1, sl, r3, r1
    98b2:	fba2 230a 	umull	r2, r3, r2, sl
    98b6:	18cb      	adds	r3, r1, r3
    98b8:	1912      	adds	r2, r2, r4
    98ba:	eb43 73e4 	adc.w	r3, r3, r4, asr #31
    98be:	2101      	movs	r1, #1
    98c0:	e003      	b.n	98ca <_strtoull_r+0x10e>
    98c2:	e9dd 2306 	ldrd	r2, r3, [sp, #24]
    98c6:	f04f 31ff 	mov.w	r1, #4294967295
    98ca:	f815 4b01 	ldrb.w	r4, [r5], #1
    98ce:	e7c5      	b.n	985c <_strtoull_r+0xa0>
    98d0:	f1b1 3fff 	cmp.w	r1, #4294967295
    98d4:	9f01      	ldr	r7, [sp, #4]
    98d6:	d107      	bne.n	98e8 <_strtoull_r+0x12c>
    98d8:	9a09      	ldr	r2, [sp, #36]	; 0x24
    98da:	2322      	movs	r3, #34	; 0x22
    98dc:	6013      	str	r3, [r2, #0]
    98de:	f04f 32ff 	mov.w	r2, #4294967295
    98e2:	f04f 33ff 	mov.w	r3, #4294967295
    98e6:	e003      	b.n	98f0 <_strtoull_r+0x134>
    98e8:	b117      	cbz	r7, 98f0 <_strtoull_r+0x134>
    98ea:	4252      	negs	r2, r2
    98ec:	eb63 0343 	sbc.w	r3, r3, r3, lsl #1
    98f0:	f1bc 0f00 	cmp.w	ip, #0
    98f4:	d004      	beq.n	9900 <_strtoull_r+0x144>
    98f6:	b109      	cbz	r1, 98fc <_strtoull_r+0x140>
    98f8:	f105 38ff 	add.w	r8, r5, #4294967295
    98fc:	f8cc 8000 	str.w	r8, [ip]
    9900:	4610      	mov	r0, r2
    9902:	4619      	mov	r1, r3
    9904:	b00b      	add	sp, #44	; 0x2c
    9906:	e8bd 8ff0 	ldmia.w	sp!, {r4, r5, r6, r7, r8, r9, sl, fp, pc}
    990a:	bf00      	nop
    990c:	10000520 	.word	0x10000520

00009910 <__ssprint_r>:
    9910:	e92d 4ff7 	stmdb	sp!, {r0, r1, r2, r4, r5, r6, r7, r8, r9, sl, fp, lr}
    9914:	4681      	mov	r9, r0
    9916:	6890      	ldr	r0, [r2, #8]
    9918:	460c      	mov	r4, r1
    991a:	4615      	mov	r5, r2
    991c:	f8d2 b000 	ldr.w	fp, [r2]
    9920:	b118      	cbz	r0, 992a <__ssprint_r+0x1a>
    9922:	2300      	movs	r3, #0
    9924:	9301      	str	r3, [sp, #4]
    9926:	461e      	mov	r6, r3
    9928:	e008      	b.n	993c <__ssprint_r+0x2c>
    992a:	6050      	str	r0, [r2, #4]
    992c:	e069      	b.n	9a02 <__ssprint_r+0xf2>
    992e:	f8db 3000 	ldr.w	r3, [fp]
    9932:	f8db 6004 	ldr.w	r6, [fp, #4]
    9936:	f10b 0b08 	add.w	fp, fp, #8
    993a:	9301      	str	r3, [sp, #4]
    993c:	2e00      	cmp	r6, #0
    993e:	d0f6      	beq.n	992e <__ssprint_r+0x1e>
    9940:	68a7      	ldr	r7, [r4, #8]
    9942:	42be      	cmp	r6, r7
    9944:	d34a      	bcc.n	99dc <__ssprint_r+0xcc>
    9946:	89a3      	ldrh	r3, [r4, #12]
    9948:	f413 6f90 	tst.w	r3, #1152	; 0x480
    994c:	d044      	beq.n	99d8 <__ssprint_r+0xc8>
    994e:	6822      	ldr	r2, [r4, #0]
    9950:	6921      	ldr	r1, [r4, #16]
    9952:	ebc1 0a02 	rsb	sl, r1, r2
    9956:	6962      	ldr	r2, [r4, #20]
    9958:	eb02 0842 	add.w	r8, r2, r2, lsl #1
    995c:	f10a 0201 	add.w	r2, sl, #1
    9960:	1992      	adds	r2, r2, r6
    9962:	eb08 78d8 	add.w	r8, r8, r8, lsr #31
    9966:	ea4f 0868 	mov.w	r8, r8, asr #1
    996a:	4590      	cmp	r8, r2
    996c:	bf38      	it	cc
    996e:	4690      	movcc	r8, r2
    9970:	f413 6f80 	tst.w	r3, #1024	; 0x400
    9974:	d010      	beq.n	9998 <__ssprint_r+0x88>
    9976:	4648      	mov	r0, r9
    9978:	4641      	mov	r1, r8
    997a:	f7f8 fc57 	bl	222c <_malloc_r>
    997e:	4607      	mov	r7, r0
    9980:	b1a0      	cbz	r0, 99ac <__ssprint_r+0x9c>
    9982:	6921      	ldr	r1, [r4, #16]
    9984:	4652      	mov	r2, sl
    9986:	f7f8 fe63 	bl	2650 <memcpy>
    998a:	89a3      	ldrh	r3, [r4, #12]
    998c:	f423 6390 	bic.w	r3, r3, #1152	; 0x480
    9990:	f043 0380 	orr.w	r3, r3, #128	; 0x80
    9994:	81a3      	strh	r3, [r4, #12]
    9996:	e016      	b.n	99c6 <__ssprint_r+0xb6>
    9998:	4648      	mov	r0, r9
    999a:	4642      	mov	r2, r8
    999c:	f7f8 fed6 	bl	274c <_realloc_r>
    99a0:	4607      	mov	r7, r0
    99a2:	b980      	cbnz	r0, 99c6 <__ssprint_r+0xb6>
    99a4:	4648      	mov	r0, r9
    99a6:	6921      	ldr	r1, [r4, #16]
    99a8:	f7fe f844 	bl	7a34 <_free_r>
    99ac:	230c      	movs	r3, #12
    99ae:	f8c9 3000 	str.w	r3, [r9]
    99b2:	89a3      	ldrh	r3, [r4, #12]
    99b4:	f04f 30ff 	mov.w	r0, #4294967295
    99b8:	f043 0340 	orr.w	r3, r3, #64	; 0x40
    99bc:	81a3      	strh	r3, [r4, #12]
    99be:	2300      	movs	r3, #0
    99c0:	60ab      	str	r3, [r5, #8]
    99c2:	606b      	str	r3, [r5, #4]
    99c4:	e01d      	b.n	9a02 <__ssprint_r+0xf2>
    99c6:	6127      	str	r7, [r4, #16]
    99c8:	4457      	add	r7, sl
    99ca:	6027      	str	r7, [r4, #0]
    99cc:	4637      	mov	r7, r6
    99ce:	ebca 0308 	rsb	r3, sl, r8
    99d2:	f8c4 8014 	str.w	r8, [r4, #20]
    99d6:	60a3      	str	r3, [r4, #8]
    99d8:	42be      	cmp	r6, r7
    99da:	d200      	bcs.n	99de <__ssprint_r+0xce>
    99dc:	4637      	mov	r7, r6
    99de:	463a      	mov	r2, r7
    99e0:	6820      	ldr	r0, [r4, #0]
    99e2:	9901      	ldr	r1, [sp, #4]
    99e4:	f7f8 fe3f 	bl	2666 <memmove>
    99e8:	68a3      	ldr	r3, [r4, #8]
    99ea:	1bdb      	subs	r3, r3, r7
    99ec:	60a3      	str	r3, [r4, #8]
    99ee:	6823      	ldr	r3, [r4, #0]
    99f0:	19df      	adds	r7, r3, r7
    99f2:	68ab      	ldr	r3, [r5, #8]
    99f4:	6027      	str	r7, [r4, #0]
    99f6:	1b9e      	subs	r6, r3, r6
    99f8:	60ae      	str	r6, [r5, #8]
    99fa:	2e00      	cmp	r6, #0
    99fc:	d197      	bne.n	992e <__ssprint_r+0x1e>
    99fe:	4630      	mov	r0, r6
    9a00:	606e      	str	r6, [r5, #4]
    9a02:	e8bd 8ffe 	ldmia.w	sp!, {r1, r2, r3, r4, r5, r6, r7, r8, r9, sl, fp, pc}

00009a06 <_sungetc_r>:
    9a06:	f1b1 3fff 	cmp.w	r1, #4294967295
    9a0a:	b538      	push	{r3, r4, r5, lr}
    9a0c:	460c      	mov	r4, r1
    9a0e:	4615      	mov	r5, r2
    9a10:	d034      	beq.n	9a7c <_sungetc_r+0x76>
    9a12:	8993      	ldrh	r3, [r2, #12]
    9a14:	b2cc      	uxtb	r4, r1
    9a16:	f023 0320 	bic.w	r3, r3, #32
    9a1a:	8193      	strh	r3, [r2, #12]
    9a1c:	6b53      	ldr	r3, [r2, #52]	; 0x34
    9a1e:	b16b      	cbz	r3, 9a3c <_sungetc_r+0x36>
    9a20:	6852      	ldr	r2, [r2, #4]
    9a22:	6bab      	ldr	r3, [r5, #56]	; 0x38
    9a24:	429a      	cmp	r2, r3
    9a26:	db03      	blt.n	9a30 <_sungetc_r+0x2a>
    9a28:	4629      	mov	r1, r5
    9a2a:	f000 f87e 	bl	9b2a <__submore>
    9a2e:	bb18      	cbnz	r0, 9a78 <_sungetc_r+0x72>
    9a30:	682b      	ldr	r3, [r5, #0]
    9a32:	1e5a      	subs	r2, r3, #1
    9a34:	602a      	str	r2, [r5, #0]
    9a36:	f803 4c01 	strb.w	r4, [r3, #-1]
    9a3a:	e00a      	b.n	9a52 <_sungetc_r+0x4c>
    9a3c:	6912      	ldr	r2, [r2, #16]
    9a3e:	b15a      	cbz	r2, 9a58 <_sungetc_r+0x52>
    9a40:	682b      	ldr	r3, [r5, #0]
    9a42:	4293      	cmp	r3, r2
    9a44:	d908      	bls.n	9a58 <_sungetc_r+0x52>
    9a46:	1e5a      	subs	r2, r3, #1
    9a48:	f813 3c01 	ldrb.w	r3, [r3, #-1]
    9a4c:	42a3      	cmp	r3, r4
    9a4e:	d103      	bne.n	9a58 <_sungetc_r+0x52>
    9a50:	602a      	str	r2, [r5, #0]
    9a52:	686b      	ldr	r3, [r5, #4]
    9a54:	3301      	adds	r3, #1
    9a56:	e00d      	b.n	9a74 <_sungetc_r+0x6e>
    9a58:	686b      	ldr	r3, [r5, #4]
    9a5a:	642b      	str	r3, [r5, #64]	; 0x40
    9a5c:	682b      	ldr	r3, [r5, #0]
    9a5e:	63eb      	str	r3, [r5, #60]	; 0x3c
    9a60:	f105 0344 	add.w	r3, r5, #68	; 0x44
    9a64:	636b      	str	r3, [r5, #52]	; 0x34
    9a66:	2303      	movs	r3, #3
    9a68:	63ab      	str	r3, [r5, #56]	; 0x38
    9a6a:	462b      	mov	r3, r5
    9a6c:	f803 4f46 	strb.w	r4, [r3, #70]!
    9a70:	602b      	str	r3, [r5, #0]
    9a72:	2301      	movs	r3, #1
    9a74:	606b      	str	r3, [r5, #4]
    9a76:	e001      	b.n	9a7c <_sungetc_r+0x76>
    9a78:	f04f 34ff 	mov.w	r4, #4294967295
    9a7c:	4620      	mov	r0, r4
    9a7e:	bd38      	pop	{r3, r4, r5, pc}

00009a80 <__ssrefill_r>:
    9a80:	b510      	push	{r4, lr}
    9a82:	460c      	mov	r4, r1
    9a84:	6b49      	ldr	r1, [r1, #52]	; 0x34
    9a86:	b169      	cbz	r1, 9aa4 <__ssrefill_r+0x24>
    9a88:	f104 0344 	add.w	r3, r4, #68	; 0x44
    9a8c:	4299      	cmp	r1, r3
    9a8e:	d001      	beq.n	9a94 <__ssrefill_r+0x14>
    9a90:	f7fd ffd0 	bl	7a34 <_free_r>
    9a94:	6c23      	ldr	r3, [r4, #64]	; 0x40
    9a96:	2000      	movs	r0, #0
    9a98:	6360      	str	r0, [r4, #52]	; 0x34
    9a9a:	6063      	str	r3, [r4, #4]
    9a9c:	b113      	cbz	r3, 9aa4 <__ssrefill_r+0x24>
    9a9e:	6be3      	ldr	r3, [r4, #60]	; 0x3c
    9aa0:	6023      	str	r3, [r4, #0]
    9aa2:	bd10      	pop	{r4, pc}
    9aa4:	6923      	ldr	r3, [r4, #16]
    9aa6:	f04f 30ff 	mov.w	r0, #4294967295
    9aaa:	6023      	str	r3, [r4, #0]
    9aac:	2300      	movs	r3, #0
    9aae:	6063      	str	r3, [r4, #4]
    9ab0:	89a3      	ldrh	r3, [r4, #12]
    9ab2:	f043 0320 	orr.w	r3, r3, #32
    9ab6:	81a3      	strh	r3, [r4, #12]
    9ab8:	bd10      	pop	{r4, pc}

00009aba <_sfread_r>:
    9aba:	e92d 4ff8 	stmdb	sp!, {r3, r4, r5, r6, r7, r8, r9, sl, fp, lr}
    9abe:	461e      	mov	r6, r3
    9ac0:	4683      	mov	fp, r0
    9ac2:	4613      	mov	r3, r2
    9ac4:	4692      	mov	sl, r2
    9ac6:	4373      	muls	r3, r6
    9ac8:	9c0a      	ldr	r4, [sp, #40]	; 0x28
    9aca:	4699      	mov	r9, r3
    9acc:	d029      	beq.n	9b22 <_sfread_r+0x68>
    9ace:	4688      	mov	r8, r1
    9ad0:	461d      	mov	r5, r3
    9ad2:	e017      	b.n	9b04 <_sfread_r+0x4a>
    9ad4:	6821      	ldr	r1, [r4, #0]
    9ad6:	4640      	mov	r0, r8
    9ad8:	463a      	mov	r2, r7
    9ada:	1bed      	subs	r5, r5, r7
    9adc:	f7f8 fdb8 	bl	2650 <memcpy>
    9ae0:	6823      	ldr	r3, [r4, #0]
    9ae2:	4658      	mov	r0, fp
    9ae4:	4621      	mov	r1, r4
    9ae6:	19db      	adds	r3, r3, r7
    9ae8:	6023      	str	r3, [r4, #0]
    9aea:	2300      	movs	r3, #0
    9aec:	6063      	str	r3, [r4, #4]
    9aee:	f7ff ffc7 	bl	9a80 <__ssrefill_r>
    9af2:	b130      	cbz	r0, 9b02 <_sfread_r+0x48>
    9af4:	ebc5 0009 	rsb	r0, r5, r9
    9af8:	4651      	mov	r1, sl
    9afa:	f001 fa75 	bl	afe8 <__aeabi_uidiv>
    9afe:	4606      	mov	r6, r0
    9b00:	e010      	b.n	9b24 <_sfread_r+0x6a>
    9b02:	44b8      	add	r8, r7
    9b04:	6867      	ldr	r7, [r4, #4]
    9b06:	42bd      	cmp	r5, r7
    9b08:	d8e4      	bhi.n	9ad4 <_sfread_r+0x1a>
    9b0a:	462a      	mov	r2, r5
    9b0c:	4640      	mov	r0, r8
    9b0e:	6821      	ldr	r1, [r4, #0]
    9b10:	f7f8 fd9e 	bl	2650 <memcpy>
    9b14:	6863      	ldr	r3, [r4, #4]
    9b16:	1b5b      	subs	r3, r3, r5
    9b18:	6063      	str	r3, [r4, #4]
    9b1a:	6823      	ldr	r3, [r4, #0]
    9b1c:	195d      	adds	r5, r3, r5
    9b1e:	6025      	str	r5, [r4, #0]
    9b20:	e000      	b.n	9b24 <_sfread_r+0x6a>
    9b22:	461e      	mov	r6, r3
    9b24:	4630      	mov	r0, r6
    9b26:	e8bd 8ff8 	ldmia.w	sp!, {r3, r4, r5, r6, r7, r8, r9, sl, fp, pc}

00009b2a <__submore>:
    9b2a:	e92d 41f0 	stmdb	sp!, {r4, r5, r6, r7, r8, lr}
    9b2e:	460c      	mov	r4, r1
    9b30:	6b49      	ldr	r1, [r1, #52]	; 0x34
    9b32:	f104 0344 	add.w	r3, r4, #68	; 0x44
    9b36:	4299      	cmp	r1, r3
    9b38:	d116      	bne.n	9b68 <__submore+0x3e>
    9b3a:	2180      	movs	r1, #128	; 0x80
    9b3c:	f7f8 fb76 	bl	222c <_malloc_r>
    9b40:	b338      	cbz	r0, 9b92 <__submore+0x68>
    9b42:	f894 2046 	ldrb.w	r2, [r4, #70]	; 0x46
    9b46:	2380      	movs	r3, #128	; 0x80
    9b48:	6360      	str	r0, [r4, #52]	; 0x34
    9b4a:	63a3      	str	r3, [r4, #56]	; 0x38
    9b4c:	f100 037d 	add.w	r3, r0, #125	; 0x7d
    9b50:	f880 207f 	strb.w	r2, [r0, #127]	; 0x7f
    9b54:	f894 2045 	ldrb.w	r2, [r4, #69]	; 0x45
    9b58:	f880 207e 	strb.w	r2, [r0, #126]	; 0x7e
    9b5c:	f894 2044 	ldrb.w	r2, [r4, #68]	; 0x44
    9b60:	f880 207d 	strb.w	r2, [r0, #125]	; 0x7d
    9b64:	6023      	str	r3, [r4, #0]
    9b66:	e011      	b.n	9b8c <__submore+0x62>
    9b68:	6ba6      	ldr	r6, [r4, #56]	; 0x38
    9b6a:	0077      	lsls	r7, r6, #1
    9b6c:	463a      	mov	r2, r7
    9b6e:	f7f8 fded 	bl	274c <_realloc_r>
    9b72:	4605      	mov	r5, r0
    9b74:	b188      	cbz	r0, 9b9a <__submore+0x70>
    9b76:	eb00 0806 	add.w	r8, r0, r6
    9b7a:	4629      	mov	r1, r5
    9b7c:	4640      	mov	r0, r8
    9b7e:	4632      	mov	r2, r6
    9b80:	f7f8 fd66 	bl	2650 <memcpy>
    9b84:	f8c4 8000 	str.w	r8, [r4]
    9b88:	6365      	str	r5, [r4, #52]	; 0x34
    9b8a:	63a7      	str	r7, [r4, #56]	; 0x38
    9b8c:	2000      	movs	r0, #0
    9b8e:	e8bd 81f0 	ldmia.w	sp!, {r4, r5, r6, r7, r8, pc}
    9b92:	f04f 30ff 	mov.w	r0, #4294967295
    9b96:	e8bd 81f0 	ldmia.w	sp!, {r4, r5, r6, r7, r8, pc}
    9b9a:	f04f 30ff 	mov.w	r0, #4294967295
    9b9e:	e8bd 81f0 	ldmia.w	sp!, {r4, r5, r6, r7, r8, pc}
	...

00009ba4 <_ungetc_r>:
    9ba4:	f1b1 3fff 	cmp.w	r1, #4294967295
    9ba8:	b570      	push	{r4, r5, r6, lr}
    9baa:	4605      	mov	r5, r0
    9bac:	460c      	mov	r4, r1
    9bae:	4616      	mov	r6, r2
    9bb0:	d06f      	beq.n	9c92 <_ungetc_r+0xee>
    9bb2:	b118      	cbz	r0, 9bbc <_ungetc_r+0x18>
    9bb4:	6983      	ldr	r3, [r0, #24]
    9bb6:	b90b      	cbnz	r3, 9bbc <_ungetc_r+0x18>
    9bb8:	f7fd fe0c 	bl	77d4 <__sinit>
    9bbc:	4b36      	ldr	r3, [pc, #216]	; (9c98 <_ungetc_r+0xf4>)
    9bbe:	429e      	cmp	r6, r3
    9bc0:	d101      	bne.n	9bc6 <_ungetc_r+0x22>
    9bc2:	686e      	ldr	r6, [r5, #4]
    9bc4:	e008      	b.n	9bd8 <_ungetc_r+0x34>
    9bc6:	4b35      	ldr	r3, [pc, #212]	; (9c9c <_ungetc_r+0xf8>)
    9bc8:	429e      	cmp	r6, r3
    9bca:	d101      	bne.n	9bd0 <_ungetc_r+0x2c>
    9bcc:	68ae      	ldr	r6, [r5, #8]
    9bce:	e003      	b.n	9bd8 <_ungetc_r+0x34>
    9bd0:	4b33      	ldr	r3, [pc, #204]	; (9ca0 <_ungetc_r+0xfc>)
    9bd2:	429e      	cmp	r6, r3
    9bd4:	bf08      	it	eq
    9bd6:	68ee      	ldreq	r6, [r5, #12]
    9bd8:	89b3      	ldrh	r3, [r6, #12]
    9bda:	f413 5f00 	tst.w	r3, #8192	; 0x2000
    9bde:	d106      	bne.n	9bee <_ungetc_r+0x4a>
    9be0:	f443 5300 	orr.w	r3, r3, #8192	; 0x2000
    9be4:	81b3      	strh	r3, [r6, #12]
    9be6:	6e73      	ldr	r3, [r6, #100]	; 0x64
    9be8:	f423 5300 	bic.w	r3, r3, #8192	; 0x2000
    9bec:	6673      	str	r3, [r6, #100]	; 0x64
    9bee:	89b3      	ldrh	r3, [r6, #12]
    9bf0:	f023 0320 	bic.w	r3, r3, #32
    9bf4:	041b      	lsls	r3, r3, #16
    9bf6:	0c1b      	lsrs	r3, r3, #16
    9bf8:	81b3      	strh	r3, [r6, #12]
    9bfa:	b29b      	uxth	r3, r3
    9bfc:	f013 0f04 	tst.w	r3, #4
    9c00:	d115      	bne.n	9c2e <_ungetc_r+0x8a>
    9c02:	f013 0f10 	tst.w	r3, #16
    9c06:	d042      	beq.n	9c8e <_ungetc_r+0xea>
    9c08:	f013 0f08 	tst.w	r3, #8
    9c0c:	d00b      	beq.n	9c26 <_ungetc_r+0x82>
    9c0e:	4628      	mov	r0, r5
    9c10:	4631      	mov	r1, r6
    9c12:	f7fd fcd5 	bl	75c0 <_fflush_r>
    9c16:	2800      	cmp	r0, #0
    9c18:	d139      	bne.n	9c8e <_ungetc_r+0xea>
    9c1a:	89b3      	ldrh	r3, [r6, #12]
    9c1c:	60b0      	str	r0, [r6, #8]
    9c1e:	f023 0308 	bic.w	r3, r3, #8
    9c22:	61b0      	str	r0, [r6, #24]
    9c24:	81b3      	strh	r3, [r6, #12]
    9c26:	89b3      	ldrh	r3, [r6, #12]
    9c28:	f043 0304 	orr.w	r3, r3, #4
    9c2c:	81b3      	strh	r3, [r6, #12]
    9c2e:	6b73      	ldr	r3, [r6, #52]	; 0x34
    9c30:	b2e4      	uxtb	r4, r4
    9c32:	b173      	cbz	r3, 9c52 <_ungetc_r+0xae>
    9c34:	6872      	ldr	r2, [r6, #4]
    9c36:	6bb3      	ldr	r3, [r6, #56]	; 0x38
    9c38:	429a      	cmp	r2, r3
    9c3a:	db04      	blt.n	9c46 <_ungetc_r+0xa2>
    9c3c:	4628      	mov	r0, r5
    9c3e:	4631      	mov	r1, r6
    9c40:	f7ff ff73 	bl	9b2a <__submore>
    9c44:	bb18      	cbnz	r0, 9c8e <_ungetc_r+0xea>
    9c46:	6833      	ldr	r3, [r6, #0]
    9c48:	1e5a      	subs	r2, r3, #1
    9c4a:	6032      	str	r2, [r6, #0]
    9c4c:	f803 4c01 	strb.w	r4, [r3, #-1]
    9c50:	e00a      	b.n	9c68 <_ungetc_r+0xc4>
    9c52:	6932      	ldr	r2, [r6, #16]
    9c54:	b15a      	cbz	r2, 9c6e <_ungetc_r+0xca>
    9c56:	6833      	ldr	r3, [r6, #0]
    9c58:	4293      	cmp	r3, r2
    9c5a:	d908      	bls.n	9c6e <_ungetc_r+0xca>
    9c5c:	1e5a      	subs	r2, r3, #1
    9c5e:	f813 3c01 	ldrb.w	r3, [r3, #-1]
    9c62:	42a3      	cmp	r3, r4
    9c64:	d103      	bne.n	9c6e <_ungetc_r+0xca>
    9c66:	6032      	str	r2, [r6, #0]
    9c68:	6873      	ldr	r3, [r6, #4]
    9c6a:	3301      	adds	r3, #1
    9c6c:	e00d      	b.n	9c8a <_ungetc_r+0xe6>
    9c6e:	6873      	ldr	r3, [r6, #4]
    9c70:	6433      	str	r3, [r6, #64]	; 0x40
    9c72:	6833      	ldr	r3, [r6, #0]
    9c74:	63f3      	str	r3, [r6, #60]	; 0x3c
    9c76:	f106 0344 	add.w	r3, r6, #68	; 0x44
    9c7a:	6373      	str	r3, [r6, #52]	; 0x34
    9c7c:	2303      	movs	r3, #3
    9c7e:	63b3      	str	r3, [r6, #56]	; 0x38
    9c80:	4633      	mov	r3, r6
    9c82:	f803 4f46 	strb.w	r4, [r3, #70]!
    9c86:	6033      	str	r3, [r6, #0]
    9c88:	2301      	movs	r3, #1
    9c8a:	6073      	str	r3, [r6, #4]
    9c8c:	e001      	b.n	9c92 <_ungetc_r+0xee>
    9c8e:	f04f 34ff 	mov.w	r4, #4294967295
    9c92:	4620      	mov	r0, r4
    9c94:	bd70      	pop	{r4, r5, r6, pc}
    9c96:	bf00      	nop
    9c98:	0000c280 	.word	0x0000c280
    9c9c:	0000c2a0 	.word	0x0000c2a0
    9ca0:	0000c2c0 	.word	0x0000c2c0

00009ca4 <__sprint_r>:
    9ca4:	e92d 4ff8 	stmdb	sp!, {r3, r4, r5, r6, r7, r8, r9, sl, fp, lr}
    9ca8:	4683      	mov	fp, r0
    9caa:	6893      	ldr	r3, [r2, #8]
    9cac:	460f      	mov	r7, r1
    9cae:	4614      	mov	r4, r2
    9cb0:	b91b      	cbnz	r3, 9cba <__sprint_r+0x16>
    9cb2:	6053      	str	r3, [r2, #4]
    9cb4:	4618      	mov	r0, r3
    9cb6:	e8bd 8ff8 	ldmia.w	sp!, {r3, r4, r5, r6, r7, r8, r9, sl, fp, pc}
    9cba:	6e4b      	ldr	r3, [r1, #100]	; 0x64
    9cbc:	f413 5f00 	tst.w	r3, #8192	; 0x2000
    9cc0:	d023      	beq.n	9d0a <__sprint_r+0x66>
    9cc2:	f8d2 a000 	ldr.w	sl, [r2]
    9cc6:	2500      	movs	r5, #0
    9cc8:	e01b      	b.n	9d02 <__sprint_r+0x5e>
    9cca:	eb0a 0305 	add.w	r3, sl, r5
    9cce:	f85a 9005 	ldr.w	r9, [sl, r5]
    9cd2:	2600      	movs	r6, #0
    9cd4:	685b      	ldr	r3, [r3, #4]
    9cd6:	ea4f 0853 	mov.w	r8, r3, lsr #1
    9cda:	e009      	b.n	9cf0 <__sprint_r+0x4c>
    9cdc:	4658      	mov	r0, fp
    9cde:	f839 1b02 	ldrh.w	r1, [r9], #2
    9ce2:	463a      	mov	r2, r7
    9ce4:	f000 fd2c 	bl	a740 <_fputwc_r>
    9ce8:	f1b0 3fff 	cmp.w	r0, #4294967295
    9cec:	d00f      	beq.n	9d0e <__sprint_r+0x6a>
    9cee:	3601      	adds	r6, #1
    9cf0:	4546      	cmp	r6, r8
    9cf2:	dbf3      	blt.n	9cdc <__sprint_r+0x38>
    9cf4:	68a3      	ldr	r3, [r4, #8]
    9cf6:	3508      	adds	r5, #8
    9cf8:	ea4f 0848 	mov.w	r8, r8, lsl #1
    9cfc:	ebc8 0303 	rsb	r3, r8, r3
    9d00:	60a3      	str	r3, [r4, #8]
    9d02:	68a0      	ldr	r0, [r4, #8]
    9d04:	2800      	cmp	r0, #0
    9d06:	d1e0      	bne.n	9cca <__sprint_r+0x26>
    9d08:	e001      	b.n	9d0e <__sprint_r+0x6a>
    9d0a:	f7f8 f8b9 	bl	1e80 <__sfvwrite_r>
    9d0e:	2300      	movs	r3, #0
    9d10:	60a3      	str	r3, [r4, #8]
    9d12:	6063      	str	r3, [r4, #4]
    9d14:	e8bd 8ff8 	ldmia.w	sp!, {r3, r4, r5, r6, r7, r8, r9, sl, fp, pc}

00009d18 <_vfiprintf_r>:
    9d18:	e92d 4ff0 	stmdb	sp!, {r4, r5, r6, r7, r8, r9, sl, fp, lr}
    9d1c:	460f      	mov	r7, r1
    9d1e:	b0e1      	sub	sp, #388	; 0x184
    9d20:	4615      	mov	r5, r2
    9d22:	461c      	mov	r4, r3
    9d24:	4680      	mov	r8, r0
    9d26:	b118      	cbz	r0, 9d30 <_vfiprintf_r+0x18>
    9d28:	6983      	ldr	r3, [r0, #24]
    9d2a:	b90b      	cbnz	r3, 9d30 <_vfiprintf_r+0x18>
    9d2c:	f7fd fd52 	bl	77d4 <__sinit>
    9d30:	4b9c      	ldr	r3, [pc, #624]	; (9fa4 <_vfiprintf_r+0x28c>)
    9d32:	429f      	cmp	r7, r3
    9d34:	d102      	bne.n	9d3c <_vfiprintf_r+0x24>
    9d36:	f8d8 7004 	ldr.w	r7, [r8, #4]
    9d3a:	e00a      	b.n	9d52 <_vfiprintf_r+0x3a>
    9d3c:	4b9a      	ldr	r3, [pc, #616]	; (9fa8 <_vfiprintf_r+0x290>)
    9d3e:	429f      	cmp	r7, r3
    9d40:	d102      	bne.n	9d48 <_vfiprintf_r+0x30>
    9d42:	f8d8 7008 	ldr.w	r7, [r8, #8]
    9d46:	e004      	b.n	9d52 <_vfiprintf_r+0x3a>
    9d48:	4b98      	ldr	r3, [pc, #608]	; (9fac <_vfiprintf_r+0x294>)
    9d4a:	429f      	cmp	r7, r3
    9d4c:	bf08      	it	eq
    9d4e:	f8d8 700c 	ldreq.w	r7, [r8, #12]
    9d52:	89bb      	ldrh	r3, [r7, #12]
    9d54:	f413 5f00 	tst.w	r3, #8192	; 0x2000
    9d58:	d106      	bne.n	9d68 <_vfiprintf_r+0x50>
    9d5a:	f443 5300 	orr.w	r3, r3, #8192	; 0x2000
    9d5e:	81bb      	strh	r3, [r7, #12]
    9d60:	6e7b      	ldr	r3, [r7, #100]	; 0x64
    9d62:	f423 5300 	bic.w	r3, r3, #8192	; 0x2000
    9d66:	667b      	str	r3, [r7, #100]	; 0x64
    9d68:	89bb      	ldrh	r3, [r7, #12]
    9d6a:	f013 0f08 	tst.w	r3, #8
    9d6e:	d001      	beq.n	9d74 <_vfiprintf_r+0x5c>
    9d70:	693b      	ldr	r3, [r7, #16]
    9d72:	b933      	cbnz	r3, 9d82 <_vfiprintf_r+0x6a>
    9d74:	4640      	mov	r0, r8
    9d76:	4639      	mov	r1, r7
    9d78:	f7fc fce8 	bl	674c <__swsetup_r>
    9d7c:	2800      	cmp	r0, #0
    9d7e:	f040 844b 	bne.w	a618 <_vfiprintf_r+0x900>
    9d82:	89ba      	ldrh	r2, [r7, #12]
    9d84:	f002 031a 	and.w	r3, r2, #26
    9d88:	2b0a      	cmp	r3, #10
    9d8a:	d136      	bne.n	9dfa <_vfiprintf_r+0xe2>
    9d8c:	89fb      	ldrh	r3, [r7, #14]
    9d8e:	f413 4f00 	tst.w	r3, #32768	; 0x8000
    9d92:	d132      	bne.n	9dfa <_vfiprintf_r+0xe2>
    9d94:	f8ad 30ae 	strh.w	r3, [sp, #174]	; 0xae
    9d98:	f022 0202 	bic.w	r2, r2, #2
    9d9c:	6a3b      	ldr	r3, [r7, #32]
    9d9e:	a908      	add	r1, sp, #32
    9da0:	f8ad 20ac 	strh.w	r2, [sp, #172]	; 0xac
    9da4:	4640      	mov	r0, r8
    9da6:	6e7a      	ldr	r2, [r7, #100]	; 0x64
    9da8:	9330      	str	r3, [sp, #192]	; 0xc0
    9daa:	6abb      	ldr	r3, [r7, #40]	; 0x28
    9dac:	9241      	str	r2, [sp, #260]	; 0x104
    9dae:	462a      	mov	r2, r5
    9db0:	9128      	str	r1, [sp, #160]	; 0xa0
    9db2:	9332      	str	r3, [sp, #200]	; 0xc8
    9db4:	2380      	movs	r3, #128	; 0x80
    9db6:	912c      	str	r1, [sp, #176]	; 0xb0
    9db8:	a928      	add	r1, sp, #160	; 0xa0
    9dba:	932a      	str	r3, [sp, #168]	; 0xa8
    9dbc:	932d      	str	r3, [sp, #180]	; 0xb4
    9dbe:	3b80      	subs	r3, #128	; 0x80
    9dc0:	932e      	str	r3, [sp, #184]	; 0xb8
    9dc2:	4623      	mov	r3, r4
    9dc4:	f7ff ffa8 	bl	9d18 <_vfiprintf_r>
    9dc8:	2800      	cmp	r0, #0
    9dca:	9003      	str	r0, [sp, #12]
    9dcc:	db09      	blt.n	9de2 <_vfiprintf_r+0xca>
    9dce:	4640      	mov	r0, r8
    9dd0:	a928      	add	r1, sp, #160	; 0xa0
    9dd2:	f7fd fbf5 	bl	75c0 <_fflush_r>
    9dd6:	9a03      	ldr	r2, [sp, #12]
    9dd8:	2800      	cmp	r0, #0
    9dda:	bf18      	it	ne
    9ddc:	f04f 32ff 	movne.w	r2, #4294967295
    9de0:	9203      	str	r2, [sp, #12]
    9de2:	f8bd 30ac 	ldrh.w	r3, [sp, #172]	; 0xac
    9de6:	f013 0f40 	tst.w	r3, #64	; 0x40
    9dea:	f000 8418 	beq.w	a61e <_vfiprintf_r+0x906>
    9dee:	89bb      	ldrh	r3, [r7, #12]
    9df0:	f043 0340 	orr.w	r3, r3, #64	; 0x40
    9df4:	81bb      	strh	r3, [r7, #12]
    9df6:	f000 bc12 	b.w	a61e <_vfiprintf_r+0x906>
    9dfa:	46c3      	mov	fp, r8
    9dfc:	46ba      	mov	sl, r7
    9dfe:	2300      	movs	r3, #0
    9e00:	ae42      	add	r6, sp, #264	; 0x108
    9e02:	935e      	str	r3, [sp, #376]	; 0x178
    9e04:	965c      	str	r6, [sp, #368]	; 0x170
    9e06:	935d      	str	r3, [sp, #372]	; 0x174
    9e08:	9501      	str	r5, [sp, #4]
    9e0a:	9305      	str	r3, [sp, #20]
    9e0c:	9303      	str	r3, [sp, #12]
    9e0e:	9b01      	ldr	r3, [sp, #4]
    9e10:	461f      	mov	r7, r3
    9e12:	f813 2b01 	ldrb.w	r2, [r3], #1
    9e16:	b10a      	cbz	r2, 9e1c <_vfiprintf_r+0x104>
    9e18:	2a25      	cmp	r2, #37	; 0x25
    9e1a:	d1f9      	bne.n	9e10 <_vfiprintf_r+0xf8>
    9e1c:	9b01      	ldr	r3, [sp, #4]
    9e1e:	1afd      	subs	r5, r7, r3
    9e20:	d017      	beq.n	9e52 <_vfiprintf_r+0x13a>
    9e22:	6033      	str	r3, [r6, #0]
    9e24:	9b5e      	ldr	r3, [sp, #376]	; 0x178
    9e26:	6075      	str	r5, [r6, #4]
    9e28:	195b      	adds	r3, r3, r5
    9e2a:	935e      	str	r3, [sp, #376]	; 0x178
    9e2c:	9b5d      	ldr	r3, [sp, #372]	; 0x174
    9e2e:	3301      	adds	r3, #1
    9e30:	935d      	str	r3, [sp, #372]	; 0x174
    9e32:	2b07      	cmp	r3, #7
    9e34:	dc01      	bgt.n	9e3a <_vfiprintf_r+0x122>
    9e36:	3608      	adds	r6, #8
    9e38:	e008      	b.n	9e4c <_vfiprintf_r+0x134>
    9e3a:	4658      	mov	r0, fp
    9e3c:	4651      	mov	r1, sl
    9e3e:	aa5c      	add	r2, sp, #368	; 0x170
    9e40:	f7ff ff30 	bl	9ca4 <__sprint_r>
    9e44:	2800      	cmp	r0, #0
    9e46:	f040 83dc 	bne.w	a602 <_vfiprintf_r+0x8ea>
    9e4a:	ae42      	add	r6, sp, #264	; 0x108
    9e4c:	9903      	ldr	r1, [sp, #12]
    9e4e:	1949      	adds	r1, r1, r5
    9e50:	9103      	str	r1, [sp, #12]
    9e52:	783b      	ldrb	r3, [r7, #0]
    9e54:	2b00      	cmp	r3, #0
    9e56:	f000 83cb 	beq.w	a5f0 <_vfiprintf_r+0x8d8>
    9e5a:	2300      	movs	r3, #0
    9e5c:	3701      	adds	r7, #1
    9e5e:	f88d 317f 	strb.w	r3, [sp, #383]	; 0x17f
    9e62:	f04f 3cff 	mov.w	ip, #4294967295
    9e66:	9701      	str	r7, [sp, #4]
    9e68:	461d      	mov	r5, r3
    9e6a:	9302      	str	r3, [sp, #8]
    9e6c:	463a      	mov	r2, r7
    9e6e:	4619      	mov	r1, r3
    9e70:	e005      	b.n	9e7e <_vfiprintf_r+0x166>
    9e72:	461c      	mov	r4, r3
    9e74:	e003      	b.n	9e7e <_vfiprintf_r+0x166>
    9e76:	461c      	mov	r4, r3
    9e78:	4602      	mov	r2, r0
    9e7a:	f04f 3cff 	mov.w	ip, #4294967295
    9e7e:	f812 3b01 	ldrb.w	r3, [r2], #1
    9e82:	2b63      	cmp	r3, #99	; 0x63
    9e84:	f000 80b0 	beq.w	9fe8 <_vfiprintf_r+0x2d0>
    9e88:	dc28      	bgt.n	9edc <_vfiprintf_r+0x1c4>
    9e8a:	2b39      	cmp	r3, #57	; 0x39
    9e8c:	dc15      	bgt.n	9eba <_vfiprintf_r+0x1a2>
    9e8e:	2b31      	cmp	r3, #49	; 0x31
    9e90:	f280 808e 	bge.w	9fb0 <_vfiprintf_r+0x298>
    9e94:	2b2b      	cmp	r3, #43	; 0x2b
    9e96:	d05e      	beq.n	9f56 <_vfiprintf_r+0x23e>
    9e98:	dc07      	bgt.n	9eaa <_vfiprintf_r+0x192>
    9e9a:	2b23      	cmp	r3, #35	; 0x23
    9e9c:	d04f      	beq.n	9f3e <_vfiprintf_r+0x226>
    9e9e:	2b2a      	cmp	r3, #42	; 0x2a
    9ea0:	d050      	beq.n	9f44 <_vfiprintf_r+0x22c>
    9ea2:	2b20      	cmp	r3, #32
    9ea4:	f040 822e 	bne.w	a304 <_vfiprintf_r+0x5ec>
    9ea8:	e043      	b.n	9f32 <_vfiprintf_r+0x21a>
    9eaa:	2b2e      	cmp	r3, #46	; 0x2e
    9eac:	d056      	beq.n	9f5c <_vfiprintf_r+0x244>
    9eae:	2b30      	cmp	r3, #48	; 0x30
    9eb0:	d074      	beq.n	9f9c <_vfiprintf_r+0x284>
    9eb2:	2b2d      	cmp	r3, #45	; 0x2d
    9eb4:	f040 8226 	bne.w	a304 <_vfiprintf_r+0x5ec>
    9eb8:	e04a      	b.n	9f50 <_vfiprintf_r+0x238>
    9eba:	2b4f      	cmp	r3, #79	; 0x4f
    9ebc:	9201      	str	r2, [sp, #4]
    9ebe:	9102      	str	r1, [sp, #8]
    9ec0:	f000 80ef 	beq.w	a0a2 <_vfiprintf_r+0x38a>
    9ec4:	dc03      	bgt.n	9ece <_vfiprintf_r+0x1b6>
    9ec6:	2b44      	cmp	r3, #68	; 0x44
    9ec8:	f040 821e 	bne.w	a308 <_vfiprintf_r+0x5f0>
    9ecc:	e097      	b.n	9ffe <_vfiprintf_r+0x2e6>
    9ece:	2b55      	cmp	r3, #85	; 0x55
    9ed0:	f000 8144 	beq.w	a15c <_vfiprintf_r+0x444>
    9ed4:	2b58      	cmp	r3, #88	; 0x58
    9ed6:	f040 8217 	bne.w	a308 <_vfiprintf_r+0x5f0>
    9eda:	e163      	b.n	a1a4 <_vfiprintf_r+0x48c>
    9edc:	2b6f      	cmp	r3, #111	; 0x6f
    9ede:	f000 80e3 	beq.w	a0a8 <_vfiprintf_r+0x390>
    9ee2:	dc12      	bgt.n	9f0a <_vfiprintf_r+0x1f2>
    9ee4:	2b69      	cmp	r3, #105	; 0x69
    9ee6:	f000 808d 	beq.w	a004 <_vfiprintf_r+0x2ec>
    9eea:	dc06      	bgt.n	9efa <_vfiprintf_r+0x1e2>
    9eec:	2b64      	cmp	r3, #100	; 0x64
    9eee:	f000 8089 	beq.w	a004 <_vfiprintf_r+0x2ec>
    9ef2:	2b68      	cmp	r3, #104	; 0x68
    9ef4:	f040 8206 	bne.w	a304 <_vfiprintf_r+0x5ec>
    9ef8:	e068      	b.n	9fcc <_vfiprintf_r+0x2b4>
    9efa:	2b6c      	cmp	r3, #108	; 0x6c
    9efc:	d069      	beq.n	9fd2 <_vfiprintf_r+0x2ba>
    9efe:	2b6e      	cmp	r3, #110	; 0x6e
    9f00:	9201      	str	r2, [sp, #4]
    9f02:	9102      	str	r1, [sp, #8]
    9f04:	f040 8200 	bne.w	a308 <_vfiprintf_r+0x5f0>
    9f08:	e0ab      	b.n	a062 <_vfiprintf_r+0x34a>
    9f0a:	2b73      	cmp	r3, #115	; 0x73
    9f0c:	f000 8104 	beq.w	a118 <_vfiprintf_r+0x400>
    9f10:	dc06      	bgt.n	9f20 <_vfiprintf_r+0x208>
    9f12:	2b70      	cmp	r3, #112	; 0x70
    9f14:	f000 80ee 	beq.w	a0f4 <_vfiprintf_r+0x3dc>
    9f18:	2b71      	cmp	r3, #113	; 0x71
    9f1a:	f040 81f3 	bne.w	a304 <_vfiprintf_r+0x5ec>
    9f1e:	e060      	b.n	9fe2 <_vfiprintf_r+0x2ca>
    9f20:	2b75      	cmp	r3, #117	; 0x75
    9f22:	9201      	str	r2, [sp, #4]
    9f24:	9102      	str	r1, [sp, #8]
    9f26:	f000 811b 	beq.w	a160 <_vfiprintf_r+0x448>
    9f2a:	2b78      	cmp	r3, #120	; 0x78
    9f2c:	f040 81ec 	bne.w	a308 <_vfiprintf_r+0x5f0>
    9f30:	e135      	b.n	a19e <_vfiprintf_r+0x486>
    9f32:	f89d 317f 	ldrb.w	r3, [sp, #383]	; 0x17f
    9f36:	2b00      	cmp	r3, #0
    9f38:	d1a1      	bne.n	9e7e <_vfiprintf_r+0x166>
    9f3a:	3320      	adds	r3, #32
    9f3c:	e00b      	b.n	9f56 <_vfiprintf_r+0x23e>
    9f3e:	f045 0501 	orr.w	r5, r5, #1
    9f42:	e79c      	b.n	9e7e <_vfiprintf_r+0x166>
    9f44:	6821      	ldr	r1, [r4, #0]
    9f46:	1d23      	adds	r3, r4, #4
    9f48:	2900      	cmp	r1, #0
    9f4a:	da92      	bge.n	9e72 <_vfiprintf_r+0x15a>
    9f4c:	4249      	negs	r1, r1
    9f4e:	461c      	mov	r4, r3
    9f50:	f045 0504 	orr.w	r5, r5, #4
    9f54:	e793      	b.n	9e7e <_vfiprintf_r+0x166>
    9f56:	f88d 317f 	strb.w	r3, [sp, #383]	; 0x17f
    9f5a:	e790      	b.n	9e7e <_vfiprintf_r+0x166>
    9f5c:	4610      	mov	r0, r2
    9f5e:	f810 3b01 	ldrb.w	r3, [r0], #1
    9f62:	2b2a      	cmp	r3, #42	; 0x2a
    9f64:	d003      	beq.n	9f6e <_vfiprintf_r+0x256>
    9f66:	4610      	mov	r0, r2
    9f68:	f04f 0c00 	mov.w	ip, #0
    9f6c:	e00e      	b.n	9f8c <_vfiprintf_r+0x274>
    9f6e:	f8d4 c000 	ldr.w	ip, [r4]
    9f72:	1d23      	adds	r3, r4, #4
    9f74:	f1bc 0f00 	cmp.w	ip, #0
    9f78:	f6ff af7d 	blt.w	9e76 <_vfiprintf_r+0x15e>
    9f7c:	461c      	mov	r4, r3
    9f7e:	4602      	mov	r2, r0
    9f80:	e77d      	b.n	9e7e <_vfiprintf_r+0x166>
    9f82:	230a      	movs	r3, #10
    9f84:	fb03 7c0c 	mla	ip, r3, ip, r7
    9f88:	7843      	ldrb	r3, [r0, #1]
    9f8a:	4610      	mov	r0, r2
    9f8c:	f1a3 0730 	sub.w	r7, r3, #48	; 0x30
    9f90:	3201      	adds	r2, #1
    9f92:	2f09      	cmp	r7, #9
    9f94:	d9f5      	bls.n	9f82 <_vfiprintf_r+0x26a>
    9f96:	ea4c 7cec 	orr.w	ip, ip, ip, asr #31
    9f9a:	e772      	b.n	9e82 <_vfiprintf_r+0x16a>
    9f9c:	f045 0580 	orr.w	r5, r5, #128	; 0x80
    9fa0:	e76d      	b.n	9e7e <_vfiprintf_r+0x166>
    9fa2:	bf00      	nop
    9fa4:	0000c280 	.word	0x0000c280
    9fa8:	0000c2a0 	.word	0x0000c2a0
    9fac:	0000c2c0 	.word	0x0000c2c0
    9fb0:	4610      	mov	r0, r2
    9fb2:	2100      	movs	r1, #0
    9fb4:	3b30      	subs	r3, #48	; 0x30
    9fb6:	220a      	movs	r2, #10
    9fb8:	fb02 3101 	mla	r1, r2, r1, r3
    9fbc:	f810 3b01 	ldrb.w	r3, [r0], #1
    9fc0:	f1a3 0730 	sub.w	r7, r3, #48	; 0x30
    9fc4:	4602      	mov	r2, r0
    9fc6:	2f09      	cmp	r7, #9
    9fc8:	d9f4      	bls.n	9fb4 <_vfiprintf_r+0x29c>
    9fca:	e75a      	b.n	9e82 <_vfiprintf_r+0x16a>
    9fcc:	f045 0540 	orr.w	r5, r5, #64	; 0x40
    9fd0:	e755      	b.n	9e7e <_vfiprintf_r+0x166>
    9fd2:	7813      	ldrb	r3, [r2, #0]
    9fd4:	2b6c      	cmp	r3, #108	; 0x6c
    9fd6:	d101      	bne.n	9fdc <_vfiprintf_r+0x2c4>
    9fd8:	3201      	adds	r2, #1
    9fda:	e002      	b.n	9fe2 <_vfiprintf_r+0x2ca>
    9fdc:	f045 0510 	orr.w	r5, r5, #16
    9fe0:	e74d      	b.n	9e7e <_vfiprintf_r+0x166>
    9fe2:	f045 0520 	orr.w	r5, r5, #32
    9fe6:	e74a      	b.n	9e7e <_vfiprintf_r+0x166>
    9fe8:	6823      	ldr	r3, [r4, #0]
    9fea:	f04f 0900 	mov.w	r9, #0
    9fee:	9201      	str	r2, [sp, #4]
    9ff0:	3404      	adds	r4, #4
    9ff2:	9102      	str	r1, [sp, #8]
    9ff4:	f88d 3148 	strb.w	r3, [sp, #328]	; 0x148
    9ff8:	f88d 917f 	strb.w	r9, [sp, #383]	; 0x17f
    9ffc:	e18d      	b.n	a31a <_vfiprintf_r+0x602>
    9ffe:	f045 0510 	orr.w	r5, r5, #16
    a002:	e001      	b.n	a008 <_vfiprintf_r+0x2f0>
    a004:	9201      	str	r2, [sp, #4]
    a006:	9102      	str	r1, [sp, #8]
    a008:	f015 0f20 	tst.w	r5, #32
    a00c:	d007      	beq.n	a01e <_vfiprintf_r+0x306>
    a00e:	3407      	adds	r4, #7
    a010:	f024 0307 	bic.w	r3, r4, #7
    a014:	f103 0408 	add.w	r4, r3, #8
    a018:	e9d3 8900 	ldrd	r8, r9, [r3]
    a01c:	e013      	b.n	a046 <_vfiprintf_r+0x32e>
    a01e:	f015 0f10 	tst.w	r5, #16
    a022:	f104 0304 	add.w	r3, r4, #4
    a026:	d001      	beq.n	a02c <_vfiprintf_r+0x314>
    a028:	6822      	ldr	r2, [r4, #0]
    a02a:	e008      	b.n	a03e <_vfiprintf_r+0x326>
    a02c:	f015 0f40 	tst.w	r5, #64	; 0x40
    a030:	6822      	ldr	r2, [r4, #0]
    a032:	d004      	beq.n	a03e <_vfiprintf_r+0x326>
    a034:	fa0f f882 	sxth.w	r8, r2
    a038:	ea4f 79e8 	mov.w	r9, r8, asr #31
    a03c:	e002      	b.n	a044 <_vfiprintf_r+0x32c>
    a03e:	4690      	mov	r8, r2
    a040:	ea4f 79e2 	mov.w	r9, r2, asr #31
    a044:	461c      	mov	r4, r3
    a046:	f1b8 0f00 	cmp.w	r8, #0
    a04a:	f179 0200 	sbcs.w	r2, r9, #0
    a04e:	f280 80dc 	bge.w	a20a <_vfiprintf_r+0x4f2>
    a052:	232d      	movs	r3, #45	; 0x2d
    a054:	f1d8 0800 	rsbs	r8, r8, #0
    a058:	eb69 0949 	sbc.w	r9, r9, r9, lsl #1
    a05c:	f88d 317f 	strb.w	r3, [sp, #383]	; 0x17f
    a060:	e0d3      	b.n	a20a <_vfiprintf_r+0x4f2>
    a062:	f015 0f20 	tst.w	r5, #32
    a066:	f104 0104 	add.w	r1, r4, #4
    a06a:	d006      	beq.n	a07a <_vfiprintf_r+0x362>
    a06c:	6820      	ldr	r0, [r4, #0]
    a06e:	9c03      	ldr	r4, [sp, #12]
    a070:	4622      	mov	r2, r4
    a072:	17e3      	asrs	r3, r4, #31
    a074:	e9c0 2300 	strd	r2, r3, [r0]
    a078:	e005      	b.n	a086 <_vfiprintf_r+0x36e>
    a07a:	f015 0f10 	tst.w	r5, #16
    a07e:	d004      	beq.n	a08a <_vfiprintf_r+0x372>
    a080:	6823      	ldr	r3, [r4, #0]
    a082:	9a03      	ldr	r2, [sp, #12]
    a084:	601a      	str	r2, [r3, #0]
    a086:	460c      	mov	r4, r1
    a088:	e6c1      	b.n	9e0e <_vfiprintf_r+0xf6>
    a08a:	f015 0f40 	tst.w	r5, #64	; 0x40
    a08e:	6822      	ldr	r2, [r4, #0]
    a090:	f104 0304 	add.w	r3, r4, #4
    a094:	bf0b      	itete	eq
    a096:	9903      	ldreq	r1, [sp, #12]
    a098:	9c03      	ldrne	r4, [sp, #12]
    a09a:	6011      	streq	r1, [r2, #0]
    a09c:	8014      	strhne	r4, [r2, #0]
    a09e:	461c      	mov	r4, r3
    a0a0:	e6b5      	b.n	9e0e <_vfiprintf_r+0xf6>
    a0a2:	f045 0510 	orr.w	r5, r5, #16
    a0a6:	e001      	b.n	a0ac <_vfiprintf_r+0x394>
    a0a8:	9201      	str	r2, [sp, #4]
    a0aa:	9102      	str	r1, [sp, #8]
    a0ac:	f015 0220 	ands.w	r2, r5, #32
    a0b0:	d008      	beq.n	a0c4 <_vfiprintf_r+0x3ac>
    a0b2:	3407      	adds	r4, #7
    a0b4:	2200      	movs	r2, #0
    a0b6:	f024 0307 	bic.w	r3, r4, #7
    a0ba:	f103 0408 	add.w	r4, r3, #8
    a0be:	e9d3 8900 	ldrd	r8, r9, [r3]
    a0c2:	e09e      	b.n	a202 <_vfiprintf_r+0x4ea>
    a0c4:	f015 0110 	ands.w	r1, r5, #16
    a0c8:	f104 0304 	add.w	r3, r4, #4
    a0cc:	d002      	beq.n	a0d4 <_vfiprintf_r+0x3bc>
    a0ce:	6821      	ldr	r1, [r4, #0]
    a0d0:	4688      	mov	r8, r1
    a0d2:	e00b      	b.n	a0ec <_vfiprintf_r+0x3d4>
    a0d4:	f015 0240 	ands.w	r2, r5, #64	; 0x40
    a0d8:	6820      	ldr	r0, [r4, #0]
    a0da:	d006      	beq.n	a0ea <_vfiprintf_r+0x3d2>
    a0dc:	fa1f f880 	uxth.w	r8, r0
    a0e0:	f04f 0900 	mov.w	r9, #0
    a0e4:	461c      	mov	r4, r3
    a0e6:	460a      	mov	r2, r1
    a0e8:	e08b      	b.n	a202 <_vfiprintf_r+0x4ea>
    a0ea:	4680      	mov	r8, r0
    a0ec:	f04f 0900 	mov.w	r9, #0
    a0f0:	461c      	mov	r4, r3
    a0f2:	e086      	b.n	a202 <_vfiprintf_r+0x4ea>
    a0f4:	6823      	ldr	r3, [r4, #0]
    a0f6:	f04f 0900 	mov.w	r9, #0
    a0fa:	9201      	str	r2, [sp, #4]
    a0fc:	f045 0502 	orr.w	r5, r5, #2
    a100:	4aa3      	ldr	r2, [pc, #652]	; (a390 <_vfiprintf_r+0x678>)
    a102:	4698      	mov	r8, r3
    a104:	2330      	movs	r3, #48	; 0x30
    a106:	9102      	str	r1, [sp, #8]
    a108:	f88d 317c 	strb.w	r3, [sp, #380]	; 0x17c
    a10c:	3404      	adds	r4, #4
    a10e:	3348      	adds	r3, #72	; 0x48
    a110:	9205      	str	r2, [sp, #20]
    a112:	f88d 317d 	strb.w	r3, [sp, #381]	; 0x17d
    a116:	e073      	b.n	a200 <_vfiprintf_r+0x4e8>
    a118:	f04f 0900 	mov.w	r9, #0
    a11c:	4623      	mov	r3, r4
    a11e:	3404      	adds	r4, #4
    a120:	45cc      	cmp	ip, r9
    a122:	f88d 917f 	strb.w	r9, [sp, #383]	; 0x17f
    a126:	9201      	str	r2, [sp, #4]
    a128:	9102      	str	r1, [sp, #8]
    a12a:	681f      	ldr	r7, [r3, #0]
    a12c:	db11      	blt.n	a152 <_vfiprintf_r+0x43a>
    a12e:	4662      	mov	r2, ip
    a130:	4638      	mov	r0, r7
    a132:	4649      	mov	r1, r9
    a134:	f8cd c000 	str.w	ip, [sp]
    a138:	f7f8 fa7c 	bl	2634 <memchr>
    a13c:	f8dd c000 	ldr.w	ip, [sp]
    a140:	2800      	cmp	r0, #0
    a142:	f000 80ee 	beq.w	a322 <_vfiprintf_r+0x60a>
    a146:	ebc7 0800 	rsb	r8, r7, r0
    a14a:	45e0      	cmp	r8, ip
    a14c:	f300 80ec 	bgt.w	a328 <_vfiprintf_r+0x610>
    a150:	e0eb      	b.n	a32a <_vfiprintf_r+0x612>
    a152:	4638      	mov	r0, r7
    a154:	f7f8 fd86 	bl	2c64 <strlen>
    a158:	4680      	mov	r8, r0
    a15a:	e0e6      	b.n	a32a <_vfiprintf_r+0x612>
    a15c:	f045 0510 	orr.w	r5, r5, #16
    a160:	f015 0f20 	tst.w	r5, #32
    a164:	d007      	beq.n	a176 <_vfiprintf_r+0x45e>
    a166:	3407      	adds	r4, #7
    a168:	f024 0307 	bic.w	r3, r4, #7
    a16c:	f103 0408 	add.w	r4, r3, #8
    a170:	e9d3 8900 	ldrd	r8, r9, [r3]
    a174:	e011      	b.n	a19a <_vfiprintf_r+0x482>
    a176:	f015 0f10 	tst.w	r5, #16
    a17a:	f104 0304 	add.w	r3, r4, #4
    a17e:	d001      	beq.n	a184 <_vfiprintf_r+0x46c>
    a180:	6822      	ldr	r2, [r4, #0]
    a182:	e006      	b.n	a192 <_vfiprintf_r+0x47a>
    a184:	f015 0f40 	tst.w	r5, #64	; 0x40
    a188:	6822      	ldr	r2, [r4, #0]
    a18a:	d002      	beq.n	a192 <_vfiprintf_r+0x47a>
    a18c:	fa1f f882 	uxth.w	r8, r2
    a190:	e000      	b.n	a194 <_vfiprintf_r+0x47c>
    a192:	4690      	mov	r8, r2
    a194:	f04f 0900 	mov.w	r9, #0
    a198:	461c      	mov	r4, r3
    a19a:	2201      	movs	r2, #1
    a19c:	e031      	b.n	a202 <_vfiprintf_r+0x4ea>
    a19e:	497c      	ldr	r1, [pc, #496]	; (a390 <_vfiprintf_r+0x678>)
    a1a0:	9105      	str	r1, [sp, #20]
    a1a2:	e001      	b.n	a1a8 <_vfiprintf_r+0x490>
    a1a4:	4a7b      	ldr	r2, [pc, #492]	; (a394 <_vfiprintf_r+0x67c>)
    a1a6:	9205      	str	r2, [sp, #20]
    a1a8:	f015 0f20 	tst.w	r5, #32
    a1ac:	d007      	beq.n	a1be <_vfiprintf_r+0x4a6>
    a1ae:	3407      	adds	r4, #7
    a1b0:	f024 0207 	bic.w	r2, r4, #7
    a1b4:	f102 0408 	add.w	r4, r2, #8
    a1b8:	e9d2 8900 	ldrd	r8, r9, [r2]
    a1bc:	e011      	b.n	a1e2 <_vfiprintf_r+0x4ca>
    a1be:	f015 0f10 	tst.w	r5, #16
    a1c2:	f104 0204 	add.w	r2, r4, #4
    a1c6:	d001      	beq.n	a1cc <_vfiprintf_r+0x4b4>
    a1c8:	6821      	ldr	r1, [r4, #0]
    a1ca:	e006      	b.n	a1da <_vfiprintf_r+0x4c2>
    a1cc:	f015 0f40 	tst.w	r5, #64	; 0x40
    a1d0:	6821      	ldr	r1, [r4, #0]
    a1d2:	d002      	beq.n	a1da <_vfiprintf_r+0x4c2>
    a1d4:	fa1f f881 	uxth.w	r8, r1
    a1d8:	e000      	b.n	a1dc <_vfiprintf_r+0x4c4>
    a1da:	4688      	mov	r8, r1
    a1dc:	f04f 0900 	mov.w	r9, #0
    a1e0:	4614      	mov	r4, r2
    a1e2:	f015 0f01 	tst.w	r5, #1
    a1e6:	d00b      	beq.n	a200 <_vfiprintf_r+0x4e8>
    a1e8:	ea58 0109 	orrs.w	r1, r8, r9
    a1ec:	d008      	beq.n	a200 <_vfiprintf_r+0x4e8>
    a1ee:	2230      	movs	r2, #48	; 0x30
    a1f0:	f88d 317d 	strb.w	r3, [sp, #381]	; 0x17d
    a1f4:	f88d 217c 	strb.w	r2, [sp, #380]	; 0x17c
    a1f8:	f045 0502 	orr.w	r5, r5, #2
    a1fc:	3a2e      	subs	r2, #46	; 0x2e
    a1fe:	e000      	b.n	a202 <_vfiprintf_r+0x4ea>
    a200:	2202      	movs	r2, #2
    a202:	2300      	movs	r3, #0
    a204:	f88d 317f 	strb.w	r3, [sp, #383]	; 0x17f
    a208:	e000      	b.n	a20c <_vfiprintf_r+0x4f4>
    a20a:	2201      	movs	r2, #1
    a20c:	f1bc 0f00 	cmp.w	ip, #0
    a210:	bfa8      	it	ge
    a212:	f025 0580 	bicge.w	r5, r5, #128	; 0x80
    a216:	ea58 0309 	orrs.w	r3, r8, r9
    a21a:	d102      	bne.n	a222 <_vfiprintf_r+0x50a>
    a21c:	f1bc 0f00 	cmp.w	ip, #0
    a220:	d060      	beq.n	a2e4 <_vfiprintf_r+0x5cc>
    a222:	2a01      	cmp	r2, #1
    a224:	d01e      	beq.n	a264 <_vfiprintf_r+0x54c>
    a226:	2a02      	cmp	r2, #2
    a228:	d047      	beq.n	a2ba <_vfiprintf_r+0x5a2>
    a22a:	ab5b      	add	r3, sp, #364	; 0x16c
    a22c:	3303      	adds	r3, #3
    a22e:	ea4f 01d8 	mov.w	r1, r8, lsr #3
    a232:	f008 0207 	and.w	r2, r8, #7
    a236:	ea41 7049 	orr.w	r0, r1, r9, lsl #29
    a23a:	ea4f 01d9 	mov.w	r1, r9, lsr #3
    a23e:	4680      	mov	r8, r0
    a240:	4689      	mov	r9, r1
    a242:	3230      	adds	r2, #48	; 0x30
    a244:	461f      	mov	r7, r3
    a246:	701a      	strb	r2, [r3, #0]
    a248:	3b01      	subs	r3, #1
    a24a:	9104      	str	r1, [sp, #16]
    a24c:	ea58 0109 	orrs.w	r1, r8, r9
    a250:	d1ed      	bne.n	a22e <_vfiprintf_r+0x516>
    a252:	f015 0f01 	tst.w	r5, #1
    a256:	d04f      	beq.n	a2f8 <_vfiprintf_r+0x5e0>
    a258:	2a30      	cmp	r2, #48	; 0x30
    a25a:	d04d      	beq.n	a2f8 <_vfiprintf_r+0x5e0>
    a25c:	461f      	mov	r7, r3
    a25e:	2330      	movs	r3, #48	; 0x30
    a260:	703b      	strb	r3, [r7, #0]
    a262:	e049      	b.n	a2f8 <_vfiprintf_r+0x5e0>
    a264:	f1b8 0f0a 	cmp.w	r8, #10
    a268:	f179 0200 	sbcs.w	r2, r9, #0
    a26c:	d206      	bcs.n	a27c <_vfiprintf_r+0x564>
    a26e:	af5b      	add	r7, sp, #364	; 0x16c
    a270:	f108 0830 	add.w	r8, r8, #48	; 0x30
    a274:	3703      	adds	r7, #3
    a276:	f88d 816f 	strb.w	r8, [sp, #367]	; 0x16f
    a27a:	e03d      	b.n	a2f8 <_vfiprintf_r+0x5e0>
    a27c:	ab5b      	add	r3, sp, #364	; 0x16c
    a27e:	3303      	adds	r3, #3
    a280:	9304      	str	r3, [sp, #16]
    a282:	4640      	mov	r0, r8
    a284:	4649      	mov	r1, r9
    a286:	220a      	movs	r2, #10
    a288:	2300      	movs	r3, #0
    a28a:	f8cd c000 	str.w	ip, [sp]
    a28e:	f001 f9e9 	bl	b664 <__aeabi_uldivmod>
    a292:	9904      	ldr	r1, [sp, #16]
    a294:	4640      	mov	r0, r8
    a296:	9f04      	ldr	r7, [sp, #16]
    a298:	2300      	movs	r3, #0
    a29a:	3230      	adds	r2, #48	; 0x30
    a29c:	f801 2901 	strb.w	r2, [r1], #-1
    a2a0:	220a      	movs	r2, #10
    a2a2:	9104      	str	r1, [sp, #16]
    a2a4:	4649      	mov	r1, r9
    a2a6:	f001 f9dd 	bl	b664 <__aeabi_uldivmod>
    a2aa:	f8dd c000 	ldr.w	ip, [sp]
    a2ae:	4680      	mov	r8, r0
    a2b0:	4689      	mov	r9, r1
    a2b2:	ea58 0209 	orrs.w	r2, r8, r9
    a2b6:	d1e4      	bne.n	a282 <_vfiprintf_r+0x56a>
    a2b8:	e01e      	b.n	a2f8 <_vfiprintf_r+0x5e0>
    a2ba:	aa5b      	add	r2, sp, #364	; 0x16c
    a2bc:	3203      	adds	r2, #3
    a2be:	9905      	ldr	r1, [sp, #20]
    a2c0:	f008 030f 	and.w	r3, r8, #15
    a2c4:	4617      	mov	r7, r2
    a2c6:	ea4f 1019 	mov.w	r0, r9, lsr #4
    a2ca:	5ccb      	ldrb	r3, [r1, r3]
    a2cc:	ea4f 1118 	mov.w	r1, r8, lsr #4
    a2d0:	f802 3901 	strb.w	r3, [r2], #-1
    a2d4:	ea41 7309 	orr.w	r3, r1, r9, lsl #28
    a2d8:	4698      	mov	r8, r3
    a2da:	4681      	mov	r9, r0
    a2dc:	ea58 0309 	orrs.w	r3, r8, r9
    a2e0:	d1ed      	bne.n	a2be <_vfiprintf_r+0x5a6>
    a2e2:	e009      	b.n	a2f8 <_vfiprintf_r+0x5e0>
    a2e4:	b93a      	cbnz	r2, a2f6 <_vfiprintf_r+0x5de>
    a2e6:	f015 0f01 	tst.w	r5, #1
    a2ea:	d004      	beq.n	a2f6 <_vfiprintf_r+0x5de>
    a2ec:	af60      	add	r7, sp, #384	; 0x180
    a2ee:	2330      	movs	r3, #48	; 0x30
    a2f0:	f807 3d11 	strb.w	r3, [r7, #-17]!
    a2f4:	e000      	b.n	a2f8 <_vfiprintf_r+0x5e0>
    a2f6:	af5c      	add	r7, sp, #368	; 0x170
    a2f8:	f50d 78b8 	add.w	r8, sp, #368	; 0x170
    a2fc:	46e1      	mov	r9, ip
    a2fe:	ebc7 0808 	rsb	r8, r7, r8
    a302:	e012      	b.n	a32a <_vfiprintf_r+0x612>
    a304:	9201      	str	r2, [sp, #4]
    a306:	9102      	str	r1, [sp, #8]
    a308:	2b00      	cmp	r3, #0
    a30a:	f000 8171 	beq.w	a5f0 <_vfiprintf_r+0x8d8>
    a30e:	f04f 0900 	mov.w	r9, #0
    a312:	f88d 3148 	strb.w	r3, [sp, #328]	; 0x148
    a316:	f88d 917f 	strb.w	r9, [sp, #383]	; 0x17f
    a31a:	f04f 0801 	mov.w	r8, #1
    a31e:	af52      	add	r7, sp, #328	; 0x148
    a320:	e003      	b.n	a32a <_vfiprintf_r+0x612>
    a322:	46e0      	mov	r8, ip
    a324:	4681      	mov	r9, r0
    a326:	e000      	b.n	a32a <_vfiprintf_r+0x612>
    a328:	46e0      	mov	r8, ip
    a32a:	f89d 317f 	ldrb.w	r3, [sp, #383]	; 0x17f
    a32e:	45c8      	cmp	r8, r9
    a330:	bfac      	ite	ge
    a332:	4641      	movge	r1, r8
    a334:	4649      	movlt	r1, r9
    a336:	9104      	str	r1, [sp, #16]
    a338:	b10b      	cbz	r3, a33e <_vfiprintf_r+0x626>
    a33a:	3101      	adds	r1, #1
    a33c:	9104      	str	r1, [sp, #16]
    a33e:	f015 0202 	ands.w	r2, r5, #2
    a342:	9206      	str	r2, [sp, #24]
    a344:	d002      	beq.n	a34c <_vfiprintf_r+0x634>
    a346:	9b04      	ldr	r3, [sp, #16]
    a348:	3302      	adds	r3, #2
    a34a:	9304      	str	r3, [sp, #16]
    a34c:	f015 0184 	ands.w	r1, r5, #132	; 0x84
    a350:	9107      	str	r1, [sp, #28]
    a352:	d143      	bne.n	a3dc <_vfiprintf_r+0x6c4>
    a354:	9a02      	ldr	r2, [sp, #8]
    a356:	9904      	ldr	r1, [sp, #16]
    a358:	1a53      	subs	r3, r2, r1
    a35a:	2b00      	cmp	r3, #0
    a35c:	dc1c      	bgt.n	a398 <_vfiprintf_r+0x680>
    a35e:	e03d      	b.n	a3dc <_vfiprintf_r+0x6c4>
    a360:	601a      	str	r2, [r3, #0]
    a362:	2210      	movs	r2, #16
    a364:	1889      	adds	r1, r1, r2
    a366:	605a      	str	r2, [r3, #4]
    a368:	9a5d      	ldr	r2, [sp, #372]	; 0x174
    a36a:	915e      	str	r1, [sp, #376]	; 0x178
    a36c:	3201      	adds	r2, #1
    a36e:	925d      	str	r2, [sp, #372]	; 0x174
    a370:	2a07      	cmp	r2, #7
    a372:	dc01      	bgt.n	a378 <_vfiprintf_r+0x660>
    a374:	3308      	adds	r3, #8
    a376:	e008      	b.n	a38a <_vfiprintf_r+0x672>
    a378:	4658      	mov	r0, fp
    a37a:	4651      	mov	r1, sl
    a37c:	aa5c      	add	r2, sp, #368	; 0x170
    a37e:	f7ff fc91 	bl	9ca4 <__sprint_r>
    a382:	2800      	cmp	r0, #0
    a384:	f040 813d 	bne.w	a602 <_vfiprintf_r+0x8ea>
    a388:	ab42      	add	r3, sp, #264	; 0x108
    a38a:	3d10      	subs	r5, #16
    a38c:	e009      	b.n	a3a2 <_vfiprintf_r+0x68a>
    a38e:	bf00      	nop
    a390:	0000c0a9 	.word	0x0000c0a9
    a394:	0000c098 	.word	0x0000c098
    a398:	462a      	mov	r2, r5
    a39a:	461d      	mov	r5, r3
    a39c:	4633      	mov	r3, r6
    a39e:	463e      	mov	r6, r7
    a3a0:	4617      	mov	r7, r2
    a3a2:	2d10      	cmp	r5, #16
    a3a4:	995e      	ldr	r1, [sp, #376]	; 0x178
    a3a6:	4a78      	ldr	r2, [pc, #480]	; (a588 <_vfiprintf_r+0x870>)
    a3a8:	dcda      	bgt.n	a360 <_vfiprintf_r+0x648>
    a3aa:	4638      	mov	r0, r7
    a3ac:	4637      	mov	r7, r6
    a3ae:	461e      	mov	r6, r3
    a3b0:	462b      	mov	r3, r5
    a3b2:	4605      	mov	r5, r0
    a3b4:	6073      	str	r3, [r6, #4]
    a3b6:	18cb      	adds	r3, r1, r3
    a3b8:	6032      	str	r2, [r6, #0]
    a3ba:	935e      	str	r3, [sp, #376]	; 0x178
    a3bc:	9b5d      	ldr	r3, [sp, #372]	; 0x174
    a3be:	3301      	adds	r3, #1
    a3c0:	935d      	str	r3, [sp, #372]	; 0x174
    a3c2:	2b07      	cmp	r3, #7
    a3c4:	dc01      	bgt.n	a3ca <_vfiprintf_r+0x6b2>
    a3c6:	3608      	adds	r6, #8
    a3c8:	e008      	b.n	a3dc <_vfiprintf_r+0x6c4>
    a3ca:	4658      	mov	r0, fp
    a3cc:	4651      	mov	r1, sl
    a3ce:	aa5c      	add	r2, sp, #368	; 0x170
    a3d0:	f7ff fc68 	bl	9ca4 <__sprint_r>
    a3d4:	2800      	cmp	r0, #0
    a3d6:	f040 8114 	bne.w	a602 <_vfiprintf_r+0x8ea>
    a3da:	ae42      	add	r6, sp, #264	; 0x108
    a3dc:	f89d 317f 	ldrb.w	r3, [sp, #383]	; 0x17f
    a3e0:	b1bb      	cbz	r3, a412 <_vfiprintf_r+0x6fa>
    a3e2:	ab5f      	add	r3, sp, #380	; 0x17c
    a3e4:	3303      	adds	r3, #3
    a3e6:	6033      	str	r3, [r6, #0]
    a3e8:	2301      	movs	r3, #1
    a3ea:	6073      	str	r3, [r6, #4]
    a3ec:	9b5e      	ldr	r3, [sp, #376]	; 0x178
    a3ee:	3301      	adds	r3, #1
    a3f0:	935e      	str	r3, [sp, #376]	; 0x178
    a3f2:	9b5d      	ldr	r3, [sp, #372]	; 0x174
    a3f4:	3301      	adds	r3, #1
    a3f6:	935d      	str	r3, [sp, #372]	; 0x174
    a3f8:	2b07      	cmp	r3, #7
    a3fa:	dc01      	bgt.n	a400 <_vfiprintf_r+0x6e8>
    a3fc:	3608      	adds	r6, #8
    a3fe:	e008      	b.n	a412 <_vfiprintf_r+0x6fa>
    a400:	4658      	mov	r0, fp
    a402:	4651      	mov	r1, sl
    a404:	aa5c      	add	r2, sp, #368	; 0x170
    a406:	f7ff fc4d 	bl	9ca4 <__sprint_r>
    a40a:	2800      	cmp	r0, #0
    a40c:	f040 80f9 	bne.w	a602 <_vfiprintf_r+0x8ea>
    a410:	ae42      	add	r6, sp, #264	; 0x108
    a412:	9a06      	ldr	r2, [sp, #24]
    a414:	b1b2      	cbz	r2, a444 <_vfiprintf_r+0x72c>
    a416:	ab5f      	add	r3, sp, #380	; 0x17c
    a418:	6033      	str	r3, [r6, #0]
    a41a:	2302      	movs	r3, #2
    a41c:	6073      	str	r3, [r6, #4]
    a41e:	9b5e      	ldr	r3, [sp, #376]	; 0x178
    a420:	3302      	adds	r3, #2
    a422:	935e      	str	r3, [sp, #376]	; 0x178
    a424:	9b5d      	ldr	r3, [sp, #372]	; 0x174
    a426:	3301      	adds	r3, #1
    a428:	935d      	str	r3, [sp, #372]	; 0x174
    a42a:	2b07      	cmp	r3, #7
    a42c:	dc01      	bgt.n	a432 <_vfiprintf_r+0x71a>
    a42e:	3608      	adds	r6, #8
    a430:	e008      	b.n	a444 <_vfiprintf_r+0x72c>
    a432:	4658      	mov	r0, fp
    a434:	4651      	mov	r1, sl
    a436:	aa5c      	add	r2, sp, #368	; 0x170
    a438:	f7ff fc34 	bl	9ca4 <__sprint_r>
    a43c:	2800      	cmp	r0, #0
    a43e:	f040 80e0 	bne.w	a602 <_vfiprintf_r+0x8ea>
    a442:	ae42      	add	r6, sp, #264	; 0x108
    a444:	9b07      	ldr	r3, [sp, #28]
    a446:	2b80      	cmp	r3, #128	; 0x80
    a448:	d13e      	bne.n	a4c8 <_vfiprintf_r+0x7b0>
    a44a:	9902      	ldr	r1, [sp, #8]
    a44c:	9a04      	ldr	r2, [sp, #16]
    a44e:	1a8b      	subs	r3, r1, r2
    a450:	2b00      	cmp	r3, #0
    a452:	dc17      	bgt.n	a484 <_vfiprintf_r+0x76c>
    a454:	e038      	b.n	a4c8 <_vfiprintf_r+0x7b0>
    a456:	601a      	str	r2, [r3, #0]
    a458:	2210      	movs	r2, #16
    a45a:	1889      	adds	r1, r1, r2
    a45c:	605a      	str	r2, [r3, #4]
    a45e:	9a5d      	ldr	r2, [sp, #372]	; 0x174
    a460:	915e      	str	r1, [sp, #376]	; 0x178
    a462:	3201      	adds	r2, #1
    a464:	925d      	str	r2, [sp, #372]	; 0x174
    a466:	2a07      	cmp	r2, #7
    a468:	dc01      	bgt.n	a46e <_vfiprintf_r+0x756>
    a46a:	3308      	adds	r3, #8
    a46c:	e008      	b.n	a480 <_vfiprintf_r+0x768>
    a46e:	4658      	mov	r0, fp
    a470:	4651      	mov	r1, sl
    a472:	aa5c      	add	r2, sp, #368	; 0x170
    a474:	f7ff fc16 	bl	9ca4 <__sprint_r>
    a478:	2800      	cmp	r0, #0
    a47a:	f040 80c2 	bne.w	a602 <_vfiprintf_r+0x8ea>
    a47e:	ab42      	add	r3, sp, #264	; 0x108
    a480:	3d10      	subs	r5, #16
    a482:	e004      	b.n	a48e <_vfiprintf_r+0x776>
    a484:	462a      	mov	r2, r5
    a486:	461d      	mov	r5, r3
    a488:	4633      	mov	r3, r6
    a48a:	463e      	mov	r6, r7
    a48c:	4617      	mov	r7, r2
    a48e:	2d10      	cmp	r5, #16
    a490:	995e      	ldr	r1, [sp, #376]	; 0x178
    a492:	4a3e      	ldr	r2, [pc, #248]	; (a58c <_vfiprintf_r+0x874>)
    a494:	dcdf      	bgt.n	a456 <_vfiprintf_r+0x73e>
    a496:	4638      	mov	r0, r7
    a498:	4637      	mov	r7, r6
    a49a:	461e      	mov	r6, r3
    a49c:	462b      	mov	r3, r5
    a49e:	4605      	mov	r5, r0
    a4a0:	6073      	str	r3, [r6, #4]
    a4a2:	18cb      	adds	r3, r1, r3
    a4a4:	6032      	str	r2, [r6, #0]
    a4a6:	935e      	str	r3, [sp, #376]	; 0x178
    a4a8:	9b5d      	ldr	r3, [sp, #372]	; 0x174
    a4aa:	3301      	adds	r3, #1
    a4ac:	935d      	str	r3, [sp, #372]	; 0x174
    a4ae:	2b07      	cmp	r3, #7
    a4b0:	dc01      	bgt.n	a4b6 <_vfiprintf_r+0x79e>
    a4b2:	3608      	adds	r6, #8
    a4b4:	e008      	b.n	a4c8 <_vfiprintf_r+0x7b0>
    a4b6:	4658      	mov	r0, fp
    a4b8:	4651      	mov	r1, sl
    a4ba:	aa5c      	add	r2, sp, #368	; 0x170
    a4bc:	f7ff fbf2 	bl	9ca4 <__sprint_r>
    a4c0:	2800      	cmp	r0, #0
    a4c2:	f040 809e 	bne.w	a602 <_vfiprintf_r+0x8ea>
    a4c6:	ae42      	add	r6, sp, #264	; 0x108
    a4c8:	ebc8 0909 	rsb	r9, r8, r9
    a4cc:	f1b9 0f00 	cmp.w	r9, #0
    a4d0:	dc17      	bgt.n	a502 <_vfiprintf_r+0x7ea>
    a4d2:	e02f      	b.n	a534 <_vfiprintf_r+0x81c>
    a4d4:	6033      	str	r3, [r6, #0]
    a4d6:	2310      	movs	r3, #16
    a4d8:	18d2      	adds	r2, r2, r3
    a4da:	6073      	str	r3, [r6, #4]
    a4dc:	9b5d      	ldr	r3, [sp, #372]	; 0x174
    a4de:	925e      	str	r2, [sp, #376]	; 0x178
    a4e0:	3301      	adds	r3, #1
    a4e2:	935d      	str	r3, [sp, #372]	; 0x174
    a4e4:	2b07      	cmp	r3, #7
    a4e6:	dc01      	bgt.n	a4ec <_vfiprintf_r+0x7d4>
    a4e8:	3608      	adds	r6, #8
    a4ea:	e008      	b.n	a4fe <_vfiprintf_r+0x7e6>
    a4ec:	4658      	mov	r0, fp
    a4ee:	4651      	mov	r1, sl
    a4f0:	aa5c      	add	r2, sp, #368	; 0x170
    a4f2:	f7ff fbd7 	bl	9ca4 <__sprint_r>
    a4f6:	2800      	cmp	r0, #0
    a4f8:	f040 8083 	bne.w	a602 <_vfiprintf_r+0x8ea>
    a4fc:	ae42      	add	r6, sp, #264	; 0x108
    a4fe:	f1a9 0910 	sub.w	r9, r9, #16
    a502:	f1b9 0f10 	cmp.w	r9, #16
    a506:	9a5e      	ldr	r2, [sp, #376]	; 0x178
    a508:	4b20      	ldr	r3, [pc, #128]	; (a58c <_vfiprintf_r+0x874>)
    a50a:	dce3      	bgt.n	a4d4 <_vfiprintf_r+0x7bc>
    a50c:	6033      	str	r3, [r6, #0]
    a50e:	444a      	add	r2, r9
    a510:	9b5d      	ldr	r3, [sp, #372]	; 0x174
    a512:	f8c6 9004 	str.w	r9, [r6, #4]
    a516:	3301      	adds	r3, #1
    a518:	925e      	str	r2, [sp, #376]	; 0x178
    a51a:	2b07      	cmp	r3, #7
    a51c:	935d      	str	r3, [sp, #372]	; 0x174
    a51e:	dc01      	bgt.n	a524 <_vfiprintf_r+0x80c>
    a520:	3608      	adds	r6, #8
    a522:	e007      	b.n	a534 <_vfiprintf_r+0x81c>
    a524:	4658      	mov	r0, fp
    a526:	4651      	mov	r1, sl
    a528:	aa5c      	add	r2, sp, #368	; 0x170
    a52a:	f7ff fbbb 	bl	9ca4 <__sprint_r>
    a52e:	2800      	cmp	r0, #0
    a530:	d167      	bne.n	a602 <_vfiprintf_r+0x8ea>
    a532:	ae42      	add	r6, sp, #264	; 0x108
    a534:	9b5e      	ldr	r3, [sp, #376]	; 0x178
    a536:	6037      	str	r7, [r6, #0]
    a538:	f8c6 8004 	str.w	r8, [r6, #4]
    a53c:	4443      	add	r3, r8
    a53e:	935e      	str	r3, [sp, #376]	; 0x178
    a540:	9b5d      	ldr	r3, [sp, #372]	; 0x174
    a542:	3301      	adds	r3, #1
    a544:	935d      	str	r3, [sp, #372]	; 0x174
    a546:	2b07      	cmp	r3, #7
    a548:	dc01      	bgt.n	a54e <_vfiprintf_r+0x836>
    a54a:	3608      	adds	r6, #8
    a54c:	e007      	b.n	a55e <_vfiprintf_r+0x846>
    a54e:	4658      	mov	r0, fp
    a550:	4651      	mov	r1, sl
    a552:	aa5c      	add	r2, sp, #368	; 0x170
    a554:	f7ff fba6 	bl	9ca4 <__sprint_r>
    a558:	2800      	cmp	r0, #0
    a55a:	d152      	bne.n	a602 <_vfiprintf_r+0x8ea>
    a55c:	ae42      	add	r6, sp, #264	; 0x108
    a55e:	f015 0f04 	tst.w	r5, #4
    a562:	d031      	beq.n	a5c8 <_vfiprintf_r+0x8b0>
    a564:	9b02      	ldr	r3, [sp, #8]
    a566:	9904      	ldr	r1, [sp, #16]
    a568:	1a5d      	subs	r5, r3, r1
    a56a:	2d00      	cmp	r5, #0
    a56c:	dc19      	bgt.n	a5a2 <_vfiprintf_r+0x88a>
    a56e:	e02b      	b.n	a5c8 <_vfiprintf_r+0x8b0>
    a570:	6032      	str	r2, [r6, #0]
    a572:	2210      	movs	r2, #16
    a574:	189b      	adds	r3, r3, r2
    a576:	6072      	str	r2, [r6, #4]
    a578:	935e      	str	r3, [sp, #376]	; 0x178
    a57a:	9b5d      	ldr	r3, [sp, #372]	; 0x174
    a57c:	3301      	adds	r3, #1
    a57e:	935d      	str	r3, [sp, #372]	; 0x174
    a580:	2b07      	cmp	r3, #7
    a582:	dc05      	bgt.n	a590 <_vfiprintf_r+0x878>
    a584:	3608      	adds	r6, #8
    a586:	e00b      	b.n	a5a0 <_vfiprintf_r+0x888>
    a588:	0000c410 	.word	0x0000c410
    a58c:	0000c420 	.word	0x0000c420
    a590:	4658      	mov	r0, fp
    a592:	4651      	mov	r1, sl
    a594:	aa5c      	add	r2, sp, #368	; 0x170
    a596:	f7ff fb85 	bl	9ca4 <__sprint_r>
    a59a:	2800      	cmp	r0, #0
    a59c:	d131      	bne.n	a602 <_vfiprintf_r+0x8ea>
    a59e:	ae42      	add	r6, sp, #264	; 0x108
    a5a0:	3d10      	subs	r5, #16
    a5a2:	2d10      	cmp	r5, #16
    a5a4:	9b5e      	ldr	r3, [sp, #376]	; 0x178
    a5a6:	4a20      	ldr	r2, [pc, #128]	; (a628 <_vfiprintf_r+0x910>)
    a5a8:	dce2      	bgt.n	a570 <_vfiprintf_r+0x858>
    a5aa:	6075      	str	r5, [r6, #4]
    a5ac:	195d      	adds	r5, r3, r5
    a5ae:	9b5d      	ldr	r3, [sp, #372]	; 0x174
    a5b0:	6032      	str	r2, [r6, #0]
    a5b2:	3301      	adds	r3, #1
    a5b4:	955e      	str	r5, [sp, #376]	; 0x178
    a5b6:	2b07      	cmp	r3, #7
    a5b8:	935d      	str	r3, [sp, #372]	; 0x174
    a5ba:	dd05      	ble.n	a5c8 <_vfiprintf_r+0x8b0>
    a5bc:	4658      	mov	r0, fp
    a5be:	4651      	mov	r1, sl
    a5c0:	aa5c      	add	r2, sp, #368	; 0x170
    a5c2:	f7ff fb6f 	bl	9ca4 <__sprint_r>
    a5c6:	b9e0      	cbnz	r0, a602 <_vfiprintf_r+0x8ea>
    a5c8:	9a03      	ldr	r2, [sp, #12]
    a5ca:	9b02      	ldr	r3, [sp, #8]
    a5cc:	9904      	ldr	r1, [sp, #16]
    a5ce:	4299      	cmp	r1, r3
    a5d0:	bfac      	ite	ge
    a5d2:	1852      	addge	r2, r2, r1
    a5d4:	18d2      	addlt	r2, r2, r3
    a5d6:	9b5e      	ldr	r3, [sp, #376]	; 0x178
    a5d8:	9203      	str	r2, [sp, #12]
    a5da:	b12b      	cbz	r3, a5e8 <_vfiprintf_r+0x8d0>
    a5dc:	4658      	mov	r0, fp
    a5de:	4651      	mov	r1, sl
    a5e0:	aa5c      	add	r2, sp, #368	; 0x170
    a5e2:	f7ff fb5f 	bl	9ca4 <__sprint_r>
    a5e6:	b960      	cbnz	r0, a602 <_vfiprintf_r+0x8ea>
    a5e8:	2300      	movs	r3, #0
    a5ea:	ae42      	add	r6, sp, #264	; 0x108
    a5ec:	935d      	str	r3, [sp, #372]	; 0x174
    a5ee:	e40e      	b.n	9e0e <_vfiprintf_r+0xf6>
    a5f0:	9b5e      	ldr	r3, [sp, #376]	; 0x178
    a5f2:	4657      	mov	r7, sl
    a5f4:	b133      	cbz	r3, a604 <_vfiprintf_r+0x8ec>
    a5f6:	4658      	mov	r0, fp
    a5f8:	4651      	mov	r1, sl
    a5fa:	aa5c      	add	r2, sp, #368	; 0x170
    a5fc:	f7ff fb52 	bl	9ca4 <__sprint_r>
    a600:	e000      	b.n	a604 <_vfiprintf_r+0x8ec>
    a602:	4657      	mov	r7, sl
    a604:	89bb      	ldrh	r3, [r7, #12]
    a606:	9a03      	ldr	r2, [sp, #12]
    a608:	f003 0340 	and.w	r3, r3, #64	; 0x40
    a60c:	2b00      	cmp	r3, #0
    a60e:	bf18      	it	ne
    a610:	f04f 32ff 	movne.w	r2, #4294967295
    a614:	9203      	str	r2, [sp, #12]
    a616:	e002      	b.n	a61e <_vfiprintf_r+0x906>
    a618:	f04f 33ff 	mov.w	r3, #4294967295
    a61c:	9303      	str	r3, [sp, #12]
    a61e:	9803      	ldr	r0, [sp, #12]
    a620:	b061      	add	sp, #388	; 0x184
    a622:	e8bd 8ff0 	ldmia.w	sp!, {r4, r5, r6, r7, r8, r9, sl, fp, pc}
    a626:	bf00      	nop
    a628:	0000c410 	.word	0x0000c410

0000a62c <_calloc_r>:
    a62c:	b510      	push	{r4, lr}
    a62e:	4351      	muls	r1, r2
    a630:	f7f7 fdfc 	bl	222c <_malloc_r>
    a634:	4604      	mov	r4, r0
    a636:	b318      	cbz	r0, a680 <_calloc_r+0x54>
    a638:	f850 2c04 	ldr.w	r2, [r0, #-4]
    a63c:	f022 0203 	bic.w	r2, r2, #3
    a640:	3a04      	subs	r2, #4
    a642:	2a24      	cmp	r2, #36	; 0x24
    a644:	d819      	bhi.n	a67a <_calloc_r+0x4e>
    a646:	2a13      	cmp	r2, #19
    a648:	4603      	mov	r3, r0
    a64a:	d90f      	bls.n	a66c <_calloc_r+0x40>
    a64c:	2100      	movs	r1, #0
    a64e:	f840 1b04 	str.w	r1, [r0], #4
    a652:	1d03      	adds	r3, r0, #4
    a654:	2a1b      	cmp	r2, #27
    a656:	6061      	str	r1, [r4, #4]
    a658:	d908      	bls.n	a66c <_calloc_r+0x40>
    a65a:	6041      	str	r1, [r0, #4]
    a65c:	1d18      	adds	r0, r3, #4
    a65e:	6059      	str	r1, [r3, #4]
    a660:	3308      	adds	r3, #8
    a662:	2a24      	cmp	r2, #36	; 0x24
    a664:	d102      	bne.n	a66c <_calloc_r+0x40>
    a666:	6041      	str	r1, [r0, #4]
    a668:	6059      	str	r1, [r3, #4]
    a66a:	3308      	adds	r3, #8
    a66c:	461a      	mov	r2, r3
    a66e:	2100      	movs	r1, #0
    a670:	f842 1b04 	str.w	r1, [r2], #4
    a674:	6059      	str	r1, [r3, #4]
    a676:	6051      	str	r1, [r2, #4]
    a678:	e002      	b.n	a680 <_calloc_r+0x54>
    a67a:	2100      	movs	r1, #0
    a67c:	f7fd fbbb 	bl	7df6 <memset>
    a680:	4620      	mov	r0, r4
    a682:	bd10      	pop	{r4, pc}

0000a684 <_fclose_r>:
    a684:	b570      	push	{r4, r5, r6, lr}
    a686:	4605      	mov	r5, r0
    a688:	460c      	mov	r4, r1
    a68a:	2900      	cmp	r1, #0
    a68c:	d046      	beq.n	a71c <_fclose_r+0x98>
    a68e:	f7fd f90b 	bl	78a8 <__sfp_lock_acquire>
    a692:	b125      	cbz	r5, a69e <_fclose_r+0x1a>
    a694:	69ab      	ldr	r3, [r5, #24]
    a696:	b913      	cbnz	r3, a69e <_fclose_r+0x1a>
    a698:	4628      	mov	r0, r5
    a69a:	f7fd f89b 	bl	77d4 <__sinit>
    a69e:	4b21      	ldr	r3, [pc, #132]	; (a724 <_fclose_r+0xa0>)
    a6a0:	429c      	cmp	r4, r3
    a6a2:	d101      	bne.n	a6a8 <_fclose_r+0x24>
    a6a4:	686c      	ldr	r4, [r5, #4]
    a6a6:	e008      	b.n	a6ba <_fclose_r+0x36>
    a6a8:	4b1f      	ldr	r3, [pc, #124]	; (a728 <_fclose_r+0xa4>)
    a6aa:	429c      	cmp	r4, r3
    a6ac:	d101      	bne.n	a6b2 <_fclose_r+0x2e>
    a6ae:	68ac      	ldr	r4, [r5, #8]
    a6b0:	e003      	b.n	a6ba <_fclose_r+0x36>
    a6b2:	4b1e      	ldr	r3, [pc, #120]	; (a72c <_fclose_r+0xa8>)
    a6b4:	429c      	cmp	r4, r3
    a6b6:	bf08      	it	eq
    a6b8:	68ec      	ldreq	r4, [r5, #12]
    a6ba:	f9b4 600c 	ldrsh.w	r6, [r4, #12]
    a6be:	b356      	cbz	r6, a716 <_fclose_r+0x92>
    a6c0:	4628      	mov	r0, r5
    a6c2:	4621      	mov	r1, r4
    a6c4:	f7fc ff7c 	bl	75c0 <_fflush_r>
    a6c8:	6b23      	ldr	r3, [r4, #48]	; 0x30
    a6ca:	4606      	mov	r6, r0
    a6cc:	b13b      	cbz	r3, a6de <_fclose_r+0x5a>
    a6ce:	4628      	mov	r0, r5
    a6d0:	6a21      	ldr	r1, [r4, #32]
    a6d2:	4798      	blx	r3
    a6d4:	ea36 0620 	bics.w	r6, r6, r0, asr #32
    a6d8:	bf28      	it	cs
    a6da:	f04f 36ff 	movcs.w	r6, #4294967295
    a6de:	89a3      	ldrh	r3, [r4, #12]
    a6e0:	f013 0f80 	tst.w	r3, #128	; 0x80
    a6e4:	d003      	beq.n	a6ee <_fclose_r+0x6a>
    a6e6:	4628      	mov	r0, r5
    a6e8:	6921      	ldr	r1, [r4, #16]
    a6ea:	f7fd f9a3 	bl	7a34 <_free_r>
    a6ee:	6b61      	ldr	r1, [r4, #52]	; 0x34
    a6f0:	b141      	cbz	r1, a704 <_fclose_r+0x80>
    a6f2:	f104 0344 	add.w	r3, r4, #68	; 0x44
    a6f6:	4299      	cmp	r1, r3
    a6f8:	d002      	beq.n	a700 <_fclose_r+0x7c>
    a6fa:	4628      	mov	r0, r5
    a6fc:	f7fd f99a 	bl	7a34 <_free_r>
    a700:	2300      	movs	r3, #0
    a702:	6363      	str	r3, [r4, #52]	; 0x34
    a704:	6ca1      	ldr	r1, [r4, #72]	; 0x48
    a706:	b121      	cbz	r1, a712 <_fclose_r+0x8e>
    a708:	4628      	mov	r0, r5
    a70a:	f7fd f993 	bl	7a34 <_free_r>
    a70e:	2300      	movs	r3, #0
    a710:	64a3      	str	r3, [r4, #72]	; 0x48
    a712:	2300      	movs	r3, #0
    a714:	81a3      	strh	r3, [r4, #12]
    a716:	f7fd f8c8 	bl	78aa <__sfp_lock_release>
    a71a:	e000      	b.n	a71e <_fclose_r+0x9a>
    a71c:	460e      	mov	r6, r1
    a71e:	4630      	mov	r0, r6
    a720:	bd70      	pop	{r4, r5, r6, pc}
    a722:	bf00      	nop
    a724:	0000c280 	.word	0x0000c280
    a728:	0000c2a0 	.word	0x0000c2a0
    a72c:	0000c2c0 	.word	0x0000c2c0

0000a730 <fclose>:
    a730:	4b02      	ldr	r3, [pc, #8]	; (a73c <fclose+0xc>)
    a732:	4601      	mov	r1, r0
    a734:	6818      	ldr	r0, [r3, #0]
    a736:	f7ff bfa5 	b.w	a684 <_fclose_r>
    a73a:	bf00      	nop
    a73c:	1000010c 	.word	0x1000010c

0000a740 <_fputwc_r>:
    a740:	8993      	ldrh	r3, [r2, #12]
    a742:	e92d 41f3 	stmdb	sp!, {r0, r1, r4, r5, r6, r7, r8, lr}
    a746:	f413 5f00 	tst.w	r3, #8192	; 0x2000
    a74a:	4606      	mov	r6, r0
    a74c:	460d      	mov	r5, r1
    a74e:	4614      	mov	r4, r2
    a750:	d106      	bne.n	a760 <_fputwc_r+0x20>
    a752:	f443 5300 	orr.w	r3, r3, #8192	; 0x2000
    a756:	8193      	strh	r3, [r2, #12]
    a758:	6e53      	ldr	r3, [r2, #100]	; 0x64
    a75a:	f443 5300 	orr.w	r3, r3, #8192	; 0x2000
    a75e:	6653      	str	r3, [r2, #100]	; 0x64
    a760:	f7fd fa80 	bl	7c64 <__locale_mb_cur_max>
    a764:	2801      	cmp	r0, #1
    a766:	d106      	bne.n	a776 <_fputwc_r+0x36>
    a768:	b12d      	cbz	r5, a776 <_fputwc_r+0x36>
    a76a:	2dff      	cmp	r5, #255	; 0xff
    a76c:	d803      	bhi.n	a776 <_fputwc_r+0x36>
    a76e:	f88d 5004 	strb.w	r5, [sp, #4]
    a772:	4680      	mov	r8, r0
    a774:	e00f      	b.n	a796 <_fputwc_r+0x56>
    a776:	4630      	mov	r0, r6
    a778:	a901      	add	r1, sp, #4
    a77a:	462a      	mov	r2, r5
    a77c:	f104 035c 	add.w	r3, r4, #92	; 0x5c
    a780:	f000 fbfa 	bl	af78 <_wcrtomb_r>
    a784:	f1b0 3fff 	cmp.w	r0, #4294967295
    a788:	4680      	mov	r8, r0
    a78a:	d104      	bne.n	a796 <_fputwc_r+0x56>
    a78c:	89a3      	ldrh	r3, [r4, #12]
    a78e:	f043 0340 	orr.w	r3, r3, #64	; 0x40
    a792:	81a3      	strh	r3, [r4, #12]
    a794:	e031      	b.n	a7fa <_fputwc_r+0xba>
    a796:	2700      	movs	r7, #0
    a798:	e029      	b.n	a7ee <_fputwc_r+0xae>
    a79a:	68a2      	ldr	r2, [r4, #8]
    a79c:	ab01      	add	r3, sp, #4
    a79e:	3a01      	subs	r2, #1
    a7a0:	60a2      	str	r2, [r4, #8]
    a7a2:	2a00      	cmp	r2, #0
    a7a4:	da1a      	bge.n	a7dc <_fputwc_r+0x9c>
    a7a6:	69a1      	ldr	r1, [r4, #24]
    a7a8:	428a      	cmp	r2, r1
    a7aa:	db0c      	blt.n	a7c6 <_fputwc_r+0x86>
    a7ac:	5ddb      	ldrb	r3, [r3, r7]
    a7ae:	6822      	ldr	r2, [r4, #0]
    a7b0:	7013      	strb	r3, [r2, #0]
    a7b2:	6823      	ldr	r3, [r4, #0]
    a7b4:	7819      	ldrb	r1, [r3, #0]
    a7b6:	290a      	cmp	r1, #10
    a7b8:	d003      	beq.n	a7c2 <_fputwc_r+0x82>
    a7ba:	3301      	adds	r3, #1
    a7bc:	2000      	movs	r0, #0
    a7be:	6023      	str	r3, [r4, #0]
    a7c0:	e013      	b.n	a7ea <_fputwc_r+0xaa>
    a7c2:	4630      	mov	r0, r6
    a7c4:	e001      	b.n	a7ca <_fputwc_r+0x8a>
    a7c6:	5dd9      	ldrb	r1, [r3, r7]
    a7c8:	4630      	mov	r0, r6
    a7ca:	4622      	mov	r2, r4
    a7cc:	f000 fb6e 	bl	aeac <__swbuf_r>
    a7d0:	f1a0 33ff 	sub.w	r3, r0, #4294967295
    a7d4:	4258      	negs	r0, r3
    a7d6:	eb40 0003 	adc.w	r0, r0, r3
    a7da:	e006      	b.n	a7ea <_fputwc_r+0xaa>
    a7dc:	5ddb      	ldrb	r3, [r3, r7]
    a7de:	6822      	ldr	r2, [r4, #0]
    a7e0:	7013      	strb	r3, [r2, #0]
    a7e2:	6823      	ldr	r3, [r4, #0]
    a7e4:	3301      	adds	r3, #1
    a7e6:	6023      	str	r3, [r4, #0]
    a7e8:	e000      	b.n	a7ec <_fputwc_r+0xac>
    a7ea:	b920      	cbnz	r0, a7f6 <_fputwc_r+0xb6>
    a7ec:	3701      	adds	r7, #1
    a7ee:	4547      	cmp	r7, r8
    a7f0:	d1d3      	bne.n	a79a <_fputwc_r+0x5a>
    a7f2:	4628      	mov	r0, r5
    a7f4:	e001      	b.n	a7fa <_fputwc_r+0xba>
    a7f6:	f04f 30ff 	mov.w	r0, #4294967295
    a7fa:	e8bd 81fc 	ldmia.w	sp!, {r2, r3, r4, r5, r6, r7, r8, pc}
	...

0000a800 <_fstat_r>:
    a800:	b538      	push	{r3, r4, r5, lr}
    a802:	4605      	mov	r5, r0
    a804:	4c06      	ldr	r4, [pc, #24]	; (a820 <_fstat_r+0x20>)
    a806:	4608      	mov	r0, r1
    a808:	4611      	mov	r1, r2
    a80a:	2300      	movs	r3, #0
    a80c:	6023      	str	r3, [r4, #0]
    a80e:	f7f5 fe9d 	bl	54c <_fstat>
    a812:	f1b0 3fff 	cmp.w	r0, #4294967295
    a816:	d102      	bne.n	a81e <_fstat_r+0x1e>
    a818:	6823      	ldr	r3, [r4, #0]
    a81a:	b103      	cbz	r3, a81e <_fstat_r+0x1e>
    a81c:	602b      	str	r3, [r5, #0]
    a81e:	bd38      	pop	{r3, r4, r5, pc}
    a820:	10000640 	.word	0x10000640

0000a824 <rshift>:
    a824:	b5f0      	push	{r4, r5, r6, r7, lr}
    a826:	114a      	asrs	r2, r1, #5
    a828:	6906      	ldr	r6, [r0, #16]
    a82a:	f100 0314 	add.w	r3, r0, #20
    a82e:	42b2      	cmp	r2, r6
    a830:	da26      	bge.n	a880 <rshift+0x5c>
    a832:	3204      	adds	r2, #4
    a834:	eb00 0686 	add.w	r6, r0, r6, lsl #2
    a838:	3614      	adds	r6, #20
    a83a:	eb00 0282 	add.w	r2, r0, r2, lsl #2
    a83e:	1d14      	adds	r4, r2, #4
    a840:	f011 011f 	ands.w	r1, r1, #31
    a844:	d01a      	beq.n	a87c <rshift+0x58>
    a846:	6852      	ldr	r2, [r2, #4]
    a848:	f1c1 0720 	rsb	r7, r1, #32
    a84c:	1d25      	adds	r5, r4, #4
    a84e:	40ca      	lsrs	r2, r1
    a850:	e00a      	b.n	a868 <rshift+0x44>
    a852:	f854 cf04 	ldr.w	ip, [r4, #4]!
    a856:	fa0c fc07 	lsl.w	ip, ip, r7
    a85a:	ea42 020c 	orr.w	r2, r2, ip
    a85e:	f843 2b04 	str.w	r2, [r3], #4
    a862:	f855 2b04 	ldr.w	r2, [r5], #4
    a866:	40ca      	lsrs	r2, r1
    a868:	42b5      	cmp	r5, r6
    a86a:	d3f2      	bcc.n	a852 <rshift+0x2e>
    a86c:	601a      	str	r2, [r3, #0]
    a86e:	b13a      	cbz	r2, a880 <rshift+0x5c>
    a870:	3304      	adds	r3, #4
    a872:	e005      	b.n	a880 <rshift+0x5c>
    a874:	f854 2b04 	ldr.w	r2, [r4], #4
    a878:	f843 2b04 	str.w	r2, [r3], #4
    a87c:	42a6      	cmp	r6, r4
    a87e:	d8f9      	bhi.n	a874 <rshift+0x50>
    a880:	f100 0214 	add.w	r2, r0, #20
    a884:	1a9b      	subs	r3, r3, r2
    a886:	109b      	asrs	r3, r3, #2
    a888:	6103      	str	r3, [r0, #16]
    a88a:	b903      	cbnz	r3, a88e <rshift+0x6a>
    a88c:	6143      	str	r3, [r0, #20]
    a88e:	bdf0      	pop	{r4, r5, r6, r7, pc}

0000a890 <htinit.clone.0>:
    a890:	b530      	push	{r4, r5, lr}
    a892:	2300      	movs	r3, #0
    a894:	e003      	b.n	a89e <htinit.clone.0+0xe>
    a896:	4c04      	ldr	r4, [pc, #16]	; (a8a8 <htinit.clone.0+0x18>)
    a898:	185d      	adds	r5, r3, r1
    a89a:	3301      	adds	r3, #1
    a89c:	54a5      	strb	r5, [r4, r2]
    a89e:	5cc2      	ldrb	r2, [r0, r3]
    a8a0:	2a00      	cmp	r2, #0
    a8a2:	d1f8      	bne.n	a896 <htinit.clone.0+0x6>
    a8a4:	bd30      	pop	{r4, r5, pc}
    a8a6:	bf00      	nop
    a8a8:	10000644 	.word	0x10000644

0000a8ac <__hexdig_init>:
    a8ac:	b510      	push	{r4, lr}
    a8ae:	2110      	movs	r1, #16
    a8b0:	4806      	ldr	r0, [pc, #24]	; (a8cc <__hexdig_init+0x20>)
    a8b2:	f7ff ffed 	bl	a890 <htinit.clone.0>
    a8b6:	211a      	movs	r1, #26
    a8b8:	4805      	ldr	r0, [pc, #20]	; (a8d0 <__hexdig_init+0x24>)
    a8ba:	f7ff ffe9 	bl	a890 <htinit.clone.0>
    a8be:	4805      	ldr	r0, [pc, #20]	; (a8d4 <__hexdig_init+0x28>)
    a8c0:	211a      	movs	r1, #26
    a8c2:	e8bd 4010 	ldmia.w	sp!, {r4, lr}
    a8c6:	f7ff bfe3 	b.w	a890 <htinit.clone.0>
    a8ca:	bf00      	nop
    a8cc:	0000c430 	.word	0x0000c430
    a8d0:	0000c0b3 	.word	0x0000c0b3
    a8d4:	0000c0a2 	.word	0x0000c0a2

0000a8d8 <__gethex>:
    a8d8:	e92d 4ff0 	stmdb	sp!, {r4, r5, r6, r7, r8, r9, sl, fp, lr}
    a8dc:	b089      	sub	sp, #36	; 0x24
    a8de:	4614      	mov	r4, r2
    a8e0:	9304      	str	r3, [sp, #16]
    a8e2:	9101      	str	r1, [sp, #4]
    a8e4:	9002      	str	r0, [sp, #8]
    a8e6:	f7fd f9c3 	bl	7c70 <_localeconv_r>
    a8ea:	6800      	ldr	r0, [r0, #0]
    a8ec:	9003      	str	r0, [sp, #12]
    a8ee:	f7f8 f9b9 	bl	2c64 <strlen>
    a8f2:	9a03      	ldr	r2, [sp, #12]
    a8f4:	1813      	adds	r3, r2, r0
    a8f6:	4681      	mov	r9, r0
    a8f8:	f813 3c01 	ldrb.w	r3, [r3, #-1]
    a8fc:	9305      	str	r3, [sp, #20]
    a8fe:	4b99      	ldr	r3, [pc, #612]	; (ab64 <__gethex+0x28c>)
    a900:	469b      	mov	fp, r3
    a902:	f893 2030 	ldrb.w	r2, [r3, #48]	; 0x30
    a906:	b90a      	cbnz	r2, a90c <__gethex+0x34>
    a908:	f7ff ffd0 	bl	a8ac <__hexdig_init>
    a90c:	9a01      	ldr	r2, [sp, #4]
    a90e:	f04f 0800 	mov.w	r8, #0
    a912:	6813      	ldr	r3, [r2, #0]
    a914:	3302      	adds	r3, #2
    a916:	e001      	b.n	a91c <__gethex+0x44>
    a918:	f108 0801 	add.w	r8, r8, #1
    a91c:	461f      	mov	r7, r3
    a91e:	f813 2b01 	ldrb.w	r2, [r3], #1
    a922:	2a30      	cmp	r2, #48	; 0x30
    a924:	d0f8      	beq.n	a918 <__gethex+0x40>
    a926:	f81b 6002 	ldrb.w	r6, [fp, r2]
    a92a:	b9de      	cbnz	r6, a964 <__gethex+0x8c>
    a92c:	4638      	mov	r0, r7
    a92e:	9903      	ldr	r1, [sp, #12]
    a930:	464a      	mov	r2, r9
    a932:	f7f8 f99f 	bl	2c74 <strncmp>
    a936:	2800      	cmp	r0, #0
    a938:	d139      	bne.n	a9ae <__gethex+0xd6>
    a93a:	f817 3009 	ldrb.w	r3, [r7, r9]
    a93e:	eb07 0a09 	add.w	sl, r7, r9
    a942:	4a88      	ldr	r2, [pc, #544]	; (ab64 <__gethex+0x28c>)
    a944:	5cd6      	ldrb	r6, [r2, r3]
    a946:	2e00      	cmp	r6, #0
    a948:	d032      	beq.n	a9b0 <__gethex+0xd8>
    a94a:	4653      	mov	r3, sl
    a94c:	461f      	mov	r7, r3
    a94e:	f813 2b01 	ldrb.w	r2, [r3], #1
    a952:	2a30      	cmp	r2, #48	; 0x30
    a954:	d0fa      	beq.n	a94c <__gethex+0x74>
    a956:	f81b 3002 	ldrb.w	r3, [fp, r2]
    a95a:	b933      	cbnz	r3, a96a <__gethex+0x92>
    a95c:	2501      	movs	r5, #1
    a95e:	4656      	mov	r6, sl
    a960:	46a8      	mov	r8, r5
    a962:	e006      	b.n	a972 <__gethex+0x9a>
    a964:	2500      	movs	r5, #0
    a966:	462e      	mov	r6, r5
    a968:	e003      	b.n	a972 <__gethex+0x9a>
    a96a:	4656      	mov	r6, sl
    a96c:	2500      	movs	r5, #0
    a96e:	f04f 0801 	mov.w	r8, #1
    a972:	463b      	mov	r3, r7
    a974:	469a      	mov	sl, r3
    a976:	f813 2b01 	ldrb.w	r2, [r3], #1
    a97a:	f81b 2002 	ldrb.w	r2, [fp, r2]
    a97e:	2a00      	cmp	r2, #0
    a980:	d1f8      	bne.n	a974 <__gethex+0x9c>
    a982:	4650      	mov	r0, sl
    a984:	9903      	ldr	r1, [sp, #12]
    a986:	464a      	mov	r2, r9
    a988:	f7f8 f974 	bl	2c74 <strncmp>
    a98c:	b950      	cbnz	r0, a9a4 <__gethex+0xcc>
    a98e:	b956      	cbnz	r6, a9a6 <__gethex+0xce>
    a990:	eb0a 0609 	add.w	r6, sl, r9
    a994:	4633      	mov	r3, r6
    a996:	781a      	ldrb	r2, [r3, #0]
    a998:	469a      	mov	sl, r3
    a99a:	3301      	adds	r3, #1
    a99c:	f81b 2002 	ldrb.w	r2, [fp, r2]
    a9a0:	2a00      	cmp	r2, #0
    a9a2:	d1f8      	bne.n	a996 <__gethex+0xbe>
    a9a4:	b12e      	cbz	r6, a9b2 <__gethex+0xda>
    a9a6:	ebca 0606 	rsb	r6, sl, r6
    a9aa:	00b6      	lsls	r6, r6, #2
    a9ac:	e001      	b.n	a9b2 <__gethex+0xda>
    a9ae:	46ba      	mov	sl, r7
    a9b0:	2501      	movs	r5, #1
    a9b2:	f89a 3000 	ldrb.w	r3, [sl]
    a9b6:	2b50      	cmp	r3, #80	; 0x50
    a9b8:	d001      	beq.n	a9be <__gethex+0xe6>
    a9ba:	2b70      	cmp	r3, #112	; 0x70
    a9bc:	d128      	bne.n	aa10 <__gethex+0x138>
    a9be:	f89a 3001 	ldrb.w	r3, [sl, #1]
    a9c2:	f10a 0001 	add.w	r0, sl, #1
    a9c6:	2b2b      	cmp	r3, #43	; 0x2b
    a9c8:	d002      	beq.n	a9d0 <__gethex+0xf8>
    a9ca:	2b2d      	cmp	r3, #45	; 0x2d
    a9cc:	d105      	bne.n	a9da <__gethex+0x102>
    a9ce:	e001      	b.n	a9d4 <__gethex+0xfc>
    a9d0:	2100      	movs	r1, #0
    a9d2:	e000      	b.n	a9d6 <__gethex+0xfe>
    a9d4:	2101      	movs	r1, #1
    a9d6:	3001      	adds	r0, #1
    a9d8:	e000      	b.n	a9dc <__gethex+0x104>
    a9da:	2100      	movs	r1, #0
    a9dc:	7803      	ldrb	r3, [r0, #0]
    a9de:	f81b 3003 	ldrb.w	r3, [fp, r3]
    a9e2:	b1ab      	cbz	r3, aa10 <__gethex+0x138>
    a9e4:	2b19      	cmp	r3, #25
    a9e6:	dc13      	bgt.n	aa10 <__gethex+0x138>
    a9e8:	3b10      	subs	r3, #16
    a9ea:	e004      	b.n	a9f6 <__gethex+0x11e>
    a9ec:	3810      	subs	r0, #16
    a9ee:	220a      	movs	r2, #10
    a9f0:	fb02 0303 	mla	r3, r2, r3, r0
    a9f4:	4660      	mov	r0, ip
    a9f6:	f100 0c01 	add.w	ip, r0, #1
    a9fa:	7840      	ldrb	r0, [r0, #1]
    a9fc:	4662      	mov	r2, ip
    a9fe:	f81b 0000 	ldrb.w	r0, [fp, r0]
    aa02:	b108      	cbz	r0, aa08 <__gethex+0x130>
    aa04:	2819      	cmp	r0, #25
    aa06:	ddf1      	ble.n	a9ec <__gethex+0x114>
    aa08:	b101      	cbz	r1, aa0c <__gethex+0x134>
    aa0a:	425b      	negs	r3, r3
    aa0c:	18f6      	adds	r6, r6, r3
    aa0e:	e000      	b.n	aa12 <__gethex+0x13a>
    aa10:	4652      	mov	r2, sl
    aa12:	9b01      	ldr	r3, [sp, #4]
    aa14:	601a      	str	r2, [r3, #0]
    aa16:	b13d      	cbz	r5, aa28 <__gethex+0x150>
    aa18:	f1b8 0f00 	cmp.w	r8, #0
    aa1c:	bf0c      	ite	eq
    aa1e:	f04f 0806 	moveq.w	r8, #6
    aa22:	f04f 0800 	movne.w	r8, #0
    aa26:	e182      	b.n	ad2e <__gethex+0x456>
    aa28:	f10a 33ff 	add.w	r3, sl, #4294967295
    aa2c:	4629      	mov	r1, r5
    aa2e:	1bdb      	subs	r3, r3, r7
    aa30:	e001      	b.n	aa36 <__gethex+0x15e>
    aa32:	3101      	adds	r1, #1
    aa34:	105b      	asrs	r3, r3, #1
    aa36:	2b07      	cmp	r3, #7
    aa38:	dcfb      	bgt.n	aa32 <__gethex+0x15a>
    aa3a:	9802      	ldr	r0, [sp, #8]
    aa3c:	f04f 0800 	mov.w	r8, #0
    aa40:	f7fd f9e1 	bl	7e06 <_Balloc>
    aa44:	9607      	str	r6, [sp, #28]
    aa46:	4626      	mov	r6, r4
    aa48:	4644      	mov	r4, r8
    aa4a:	f100 0214 	add.w	r2, r0, #20
    aa4e:	9006      	str	r0, [sp, #24]
    aa50:	9201      	str	r2, [sp, #4]
    aa52:	4694      	mov	ip, r2
    aa54:	e026      	b.n	aaa4 <__gethex+0x1cc>
    aa56:	f81a 2c01 	ldrb.w	r2, [sl, #-1]
    aa5a:	f10a 35ff 	add.w	r5, sl, #4294967295
    aa5e:	9b05      	ldr	r3, [sp, #20]
    aa60:	429a      	cmp	r2, r3
    aa62:	d10e      	bne.n	aa82 <__gethex+0x1aa>
    aa64:	f1c9 0a01 	rsb	sl, r9, #1
    aa68:	44aa      	add	sl, r5
    aa6a:	45ba      	cmp	sl, r7
    aa6c:	d309      	bcc.n	aa82 <__gethex+0x1aa>
    aa6e:	4650      	mov	r0, sl
    aa70:	9903      	ldr	r1, [sp, #12]
    aa72:	464a      	mov	r2, r9
    aa74:	f8cd c000 	str.w	ip, [sp]
    aa78:	f7f8 f8fc 	bl	2c74 <strncmp>
    aa7c:	f8dd c000 	ldr.w	ip, [sp]
    aa80:	b180      	cbz	r0, aaa4 <__gethex+0x1cc>
    aa82:	2c20      	cmp	r4, #32
    aa84:	d104      	bne.n	aa90 <__gethex+0x1b8>
    aa86:	f84c 8b04 	str.w	r8, [ip], #4
    aa8a:	f04f 0800 	mov.w	r8, #0
    aa8e:	4644      	mov	r4, r8
    aa90:	782a      	ldrb	r2, [r5, #0]
    aa92:	46aa      	mov	sl, r5
    aa94:	f81b 2002 	ldrb.w	r2, [fp, r2]
    aa98:	f002 020f 	and.w	r2, r2, #15
    aa9c:	40a2      	lsls	r2, r4
    aa9e:	3404      	adds	r4, #4
    aaa0:	ea48 0802 	orr.w	r8, r8, r2
    aaa4:	45ba      	cmp	sl, r7
    aaa6:	d8d6      	bhi.n	aa56 <__gethex+0x17e>
    aaa8:	9d06      	ldr	r5, [sp, #24]
    aaaa:	4663      	mov	r3, ip
    aaac:	4634      	mov	r4, r6
    aaae:	9e07      	ldr	r6, [sp, #28]
    aab0:	f105 0714 	add.w	r7, r5, #20
    aab4:	f843 8b04 	str.w	r8, [r3], #4
    aab8:	1bdf      	subs	r7, r3, r7
    aaba:	4640      	mov	r0, r8
    aabc:	10bf      	asrs	r7, r7, #2
    aabe:	612f      	str	r7, [r5, #16]
    aac0:	f7fd fa65 	bl	7f8e <__hi0bits>
    aac4:	017f      	lsls	r7, r7, #5
    aac6:	ebc0 0807 	rsb	r8, r0, r7
    aaca:	6827      	ldr	r7, [r4, #0]
    aacc:	45b8      	cmp	r8, r7
    aace:	dd2c      	ble.n	ab2a <__gethex+0x252>
    aad0:	ebc7 0808 	rsb	r8, r7, r8
    aad4:	4628      	mov	r0, r5
    aad6:	4641      	mov	r1, r8
    aad8:	f7fd fd70 	bl	85bc <__any_on>
    aadc:	b1d8      	cbz	r0, ab16 <__gethex+0x23e>
    aade:	f108 31ff 	add.w	r1, r8, #4294967295
    aae2:	f04f 0901 	mov.w	r9, #1
    aae6:	f001 021f 	and.w	r2, r1, #31
    aaea:	114b      	asrs	r3, r1, #5
    aaec:	fa09 f202 	lsl.w	r2, r9, r2
    aaf0:	eb05 0383 	add.w	r3, r5, r3, lsl #2
    aaf4:	695b      	ldr	r3, [r3, #20]
    aaf6:	421a      	tst	r2, r3
    aaf8:	d011      	beq.n	ab1e <__gethex+0x246>
    aafa:	4549      	cmp	r1, r9
    aafc:	dd0d      	ble.n	ab1a <__gethex+0x242>
    aafe:	4628      	mov	r0, r5
    ab00:	f1a8 0102 	sub.w	r1, r8, #2
    ab04:	f7fd fd5a 	bl	85bc <__any_on>
    ab08:	2800      	cmp	r0, #0
    ab0a:	bf14      	ite	ne
    ab0c:	f04f 0903 	movne.w	r9, #3
    ab10:	f04f 0902 	moveq.w	r9, #2
    ab14:	e003      	b.n	ab1e <__gethex+0x246>
    ab16:	4681      	mov	r9, r0
    ab18:	e001      	b.n	ab1e <__gethex+0x246>
    ab1a:	f04f 0902 	mov.w	r9, #2
    ab1e:	4628      	mov	r0, r5
    ab20:	4641      	mov	r1, r8
    ab22:	f7ff fe7f 	bl	a824 <rshift>
    ab26:	4446      	add	r6, r8
    ab28:	e00f      	b.n	ab4a <__gethex+0x272>
    ab2a:	da0c      	bge.n	ab46 <__gethex+0x26e>
    ab2c:	ebc8 0807 	rsb	r8, r8, r7
    ab30:	4629      	mov	r1, r5
    ab32:	4642      	mov	r2, r8
    ab34:	9802      	ldr	r0, [sp, #8]
    ab36:	f7fd fb69 	bl	820c <__lshift>
    ab3a:	ebc8 0606 	rsb	r6, r8, r6
    ab3e:	4605      	mov	r5, r0
    ab40:	f100 0214 	add.w	r2, r0, #20
    ab44:	9201      	str	r2, [sp, #4]
    ab46:	f04f 0900 	mov.w	r9, #0
    ab4a:	68a3      	ldr	r3, [r4, #8]
    ab4c:	429e      	cmp	r6, r3
    ab4e:	dd0b      	ble.n	ab68 <__gethex+0x290>
    ab50:	9802      	ldr	r0, [sp, #8]
    ab52:	4629      	mov	r1, r5
    ab54:	f7fd f988 	bl	7e68 <_Bfree>
    ab58:	9a12      	ldr	r2, [sp, #72]	; 0x48
    ab5a:	2300      	movs	r3, #0
    ab5c:	f04f 08a3 	mov.w	r8, #163	; 0xa3
    ab60:	6013      	str	r3, [r2, #0]
    ab62:	e0e4      	b.n	ad2e <__gethex+0x456>
    ab64:	10000644 	.word	0x10000644
    ab68:	6863      	ldr	r3, [r4, #4]
    ab6a:	429e      	cmp	r6, r3
    ab6c:	da56      	bge.n	ac1c <__gethex+0x344>
    ab6e:	1b9e      	subs	r6, r3, r6
    ab70:	42be      	cmp	r6, r7
    ab72:	db2b      	blt.n	abcc <__gethex+0x2f4>
    ab74:	68e3      	ldr	r3, [r4, #12]
    ab76:	2b02      	cmp	r3, #2
    ab78:	d00d      	beq.n	ab96 <__gethex+0x2be>
    ab7a:	2b03      	cmp	r3, #3
    ab7c:	d00e      	beq.n	ab9c <__gethex+0x2c4>
    ab7e:	2b01      	cmp	r3, #1
    ab80:	d11a      	bne.n	abb8 <__gethex+0x2e0>
    ab82:	42be      	cmp	r6, r7
    ab84:	d118      	bne.n	abb8 <__gethex+0x2e0>
    ab86:	2f01      	cmp	r7, #1
    ab88:	dd0a      	ble.n	aba0 <__gethex+0x2c8>
    ab8a:	4628      	mov	r0, r5
    ab8c:	1e79      	subs	r1, r7, #1
    ab8e:	f7fd fd15 	bl	85bc <__any_on>
    ab92:	b928      	cbnz	r0, aba0 <__gethex+0x2c8>
    ab94:	e010      	b.n	abb8 <__gethex+0x2e0>
    ab96:	9b13      	ldr	r3, [sp, #76]	; 0x4c
    ab98:	b113      	cbz	r3, aba0 <__gethex+0x2c8>
    ab9a:	e00d      	b.n	abb8 <__gethex+0x2e0>
    ab9c:	9a13      	ldr	r2, [sp, #76]	; 0x4c
    ab9e:	b15a      	cbz	r2, abb8 <__gethex+0x2e0>
    aba0:	6863      	ldr	r3, [r4, #4]
    aba2:	f04f 0862 	mov.w	r8, #98	; 0x62
    aba6:	9a04      	ldr	r2, [sp, #16]
    aba8:	6013      	str	r3, [r2, #0]
    abaa:	2301      	movs	r3, #1
    abac:	9a01      	ldr	r2, [sp, #4]
    abae:	612b      	str	r3, [r5, #16]
    abb0:	6013      	str	r3, [r2, #0]
    abb2:	9b12      	ldr	r3, [sp, #72]	; 0x48
    abb4:	601d      	str	r5, [r3, #0]
    abb6:	e0ba      	b.n	ad2e <__gethex+0x456>
    abb8:	9802      	ldr	r0, [sp, #8]
    abba:	4629      	mov	r1, r5
    abbc:	f7fd f954 	bl	7e68 <_Bfree>
    abc0:	9a12      	ldr	r2, [sp, #72]	; 0x48
    abc2:	2300      	movs	r3, #0
    abc4:	f04f 0850 	mov.w	r8, #80	; 0x50
    abc8:	6013      	str	r3, [r2, #0]
    abca:	e0b0      	b.n	ad2e <__gethex+0x456>
    abcc:	f106 38ff 	add.w	r8, r6, #4294967295
    abd0:	f1b9 0f00 	cmp.w	r9, #0
    abd4:	d108      	bne.n	abe8 <__gethex+0x310>
    abd6:	f1b8 0f00 	cmp.w	r8, #0
    abda:	dd07      	ble.n	abec <__gethex+0x314>
    abdc:	4628      	mov	r0, r5
    abde:	4641      	mov	r1, r8
    abe0:	f7fd fcec 	bl	85bc <__any_on>
    abe4:	4681      	mov	r9, r0
    abe6:	e001      	b.n	abec <__gethex+0x314>
    abe8:	f04f 0901 	mov.w	r9, #1
    abec:	2201      	movs	r2, #1
    abee:	ea4f 1368 	mov.w	r3, r8, asr #5
    abf2:	f008 081f 	and.w	r8, r8, #31
    abf6:	4631      	mov	r1, r6
    abf8:	fa02 f808 	lsl.w	r8, r2, r8
    abfc:	9a01      	ldr	r2, [sp, #4]
    abfe:	4628      	mov	r0, r5
    ac00:	1bbf      	subs	r7, r7, r6
    ac02:	f852 3023 	ldr.w	r3, [r2, r3, lsl #2]
    ac06:	ea18 0f03 	tst.w	r8, r3
    ac0a:	f04f 0802 	mov.w	r8, #2
    ac0e:	bf18      	it	ne
    ac10:	f049 0902 	orrne.w	r9, r9, #2
    ac14:	f7ff fe06 	bl	a824 <rshift>
    ac18:	6866      	ldr	r6, [r4, #4]
    ac1a:	e001      	b.n	ac20 <__gethex+0x348>
    ac1c:	f04f 0801 	mov.w	r8, #1
    ac20:	f1b9 0f00 	cmp.w	r9, #0
    ac24:	d07f      	beq.n	ad26 <__gethex+0x44e>
    ac26:	68e3      	ldr	r3, [r4, #12]
    ac28:	2b02      	cmp	r3, #2
    ac2a:	d00e      	beq.n	ac4a <__gethex+0x372>
    ac2c:	2b03      	cmp	r3, #3
    ac2e:	d010      	beq.n	ac52 <__gethex+0x37a>
    ac30:	2b01      	cmp	r3, #1
    ac32:	d176      	bne.n	ad22 <__gethex+0x44a>
    ac34:	f019 0f02 	tst.w	r9, #2
    ac38:	d073      	beq.n	ad22 <__gethex+0x44a>
    ac3a:	9a01      	ldr	r2, [sp, #4]
    ac3c:	6813      	ldr	r3, [r2, #0]
    ac3e:	ea49 0903 	orr.w	r9, r9, r3
    ac42:	f019 0f01 	tst.w	r9, #1
    ac46:	d107      	bne.n	ac58 <__gethex+0x380>
    ac48:	e06b      	b.n	ad22 <__gethex+0x44a>
    ac4a:	9a13      	ldr	r2, [sp, #76]	; 0x4c
    ac4c:	f1c2 0301 	rsb	r3, r2, #1
    ac50:	e000      	b.n	ac54 <__gethex+0x37c>
    ac52:	9b13      	ldr	r3, [sp, #76]	; 0x4c
    ac54:	2b00      	cmp	r3, #0
    ac56:	d064      	beq.n	ad22 <__gethex+0x44a>
    ac58:	f8d5 9010 	ldr.w	r9, [r5, #16]
    ac5c:	f105 0314 	add.w	r3, r5, #20
    ac60:	eb05 0089 	add.w	r0, r5, r9, lsl #2
    ac64:	3014      	adds	r0, #20
    ac66:	4619      	mov	r1, r3
    ac68:	f853 2b04 	ldr.w	r2, [r3], #4
    ac6c:	f1b2 3fff 	cmp.w	r2, #4294967295
    ac70:	d002      	beq.n	ac78 <__gethex+0x3a0>
    ac72:	3201      	adds	r2, #1
    ac74:	600a      	str	r2, [r1, #0]
    ac76:	e021      	b.n	acbc <__gethex+0x3e4>
    ac78:	2200      	movs	r2, #0
    ac7a:	4298      	cmp	r0, r3
    ac7c:	f843 2c04 	str.w	r2, [r3, #-4]
    ac80:	d8f1      	bhi.n	ac66 <__gethex+0x38e>
    ac82:	68ab      	ldr	r3, [r5, #8]
    ac84:	4599      	cmp	r9, r3
    ac86:	db12      	blt.n	acae <__gethex+0x3d6>
    ac88:	6869      	ldr	r1, [r5, #4]
    ac8a:	9802      	ldr	r0, [sp, #8]
    ac8c:	3101      	adds	r1, #1
    ac8e:	f7fd f8ba 	bl	7e06 <_Balloc>
    ac92:	692a      	ldr	r2, [r5, #16]
    ac94:	f105 010c 	add.w	r1, r5, #12
    ac98:	3202      	adds	r2, #2
    ac9a:	0092      	lsls	r2, r2, #2
    ac9c:	4682      	mov	sl, r0
    ac9e:	300c      	adds	r0, #12
    aca0:	f7f7 fcd6 	bl	2650 <memcpy>
    aca4:	4629      	mov	r1, r5
    aca6:	9802      	ldr	r0, [sp, #8]
    aca8:	4655      	mov	r5, sl
    acaa:	f7fd f8dd 	bl	7e68 <_Bfree>
    acae:	692b      	ldr	r3, [r5, #16]
    acb0:	2101      	movs	r1, #1
    acb2:	eb05 0283 	add.w	r2, r5, r3, lsl #2
    acb6:	185b      	adds	r3, r3, r1
    acb8:	612b      	str	r3, [r5, #16]
    acba:	6151      	str	r1, [r2, #20]
    acbc:	f1b8 0f02 	cmp.w	r8, #2
    acc0:	d112      	bne.n	ace8 <__gethex+0x410>
    acc2:	6823      	ldr	r3, [r4, #0]
    acc4:	3b01      	subs	r3, #1
    acc6:	429f      	cmp	r7, r3
    acc8:	d128      	bne.n	ad1c <__gethex+0x444>
    acca:	f007 031f 	and.w	r3, r7, #31
    acce:	117f      	asrs	r7, r7, #5
    acd0:	2201      	movs	r2, #1
    acd2:	eb05 0787 	add.w	r7, r5, r7, lsl #2
    acd6:	409a      	lsls	r2, r3
    acd8:	697b      	ldr	r3, [r7, #20]
    acda:	421a      	tst	r2, r3
    acdc:	bf0c      	ite	eq
    acde:	f04f 0802 	moveq.w	r8, #2
    ace2:	f04f 0801 	movne.w	r8, #1
    ace6:	e019      	b.n	ad1c <__gethex+0x444>
    ace8:	692b      	ldr	r3, [r5, #16]
    acea:	454b      	cmp	r3, r9
    acec:	dc0b      	bgt.n	ad06 <__gethex+0x42e>
    acee:	f017 071f 	ands.w	r7, r7, #31
    acf2:	d011      	beq.n	ad18 <__gethex+0x440>
    acf4:	eb05 0389 	add.w	r3, r5, r9, lsl #2
    acf8:	f1c7 0720 	rsb	r7, r7, #32
    acfc:	6918      	ldr	r0, [r3, #16]
    acfe:	f7fd f946 	bl	7f8e <__hi0bits>
    ad02:	42b8      	cmp	r0, r7
    ad04:	da08      	bge.n	ad18 <__gethex+0x440>
    ad06:	2101      	movs	r1, #1
    ad08:	4628      	mov	r0, r5
    ad0a:	f7ff fd8b 	bl	a824 <rshift>
    ad0e:	68a3      	ldr	r3, [r4, #8]
    ad10:	3601      	adds	r6, #1
    ad12:	429e      	cmp	r6, r3
    ad14:	f73f af1c 	bgt.w	ab50 <__gethex+0x278>
    ad18:	f04f 0801 	mov.w	r8, #1
    ad1c:	f048 0820 	orr.w	r8, r8, #32
    ad20:	e001      	b.n	ad26 <__gethex+0x44e>
    ad22:	f048 0810 	orr.w	r8, r8, #16
    ad26:	9b12      	ldr	r3, [sp, #72]	; 0x48
    ad28:	9a04      	ldr	r2, [sp, #16]
    ad2a:	601d      	str	r5, [r3, #0]
    ad2c:	6016      	str	r6, [r2, #0]
    ad2e:	4640      	mov	r0, r8
    ad30:	b009      	add	sp, #36	; 0x24
    ad32:	e8bd 8ff0 	ldmia.w	sp!, {r4, r5, r6, r7, r8, r9, sl, fp, pc}
    ad36:	bf00      	nop

0000ad38 <L_shift>:
    ad38:	f1c2 0208 	rsb	r2, r2, #8
    ad3c:	4603      	mov	r3, r0
    ad3e:	b5f0      	push	{r4, r5, r6, r7, lr}
    ad40:	0092      	lsls	r2, r2, #2
    ad42:	f1c2 0620 	rsb	r6, r2, #32
    ad46:	4605      	mov	r5, r0
    ad48:	4604      	mov	r4, r0
    ad4a:	f855 cf04 	ldr.w	ip, [r5, #4]!
    ad4e:	6807      	ldr	r7, [r0, #0]
    ad50:	fa0c fc06 	lsl.w	ip, ip, r6
    ad54:	ea4c 0707 	orr.w	r7, ip, r7
    ad58:	f840 7b04 	str.w	r7, [r0], #4
    ad5c:	f853 7f04 	ldr.w	r7, [r3, #4]!
    ad60:	40d7      	lsrs	r7, r2
    ad62:	4288      	cmp	r0, r1
    ad64:	f844 7f04 	str.w	r7, [r4, #4]!
    ad68:	d3ef      	bcc.n	ad4a <L_shift+0x12>
    ad6a:	bdf0      	pop	{r4, r5, r6, r7, pc}

0000ad6c <__hexnan>:
    ad6c:	4b45      	ldr	r3, [pc, #276]	; (ae84 <__hexnan+0x118>)
    ad6e:	e92d 4ff7 	stmdb	sp!, {r0, r1, r2, r4, r5, r6, r7, r8, r9, sl, fp, lr}
    ad72:	4615      	mov	r5, r2
    ad74:	f893 2030 	ldrb.w	r2, [r3, #48]	; 0x30
    ad78:	460c      	mov	r4, r1
    ad7a:	9001      	str	r0, [sp, #4]
    ad7c:	b90a      	cbnz	r2, ad82 <__hexnan+0x16>
    ad7e:	f7ff fd95 	bl	a8ac <__hexdig_init>
    ad82:	6823      	ldr	r3, [r4, #0]
    ad84:	9801      	ldr	r0, [sp, #4]
    ad86:	115f      	asrs	r7, r3, #5
    ad88:	f013 031f 	ands.w	r3, r3, #31
    ad8c:	9300      	str	r3, [sp, #0]
    ad8e:	eb05 0787 	add.w	r7, r5, r7, lsl #2
    ad92:	6803      	ldr	r3, [r0, #0]
    ad94:	bf18      	it	ne
    ad96:	3704      	addne	r7, #4
    ad98:	2200      	movs	r2, #0
    ad9a:	1f3e      	subs	r6, r7, #4
    ad9c:	4692      	mov	sl, r2
    ad9e:	f847 2c04 	str.w	r2, [r7, #-4]
    ada2:	46b0      	mov	r8, r6
    ada4:	4634      	mov	r4, r6
    ada6:	4691      	mov	r9, r2
    ada8:	e031      	b.n	ae0e <__hexnan+0xa2>
    adaa:	4836      	ldr	r0, [pc, #216]	; (ae84 <__hexnan+0x118>)
    adac:	5cc1      	ldrb	r1, [r0, r3]
    adae:	b9d1      	cbnz	r1, ade6 <__hexnan+0x7a>
    adb0:	2b20      	cmp	r3, #32
    adb2:	d811      	bhi.n	add8 <__hexnan+0x6c>
    adb4:	45ca      	cmp	sl, r9
    adb6:	da29      	bge.n	ae0c <__hexnan+0xa0>
    adb8:	4544      	cmp	r4, r8
    adba:	d205      	bcs.n	adc8 <__hexnan+0x5c>
    adbc:	2a07      	cmp	r2, #7
    adbe:	dc03      	bgt.n	adc8 <__hexnan+0x5c>
    adc0:	4620      	mov	r0, r4
    adc2:	4641      	mov	r1, r8
    adc4:	f7ff ffb8 	bl	ad38 <L_shift>
    adc8:	42ac      	cmp	r4, r5
    adca:	d91e      	bls.n	ae0a <__hexnan+0x9e>
    adcc:	2200      	movs	r2, #0
    adce:	46ca      	mov	sl, r9
    add0:	f844 2d04 	str.w	r2, [r4, #-4]!
    add4:	46a0      	mov	r8, r4
    add6:	e019      	b.n	ae0c <__hexnan+0xa0>
    add8:	2b29      	cmp	r3, #41	; 0x29
    adda:	d14d      	bne.n	ae78 <__hexnan+0x10c>
    addc:	9901      	ldr	r1, [sp, #4]
    adde:	f10b 0301 	add.w	r3, fp, #1
    ade2:	600b      	str	r3, [r1, #0]
    ade4:	e018      	b.n	ae18 <__hexnan+0xac>
    ade6:	3201      	adds	r2, #1
    ade8:	f109 0901 	add.w	r9, r9, #1
    adec:	2a08      	cmp	r2, #8
    adee:	dd05      	ble.n	adfc <__hexnan+0x90>
    adf0:	42ac      	cmp	r4, r5
    adf2:	d90b      	bls.n	ae0c <__hexnan+0xa0>
    adf4:	2201      	movs	r2, #1
    adf6:	2300      	movs	r3, #0
    adf8:	f844 3d04 	str.w	r3, [r4, #-4]!
    adfc:	6823      	ldr	r3, [r4, #0]
    adfe:	f001 010f 	and.w	r1, r1, #15
    ae02:	ea41 1103 	orr.w	r1, r1, r3, lsl #4
    ae06:	6021      	str	r1, [r4, #0]
    ae08:	e000      	b.n	ae0c <__hexnan+0xa0>
    ae0a:	2208      	movs	r2, #8
    ae0c:	465b      	mov	r3, fp
    ae0e:	f103 0b01 	add.w	fp, r3, #1
    ae12:	785b      	ldrb	r3, [r3, #1]
    ae14:	2b00      	cmp	r3, #0
    ae16:	d1c8      	bne.n	adaa <__hexnan+0x3e>
    ae18:	f1b9 0f00 	cmp.w	r9, #0
    ae1c:	d02c      	beq.n	ae78 <__hexnan+0x10c>
    ae1e:	4544      	cmp	r4, r8
    ae20:	d205      	bcs.n	ae2e <__hexnan+0xc2>
    ae22:	2a07      	cmp	r2, #7
    ae24:	dc03      	bgt.n	ae2e <__hexnan+0xc2>
    ae26:	4620      	mov	r0, r4
    ae28:	4641      	mov	r1, r8
    ae2a:	f7ff ff85 	bl	ad38 <L_shift>
    ae2e:	42ac      	cmp	r4, r5
    ae30:	d90d      	bls.n	ae4e <__hexnan+0xe2>
    ae32:	462b      	mov	r3, r5
    ae34:	f854 2b04 	ldr.w	r2, [r4], #4
    ae38:	42a6      	cmp	r6, r4
    ae3a:	f843 2b04 	str.w	r2, [r3], #4
    ae3e:	461a      	mov	r2, r3
    ae40:	d2f8      	bcs.n	ae34 <__hexnan+0xc8>
    ae42:	2300      	movs	r3, #0
    ae44:	f842 3b04 	str.w	r3, [r2], #4
    ae48:	42b2      	cmp	r2, r6
    ae4a:	d9fa      	bls.n	ae42 <__hexnan+0xd6>
    ae4c:	e00b      	b.n	ae66 <__hexnan+0xfa>
    ae4e:	9a00      	ldr	r2, [sp, #0]
    ae50:	b14a      	cbz	r2, ae66 <__hexnan+0xfa>
    ae52:	f1c2 0320 	rsb	r3, r2, #32
    ae56:	f04f 32ff 	mov.w	r2, #4294967295
    ae5a:	fa32 f303 	lsrs.w	r3, r2, r3
    ae5e:	6832      	ldr	r2, [r6, #0]
    ae60:	ea02 0303 	and.w	r3, r2, r3
    ae64:	6033      	str	r3, [r6, #0]
    ae66:	f857 3c04 	ldr.w	r3, [r7, #-4]
    ae6a:	3f04      	subs	r7, #4
    ae6c:	b933      	cbnz	r3, ae7c <__hexnan+0x110>
    ae6e:	42bd      	cmp	r5, r7
    ae70:	d1f9      	bne.n	ae66 <__hexnan+0xfa>
    ae72:	3301      	adds	r3, #1
    ae74:	602b      	str	r3, [r5, #0]
    ae76:	e001      	b.n	ae7c <__hexnan+0x110>
    ae78:	2004      	movs	r0, #4
    ae7a:	e000      	b.n	ae7e <__hexnan+0x112>
    ae7c:	2005      	movs	r0, #5
    ae7e:	e8bd 8ffe 	ldmia.w	sp!, {r1, r2, r3, r4, r5, r6, r7, r8, r9, sl, fp, pc}
    ae82:	bf00      	nop
    ae84:	10000644 	.word	0x10000644

0000ae88 <_isatty_r>:
    ae88:	b538      	push	{r3, r4, r5, lr}
    ae8a:	4605      	mov	r5, r0
    ae8c:	4c06      	ldr	r4, [pc, #24]	; (aea8 <_isatty_r+0x20>)
    ae8e:	4608      	mov	r0, r1
    ae90:	2300      	movs	r3, #0
    ae92:	6023      	str	r3, [r4, #0]
    ae94:	f7f5 fa8e 	bl	3b4 <_isatty>
    ae98:	f1b0 3fff 	cmp.w	r0, #4294967295
    ae9c:	d102      	bne.n	aea4 <_isatty_r+0x1c>
    ae9e:	6823      	ldr	r3, [r4, #0]
    aea0:	b103      	cbz	r3, aea4 <_isatty_r+0x1c>
    aea2:	602b      	str	r3, [r5, #0]
    aea4:	bd38      	pop	{r3, r4, r5, pc}
    aea6:	bf00      	nop
    aea8:	10000640 	.word	0x10000640

0000aeac <__swbuf_r>:
    aeac:	b570      	push	{r4, r5, r6, lr}
    aeae:	460c      	mov	r4, r1
    aeb0:	4615      	mov	r5, r2
    aeb2:	4606      	mov	r6, r0
    aeb4:	b118      	cbz	r0, aebe <__swbuf_r+0x12>
    aeb6:	6983      	ldr	r3, [r0, #24]
    aeb8:	b90b      	cbnz	r3, aebe <__swbuf_r+0x12>
    aeba:	f7fc fc8b 	bl	77d4 <__sinit>
    aebe:	4b2b      	ldr	r3, [pc, #172]	; (af6c <__swbuf_r+0xc0>)
    aec0:	429d      	cmp	r5, r3
    aec2:	d101      	bne.n	aec8 <__swbuf_r+0x1c>
    aec4:	6875      	ldr	r5, [r6, #4]
    aec6:	e008      	b.n	aeda <__swbuf_r+0x2e>
    aec8:	4b29      	ldr	r3, [pc, #164]	; (af70 <__swbuf_r+0xc4>)
    aeca:	429d      	cmp	r5, r3
    aecc:	d101      	bne.n	aed2 <__swbuf_r+0x26>
    aece:	68b5      	ldr	r5, [r6, #8]
    aed0:	e003      	b.n	aeda <__swbuf_r+0x2e>
    aed2:	4b28      	ldr	r3, [pc, #160]	; (af74 <__swbuf_r+0xc8>)
    aed4:	429d      	cmp	r5, r3
    aed6:	bf08      	it	eq
    aed8:	68f5      	ldreq	r5, [r6, #12]
    aeda:	69ab      	ldr	r3, [r5, #24]
    aedc:	60ab      	str	r3, [r5, #8]
    aede:	89ab      	ldrh	r3, [r5, #12]
    aee0:	f013 0f08 	tst.w	r3, #8
    aee4:	d001      	beq.n	aeea <__swbuf_r+0x3e>
    aee6:	692b      	ldr	r3, [r5, #16]
    aee8:	b95b      	cbnz	r3, af02 <__swbuf_r+0x56>
    aeea:	4630      	mov	r0, r6
    aeec:	4629      	mov	r1, r5
    aeee:	f7fb fc2d 	bl	674c <__swsetup_r>
    aef2:	b130      	cbz	r0, af02 <__swbuf_r+0x56>
    aef4:	89ab      	ldrh	r3, [r5, #12]
    aef6:	f043 0340 	orr.w	r3, r3, #64	; 0x40
    aefa:	81ab      	strh	r3, [r5, #12]
    aefc:	2309      	movs	r3, #9
    aefe:	6033      	str	r3, [r6, #0]
    af00:	e030      	b.n	af64 <__swbuf_r+0xb8>
    af02:	89ab      	ldrh	r3, [r5, #12]
    af04:	f413 5f00 	tst.w	r3, #8192	; 0x2000
    af08:	d106      	bne.n	af18 <__swbuf_r+0x6c>
    af0a:	f443 5300 	orr.w	r3, r3, #8192	; 0x2000
    af0e:	81ab      	strh	r3, [r5, #12]
    af10:	6e6b      	ldr	r3, [r5, #100]	; 0x64
    af12:	f423 5300 	bic.w	r3, r3, #8192	; 0x2000
    af16:	666b      	str	r3, [r5, #100]	; 0x64
    af18:	692b      	ldr	r3, [r5, #16]
    af1a:	6828      	ldr	r0, [r5, #0]
    af1c:	1ac0      	subs	r0, r0, r3
    af1e:	696b      	ldr	r3, [r5, #20]
    af20:	4298      	cmp	r0, r3
    af22:	db04      	blt.n	af2e <__swbuf_r+0x82>
    af24:	4630      	mov	r0, r6
    af26:	4629      	mov	r1, r5
    af28:	f7fc fb4a 	bl	75c0 <_fflush_r>
    af2c:	b9d0      	cbnz	r0, af64 <__swbuf_r+0xb8>
    af2e:	68ab      	ldr	r3, [r5, #8]
    af30:	b2e4      	uxtb	r4, r4
    af32:	3001      	adds	r0, #1
    af34:	3b01      	subs	r3, #1
    af36:	60ab      	str	r3, [r5, #8]
    af38:	682b      	ldr	r3, [r5, #0]
    af3a:	f803 4b01 	strb.w	r4, [r3], #1
    af3e:	602b      	str	r3, [r5, #0]
    af40:	696b      	ldr	r3, [r5, #20]
    af42:	4298      	cmp	r0, r3
    af44:	d005      	beq.n	af52 <__swbuf_r+0xa6>
    af46:	89ab      	ldrh	r3, [r5, #12]
    af48:	f013 0f01 	tst.w	r3, #1
    af4c:	d00c      	beq.n	af68 <__swbuf_r+0xbc>
    af4e:	2c0a      	cmp	r4, #10
    af50:	d10a      	bne.n	af68 <__swbuf_r+0xbc>
    af52:	4630      	mov	r0, r6
    af54:	4629      	mov	r1, r5
    af56:	f7fc fb33 	bl	75c0 <_fflush_r>
    af5a:	2800      	cmp	r0, #0
    af5c:	bf18      	it	ne
    af5e:	f04f 34ff 	movne.w	r4, #4294967295
    af62:	e001      	b.n	af68 <__swbuf_r+0xbc>
    af64:	f04f 34ff 	mov.w	r4, #4294967295
    af68:	4620      	mov	r0, r4
    af6a:	bd70      	pop	{r4, r5, r6, pc}
    af6c:	0000c280 	.word	0x0000c280
    af70:	0000c2a0 	.word	0x0000c2a0
    af74:	0000c2c0 	.word	0x0000c2c0

0000af78 <_wcrtomb_r>:
    af78:	e92d 41f0 	stmdb	sp!, {r4, r5, r6, r7, r8, lr}
    af7c:	461d      	mov	r5, r3
    af7e:	b086      	sub	sp, #24
    af80:	4604      	mov	r4, r0
    af82:	4617      	mov	r7, r2
    af84:	4688      	mov	r8, r1
    af86:	4b0f      	ldr	r3, [pc, #60]	; (afc4 <_wcrtomb_r+0x4c>)
    af88:	b941      	cbnz	r1, af9c <_wcrtomb_r+0x24>
    af8a:	681e      	ldr	r6, [r3, #0]
    af8c:	f7fc fe66 	bl	7c5c <__locale_charset>
    af90:	9500      	str	r5, [sp, #0]
    af92:	a903      	add	r1, sp, #12
    af94:	4642      	mov	r2, r8
    af96:	4603      	mov	r3, r0
    af98:	4620      	mov	r0, r4
    af9a:	e007      	b.n	afac <_wcrtomb_r+0x34>
    af9c:	681e      	ldr	r6, [r3, #0]
    af9e:	f7fc fe5d 	bl	7c5c <__locale_charset>
    afa2:	4641      	mov	r1, r8
    afa4:	463a      	mov	r2, r7
    afa6:	9500      	str	r5, [sp, #0]
    afa8:	4603      	mov	r3, r0
    afaa:	4620      	mov	r0, r4
    afac:	47b0      	blx	r6
    afae:	f1b0 3fff 	cmp.w	r0, #4294967295
    afb2:	d103      	bne.n	afbc <_wcrtomb_r+0x44>
    afb4:	2300      	movs	r3, #0
    afb6:	602b      	str	r3, [r5, #0]
    afb8:	338a      	adds	r3, #138	; 0x8a
    afba:	6023      	str	r3, [r4, #0]
    afbc:	b006      	add	sp, #24
    afbe:	e8bd 81f0 	ldmia.w	sp!, {r4, r5, r6, r7, r8, pc}
    afc2:	bf00      	nop
    afc4:	100005ac 	.word	0x100005ac

0000afc8 <__ascii_wctomb>:
    afc8:	b149      	cbz	r1, afde <__ascii_wctomb+0x16>
    afca:	2aff      	cmp	r2, #255	; 0xff
    afcc:	d904      	bls.n	afd8 <__ascii_wctomb+0x10>
    afce:	238a      	movs	r3, #138	; 0x8a
    afd0:	6003      	str	r3, [r0, #0]
    afd2:	f04f 30ff 	mov.w	r0, #4294967295
    afd6:	4770      	bx	lr
    afd8:	700a      	strb	r2, [r1, #0]
    afda:	2001      	movs	r0, #1
    afdc:	4770      	bx	lr
    afde:	4608      	mov	r0, r1
    afe0:	4770      	bx	lr
    afe2:	0000      	movs	r0, r0
    afe4:	0000      	movs	r0, r0
	...

0000afe8 <__aeabi_uidiv>:
    afe8:	1e4a      	subs	r2, r1, #1
    afea:	bf08      	it	eq
    afec:	4770      	bxeq	lr
    afee:	f0c0 8124 	bcc.w	b23a <__aeabi_uidiv+0x252>
    aff2:	4288      	cmp	r0, r1
    aff4:	f240 8116 	bls.w	b224 <__aeabi_uidiv+0x23c>
    aff8:	4211      	tst	r1, r2
    affa:	f000 8117 	beq.w	b22c <__aeabi_uidiv+0x244>
    affe:	fab0 f380 	clz	r3, r0
    b002:	fab1 f281 	clz	r2, r1
    b006:	eba2 0303 	sub.w	r3, r2, r3
    b00a:	f1c3 031f 	rsb	r3, r3, #31
    b00e:	a204      	add	r2, pc, #16	; (adr r2, b020 <__aeabi_uidiv+0x38>)
    b010:	eb02 1303 	add.w	r3, r2, r3, lsl #4
    b014:	f04f 0200 	mov.w	r2, #0
    b018:	469f      	mov	pc, r3
    b01a:	bf00      	nop
    b01c:	f3af 8000 	nop.w
    b020:	ebb0 7fc1 	cmp.w	r0, r1, lsl #31
    b024:	bf00      	nop
    b026:	eb42 0202 	adc.w	r2, r2, r2
    b02a:	bf28      	it	cs
    b02c:	eba0 70c1 	subcs.w	r0, r0, r1, lsl #31
    b030:	ebb0 7f81 	cmp.w	r0, r1, lsl #30
    b034:	bf00      	nop
    b036:	eb42 0202 	adc.w	r2, r2, r2
    b03a:	bf28      	it	cs
    b03c:	eba0 7081 	subcs.w	r0, r0, r1, lsl #30
    b040:	ebb0 7f41 	cmp.w	r0, r1, lsl #29
    b044:	bf00      	nop
    b046:	eb42 0202 	adc.w	r2, r2, r2
    b04a:	bf28      	it	cs
    b04c:	eba0 7041 	subcs.w	r0, r0, r1, lsl #29
    b050:	ebb0 7f01 	cmp.w	r0, r1, lsl #28
    b054:	bf00      	nop
    b056:	eb42 0202 	adc.w	r2, r2, r2
    b05a:	bf28      	it	cs
    b05c:	eba0 7001 	subcs.w	r0, r0, r1, lsl #28
    b060:	ebb0 6fc1 	cmp.w	r0, r1, lsl #27
    b064:	bf00      	nop
    b066:	eb42 0202 	adc.w	r2, r2, r2
    b06a:	bf28      	it	cs
    b06c:	eba0 60c1 	subcs.w	r0, r0, r1, lsl #27
    b070:	ebb0 6f81 	cmp.w	r0, r1, lsl #26
    b074:	bf00      	nop
    b076:	eb42 0202 	adc.w	r2, r2, r2
    b07a:	bf28      	it	cs
    b07c:	eba0 6081 	subcs.w	r0, r0, r1, lsl #26
    b080:	ebb0 6f41 	cmp.w	r0, r1, lsl #25
    b084:	bf00      	nop
    b086:	eb42 0202 	adc.w	r2, r2, r2
    b08a:	bf28      	it	cs
    b08c:	eba0 6041 	subcs.w	r0, r0, r1, lsl #25
    b090:	ebb0 6f01 	cmp.w	r0, r1, lsl #24
    b094:	bf00      	nop
    b096:	eb42 0202 	adc.w	r2, r2, r2
    b09a:	bf28      	it	cs
    b09c:	eba0 6001 	subcs.w	r0, r0, r1, lsl #24
    b0a0:	ebb0 5fc1 	cmp.w	r0, r1, lsl #23
    b0a4:	bf00      	nop
    b0a6:	eb42 0202 	adc.w	r2, r2, r2
    b0aa:	bf28      	it	cs
    b0ac:	eba0 50c1 	subcs.w	r0, r0, r1, lsl #23
    b0b0:	ebb0 5f81 	cmp.w	r0, r1, lsl #22
    b0b4:	bf00      	nop
    b0b6:	eb42 0202 	adc.w	r2, r2, r2
    b0ba:	bf28      	it	cs
    b0bc:	eba0 5081 	subcs.w	r0, r0, r1, lsl #22
    b0c0:	ebb0 5f41 	cmp.w	r0, r1, lsl #21
    b0c4:	bf00      	nop
    b0c6:	eb42 0202 	adc.w	r2, r2, r2
    b0ca:	bf28      	it	cs
    b0cc:	eba0 5041 	subcs.w	r0, r0, r1, lsl #21
    b0d0:	ebb0 5f01 	cmp.w	r0, r1, lsl #20
    b0d4:	bf00      	nop
    b0d6:	eb42 0202 	adc.w	r2, r2, r2
    b0da:	bf28      	it	cs
    b0dc:	eba0 5001 	subcs.w	r0, r0, r1, lsl #20
    b0e0:	ebb0 4fc1 	cmp.w	r0, r1, lsl #19
    b0e4:	bf00      	nop
    b0e6:	eb42 0202 	adc.w	r2, r2, r2
    b0ea:	bf28      	it	cs
    b0ec:	eba0 40c1 	subcs.w	r0, r0, r1, lsl #19
    b0f0:	ebb0 4f81 	cmp.w	r0, r1, lsl #18
    b0f4:	bf00      	nop
    b0f6:	eb42 0202 	adc.w	r2, r2, r2
    b0fa:	bf28      	it	cs
    b0fc:	eba0 4081 	subcs.w	r0, r0, r1, lsl #18
    b100:	ebb0 4f41 	cmp.w	r0, r1, lsl #17
    b104:	bf00      	nop
    b106:	eb42 0202 	adc.w	r2, r2, r2
    b10a:	bf28      	it	cs
    b10c:	eba0 4041 	subcs.w	r0, r0, r1, lsl #17
    b110:	ebb0 4f01 	cmp.w	r0, r1, lsl #16
    b114:	bf00      	nop
    b116:	eb42 0202 	adc.w	r2, r2, r2
    b11a:	bf28      	it	cs
    b11c:	eba0 4001 	subcs.w	r0, r0, r1, lsl #16
    b120:	ebb0 3fc1 	cmp.w	r0, r1, lsl #15
    b124:	bf00      	nop
    b126:	eb42 0202 	adc.w	r2, r2, r2
    b12a:	bf28      	it	cs
    b12c:	eba0 30c1 	subcs.w	r0, r0, r1, lsl #15
    b130:	ebb0 3f81 	cmp.w	r0, r1, lsl #14
    b134:	bf00      	nop
    b136:	eb42 0202 	adc.w	r2, r2, r2
    b13a:	bf28      	it	cs
    b13c:	eba0 3081 	subcs.w	r0, r0, r1, lsl #14
    b140:	ebb0 3f41 	cmp.w	r0, r1, lsl #13
    b144:	bf00      	nop
    b146:	eb42 0202 	adc.w	r2, r2, r2
    b14a:	bf28      	it	cs
    b14c:	eba0 3041 	subcs.w	r0, r0, r1, lsl #13
    b150:	ebb0 3f01 	cmp.w	r0, r1, lsl #12
    b154:	bf00      	nop
    b156:	eb42 0202 	adc.w	r2, r2, r2
    b15a:	bf28      	it	cs
    b15c:	eba0 3001 	subcs.w	r0, r0, r1, lsl #12
    b160:	ebb0 2fc1 	cmp.w	r0, r1, lsl #11
    b164:	bf00      	nop
    b166:	eb42 0202 	adc.w	r2, r2, r2
    b16a:	bf28      	it	cs
    b16c:	eba0 20c1 	subcs.w	r0, r0, r1, lsl #11
    b170:	ebb0 2f81 	cmp.w	r0, r1, lsl #10
    b174:	bf00      	nop
    b176:	eb42 0202 	adc.w	r2, r2, r2
    b17a:	bf28      	it	cs
    b17c:	eba0 2081 	subcs.w	r0, r0, r1, lsl #10
    b180:	ebb0 2f41 	cmp.w	r0, r1, lsl #9
    b184:	bf00      	nop
    b186:	eb42 0202 	adc.w	r2, r2, r2
    b18a:	bf28      	it	cs
    b18c:	eba0 2041 	subcs.w	r0, r0, r1, lsl #9
    b190:	ebb0 2f01 	cmp.w	r0, r1, lsl #8
    b194:	bf00      	nop
    b196:	eb42 0202 	adc.w	r2, r2, r2
    b19a:	bf28      	it	cs
    b19c:	eba0 2001 	subcs.w	r0, r0, r1, lsl #8
    b1a0:	ebb0 1fc1 	cmp.w	r0, r1, lsl #7
    b1a4:	bf00      	nop
    b1a6:	eb42 0202 	adc.w	r2, r2, r2
    b1aa:	bf28      	it	cs
    b1ac:	eba0 10c1 	subcs.w	r0, r0, r1, lsl #7
    b1b0:	ebb0 1f81 	cmp.w	r0, r1, lsl #6
    b1b4:	bf00      	nop
    b1b6:	eb42 0202 	adc.w	r2, r2, r2
    b1ba:	bf28      	it	cs
    b1bc:	eba0 1081 	subcs.w	r0, r0, r1, lsl #6
    b1c0:	ebb0 1f41 	cmp.w	r0, r1, lsl #5
    b1c4:	bf00      	nop
    b1c6:	eb42 0202 	adc.w	r2, r2, r2
    b1ca:	bf28      	it	cs
    b1cc:	eba0 1041 	subcs.w	r0, r0, r1, lsl #5
    b1d0:	ebb0 1f01 	cmp.w	r0, r1, lsl #4
    b1d4:	bf00      	nop
    b1d6:	eb42 0202 	adc.w	r2, r2, r2
    b1da:	bf28      	it	cs
    b1dc:	eba0 1001 	subcs.w	r0, r0, r1, lsl #4
    b1e0:	ebb0 0fc1 	cmp.w	r0, r1, lsl #3
    b1e4:	bf00      	nop
    b1e6:	eb42 0202 	adc.w	r2, r2, r2
    b1ea:	bf28      	it	cs
    b1ec:	eba0 00c1 	subcs.w	r0, r0, r1, lsl #3
    b1f0:	ebb0 0f81 	cmp.w	r0, r1, lsl #2
    b1f4:	bf00      	nop
    b1f6:	eb42 0202 	adc.w	r2, r2, r2
    b1fa:	bf28      	it	cs
    b1fc:	eba0 0081 	subcs.w	r0, r0, r1, lsl #2
    b200:	ebb0 0f41 	cmp.w	r0, r1, lsl #1
    b204:	bf00      	nop
    b206:	eb42 0202 	adc.w	r2, r2, r2
    b20a:	bf28      	it	cs
    b20c:	eba0 0041 	subcs.w	r0, r0, r1, lsl #1
    b210:	ebb0 0f01 	cmp.w	r0, r1
    b214:	bf00      	nop
    b216:	eb42 0202 	adc.w	r2, r2, r2
    b21a:	bf28      	it	cs
    b21c:	eba0 0001 	subcs.w	r0, r0, r1
    b220:	4610      	mov	r0, r2
    b222:	4770      	bx	lr
    b224:	bf0c      	ite	eq
    b226:	2001      	moveq	r0, #1
    b228:	2000      	movne	r0, #0
    b22a:	4770      	bx	lr
    b22c:	fab1 f281 	clz	r2, r1
    b230:	f1c2 021f 	rsb	r2, r2, #31
    b234:	fa20 f002 	lsr.w	r0, r0, r2
    b238:	4770      	bx	lr
    b23a:	b108      	cbz	r0, b240 <__aeabi_uidiv+0x258>
    b23c:	f04f 30ff 	mov.w	r0, #4294967295
    b240:	f000 b966 	b.w	b510 <__aeabi_idiv0>

0000b244 <__aeabi_uidivmod>:
    b244:	2900      	cmp	r1, #0
    b246:	d0f8      	beq.n	b23a <__aeabi_uidiv+0x252>
    b248:	e92d 4003 	stmdb	sp!, {r0, r1, lr}
    b24c:	f7ff fecc 	bl	afe8 <__aeabi_uidiv>
    b250:	e8bd 4006 	ldmia.w	sp!, {r1, r2, lr}
    b254:	fb02 f300 	mul.w	r3, r2, r0
    b258:	eba1 0103 	sub.w	r1, r1, r3
    b25c:	4770      	bx	lr
    b25e:	bf00      	nop

0000b260 <__aeabi_idiv>:
    b260:	2900      	cmp	r1, #0
    b262:	f000 813e 	beq.w	b4e2 <.divsi3_skip_div0_test+0x27c>

0000b266 <.divsi3_skip_div0_test>:
    b266:	ea80 0c01 	eor.w	ip, r0, r1
    b26a:	bf48      	it	mi
    b26c:	4249      	negmi	r1, r1
    b26e:	1e4a      	subs	r2, r1, #1
    b270:	f000 811f 	beq.w	b4b2 <.divsi3_skip_div0_test+0x24c>
    b274:	0003      	movs	r3, r0
    b276:	bf48      	it	mi
    b278:	4243      	negmi	r3, r0
    b27a:	428b      	cmp	r3, r1
    b27c:	f240 811e 	bls.w	b4bc <.divsi3_skip_div0_test+0x256>
    b280:	4211      	tst	r1, r2
    b282:	f000 8123 	beq.w	b4cc <.divsi3_skip_div0_test+0x266>
    b286:	fab3 f283 	clz	r2, r3
    b28a:	fab1 f081 	clz	r0, r1
    b28e:	eba0 0202 	sub.w	r2, r0, r2
    b292:	f1c2 021f 	rsb	r2, r2, #31
    b296:	a004      	add	r0, pc, #16	; (adr r0, b2a8 <.divsi3_skip_div0_test+0x42>)
    b298:	eb00 1202 	add.w	r2, r0, r2, lsl #4
    b29c:	f04f 0000 	mov.w	r0, #0
    b2a0:	4697      	mov	pc, r2
    b2a2:	bf00      	nop
    b2a4:	f3af 8000 	nop.w
    b2a8:	ebb3 7fc1 	cmp.w	r3, r1, lsl #31
    b2ac:	bf00      	nop
    b2ae:	eb40 0000 	adc.w	r0, r0, r0
    b2b2:	bf28      	it	cs
    b2b4:	eba3 73c1 	subcs.w	r3, r3, r1, lsl #31
    b2b8:	ebb3 7f81 	cmp.w	r3, r1, lsl #30
    b2bc:	bf00      	nop
    b2be:	eb40 0000 	adc.w	r0, r0, r0
    b2c2:	bf28      	it	cs
    b2c4:	eba3 7381 	subcs.w	r3, r3, r1, lsl #30
    b2c8:	ebb3 7f41 	cmp.w	r3, r1, lsl #29
    b2cc:	bf00      	nop
    b2ce:	eb40 0000 	adc.w	r0, r0, r0
    b2d2:	bf28      	it	cs
    b2d4:	eba3 7341 	subcs.w	r3, r3, r1, lsl #29
    b2d8:	ebb3 7f01 	cmp.w	r3, r1, lsl #28
    b2dc:	bf00      	nop
    b2de:	eb40 0000 	adc.w	r0, r0, r0
    b2e2:	bf28      	it	cs
    b2e4:	eba3 7301 	subcs.w	r3, r3, r1, lsl #28
    b2e8:	ebb3 6fc1 	cmp.w	r3, r1, lsl #27
    b2ec:	bf00      	nop
    b2ee:	eb40 0000 	adc.w	r0, r0, r0
    b2f2:	bf28      	it	cs
    b2f4:	eba3 63c1 	subcs.w	r3, r3, r1, lsl #27
    b2f8:	ebb3 6f81 	cmp.w	r3, r1, lsl #26
    b2fc:	bf00      	nop
    b2fe:	eb40 0000 	adc.w	r0, r0, r0
    b302:	bf28      	it	cs
    b304:	eba3 6381 	subcs.w	r3, r3, r1, lsl #26
    b308:	ebb3 6f41 	cmp.w	r3, r1, lsl #25
    b30c:	bf00      	nop
    b30e:	eb40 0000 	adc.w	r0, r0, r0
    b312:	bf28      	it	cs
    b314:	eba3 6341 	subcs.w	r3, r3, r1, lsl #25
    b318:	ebb3 6f01 	cmp.w	r3, r1, lsl #24
    b31c:	bf00      	nop
    b31e:	eb40 0000 	adc.w	r0, r0, r0
    b322:	bf28      	it	cs
    b324:	eba3 6301 	subcs.w	r3, r3, r1, lsl #24
    b328:	ebb3 5fc1 	cmp.w	r3, r1, lsl #23
    b32c:	bf00      	nop
    b32e:	eb40 0000 	adc.w	r0, r0, r0
    b332:	bf28      	it	cs
    b334:	eba3 53c1 	subcs.w	r3, r3, r1, lsl #23
    b338:	ebb3 5f81 	cmp.w	r3, r1, lsl #22
    b33c:	bf00      	nop
    b33e:	eb40 0000 	adc.w	r0, r0, r0
    b342:	bf28      	it	cs
    b344:	eba3 5381 	subcs.w	r3, r3, r1, lsl #22
    b348:	ebb3 5f41 	cmp.w	r3, r1, lsl #21
    b34c:	bf00      	nop
    b34e:	eb40 0000 	adc.w	r0, r0, r0
    b352:	bf28      	it	cs
    b354:	eba3 5341 	subcs.w	r3, r3, r1, lsl #21
    b358:	ebb3 5f01 	cmp.w	r3, r1, lsl #20
    b35c:	bf00      	nop
    b35e:	eb40 0000 	adc.w	r0, r0, r0
    b362:	bf28      	it	cs
    b364:	eba3 5301 	subcs.w	r3, r3, r1, lsl #20
    b368:	ebb3 4fc1 	cmp.w	r3, r1, lsl #19
    b36c:	bf00      	nop
    b36e:	eb40 0000 	adc.w	r0, r0, r0
    b372:	bf28      	it	cs
    b374:	eba3 43c1 	subcs.w	r3, r3, r1, lsl #19
    b378:	ebb3 4f81 	cmp.w	r3, r1, lsl #18
    b37c:	bf00      	nop
    b37e:	eb40 0000 	adc.w	r0, r0, r0
    b382:	bf28      	it	cs
    b384:	eba3 4381 	subcs.w	r3, r3, r1, lsl #18
    b388:	ebb3 4f41 	cmp.w	r3, r1, lsl #17
    b38c:	bf00      	nop
    b38e:	eb40 0000 	adc.w	r0, r0, r0
    b392:	bf28      	it	cs
    b394:	eba3 4341 	subcs.w	r3, r3, r1, lsl #17
    b398:	ebb3 4f01 	cmp.w	r3, r1, lsl #16
    b39c:	bf00      	nop
    b39e:	eb40 0000 	adc.w	r0, r0, r0
    b3a2:	bf28      	it	cs
    b3a4:	eba3 4301 	subcs.w	r3, r3, r1, lsl #16
    b3a8:	ebb3 3fc1 	cmp.w	r3, r1, lsl #15
    b3ac:	bf00      	nop
    b3ae:	eb40 0000 	adc.w	r0, r0, r0
    b3b2:	bf28      	it	cs
    b3b4:	eba3 33c1 	subcs.w	r3, r3, r1, lsl #15
    b3b8:	ebb3 3f81 	cmp.w	r3, r1, lsl #14
    b3bc:	bf00      	nop
    b3be:	eb40 0000 	adc.w	r0, r0, r0
    b3c2:	bf28      	it	cs
    b3c4:	eba3 3381 	subcs.w	r3, r3, r1, lsl #14
    b3c8:	ebb3 3f41 	cmp.w	r3, r1, lsl #13
    b3cc:	bf00      	nop
    b3ce:	eb40 0000 	adc.w	r0, r0, r0
    b3d2:	bf28      	it	cs
    b3d4:	eba3 3341 	subcs.w	r3, r3, r1, lsl #13
    b3d8:	ebb3 3f01 	cmp.w	r3, r1, lsl #12
    b3dc:	bf00      	nop
    b3de:	eb40 0000 	adc.w	r0, r0, r0
    b3e2:	bf28      	it	cs
    b3e4:	eba3 3301 	subcs.w	r3, r3, r1, lsl #12
    b3e8:	ebb3 2fc1 	cmp.w	r3, r1, lsl #11
    b3ec:	bf00      	nop
    b3ee:	eb40 0000 	adc.w	r0, r0, r0
    b3f2:	bf28      	it	cs
    b3f4:	eba3 23c1 	subcs.w	r3, r3, r1, lsl #11
    b3f8:	ebb3 2f81 	cmp.w	r3, r1, lsl #10
    b3fc:	bf00      	nop
    b3fe:	eb40 0000 	adc.w	r0, r0, r0
    b402:	bf28      	it	cs
    b404:	eba3 2381 	subcs.w	r3, r3, r1, lsl #10
    b408:	ebb3 2f41 	cmp.w	r3, r1, lsl #9
    b40c:	bf00      	nop
    b40e:	eb40 0000 	adc.w	r0, r0, r0
    b412:	bf28      	it	cs
    b414:	eba3 2341 	subcs.w	r3, r3, r1, lsl #9
    b418:	ebb3 2f01 	cmp.w	r3, r1, lsl #8
    b41c:	bf00      	nop
    b41e:	eb40 0000 	adc.w	r0, r0, r0
    b422:	bf28      	it	cs
    b424:	eba3 2301 	subcs.w	r3, r3, r1, lsl #8
    b428:	ebb3 1fc1 	cmp.w	r3, r1, lsl #7
    b42c:	bf00      	nop
    b42e:	eb40 0000 	adc.w	r0, r0, r0
    b432:	bf28      	it	cs
    b434:	eba3 13c1 	subcs.w	r3, r3, r1, lsl #7
    b438:	ebb3 1f81 	cmp.w	r3, r1, lsl #6
    b43c:	bf00      	nop
    b43e:	eb40 0000 	adc.w	r0, r0, r0
    b442:	bf28      	it	cs
    b444:	eba3 1381 	subcs.w	r3, r3, r1, lsl #6
    b448:	ebb3 1f41 	cmp.w	r3, r1, lsl #5
    b44c:	bf00      	nop
    b44e:	eb40 0000 	adc.w	r0, r0, r0
    b452:	bf28      	it	cs
    b454:	eba3 1341 	subcs.w	r3, r3, r1, lsl #5
    b458:	ebb3 1f01 	cmp.w	r3, r1, lsl #4
    b45c:	bf00      	nop
    b45e:	eb40 0000 	adc.w	r0, r0, r0
    b462:	bf28      	it	cs
    b464:	eba3 1301 	subcs.w	r3, r3, r1, lsl #4
    b468:	ebb3 0fc1 	cmp.w	r3, r1, lsl #3
    b46c:	bf00      	nop
    b46e:	eb40 0000 	adc.w	r0, r0, r0
    b472:	bf28      	it	cs
    b474:	eba3 03c1 	subcs.w	r3, r3, r1, lsl #3
    b478:	ebb3 0f81 	cmp.w	r3, r1, lsl #2
    b47c:	bf00      	nop
    b47e:	eb40 0000 	adc.w	r0, r0, r0
    b482:	bf28      	it	cs
    b484:	eba3 0381 	subcs.w	r3, r3, r1, lsl #2
    b488:	ebb3 0f41 	cmp.w	r3, r1, lsl #1
    b48c:	bf00      	nop
    b48e:	eb40 0000 	adc.w	r0, r0, r0
    b492:	bf28      	it	cs
    b494:	eba3 0341 	subcs.w	r3, r3, r1, lsl #1
    b498:	ebb3 0f01 	cmp.w	r3, r1
    b49c:	bf00      	nop
    b49e:	eb40 0000 	adc.w	r0, r0, r0
    b4a2:	bf28      	it	cs
    b4a4:	eba3 0301 	subcs.w	r3, r3, r1
    b4a8:	f1bc 0f00 	cmp.w	ip, #0
    b4ac:	bf48      	it	mi
    b4ae:	4240      	negmi	r0, r0
    b4b0:	4770      	bx	lr
    b4b2:	ea9c 0f00 	teq	ip, r0
    b4b6:	bf48      	it	mi
    b4b8:	4240      	negmi	r0, r0
    b4ba:	4770      	bx	lr
    b4bc:	bf38      	it	cc
    b4be:	2000      	movcc	r0, #0
    b4c0:	bf04      	itt	eq
    b4c2:	ea4f 70ec 	moveq.w	r0, ip, asr #31
    b4c6:	f040 0001 	orreq.w	r0, r0, #1
    b4ca:	4770      	bx	lr
    b4cc:	fab1 f281 	clz	r2, r1
    b4d0:	f1c2 021f 	rsb	r2, r2, #31
    b4d4:	f1bc 0f00 	cmp.w	ip, #0
    b4d8:	fa23 f002 	lsr.w	r0, r3, r2
    b4dc:	bf48      	it	mi
    b4de:	4240      	negmi	r0, r0
    b4e0:	4770      	bx	lr
    b4e2:	2800      	cmp	r0, #0
    b4e4:	bfc8      	it	gt
    b4e6:	f06f 4000 	mvngt.w	r0, #2147483648	; 0x80000000
    b4ea:	bfb8      	it	lt
    b4ec:	f04f 4000 	movlt.w	r0, #2147483648	; 0x80000000
    b4f0:	f000 b80e 	b.w	b510 <__aeabi_idiv0>

0000b4f4 <__aeabi_idivmod>:
    b4f4:	2900      	cmp	r1, #0
    b4f6:	d0f4      	beq.n	b4e2 <.divsi3_skip_div0_test+0x27c>
    b4f8:	e92d 4003 	stmdb	sp!, {r0, r1, lr}
    b4fc:	f7ff feb3 	bl	b266 <.divsi3_skip_div0_test>
    b500:	e8bd 4006 	ldmia.w	sp!, {r1, r2, lr}
    b504:	fb02 f300 	mul.w	r3, r2, r0
    b508:	eba1 0103 	sub.w	r1, r1, r3
    b50c:	4770      	bx	lr
    b50e:	bf00      	nop

0000b510 <__aeabi_idiv0>:
    b510:	4770      	bx	lr
    b512:	bf00      	nop

0000b514 <__gedf2>:
    b514:	f04f 3cff 	mov.w	ip, #4294967295
    b518:	e006      	b.n	b528 <__cmpdf2+0x4>
    b51a:	bf00      	nop

0000b51c <__ledf2>:
    b51c:	f04f 0c01 	mov.w	ip, #1
    b520:	e002      	b.n	b528 <__cmpdf2+0x4>
    b522:	bf00      	nop

0000b524 <__cmpdf2>:
    b524:	f04f 0c01 	mov.w	ip, #1
    b528:	f84d cd04 	str.w	ip, [sp, #-4]!
    b52c:	ea4f 0c41 	mov.w	ip, r1, lsl #1
    b530:	ea7f 5c6c 	mvns.w	ip, ip, asr #21
    b534:	ea4f 0c43 	mov.w	ip, r3, lsl #1
    b538:	bf18      	it	ne
    b53a:	ea7f 5c6c 	mvnsne.w	ip, ip, asr #21
    b53e:	d01b      	beq.n	b578 <__cmpdf2+0x54>
    b540:	b001      	add	sp, #4
    b542:	ea50 0c41 	orrs.w	ip, r0, r1, lsl #1
    b546:	bf0c      	ite	eq
    b548:	ea52 0c43 	orrseq.w	ip, r2, r3, lsl #1
    b54c:	ea91 0f03 	teqne	r1, r3
    b550:	bf02      	ittt	eq
    b552:	ea90 0f02 	teqeq	r0, r2
    b556:	2000      	moveq	r0, #0
    b558:	4770      	bxeq	lr
    b55a:	f110 0f00 	cmn.w	r0, #0
    b55e:	ea91 0f03 	teq	r1, r3
    b562:	bf58      	it	pl
    b564:	4299      	cmppl	r1, r3
    b566:	bf08      	it	eq
    b568:	4290      	cmpeq	r0, r2
    b56a:	bf2c      	ite	cs
    b56c:	17d8      	asrcs	r0, r3, #31
    b56e:	ea6f 70e3 	mvncc.w	r0, r3, asr #31
    b572:	f040 0001 	orr.w	r0, r0, #1
    b576:	4770      	bx	lr
    b578:	ea4f 0c41 	mov.w	ip, r1, lsl #1
    b57c:	ea7f 5c6c 	mvns.w	ip, ip, asr #21
    b580:	d102      	bne.n	b588 <__cmpdf2+0x64>
    b582:	ea50 3c01 	orrs.w	ip, r0, r1, lsl #12
    b586:	d107      	bne.n	b598 <__cmpdf2+0x74>
    b588:	ea4f 0c43 	mov.w	ip, r3, lsl #1
    b58c:	ea7f 5c6c 	mvns.w	ip, ip, asr #21
    b590:	d1d6      	bne.n	b540 <__cmpdf2+0x1c>
    b592:	ea52 3c03 	orrs.w	ip, r2, r3, lsl #12
    b596:	d0d3      	beq.n	b540 <__cmpdf2+0x1c>
    b598:	f85d 0b04 	ldr.w	r0, [sp], #4
    b59c:	4770      	bx	lr
    b59e:	bf00      	nop

0000b5a0 <__aeabi_cdrcmple>:
    b5a0:	4684      	mov	ip, r0
    b5a2:	4610      	mov	r0, r2
    b5a4:	4662      	mov	r2, ip
    b5a6:	468c      	mov	ip, r1
    b5a8:	4619      	mov	r1, r3
    b5aa:	4663      	mov	r3, ip
    b5ac:	e000      	b.n	b5b0 <__aeabi_cdcmpeq>
    b5ae:	bf00      	nop

0000b5b0 <__aeabi_cdcmpeq>:
    b5b0:	b501      	push	{r0, lr}
    b5b2:	f7ff ffb7 	bl	b524 <__cmpdf2>
    b5b6:	2800      	cmp	r0, #0
    b5b8:	bf48      	it	mi
    b5ba:	f110 0f00 	cmnmi.w	r0, #0
    b5be:	bd01      	pop	{r0, pc}

0000b5c0 <__aeabi_dcmpeq>:
    b5c0:	f84d ed08 	str.w	lr, [sp, #-8]!
    b5c4:	f7ff fff4 	bl	b5b0 <__aeabi_cdcmpeq>
    b5c8:	bf0c      	ite	eq
    b5ca:	2001      	moveq	r0, #1
    b5cc:	2000      	movne	r0, #0
    b5ce:	f85d fb08 	ldr.w	pc, [sp], #8
    b5d2:	bf00      	nop

0000b5d4 <__aeabi_dcmplt>:
    b5d4:	f84d ed08 	str.w	lr, [sp, #-8]!
    b5d8:	f7ff ffea 	bl	b5b0 <__aeabi_cdcmpeq>
    b5dc:	bf34      	ite	cc
    b5de:	2001      	movcc	r0, #1
    b5e0:	2000      	movcs	r0, #0
    b5e2:	f85d fb08 	ldr.w	pc, [sp], #8
    b5e6:	bf00      	nop

0000b5e8 <__aeabi_dcmple>:
    b5e8:	f84d ed08 	str.w	lr, [sp, #-8]!
    b5ec:	f7ff ffe0 	bl	b5b0 <__aeabi_cdcmpeq>
    b5f0:	bf94      	ite	ls
    b5f2:	2001      	movls	r0, #1
    b5f4:	2000      	movhi	r0, #0
    b5f6:	f85d fb08 	ldr.w	pc, [sp], #8
    b5fa:	bf00      	nop

0000b5fc <__aeabi_dcmpge>:
    b5fc:	f84d ed08 	str.w	lr, [sp, #-8]!
    b600:	f7ff ffce 	bl	b5a0 <__aeabi_cdrcmple>
    b604:	bf94      	ite	ls
    b606:	2001      	movls	r0, #1
    b608:	2000      	movhi	r0, #0
    b60a:	f85d fb08 	ldr.w	pc, [sp], #8
    b60e:	bf00      	nop

0000b610 <__aeabi_dcmpgt>:
    b610:	f84d ed08 	str.w	lr, [sp, #-8]!
    b614:	f7ff ffc4 	bl	b5a0 <__aeabi_cdrcmple>
    b618:	bf34      	ite	cc
    b61a:	2001      	movcc	r0, #1
    b61c:	2000      	movcs	r0, #0
    b61e:	f85d fb08 	ldr.w	pc, [sp], #8
    b622:	bf00      	nop

0000b624 <__aeabi_d2uiz>:
    b624:	004a      	lsls	r2, r1, #1
    b626:	d211      	bcs.n	b64c <__aeabi_d2uiz+0x28>
    b628:	f512 1200 	adds.w	r2, r2, #2097152	; 0x200000
    b62c:	d211      	bcs.n	b652 <__aeabi_d2uiz+0x2e>
    b62e:	d50d      	bpl.n	b64c <__aeabi_d2uiz+0x28>
    b630:	f46f 7378 	mvn.w	r3, #992	; 0x3e0
    b634:	ebb3 5262 	subs.w	r2, r3, r2, asr #21
    b638:	d40e      	bmi.n	b658 <__aeabi_d2uiz+0x34>
    b63a:	ea4f 23c1 	mov.w	r3, r1, lsl #11
    b63e:	f043 4300 	orr.w	r3, r3, #2147483648	; 0x80000000
    b642:	ea43 5350 	orr.w	r3, r3, r0, lsr #21
    b646:	fa23 f002 	lsr.w	r0, r3, r2
    b64a:	4770      	bx	lr
    b64c:	f04f 0000 	mov.w	r0, #0
    b650:	4770      	bx	lr
    b652:	ea50 3001 	orrs.w	r0, r0, r1, lsl #12
    b656:	d102      	bne.n	b65e <__aeabi_d2uiz+0x3a>
    b658:	f04f 30ff 	mov.w	r0, #4294967295
    b65c:	4770      	bx	lr
    b65e:	f04f 0000 	mov.w	r0, #0
    b662:	4770      	bx	lr

0000b664 <__aeabi_uldivmod>:
    b664:	b94b      	cbnz	r3, b67a <__aeabi_uldivmod+0x16>
    b666:	b942      	cbnz	r2, b67a <__aeabi_uldivmod+0x16>
    b668:	2900      	cmp	r1, #0
    b66a:	bf08      	it	eq
    b66c:	2800      	cmpeq	r0, #0
    b66e:	d002      	beq.n	b676 <__aeabi_uldivmod+0x12>
    b670:	f04f 31ff 	mov.w	r1, #4294967295
    b674:	4608      	mov	r0, r1
    b676:	f7ff bf4b 	b.w	b510 <__aeabi_idiv0>
    b67a:	b082      	sub	sp, #8
    b67c:	46ec      	mov	ip, sp
    b67e:	e92d 5000 	stmdb	sp!, {ip, lr}
    b682:	f000 f81d 	bl	b6c0 <__gnu_uldivmod_helper>
    b686:	f8dd e004 	ldr.w	lr, [sp, #4]
    b68a:	b002      	add	sp, #8
    b68c:	bc0c      	pop	{r2, r3}
    b68e:	4770      	bx	lr

0000b690 <__gnu_ldivmod_helper>:
    b690:	e92d 4370 	stmdb	sp!, {r4, r5, r6, r8, r9, lr}
    b694:	4616      	mov	r6, r2
    b696:	4680      	mov	r8, r0
    b698:	4689      	mov	r9, r1
    b69a:	461d      	mov	r5, r3
    b69c:	f000 f828 	bl	b6f0 <__divdi3>
    b6a0:	fb00 f305 	mul.w	r3, r0, r5
    b6a4:	fba0 4506 	umull	r4, r5, r0, r6
    b6a8:	fb06 3601 	mla	r6, r6, r1, r3
    b6ac:	9b06      	ldr	r3, [sp, #24]
    b6ae:	1975      	adds	r5, r6, r5
    b6b0:	ebb8 0404 	subs.w	r4, r8, r4
    b6b4:	eb69 0505 	sbc.w	r5, r9, r5
    b6b8:	e9c3 4500 	strd	r4, r5, [r3]
    b6bc:	e8bd 8370 	ldmia.w	sp!, {r4, r5, r6, r8, r9, pc}

0000b6c0 <__gnu_uldivmod_helper>:
    b6c0:	e92d 4370 	stmdb	sp!, {r4, r5, r6, r8, r9, lr}
    b6c4:	4616      	mov	r6, r2
    b6c6:	4680      	mov	r8, r0
    b6c8:	4689      	mov	r9, r1
    b6ca:	461d      	mov	r5, r3
    b6cc:	f000 f9c0 	bl	ba50 <__udivdi3>
    b6d0:	fb00 f305 	mul.w	r3, r0, r5
    b6d4:	fba0 4506 	umull	r4, r5, r0, r6
    b6d8:	fb06 3601 	mla	r6, r6, r1, r3
    b6dc:	9b06      	ldr	r3, [sp, #24]
    b6de:	1975      	adds	r5, r6, r5
    b6e0:	ebb8 0404 	subs.w	r4, r8, r4
    b6e4:	eb69 0505 	sbc.w	r5, r9, r5
    b6e8:	e9c3 4500 	strd	r4, r5, [r3]
    b6ec:	e8bd 8370 	ldmia.w	sp!, {r4, r5, r6, r8, r9, pc}

0000b6f0 <__divdi3>:
    b6f0:	2900      	cmp	r1, #0
    b6f2:	e92d 4ff0 	stmdb	sp!, {r4, r5, r6, r7, r8, r9, sl, fp, lr}
    b6f6:	461c      	mov	r4, r3
    b6f8:	b085      	sub	sp, #20
    b6fa:	f2c0 80cb 	blt.w	b894 <__divdi3+0x1a4>
    b6fe:	2600      	movs	r6, #0
    b700:	2c00      	cmp	r4, #0
    b702:	f2c0 80c2 	blt.w	b88a <__divdi3+0x19a>
    b706:	468c      	mov	ip, r1
    b708:	4617      	mov	r7, r2
    b70a:	4614      	mov	r4, r2
    b70c:	4605      	mov	r5, r0
    b70e:	4688      	mov	r8, r1
    b710:	469a      	mov	sl, r3
    b712:	2b00      	cmp	r3, #0
    b714:	d14a      	bne.n	b7ac <__divdi3+0xbc>
    b716:	428a      	cmp	r2, r1
    b718:	d96e      	bls.n	b7f8 <__divdi3+0x108>
    b71a:	fab2 f382 	clz	r3, r2
    b71e:	b15b      	cbz	r3, b738 <__divdi3+0x48>
    b720:	f1c3 0420 	rsb	r4, r3, #32
    b724:	fa01 f803 	lsl.w	r8, r1, r3
    b728:	fa30 f204 	lsrs.w	r2, r0, r4
    b72c:	fa10 f503 	lsls.w	r5, r0, r3
    b730:	fa17 f403 	lsls.w	r4, r7, r3
    b734:	ea42 0808 	orr.w	r8, r2, r8
    b738:	ea4f 4a14 	mov.w	sl, r4, lsr #16
    b73c:	4640      	mov	r0, r8
    b73e:	4651      	mov	r1, sl
    b740:	fa1f fb84 	uxth.w	fp, r4
    b744:	f7ff fc50 	bl	afe8 <__aeabi_uidiv>
    b748:	4651      	mov	r1, sl
    b74a:	4681      	mov	r9, r0
    b74c:	4640      	mov	r0, r8
    b74e:	f7ff fd79 	bl	b244 <__aeabi_uidivmod>
    b752:	0c28      	lsrs	r0, r5, #16
    b754:	fb0b f309 	mul.w	r3, fp, r9
    b758:	ea40 4801 	orr.w	r8, r0, r1, lsl #16
    b75c:	4543      	cmp	r3, r8
    b75e:	d909      	bls.n	b774 <__divdi3+0x84>
    b760:	eb18 0804 	adds.w	r8, r8, r4
    b764:	f109 39ff 	add.w	r9, r9, #4294967295
    b768:	d204      	bcs.n	b774 <__divdi3+0x84>
    b76a:	4543      	cmp	r3, r8
    b76c:	bf84      	itt	hi
    b76e:	f109 39ff 	addhi.w	r9, r9, #4294967295
    b772:	44a0      	addhi	r8, r4
    b774:	ebc3 0808 	rsb	r8, r3, r8
    b778:	4651      	mov	r1, sl
    b77a:	4640      	mov	r0, r8
    b77c:	b2ad      	uxth	r5, r5
    b77e:	f7ff fc33 	bl	afe8 <__aeabi_uidiv>
    b782:	4651      	mov	r1, sl
    b784:	4607      	mov	r7, r0
    b786:	4640      	mov	r0, r8
    b788:	f7ff fd5c 	bl	b244 <__aeabi_uidivmod>
    b78c:	fb0b fb07 	mul.w	fp, fp, r7
    b790:	ea45 4501 	orr.w	r5, r5, r1, lsl #16
    b794:	45ab      	cmp	fp, r5
    b796:	d905      	bls.n	b7a4 <__divdi3+0xb4>
    b798:	3f01      	subs	r7, #1
    b79a:	192d      	adds	r5, r5, r4
    b79c:	d202      	bcs.n	b7a4 <__divdi3+0xb4>
    b79e:	45ab      	cmp	fp, r5
    b7a0:	bf88      	it	hi
    b7a2:	3f01      	subhi	r7, #1
    b7a4:	ea47 4909 	orr.w	r9, r7, r9, lsl #16
    b7a8:	2400      	movs	r4, #0
    b7aa:	e003      	b.n	b7b4 <__divdi3+0xc4>
    b7ac:	428b      	cmp	r3, r1
    b7ae:	d90c      	bls.n	b7ca <__divdi3+0xda>
    b7b0:	2400      	movs	r4, #0
    b7b2:	46a1      	mov	r9, r4
    b7b4:	464a      	mov	r2, r9
    b7b6:	4623      	mov	r3, r4
    b7b8:	b116      	cbz	r6, b7c0 <__divdi3+0xd0>
    b7ba:	4252      	negs	r2, r2
    b7bc:	eb63 0343 	sbc.w	r3, r3, r3, lsl #1
    b7c0:	4610      	mov	r0, r2
    b7c2:	4619      	mov	r1, r3
    b7c4:	b005      	add	sp, #20
    b7c6:	e8bd 8ff0 	ldmia.w	sp!, {r4, r5, r6, r7, r8, r9, sl, fp, pc}
    b7ca:	fab3 f483 	clz	r4, r3
    b7ce:	2c00      	cmp	r4, #0
    b7d0:	f040 80b3 	bne.w	b93a <__divdi3+0x24a>
    b7d4:	428b      	cmp	r3, r1
    b7d6:	f04f 0901 	mov.w	r9, #1
    b7da:	bf2c      	ite	cs
    b7dc:	f04f 0c00 	movcs.w	ip, #0
    b7e0:	f04f 0c01 	movcc.w	ip, #1
    b7e4:	4282      	cmp	r2, r0
    b7e6:	bf8c      	ite	hi
    b7e8:	4667      	movhi	r7, ip
    b7ea:	f04c 0701 	orrls.w	r7, ip, #1
    b7ee:	2f00      	cmp	r7, #0
    b7f0:	d1e0      	bne.n	b7b4 <__divdi3+0xc4>
    b7f2:	463c      	mov	r4, r7
    b7f4:	46b9      	mov	r9, r7
    b7f6:	e7dd      	b.n	b7b4 <__divdi3+0xc4>
    b7f8:	b922      	cbnz	r2, b804 <__divdi3+0x114>
    b7fa:	2001      	movs	r0, #1
    b7fc:	4611      	mov	r1, r2
    b7fe:	f7ff fbf3 	bl	afe8 <__aeabi_uidiv>
    b802:	4604      	mov	r4, r0
    b804:	fab4 f384 	clz	r3, r4
    b808:	2b00      	cmp	r3, #0
    b80a:	d149      	bne.n	b8a0 <__divdi3+0x1b0>
    b80c:	ebc4 0808 	rsb	r8, r4, r8
    b810:	0c27      	lsrs	r7, r4, #16
    b812:	fa1f fa84 	uxth.w	sl, r4
    b816:	2101      	movs	r1, #1
    b818:	9102      	str	r1, [sp, #8]
    b81a:	4639      	mov	r1, r7
    b81c:	4640      	mov	r0, r8
    b81e:	f7ff fbe3 	bl	afe8 <__aeabi_uidiv>
    b822:	4639      	mov	r1, r7
    b824:	4681      	mov	r9, r0
    b826:	4640      	mov	r0, r8
    b828:	f7ff fd0c 	bl	b244 <__aeabi_uidivmod>
    b82c:	0c2a      	lsrs	r2, r5, #16
    b82e:	fb0a f309 	mul.w	r3, sl, r9
    b832:	ea42 4b01 	orr.w	fp, r2, r1, lsl #16
    b836:	455b      	cmp	r3, fp
    b838:	d909      	bls.n	b84e <__divdi3+0x15e>
    b83a:	eb1b 0b04 	adds.w	fp, fp, r4
    b83e:	f109 39ff 	add.w	r9, r9, #4294967295
    b842:	d204      	bcs.n	b84e <__divdi3+0x15e>
    b844:	455b      	cmp	r3, fp
    b846:	bf84      	itt	hi
    b848:	f109 39ff 	addhi.w	r9, r9, #4294967295
    b84c:	44a3      	addhi	fp, r4
    b84e:	ebc3 0b0b 	rsb	fp, r3, fp
    b852:	4639      	mov	r1, r7
    b854:	4658      	mov	r0, fp
    b856:	b2ad      	uxth	r5, r5
    b858:	f7ff fbc6 	bl	afe8 <__aeabi_uidiv>
    b85c:	4639      	mov	r1, r7
    b85e:	4680      	mov	r8, r0
    b860:	4658      	mov	r0, fp
    b862:	f7ff fcef 	bl	b244 <__aeabi_uidivmod>
    b866:	fb0a fa08 	mul.w	sl, sl, r8
    b86a:	ea45 4501 	orr.w	r5, r5, r1, lsl #16
    b86e:	45aa      	cmp	sl, r5
    b870:	d907      	bls.n	b882 <__divdi3+0x192>
    b872:	192d      	adds	r5, r5, r4
    b874:	f108 38ff 	add.w	r8, r8, #4294967295
    b878:	d203      	bcs.n	b882 <__divdi3+0x192>
    b87a:	45aa      	cmp	sl, r5
    b87c:	bf88      	it	hi
    b87e:	f108 38ff 	addhi.w	r8, r8, #4294967295
    b882:	ea48 4909 	orr.w	r9, r8, r9, lsl #16
    b886:	9c02      	ldr	r4, [sp, #8]
    b888:	e794      	b.n	b7b4 <__divdi3+0xc4>
    b88a:	43f6      	mvns	r6, r6
    b88c:	4252      	negs	r2, r2
    b88e:	eb63 0343 	sbc.w	r3, r3, r3, lsl #1
    b892:	e738      	b.n	b706 <__divdi3+0x16>
    b894:	4240      	negs	r0, r0
    b896:	eb61 0141 	sbc.w	r1, r1, r1, lsl #1
    b89a:	f04f 36ff 	mov.w	r6, #4294967295
    b89e:	e72f      	b.n	b700 <__divdi3+0x10>
    b8a0:	409c      	lsls	r4, r3
    b8a2:	f1c3 0720 	rsb	r7, r3, #32
    b8a6:	fa28 fa07 	lsr.w	sl, r8, r7
    b8aa:	fa35 f207 	lsrs.w	r2, r5, r7
    b8ae:	0c27      	lsrs	r7, r4, #16
    b8b0:	fa08 fb03 	lsl.w	fp, r8, r3
    b8b4:	4639      	mov	r1, r7
    b8b6:	4650      	mov	r0, sl
    b8b8:	ea42 020b 	orr.w	r2, r2, fp
    b8bc:	409d      	lsls	r5, r3
    b8be:	9202      	str	r2, [sp, #8]
    b8c0:	f7ff fb92 	bl	afe8 <__aeabi_uidiv>
    b8c4:	4639      	mov	r1, r7
    b8c6:	4683      	mov	fp, r0
    b8c8:	4650      	mov	r0, sl
    b8ca:	f7ff fcbb 	bl	b244 <__aeabi_uidivmod>
    b8ce:	9b02      	ldr	r3, [sp, #8]
    b8d0:	fa1f fa84 	uxth.w	sl, r4
    b8d4:	ea4f 4913 	mov.w	r9, r3, lsr #16
    b8d8:	fb0a f30b 	mul.w	r3, sl, fp
    b8dc:	ea49 4801 	orr.w	r8, r9, r1, lsl #16
    b8e0:	4543      	cmp	r3, r8
    b8e2:	d905      	bls.n	b8f0 <__divdi3+0x200>
    b8e4:	eb18 0804 	adds.w	r8, r8, r4
    b8e8:	f10b 3bff 	add.w	fp, fp, #4294967295
    b8ec:	f0c0 80aa 	bcc.w	ba44 <__divdi3+0x354>
    b8f0:	ebc3 0808 	rsb	r8, r3, r8
    b8f4:	4639      	mov	r1, r7
    b8f6:	4640      	mov	r0, r8
    b8f8:	f7ff fb76 	bl	afe8 <__aeabi_uidiv>
    b8fc:	4639      	mov	r1, r7
    b8fe:	4681      	mov	r9, r0
    b900:	4640      	mov	r0, r8
    b902:	f7ff fc9f 	bl	b244 <__aeabi_uidivmod>
    b906:	9802      	ldr	r0, [sp, #8]
    b908:	fb0a f309 	mul.w	r3, sl, r9
    b90c:	fa1f fc80 	uxth.w	ip, r0
    b910:	ea4c 4801 	orr.w	r8, ip, r1, lsl #16
    b914:	4543      	cmp	r3, r8
    b916:	d909      	bls.n	b92c <__divdi3+0x23c>
    b918:	eb18 0804 	adds.w	r8, r8, r4
    b91c:	f109 39ff 	add.w	r9, r9, #4294967295
    b920:	d204      	bcs.n	b92c <__divdi3+0x23c>
    b922:	4543      	cmp	r3, r8
    b924:	bf84      	itt	hi
    b926:	f109 39ff 	addhi.w	r9, r9, #4294967295
    b92a:	44a0      	addhi	r8, r4
    b92c:	ea49 4e0b 	orr.w	lr, r9, fp, lsl #16
    b930:	ebc3 0808 	rsb	r8, r3, r8
    b934:	f8cd e008 	str.w	lr, [sp, #8]
    b938:	e76f      	b.n	b81a <__divdi3+0x12a>
    b93a:	f1c4 0320 	rsb	r3, r4, #32
    b93e:	fa0a fa04 	lsl.w	sl, sl, r4
    b942:	40da      	lsrs	r2, r3
    b944:	fa21 f803 	lsr.w	r8, r1, r3
    b948:	ea42 0a0a 	orr.w	sl, r2, sl
    b94c:	fa01 f904 	lsl.w	r9, r1, r4
    b950:	fa30 f203 	lsrs.w	r2, r0, r3
    b954:	4640      	mov	r0, r8
    b956:	ea4f 4b1a 	mov.w	fp, sl, lsr #16
    b95a:	ea42 0109 	orr.w	r1, r2, r9
    b95e:	9103      	str	r1, [sp, #12]
    b960:	4659      	mov	r1, fp
    b962:	fa17 f304 	lsls.w	r3, r7, r4
    b966:	9302      	str	r3, [sp, #8]
    b968:	f7ff fb3e 	bl	afe8 <__aeabi_uidiv>
    b96c:	4659      	mov	r1, fp
    b96e:	4681      	mov	r9, r0
    b970:	4640      	mov	r0, r8
    b972:	f7ff fc67 	bl	b244 <__aeabi_uidivmod>
    b976:	fa1f f38a 	uxth.w	r3, sl
    b97a:	9803      	ldr	r0, [sp, #12]
    b97c:	fb03 f209 	mul.w	r2, r3, r9
    b980:	0c07      	lsrs	r7, r0, #16
    b982:	ea47 4801 	orr.w	r8, r7, r1, lsl #16
    b986:	4542      	cmp	r2, r8
    b988:	d904      	bls.n	b994 <__divdi3+0x2a4>
    b98a:	eb18 080a 	adds.w	r8, r8, sl
    b98e:	f109 39ff 	add.w	r9, r9, #4294967295
    b992:	d351      	bcc.n	ba38 <__divdi3+0x348>
    b994:	ebc2 0808 	rsb	r8, r2, r8
    b998:	4659      	mov	r1, fp
    b99a:	4640      	mov	r0, r8
    b99c:	9301      	str	r3, [sp, #4]
    b99e:	f7ff fb23 	bl	afe8 <__aeabi_uidiv>
    b9a2:	4659      	mov	r1, fp
    b9a4:	4607      	mov	r7, r0
    b9a6:	4640      	mov	r0, r8
    b9a8:	f7ff fc4c 	bl	b244 <__aeabi_uidivmod>
    b9ac:	9b01      	ldr	r3, [sp, #4]
    b9ae:	9803      	ldr	r0, [sp, #12]
    b9b0:	fb03 f307 	mul.w	r3, r3, r7
    b9b4:	fa1f fc80 	uxth.w	ip, r0
    b9b8:	ea4c 4c01 	orr.w	ip, ip, r1, lsl #16
    b9bc:	4563      	cmp	r3, ip
    b9be:	d907      	bls.n	b9d0 <__divdi3+0x2e0>
    b9c0:	3f01      	subs	r7, #1
    b9c2:	eb1c 0c0a 	adds.w	ip, ip, sl
    b9c6:	d203      	bcs.n	b9d0 <__divdi3+0x2e0>
    b9c8:	4563      	cmp	r3, ip
    b9ca:	d901      	bls.n	b9d0 <__divdi3+0x2e0>
    b9cc:	3f01      	subs	r7, #1
    b9ce:	44d4      	add	ip, sl
    b9d0:	ea47 4909 	orr.w	r9, r7, r9, lsl #16
    b9d4:	9f02      	ldr	r7, [sp, #8]
    b9d6:	ebc3 0c0c 	rsb	ip, r3, ip
    b9da:	fa1f fe89 	uxth.w	lr, r9
    b9de:	ea4f 4319 	mov.w	r3, r9, lsr #16
    b9e2:	b2b8      	uxth	r0, r7
    b9e4:	0c3f      	lsrs	r7, r7, #16
    b9e6:	fb00 f80e 	mul.w	r8, r0, lr
    b9ea:	fb00 f103 	mul.w	r1, r0, r3
    b9ee:	fb07 120e 	mla	r2, r7, lr, r1
    b9f2:	fb07 f003 	mul.w	r0, r7, r3
    b9f6:	eb02 4218 	add.w	r2, r2, r8, lsr #16
    b9fa:	4291      	cmp	r1, r2
    b9fc:	bf88      	it	hi
    b9fe:	f500 3080 	addhi.w	r0, r0, #65536	; 0x10000
    ba02:	eb00 4e12 	add.w	lr, r0, r2, lsr #16
    ba06:	45f4      	cmp	ip, lr
    ba08:	d312      	bcc.n	ba30 <__divdi3+0x340>
    ba0a:	ea4f 4202 	mov.w	r2, r2, lsl #16
    ba0e:	fa1f f888 	uxth.w	r8, r8
    ba12:	bf14      	ite	ne
    ba14:	2100      	movne	r1, #0
    ba16:	2101      	moveq	r1, #1
    ba18:	eb02 0c08 	add.w	ip, r2, r8
    ba1c:	fa15 f404 	lsls.w	r4, r5, r4
    ba20:	4564      	cmp	r4, ip
    ba22:	bf2c      	ite	cs
    ba24:	2400      	movcs	r4, #0
    ba26:	f001 0401 	andcc.w	r4, r1, #1
    ba2a:	2c00      	cmp	r4, #0
    ba2c:	f43f aec2 	beq.w	b7b4 <__divdi3+0xc4>
    ba30:	f109 39ff 	add.w	r9, r9, #4294967295
    ba34:	2400      	movs	r4, #0
    ba36:	e6bd      	b.n	b7b4 <__divdi3+0xc4>
    ba38:	4542      	cmp	r2, r8
    ba3a:	bf84      	itt	hi
    ba3c:	f109 39ff 	addhi.w	r9, r9, #4294967295
    ba40:	44d0      	addhi	r8, sl
    ba42:	e7a7      	b.n	b994 <__divdi3+0x2a4>
    ba44:	4543      	cmp	r3, r8
    ba46:	bf84      	itt	hi
    ba48:	f10b 3bff 	addhi.w	fp, fp, #4294967295
    ba4c:	44a0      	addhi	r8, r4
    ba4e:	e74f      	b.n	b8f0 <__divdi3+0x200>

0000ba50 <__udivdi3>:
    ba50:	e92d 4ff0 	stmdb	sp!, {r4, r5, r6, r7, r8, r9, sl, fp, lr}
    ba54:	4605      	mov	r5, r0
    ba56:	b083      	sub	sp, #12
    ba58:	460c      	mov	r4, r1
    ba5a:	4617      	mov	r7, r2
    ba5c:	4680      	mov	r8, r0
    ba5e:	460e      	mov	r6, r1
    ba60:	2b00      	cmp	r3, #0
    ba62:	d14d      	bne.n	bb00 <__udivdi3+0xb0>
    ba64:	428a      	cmp	r2, r1
    ba66:	d961      	bls.n	bb2c <__udivdi3+0xdc>
    ba68:	fab2 f382 	clz	r3, r2
    ba6c:	b153      	cbz	r3, ba84 <__udivdi3+0x34>
    ba6e:	f1c3 0420 	rsb	r4, r3, #32
    ba72:	fa11 f603 	lsls.w	r6, r1, r3
    ba76:	fa30 f204 	lsrs.w	r2, r0, r4
    ba7a:	409f      	lsls	r7, r3
    ba7c:	ea42 0606 	orr.w	r6, r2, r6
    ba80:	fa00 f803 	lsl.w	r8, r0, r3
    ba84:	0c3c      	lsrs	r4, r7, #16
    ba86:	4630      	mov	r0, r6
    ba88:	4621      	mov	r1, r4
    ba8a:	fa1f fa87 	uxth.w	sl, r7
    ba8e:	f7ff faab 	bl	afe8 <__aeabi_uidiv>
    ba92:	4621      	mov	r1, r4
    ba94:	4681      	mov	r9, r0
    ba96:	4630      	mov	r0, r6
    ba98:	f7ff fbd4 	bl	b244 <__aeabi_uidivmod>
    ba9c:	ea4f 4018 	mov.w	r0, r8, lsr #16
    baa0:	fb0a f309 	mul.w	r3, sl, r9
    baa4:	ea40 4601 	orr.w	r6, r0, r1, lsl #16
    baa8:	42b3      	cmp	r3, r6
    baaa:	d908      	bls.n	babe <__udivdi3+0x6e>
    baac:	19f6      	adds	r6, r6, r7
    baae:	f109 39ff 	add.w	r9, r9, #4294967295
    bab2:	d204      	bcs.n	babe <__udivdi3+0x6e>
    bab4:	42b3      	cmp	r3, r6
    bab6:	bf84      	itt	hi
    bab8:	f109 39ff 	addhi.w	r9, r9, #4294967295
    babc:	19f6      	addhi	r6, r6, r7
    babe:	1af6      	subs	r6, r6, r3
    bac0:	4621      	mov	r1, r4
    bac2:	4630      	mov	r0, r6
    bac4:	fa1f f888 	uxth.w	r8, r8
    bac8:	f7ff fa8e 	bl	afe8 <__aeabi_uidiv>
    bacc:	4621      	mov	r1, r4
    bace:	4605      	mov	r5, r0
    bad0:	4630      	mov	r0, r6
    bad2:	f7ff fbb7 	bl	b244 <__aeabi_uidivmod>
    bad6:	fb0a fa05 	mul.w	sl, sl, r5
    bada:	ea48 4801 	orr.w	r8, r8, r1, lsl #16
    bade:	45c2      	cmp	sl, r8
    bae0:	d906      	bls.n	baf0 <__udivdi3+0xa0>
    bae2:	3d01      	subs	r5, #1
    bae4:	eb18 0807 	adds.w	r8, r8, r7
    bae8:	d202      	bcs.n	baf0 <__udivdi3+0xa0>
    baea:	45c2      	cmp	sl, r8
    baec:	bf88      	it	hi
    baee:	3d01      	subhi	r5, #1
    baf0:	ea45 4a09 	orr.w	sl, r5, r9, lsl #16
    baf4:	2600      	movs	r6, #0
    baf6:	4631      	mov	r1, r6
    baf8:	4650      	mov	r0, sl
    bafa:	b003      	add	sp, #12
    bafc:	e8bd 8ff0 	ldmia.w	sp!, {r4, r5, r6, r7, r8, r9, sl, fp, pc}
    bb00:	428b      	cmp	r3, r1
    bb02:	d85b      	bhi.n	bbbc <__udivdi3+0x16c>
    bb04:	fab3 f683 	clz	r6, r3
    bb08:	2e00      	cmp	r6, #0
    bb0a:	d15a      	bne.n	bbc2 <__udivdi3+0x172>
    bb0c:	428b      	cmp	r3, r1
    bb0e:	f04f 0a01 	mov.w	sl, #1
    bb12:	bf2c      	ite	cs
    bb14:	2400      	movcs	r4, #0
    bb16:	2401      	movcc	r4, #1
    bb18:	4282      	cmp	r2, r0
    bb1a:	bf8c      	ite	hi
    bb1c:	4625      	movhi	r5, r4
    bb1e:	f044 0501 	orrls.w	r5, r4, #1
    bb22:	2d00      	cmp	r5, #0
    bb24:	d1e7      	bne.n	baf6 <__udivdi3+0xa6>
    bb26:	462e      	mov	r6, r5
    bb28:	46aa      	mov	sl, r5
    bb2a:	e7e4      	b.n	baf6 <__udivdi3+0xa6>
    bb2c:	b922      	cbnz	r2, bb38 <__udivdi3+0xe8>
    bb2e:	2001      	movs	r0, #1
    bb30:	4611      	mov	r1, r2
    bb32:	f7ff fa59 	bl	afe8 <__aeabi_uidiv>
    bb36:	4607      	mov	r7, r0
    bb38:	fab7 f387 	clz	r3, r7
    bb3c:	2b00      	cmp	r3, #0
    bb3e:	f040 80b6 	bne.w	bcae <__udivdi3+0x25e>
    bb42:	1be4      	subs	r4, r4, r7
    bb44:	ea4f 4b17 	mov.w	fp, r7, lsr #16
    bb48:	b2bd      	uxth	r5, r7
    bb4a:	2601      	movs	r6, #1
    bb4c:	4659      	mov	r1, fp
    bb4e:	4620      	mov	r0, r4
    bb50:	f7ff fa4a 	bl	afe8 <__aeabi_uidiv>
    bb54:	4659      	mov	r1, fp
    bb56:	ea4f 4918 	mov.w	r9, r8, lsr #16
    bb5a:	4682      	mov	sl, r0
    bb5c:	4620      	mov	r0, r4
    bb5e:	f7ff fb71 	bl	b244 <__aeabi_uidivmod>
    bb62:	fb05 f30a 	mul.w	r3, r5, sl
    bb66:	ea49 4401 	orr.w	r4, r9, r1, lsl #16
    bb6a:	42a3      	cmp	r3, r4
    bb6c:	d908      	bls.n	bb80 <__udivdi3+0x130>
    bb6e:	19e4      	adds	r4, r4, r7
    bb70:	f10a 3aff 	add.w	sl, sl, #4294967295
    bb74:	d204      	bcs.n	bb80 <__udivdi3+0x130>
    bb76:	42a3      	cmp	r3, r4
    bb78:	bf84      	itt	hi
    bb7a:	f10a 3aff 	addhi.w	sl, sl, #4294967295
    bb7e:	19e4      	addhi	r4, r4, r7
    bb80:	1ae4      	subs	r4, r4, r3
    bb82:	4659      	mov	r1, fp
    bb84:	4620      	mov	r0, r4
    bb86:	f7ff fa2f 	bl	afe8 <__aeabi_uidiv>
    bb8a:	4659      	mov	r1, fp
    bb8c:	4681      	mov	r9, r0
    bb8e:	4620      	mov	r0, r4
    bb90:	f7ff fb58 	bl	b244 <__aeabi_uidivmod>
    bb94:	fa1f f388 	uxth.w	r3, r8
    bb98:	fb05 f509 	mul.w	r5, r5, r9
    bb9c:	ea43 4801 	orr.w	r8, r3, r1, lsl #16
    bba0:	4545      	cmp	r5, r8
    bba2:	d908      	bls.n	bbb6 <__udivdi3+0x166>
    bba4:	eb18 0807 	adds.w	r8, r8, r7
    bba8:	f109 39ff 	add.w	r9, r9, #4294967295
    bbac:	d203      	bcs.n	bbb6 <__udivdi3+0x166>
    bbae:	4545      	cmp	r5, r8
    bbb0:	bf88      	it	hi
    bbb2:	f109 39ff 	addhi.w	r9, r9, #4294967295
    bbb6:	ea49 4a0a 	orr.w	sl, r9, sl, lsl #16
    bbba:	e79c      	b.n	baf6 <__udivdi3+0xa6>
    bbbc:	2600      	movs	r6, #0
    bbbe:	46b2      	mov	sl, r6
    bbc0:	e799      	b.n	baf6 <__udivdi3+0xa6>
    bbc2:	f1c6 0120 	rsb	r1, r6, #32
    bbc6:	40b3      	lsls	r3, r6
    bbc8:	fa32 f701 	lsrs.w	r7, r2, r1
    bbcc:	fa24 f901 	lsr.w	r9, r4, r1
    bbd0:	431f      	orrs	r7, r3
    bbd2:	40b4      	lsls	r4, r6
    bbd4:	fa30 f301 	lsrs.w	r3, r0, r1
    bbd8:	4648      	mov	r0, r9
    bbda:	ea4f 4817 	mov.w	r8, r7, lsr #16
    bbde:	ea43 0104 	orr.w	r1, r3, r4
    bbe2:	9101      	str	r1, [sp, #4]
    bbe4:	4641      	mov	r1, r8
    bbe6:	40b2      	lsls	r2, r6
    bbe8:	9200      	str	r2, [sp, #0]
    bbea:	f7ff f9fd 	bl	afe8 <__aeabi_uidiv>
    bbee:	4641      	mov	r1, r8
    bbf0:	b2bc      	uxth	r4, r7
    bbf2:	4682      	mov	sl, r0
    bbf4:	4648      	mov	r0, r9
    bbf6:	f7ff fb25 	bl	b244 <__aeabi_uidivmod>
    bbfa:	9801      	ldr	r0, [sp, #4]
    bbfc:	fb04 f30a 	mul.w	r3, r4, sl
    bc00:	ea4f 4b10 	mov.w	fp, r0, lsr #16
    bc04:	ea4b 4b01 	orr.w	fp, fp, r1, lsl #16
    bc08:	455b      	cmp	r3, fp
    bc0a:	d905      	bls.n	bc18 <__udivdi3+0x1c8>
    bc0c:	eb1b 0b07 	adds.w	fp, fp, r7
    bc10:	f10a 3aff 	add.w	sl, sl, #4294967295
    bc14:	f0c0 8093 	bcc.w	bd3e <__udivdi3+0x2ee>
    bc18:	ebc3 0b0b 	rsb	fp, r3, fp
    bc1c:	4641      	mov	r1, r8
    bc1e:	4658      	mov	r0, fp
    bc20:	f7ff f9e2 	bl	afe8 <__aeabi_uidiv>
    bc24:	4641      	mov	r1, r8
    bc26:	4681      	mov	r9, r0
    bc28:	4658      	mov	r0, fp
    bc2a:	f7ff fb0b 	bl	b244 <__aeabi_uidivmod>
    bc2e:	9801      	ldr	r0, [sp, #4]
    bc30:	fb04 f409 	mul.w	r4, r4, r9
    bc34:	fa1f fc80 	uxth.w	ip, r0
    bc38:	ea4c 4301 	orr.w	r3, ip, r1, lsl #16
    bc3c:	429c      	cmp	r4, r3
    bc3e:	d903      	bls.n	bc48 <__udivdi3+0x1f8>
    bc40:	19db      	adds	r3, r3, r7
    bc42:	f109 39ff 	add.w	r9, r9, #4294967295
    bc46:	d374      	bcc.n	bd32 <__udivdi3+0x2e2>
    bc48:	9f00      	ldr	r7, [sp, #0]
    bc4a:	ea49 4a0a 	orr.w	sl, r9, sl, lsl #16
    bc4e:	1b1c      	subs	r4, r3, r4
    bc50:	fa1f fe8a 	uxth.w	lr, sl
    bc54:	b2b8      	uxth	r0, r7
    bc56:	0c3a      	lsrs	r2, r7, #16
    bc58:	ea4f 471a 	mov.w	r7, sl, lsr #16
    bc5c:	fb00 fc0e 	mul.w	ip, r0, lr
    bc60:	fb00 f307 	mul.w	r3, r0, r7
    bc64:	fb02 310e 	mla	r1, r2, lr, r3
    bc68:	fb02 f207 	mul.w	r2, r2, r7
    bc6c:	eb01 411c 	add.w	r1, r1, ip, lsr #16
    bc70:	428b      	cmp	r3, r1
    bc72:	bf88      	it	hi
    bc74:	f502 3280 	addhi.w	r2, r2, #65536	; 0x10000
    bc78:	eb02 4e11 	add.w	lr, r2, r1, lsr #16
    bc7c:	4574      	cmp	r4, lr
    bc7e:	d312      	bcc.n	bca6 <__udivdi3+0x256>
    bc80:	ea4f 4101 	mov.w	r1, r1, lsl #16
    bc84:	fa1f f28c 	uxth.w	r2, ip
    bc88:	bf14      	ite	ne
    bc8a:	2300      	movne	r3, #0
    bc8c:	2301      	moveq	r3, #1
    bc8e:	eb01 0c02 	add.w	ip, r1, r2
    bc92:	fa15 f606 	lsls.w	r6, r5, r6
    bc96:	4566      	cmp	r6, ip
    bc98:	bf2c      	ite	cs
    bc9a:	2600      	movcs	r6, #0
    bc9c:	f003 0601 	andcc.w	r6, r3, #1
    bca0:	2e00      	cmp	r6, #0
    bca2:	f43f af28 	beq.w	baf6 <__udivdi3+0xa6>
    bca6:	f10a 3aff 	add.w	sl, sl, #4294967295
    bcaa:	2600      	movs	r6, #0
    bcac:	e723      	b.n	baf6 <__udivdi3+0xa6>
    bcae:	409f      	lsls	r7, r3
    bcb0:	f1c3 0120 	rsb	r1, r3, #32
    bcb4:	fa34 f601 	lsrs.w	r6, r4, r1
    bcb8:	fa14 f203 	lsls.w	r2, r4, r3
    bcbc:	ea4f 4b17 	mov.w	fp, r7, lsr #16
    bcc0:	fa25 fa01 	lsr.w	sl, r5, r1
    bcc4:	4630      	mov	r0, r6
    bcc6:	4659      	mov	r1, fp
    bcc8:	fa05 f803 	lsl.w	r8, r5, r3
    bccc:	ea4a 0a02 	orr.w	sl, sl, r2
    bcd0:	f7ff f98a 	bl	afe8 <__aeabi_uidiv>
    bcd4:	4659      	mov	r1, fp
    bcd6:	b2bd      	uxth	r5, r7
    bcd8:	4681      	mov	r9, r0
    bcda:	4630      	mov	r0, r6
    bcdc:	f7ff fab2 	bl	b244 <__aeabi_uidivmod>
    bce0:	ea4f 4c1a 	mov.w	ip, sl, lsr #16
    bce4:	fb05 f309 	mul.w	r3, r5, r9
    bce8:	ea4c 4401 	orr.w	r4, ip, r1, lsl #16
    bcec:	42a3      	cmp	r3, r4
    bcee:	d903      	bls.n	bcf8 <__udivdi3+0x2a8>
    bcf0:	19e4      	adds	r4, r4, r7
    bcf2:	f109 39ff 	add.w	r9, r9, #4294967295
    bcf6:	d328      	bcc.n	bd4a <__udivdi3+0x2fa>
    bcf8:	1ae4      	subs	r4, r4, r3
    bcfa:	4659      	mov	r1, fp
    bcfc:	4620      	mov	r0, r4
    bcfe:	f7ff f973 	bl	afe8 <__aeabi_uidiv>
    bd02:	4659      	mov	r1, fp
    bd04:	4606      	mov	r6, r0
    bd06:	4620      	mov	r0, r4
    bd08:	f7ff fa9c 	bl	b244 <__aeabi_uidivmod>
    bd0c:	fa1f f48a 	uxth.w	r4, sl
    bd10:	fb05 f306 	mul.w	r3, r5, r6
    bd14:	ea44 4401 	orr.w	r4, r4, r1, lsl #16
    bd18:	42a3      	cmp	r3, r4
    bd1a:	d906      	bls.n	bd2a <__udivdi3+0x2da>
    bd1c:	3e01      	subs	r6, #1
    bd1e:	19e4      	adds	r4, r4, r7
    bd20:	d203      	bcs.n	bd2a <__udivdi3+0x2da>
    bd22:	42a3      	cmp	r3, r4
    bd24:	d901      	bls.n	bd2a <__udivdi3+0x2da>
    bd26:	3e01      	subs	r6, #1
    bd28:	19e4      	adds	r4, r4, r7
    bd2a:	1ae4      	subs	r4, r4, r3
    bd2c:	ea46 4609 	orr.w	r6, r6, r9, lsl #16
    bd30:	e70c      	b.n	bb4c <__udivdi3+0xfc>
    bd32:	429c      	cmp	r4, r3
    bd34:	bf84      	itt	hi
    bd36:	f109 39ff 	addhi.w	r9, r9, #4294967295
    bd3a:	19db      	addhi	r3, r3, r7
    bd3c:	e784      	b.n	bc48 <__udivdi3+0x1f8>
    bd3e:	455b      	cmp	r3, fp
    bd40:	bf84      	itt	hi
    bd42:	f10a 3aff 	addhi.w	sl, sl, #4294967295
    bd46:	44bb      	addhi	fp, r7
    bd48:	e766      	b.n	bc18 <__udivdi3+0x1c8>
    bd4a:	42a3      	cmp	r3, r4
    bd4c:	bf84      	itt	hi
    bd4e:	f109 39ff 	addhi.w	r9, r9, #4294967295
    bd52:	19e4      	addhi	r4, r4, r7
    bd54:	e7d0      	b.n	bcf8 <__udivdi3+0x2a8>
    bd56:	bf00      	nop
    bd58:	6474732f 	.word	0x6474732f
    bd5c:	00006e69 	.word	0x00006e69
    bd60:	6474732f 	.word	0x6474732f
    bd64:	0074756f 	.word	0x0074756f
    bd68:	6474732f 	.word	0x6474732f
    bd6c:	00727265 	.word	0x00727265
    bd70:	3a504952 	.word	0x3a504952
    bd74:	79735f20 	.word	0x79735f20
    bd78:	65735f73 	.word	0x65735f73
    bd7c:	29286b65 	.word	0x29286b65
    bd80:	206e6920 	.word	0x206e6920
    bd84:	6465626d 	.word	0x6465626d
    bd88:	2072612e 	.word	0x2072612e
    bd8c:	20736168 	.word	0x20736168
    bd90:	6e656562 	.word	0x6e656562
    bd94:	646f6d20 	.word	0x646f6d20
    bd98:	65696669 	.word	0x65696669
    bd9c:	200a0d64 	.word	0x200a0d64
    bda0:	20202020 	.word	0x20202020
    bda4:	20646e61 	.word	0x20646e61
    bda8:	65736c5f 	.word	0x65736c5f
    bdac:	69206b65 	.word	0x69206b65
    bdb0:	6367206e 	.word	0x6367206e
    bdb4:	626d3463 	.word	0x626d3463
    bdb8:	732f6465 	.word	0x732f6465
    bdbc:	61637379 	.word	0x61637379
    bdc0:	2e736c6c 	.word	0x2e736c6c
    bdc4:	656e2063 	.word	0x656e2063
    bdc8:	20736465 	.word	0x20736465
    bdcc:	62206f74 	.word	0x62206f74
    bdd0:	70752065 	.word	0x70752065
    bdd4:	65746164 	.word	0x65746164
    bdd8:	000a0d64 	.word	0x000a0d64
    bddc:	0a0d0a0d 	.word	0x0a0d0a0d
    bde0:	34434347 	.word	0x34434347
    bde4:	4445424d 	.word	0x4445424d
    bde8:	73655420 	.word	0x73655420
    bdec:	75532074 	.word	0x75532074
    bdf0:	0d657469 	.word	0x0d657469
    bdf4:	00000000 	.word	0x00000000
    bdf8:	6e617453 	.word	0x6e617453
    bdfc:	64726164 	.word	0x64726164
    be00:	4f2f4920 	.word	0x4f2f4920
    be04:	696e5520 	.word	0x696e5520
    be08:	65542074 	.word	0x65542074
    be0c:	0d737473 	.word	0x0d737473
    be10:	00000000 	.word	0x00000000
    be14:	74736554 	.word	0x74736554
    be18:	203a3120 	.word	0x203a3120
    be1c:	6e697270 	.word	0x6e697270
    be20:	29286674 	.word	0x29286674
    be24:	73657420 	.word	0x73657420
    be28:	00000d74 	.word	0x00000d74
    be2c:	74736554 	.word	0x74736554
    be30:	203a3220 	.word	0x203a3220
    be34:	6e616373 	.word	0x6e616373
    be38:	20292866 	.word	0x20292866
    be3c:	74736574 	.word	0x74736574
    be40:	0000000d 	.word	0x0000000d
    be44:	20202020 	.word	0x20202020
    be48:	65707954 	.word	0x65707954
    be4c:	6d756e20 	.word	0x6d756e20
    be50:	20726562 	.word	0x20726562
    be54:	20646e61 	.word	0x20646e61
    be58:	73657270 	.word	0x73657270
    be5c:	6e452073 	.word	0x6e452073
    be60:	3a726574 	.word	0x3a726574
    be64:	00000020 	.word	0x00000020
    be68:	00006425 	.word	0x00006425
    be6c:	2020200a 	.word	0x2020200a
    be70:	756f5920 	.word	0x756f5920
    be74:	61762072 	.word	0x61762072
    be78:	2065756c 	.word	0x2065756c
    be7c:	3a736177 	.word	0x3a736177
    be80:	0d642520 	.word	0x0d642520
    be84:	0000000a 	.word	0x0000000a
    be88:	74736554 	.word	0x74736554
    be8c:	203a3320 	.word	0x203a3320
    be90:	69727066 	.word	0x69727066
    be94:	2866746e 	.word	0x2866746e
    be98:	6f647473 	.word	0x6f647473
    be9c:	202c7475 	.word	0x202c7475
    bea0:	292e2e2e 	.word	0x292e2e2e
    bea4:	73657420 	.word	0x73657420
    bea8:	000a0d74 	.word	0x000a0d74
    beac:	74736554 	.word	0x74736554
    beb0:	203a3420 	.word	0x203a3420
    beb4:	69727066 	.word	0x69727066
    beb8:	2866746e 	.word	0x2866746e
    bebc:	65647473 	.word	0x65647473
    bec0:	202c7272 	.word	0x202c7272
    bec4:	292e2e2e 	.word	0x292e2e2e
    bec8:	73657420 	.word	0x73657420
    becc:	000a0d74 	.word	0x000a0d74
    bed0:	74736554 	.word	0x74736554
    bed4:	203a3520 	.word	0x203a3520
    bed8:	61637366 	.word	0x61637366
    bedc:	7328666e 	.word	0x7328666e
    bee0:	6e696474 	.word	0x6e696474
    bee4:	2e2e202c 	.word	0x2e2e202c
    bee8:	7420292e 	.word	0x7420292e
    beec:	0d747365 	.word	0x0d747365
    bef0:	00000000 	.word	0x00000000
    bef4:	74736554 	.word	0x74736554
    bef8:	6d6f6320 	.word	0x6d6f6320
    befc:	74656c70 	.word	0x74656c70
    bf00:	00000d65 	.word	0x00000d65
    bf04:	00000000 	.word	0x00000000

0000bf08 <_ZTVN10__cxxabiv117__class_type_infoE>:
    bf08:	00000000 0000bf38 000006b9 000006cd     ....8...........
    bf18:	00000941 00000945 00000693 000006eb     A...E...........
    bf28:	0000063d 00000657 00000631 00000000     =...W...1.......

0000bf38 <_ZTIN10__cxxabiv117__class_type_infoE>:
    bf38:	0000bf70 0000bf44 0000bfcc              p...D.......

0000bf44 <_ZTSN10__cxxabiv117__class_type_infoE>:
    bf44:	5f30314e 7878635f 76696261 5f373131     N10__cxxabiv117_
    bf54:	616c635f 745f7373 5f657079 6f666e69     _class_type_info
    bf64:	00000045                                E...

0000bf68 <_ZTVN10__cxxabiv120__si_class_type_infoE>:
    bf68:	00000000 0000bf98 0000090d 00000921     ............!...
    bf78:	00000941 00000945 00000693 000006eb     A...E...........
    bf88:	00000823 00000847 000008d7 00000000     #...G...........

0000bf98 <_ZTIN10__cxxabiv120__si_class_type_infoE>:
    bf98:	0000bf70 0000bfa4 0000bf38              p.......8...

0000bfa4 <_ZTSN10__cxxabiv120__si_class_type_infoE>:
    bfa4:	5f30314e 7878635f 76696261 5f303231     N10__cxxabiv120_
    bfb4:	5f69735f 73616c63 79745f73 695f6570     _si_class_type_i
    bfc4:	456f666e 00000000                       nfoE....

0000bfcc <_ZTISt9type_info>:
    bfcc:	0000bf10 0000bfd4                       ........

0000bfd4 <_ZTSSt9type_info>:
    bfd4:	74397453 5f657079 6f666e69 00000000     St9type_info....
    bfe4:	00000000                                ....

0000bfe8 <_ZTVSt9type_info>:
    bfe8:	00000000 0000bfcc 00000935 0000094d     ........5...M...
    bff8:	00000941 00000945 0000099f 00000949     A...E.......I...

0000c008 <_ZTIN10__cxxabiv121__vmi_class_type_infoE>:
    c008:	0000bf70 0000c014 0000bf38              p.......8...

0000c014 <_ZTSN10__cxxabiv121__vmi_class_type_infoE>:
    c014:	5f30314e 7878635f 76696261 5f313231     N10__cxxabiv121_
    c024:	696d765f 616c635f 745f7373 5f657079     _vmi_class_type_
    c034:	6f666e69 00000045 00000000              infoE.......

0000c040 <_ZTVN10__cxxabiv121__vmi_class_type_infoE>:
    c040:	00000000 0000c008 000009c5 000009d9     ................
    c050:	00000941 00000945 00000693 000006eb     A...E...........
    c060:	00000a97 00000bdf 00000a01 00000000     ................
    c070:	00000043                                C...

0000c074 <_global_impure_ptr>:
    c074:	1000001c                                ....

0000c078 <zeroes.6599>:
    c078:	30303030 30303030 30303030 30303030     0000000000000000
    c088:	00464e49 00666e69 004e414e 006e616e     INF.inf.NAN.nan.
    c098:	33323130 37363534 42413938 46454443     0123456789ABCDEF
    c0a8:	32313000 36353433 61393837 65646362     .0123456789abcde
    c0b8:	00300066                                f.0.

0000c0bc <blanks.6598>:
    c0bc:	20202020 20202020 20202020 20202020                     
    c0cc:	646c2565 000a0000                                e%ld..

0000c0d2 <basefix.6519>:
    c0d2:	0001000a 00030002 00050004 00070006     ................
    c0e2:	00090008 000b000a 000d000c 000f000e     ................
    c0f2:	20200010                                         ..

0000c0f4 <blanks.6613>:
    c0f4:	20202020 20202020 20202020 20202020                     

0000c104 <zeroes.6614>:
    c104:	30303030 30303030 30303030 30303030     0000000000000000

0000c114 <basefix.6535>:
    c114:	0001000a 00030002 00050004 00070006     ................
    c124:	00090008 000b000a 000d000c 000f000e     ................
    c134:	202c0010 636e7566 6e6f6974 6100203a     .., function: .a
    c144:	72657373 6e6f6974 73252220 61662022     ssertion "%s" fa
    c154:	64656c69 6966203a 2220656c 2c227325     iled: file "%s",
    c164:	6e696c20 64252065 73257325 2000000a               line %d%s%s..

0000c172 <_ctype_>:
    c172:	20202000 20202020 28282020 20282828     .         ((((( 
    c182:	20202020 20202020 20202020 20202020                     
    c192:	10108820 10101010 10101010 10101010      ...............
    c1a2:	04040410 04040404 10040404 10101010     ................
    c1b2:	41411010 41414141 01010101 01010101     ..AAAAAA........
    c1c2:	01010101 01010101 01010101 10101010     ................
    c1d2:	42421010 42424242 02020202 02020202     ..BBBBBB........
    c1e2:	02020202 02020202 02020202 10101010     ................
    c1f2:	00000020 00000000 00000000 00000000      ...............
	...
    c272:	666e4900 74696e69 614e0079 0000004e              .Infinity.NaN.

0000c280 <__sf_fake_stdin>:
	...

0000c2a0 <__sf_fake_stdout>:
	...

0000c2c0 <__sf_fake_stderr>:
	...
    c2e0:	49534f50 002e0058                       POSIX...

0000c2e8 <p05.5124>:
    c2e8:	00000005 00000019 0000007d 00000000     ........}.......

0000c2f8 <__mprec_tens>:
    c2f8:	00000000 3ff00000 00000000 40240000     .......?......$@
    c308:	00000000 40590000 00000000 408f4000     ......Y@.....@.@
    c318:	00000000 40c38800 00000000 40f86a00     .......@.....j.@
    c328:	00000000 412e8480 00000000 416312d0     .......A......cA
    c338:	00000000 4197d784 00000000 41cdcd65     .......A....e..A
    c348:	20000000 4202a05f e8000000 42374876     ... _..B....vH7B
    c358:	a2000000 426d1a94 e5400000 42a2309c     ......mB..@..0.B
    c368:	1e900000 42d6bcc4 26340000 430c6bf5     .......B..4&.k.C
    c378:	37e08000 4341c379 85d8a000 43763457     ...7y.AC....W4vC
    c388:	674ec800 43abc16d 60913d00 43e158e4     ..Ngm..C.=.`.X.C
    c398:	78b58c40 4415af1d d6e2ef50 444b1ae4     @..x...DP.....KD
    c3a8:	064dd592 4480f0cf c7e14af6 44b52d02     ..M....D.J...-.D
    c3b8:	79d99db4 44ea7843                       ...yCx.D

0000c3c0 <__mprec_bigtens>:
    c3c0:	37e08000 4341c379 b5056e17 4693b8b5     ...7y.AC.n.....F
    c3d0:	e93ff9f5 4d384f03 f9301d32 5a827748     ..?..O8M2.0.Hw.Z
    c3e0:	7f73bf3c 75154fdd                       <.s..O.u

0000c3e8 <tinytens>:
    c3e8:	97d889bc 3c9cd2b2 d5a8a733 3949f623     .......<3...#.I9
    c3f8:	44f4a73d 32a50ffd cf8c979d 255bba08     =..D...2......[%
    c408:	64ac6f43 0e180628                       Co.d(...

0000c410 <blanks.6556>:
    c410:	20202020 20202020 20202020 20202020                     

0000c420 <zeroes.6557>:
    c420:	30303030 30303030 30303030 30303030     0000000000000000
    c430:	33323130 37363534 00003938              0123456789..

0000c43c <_init>:
    c43c:	b5f8      	push	{r3, r4, r5, r6, r7, lr}
    c43e:	bf00      	nop
    c440:	bcf8      	pop	{r3, r4, r5, r6, r7}
    c442:	bc08      	pop	{r3}
    c444:	469e      	mov	lr, r3
    c446:	4770      	bx	lr

0000c448 <__preinit_array_start>:
    c448:	00001e11 	.word	0x00001e11

0000c44c <__init_array_start>:
    c44c:	00000315 	.word	0x00000315

0000c450 <_fini>:
    c450:	b5f8      	push	{r3, r4, r5, r6, r7, lr}
    c452:	bf00      	nop
    c454:	bcf8      	pop	{r3, r4, r5, r6, r7}
    c456:	bc08      	pop	{r3}
    c458:	469e      	mov	lr, r3
    c45a:	4770      	bx	lr

0000c45c <__fini_array_start>:
    c45c:	00000301 	.word	0x00000301

Disassembly of section i._sys_close:

0000c460 <_sys_close>:
    c460:	2803      	cmp	r0, #3
    c462:	bfbc      	itt	lt
    c464:	2000      	movlt	r0, #0
    c466:	4770      	bxlt	lr
    c468:	4907      	ldr	r1, [pc, #28]	; (c488 <__exidx_start+0x28>)
    c46a:	2200      	movs	r2, #0
    c46c:	eb01 0180 	add.w	r1, r1, r0, lsl #2
    c470:	f851 0c0c 	ldr.w	r0, [r1, #-12]
    c474:	f841 2c0c 	str.w	r2, [r1, #-12]
    c478:	2800      	cmp	r0, #0
    c47a:	bf04      	itt	eq
    c47c:	f04f 30ff 	moveq.w	r0, #4294967295
    c480:	4770      	bxeq	lr
    c482:	6801      	ldr	r1, [r0, #0]
    c484:	6849      	ldr	r1, [r1, #4]
    c486:	4708      	bx	r1
    c488:	100005c0 	.word	0x100005c0

Disassembly of section i._sys_istty:

0000c48c <_sys_istty>:
    c48c:	2803      	cmp	r0, #3
    c48e:	bfbc      	itt	lt
    c490:	2000      	movlt	r0, #0
    c492:	4770      	bxlt	lr
    c494:	4906      	ldr	r1, [pc, #24]	; (c4b0 <_sys_istty+0x24>)
    c496:	eb01 0080 	add.w	r0, r1, r0, lsl #2
    c49a:	f850 0c0c 	ldr.w	r0, [r0, #-12]
    c49e:	2800      	cmp	r0, #0
    c4a0:	bf04      	itt	eq
    c4a2:	f04f 30ff 	moveq.w	r0, #4294967295
    c4a6:	4770      	bxeq	lr
    c4a8:	6801      	ldr	r1, [r0, #0]
    c4aa:	68c9      	ldr	r1, [r1, #12]
    c4ac:	4708      	bx	r1
    c4ae:	0000      	.short	0x0000
    c4b0:	100005c0 	.word	0x100005c0

Disassembly of section i._sys_open:

0000c4b4 <_sys_open>:
    c4b4:	e92d 43f8 	stmdb	sp!, {r3, r4, r5, r6, r7, r8, r9, lr}
    c4b8:	460f      	mov	r7, r1
    c4ba:	4605      	mov	r5, r0
    c4bc:	4954      	ldr	r1, [pc, #336]	; (c610 <_sys_open+0x15c>)
    c4be:	f7f6 fbc6 	bl	2c4e <strcmp>
    c4c2:	4e54      	ldr	r6, [pc, #336]	; (c614 <_sys_open+0x160>)
    c4c4:	4c54      	ldr	r4, [pc, #336]	; (c618 <_sys_open+0x164>)
    c4c6:	f1a6 0801 	sub.w	r8, r6, #1
    c4ca:	b988      	cbnz	r0, c4f0 <_sys_open+0x3c>
    c4cc:	4631      	mov	r1, r6
    c4ce:	4640      	mov	r0, r8
    c4d0:	f000 faaa 	bl	ca28 <serial_init>
    c4d4:	2301      	movs	r3, #1
    c4d6:	2200      	movs	r2, #0
    c4d8:	2108      	movs	r1, #8
    c4da:	4620      	mov	r0, r4
    c4dc:	f000 fa54 	bl	c988 <serial_format>
    c4e0:	f44f 5116 	mov.w	r1, #9600	; 0x2580
    c4e4:	4620      	mov	r0, r4
    c4e6:	f000 f96b 	bl	c7c0 <serial_baud>
    c4ea:	2000      	movs	r0, #0
    c4ec:	e8bd 83f8 	ldmia.w	sp!, {r3, r4, r5, r6, r7, r8, r9, pc}
    c4f0:	494a      	ldr	r1, [pc, #296]	; (c61c <_sys_open+0x168>)
    c4f2:	4628      	mov	r0, r5
    c4f4:	f7f6 fbab 	bl	2c4e <strcmp>
    c4f8:	b988      	cbnz	r0, c51e <_sys_open+0x6a>
    c4fa:	4631      	mov	r1, r6
    c4fc:	4640      	mov	r0, r8
    c4fe:	f000 fa93 	bl	ca28 <serial_init>
    c502:	2301      	movs	r3, #1
    c504:	2200      	movs	r2, #0
    c506:	2108      	movs	r1, #8
    c508:	4620      	mov	r0, r4
    c50a:	f000 fa3d 	bl	c988 <serial_format>
    c50e:	f44f 5116 	mov.w	r1, #9600	; 0x2580
    c512:	4620      	mov	r0, r4
    c514:	f000 f954 	bl	c7c0 <serial_baud>
    c518:	2001      	movs	r0, #1
    c51a:	e8bd 83f8 	ldmia.w	sp!, {r3, r4, r5, r6, r7, r8, r9, pc}
    c51e:	4940      	ldr	r1, [pc, #256]	; (c620 <_sys_open+0x16c>)
    c520:	4628      	mov	r0, r5
    c522:	f7f6 fb94 	bl	2c4e <strcmp>
    c526:	b988      	cbnz	r0, c54c <_sys_open+0x98>
    c528:	4631      	mov	r1, r6
    c52a:	4640      	mov	r0, r8
    c52c:	f000 fa7c 	bl	ca28 <serial_init>
    c530:	2301      	movs	r3, #1
    c532:	2200      	movs	r2, #0
    c534:	2108      	movs	r1, #8
    c536:	4620      	mov	r0, r4
    c538:	f000 fa26 	bl	c988 <serial_format>
    c53c:	f44f 5116 	mov.w	r1, #9600	; 0x2580
    c540:	4620      	mov	r0, r4
    c542:	f000 f93d 	bl	c7c0 <serial_baud>
    c546:	2002      	movs	r0, #2
    c548:	e8bd 83f8 	ldmia.w	sp!, {r3, r4, r5, r6, r7, r8, r9, pc}
    c54c:	f8df 80d4 	ldr.w	r8, [pc, #212]	; c624 <_sys_open+0x170>
    c550:	2400      	movs	r4, #0
    c552:	f858 0024 	ldr.w	r0, [r8, r4, lsl #2]
    c556:	b118      	cbz	r0, c560 <_sys_open+0xac>
    c558:	1c64      	adds	r4, r4, #1
    c55a:	2c10      	cmp	r4, #16
    c55c:	d3f9      	bcc.n	c552 <_sys_open+0x9e>
    c55e:	e04e      	b.n	c5fe <_sys_open+0x14a>
    c560:	2c10      	cmp	r4, #16
    c562:	d24c      	bcs.n	c5fe <_sys_open+0x14a>
    c564:	7828      	ldrb	r0, [r5, #0]
    c566:	283a      	cmp	r0, #58	; 0x3a
    c568:	d109      	bne.n	c57e <_sys_open+0xca>
    c56a:	466a      	mov	r2, sp
    c56c:	a12e      	add	r1, pc, #184	; (adr r1, c628 <_sys_open+0x174>)
    c56e:	4628      	mov	r0, r5
    c570:	f7f6 fafc 	bl	2b6c <sscanf>
    c574:	9800      	ldr	r0, [sp, #0]
    c576:	2800      	cmp	r0, #0
    c578:	bf18      	it	ne
    c57a:	3010      	addne	r0, #16
    c57c:	e043      	b.n	c606 <_sys_open+0x152>
    c57e:	282f      	cmp	r0, #47	; 0x2f
    c580:	d13d      	bne.n	c5fe <_sys_open+0x14a>
    c582:	1c68      	adds	r0, r5, #1
    c584:	4605      	mov	r5, r0
    c586:	2100      	movs	r1, #0
    c588:	f815 2b01 	ldrb.w	r2, [r5], #1
    c58c:	2a2f      	cmp	r2, #47	; 0x2f
    c58e:	d004      	beq.n	c59a <_sys_open+0xe6>
    c590:	2a00      	cmp	r2, #0
    c592:	bf18      	it	ne
    c594:	1c49      	addne	r1, r1, #1
    c596:	d1f7      	bne.n	c588 <_sys_open+0xd4>
    c598:	2500      	movs	r5, #0
    c59a:	f000 f8c5 	bl	c728 <_ZN4mbed4Base6lookupEPKcj>
    c59e:	2800      	cmp	r0, #0
    c5a0:	d02d      	beq.n	c5fe <_sys_open+0x14a>
    c5a2:	f017 0f02 	tst.w	r7, #2
    c5a6:	bf18      	it	ne
    c5a8:	2602      	movne	r6, #2
    c5aa:	d108      	bne.n	c5be <_sys_open+0x10a>
    c5ac:	f017 0f04 	tst.w	r7, #4
    c5b0:	bf18      	it	ne
    c5b2:	2601      	movne	r6, #1
    c5b4:	d103      	bne.n	c5be <_sys_open+0x10a>
    c5b6:	f017 0608 	ands.w	r6, r7, #8
    c5ba:	bf18      	it	ne
    c5bc:	2609      	movne	r6, #9
    c5be:	f017 0f0c 	tst.w	r7, #12
    c5c2:	bf18      	it	ne
    c5c4:	f446 7600 	orrne.w	r6, r6, #512	; 0x200
    c5c8:	f017 0f04 	tst.w	r7, #4
    c5cc:	bf18      	it	ne
    c5ce:	f446 6680 	orrne.w	r6, r6, #1024	; 0x400
    c5d2:	f04f 33ff 	mov.w	r3, #4294967295
    c5d6:	b93d      	cbnz	r5, c5e8 <_sys_open+0x134>
    c5d8:	4a14      	ldr	r2, [pc, #80]	; (c62c <_sys_open+0x178>)
    c5da:	4915      	ldr	r1, [pc, #84]	; (c630 <_sys_open+0x17c>)
    c5dc:	f7f4 f8cf 	bl	77e <__dynamic_cast>
    c5e0:	2800      	cmp	r0, #0
    c5e2:	bf18      	it	ne
    c5e4:	3010      	addne	r0, #16
    c5e6:	e009      	b.n	c5fc <_sys_open+0x148>
    c5e8:	4a12      	ldr	r2, [pc, #72]	; (c634 <_sys_open+0x180>)
    c5ea:	4911      	ldr	r1, [pc, #68]	; (c630 <_sys_open+0x17c>)
    c5ec:	f7f4 f8c7 	bl	77e <__dynamic_cast>
    c5f0:	b128      	cbz	r0, c5fe <_sys_open+0x14a>
    c5f2:	6801      	ldr	r1, [r0, #0]
    c5f4:	4632      	mov	r2, r6
    c5f6:	690b      	ldr	r3, [r1, #16]
    c5f8:	4629      	mov	r1, r5
    c5fa:	4798      	blx	r3
    c5fc:	b918      	cbnz	r0, c606 <_sys_open+0x152>
    c5fe:	f04f 30ff 	mov.w	r0, #4294967295
    c602:	e8bd 83f8 	ldmia.w	sp!, {r3, r4, r5, r6, r7, r8, r9, pc}
    c606:	f848 0024 	str.w	r0, [r8, r4, lsl #2]
    c60a:	1ce0      	adds	r0, r4, #3
    c60c:	e8bd 83f8 	ldmia.w	sp!, {r3, r4, r5, r6, r7, r8, r9, pc}
    c610:	0000cee4 	.word	0x0000cee4
    c614:	2009c003 	.word	0x2009c003
    c618:	4000c000 	.word	0x4000c000
    c61c:	0000ceeb 	.word	0x0000ceeb
    c620:	0000cef3 	.word	0x0000cef3
    c624:	100005c0 	.word	0x100005c0
    c628:	0070253a 	.word	0x0070253a
    c62c:	0000d068 	.word	0x0000d068
    c630:	0000d0ec 	.word	0x0000d0ec
    c634:	0000d088 	.word	0x0000d088

Disassembly of section i._sys_read:

0000c638 <_sys_read>:
    c638:	b570      	push	{r4, r5, r6, lr}
    c63a:	460d      	mov	r5, r1
    c63c:	4614      	mov	r4, r2
    c63e:	2803      	cmp	r0, #3
    c640:	da05      	bge.n	c64e <_sys_read+0x16>
    c642:	480b      	ldr	r0, [pc, #44]	; (c670 <_sys_read+0x38>)
    c644:	f000 f9ea 	bl	ca1c <serial_getc>
    c648:	7028      	strb	r0, [r5, #0]
    c64a:	2001      	movs	r0, #1
    c64c:	e00e      	b.n	c66c <_sys_read+0x34>
    c64e:	4909      	ldr	r1, [pc, #36]	; (c674 <_sys_read+0x3c>)
    c650:	eb01 0080 	add.w	r0, r1, r0, lsl #2
    c654:	f850 0c0c 	ldr.w	r0, [r0, #-12]
    c658:	2800      	cmp	r0, #0
    c65a:	bf04      	itt	eq
    c65c:	f04f 30ff 	moveq.w	r0, #4294967295
    c660:	bd70      	popeq	{r4, r5, r6, pc}
    c662:	6801      	ldr	r1, [r0, #0]
    c664:	4622      	mov	r2, r4
    c666:	688b      	ldr	r3, [r1, #8]
    c668:	4629      	mov	r1, r5
    c66a:	4798      	blx	r3
    c66c:	1a20      	subs	r0, r4, r0
    c66e:	bd70      	pop	{r4, r5, r6, pc}
    c670:	4000c000 	.word	0x4000c000
    c674:	100005c0 	.word	0x100005c0

Disassembly of section i._sys_seek:

0000c678 <_sys_seek>:
    c678:	b510      	push	{r4, lr}
    c67a:	2803      	cmp	r0, #3
    c67c:	db0e      	blt.n	c69c <_sys_seek+0x24>
    c67e:	4a08      	ldr	r2, [pc, #32]	; (c6a0 <_sys_seek+0x28>)
    c680:	eb02 0080 	add.w	r0, r2, r0, lsl #2
    c684:	f850 0c0c 	ldr.w	r0, [r0, #-12]
    c688:	b128      	cbz	r0, c696 <_sys_seek+0x1e>
    c68a:	6802      	ldr	r2, [r0, #0]
    c68c:	6913      	ldr	r3, [r2, #16]
    c68e:	2200      	movs	r2, #0
    c690:	4798      	blx	r3
    c692:	1c40      	adds	r0, r0, #1
    c694:	d102      	bne.n	c69c <_sys_seek+0x24>
    c696:	f04f 30ff 	mov.w	r0, #4294967295
    c69a:	bd10      	pop	{r4, pc}
    c69c:	2000      	movs	r0, #0
    c69e:	bd10      	pop	{r4, pc}
    c6a0:	100005c0 	.word	0x100005c0

Disassembly of section i._sys_write:

0000c6a4 <_sys_write>:
    c6a4:	e92d 41f0 	stmdb	sp!, {r4, r5, r6, r7, r8, lr}
    c6a8:	460e      	mov	r6, r1
    c6aa:	4615      	mov	r5, r2
    c6ac:	2803      	cmp	r0, #3
    c6ae:	da0c      	bge.n	c6ca <_sys_write+0x26>
    c6b0:	2400      	movs	r4, #0
    c6b2:	2d00      	cmp	r5, #0
    c6b4:	d907      	bls.n	c6c6 <_sys_write+0x22>
    c6b6:	4f0e      	ldr	r7, [pc, #56]	; (c6f0 <_sys_write+0x4c>)
    c6b8:	5d31      	ldrb	r1, [r6, r4]
    c6ba:	4638      	mov	r0, r7
    c6bc:	f000 fa26 	bl	cb0c <serial_putc>
    c6c0:	1c64      	adds	r4, r4, #1
    c6c2:	42ac      	cmp	r4, r5
    c6c4:	d3f8      	bcc.n	c6b8 <_sys_write+0x14>
    c6c6:	4628      	mov	r0, r5
    c6c8:	e00f      	b.n	c6ea <_sys_write+0x46>
    c6ca:	490a      	ldr	r1, [pc, #40]	; (c6f4 <_sys_write+0x50>)
    c6cc:	eb01 0080 	add.w	r0, r1, r0, lsl #2
    c6d0:	f850 0c0c 	ldr.w	r0, [r0, #-12]
    c6d4:	2800      	cmp	r0, #0
    c6d6:	bf04      	itt	eq
    c6d8:	f04f 30ff 	moveq.w	r0, #4294967295
    c6dc:	e8bd 81f0 	ldmiaeq.w	sp!, {r4, r5, r6, r7, r8, pc}
    c6e0:	6801      	ldr	r1, [r0, #0]
    c6e2:	462a      	mov	r2, r5
    c6e4:	680b      	ldr	r3, [r1, #0]
    c6e6:	4631      	mov	r1, r6
    c6e8:	4798      	blx	r3
    c6ea:	1a28      	subs	r0, r5, r0
    c6ec:	e8bd 81f0 	ldmia.w	sp!, {r4, r5, r6, r7, r8, pc}
    c6f0:	4000c000 	.word	0x4000c000
    c6f4:	100005c0 	.word	0x100005c0

Disassembly of section i._ZN4mbed4Base5clearEPKcPc:

0000c6f8 <_ZN4mbed4Base5clearEPKcPc>:
    c6f8:	b570      	push	{r4, r5, r6, lr}
    c6fa:	480a      	ldr	r0, [pc, #40]	; (c724 <_ZN4mbed4Base5clearEPKcPc+0x2c>)
    c6fc:	6804      	ldr	r4, [r0, #0]
    c6fe:	2c00      	cmp	r4, #0
    c700:	bf08      	it	eq
    c702:	bd70      	popeq	{r4, r5, r6, pc}
    c704:	4625      	mov	r5, r4
    c706:	6864      	ldr	r4, [r4, #4]
    c708:	7b28      	ldrb	r0, [r5, #12]
    c70a:	b138      	cbz	r0, c71c <_ZN4mbed4Base5clearEPKcPc+0x24>
    c70c:	68a8      	ldr	r0, [r5, #8]
    c70e:	f7f4 f80d 	bl	72c <_ZdaPv>
    c712:	b11d      	cbz	r5, c71c <_ZN4mbed4Base5clearEPKcPc+0x24>
    c714:	6828      	ldr	r0, [r5, #0]
    c716:	6841      	ldr	r1, [r0, #4]
    c718:	4628      	mov	r0, r5
    c71a:	4788      	blx	r1
    c71c:	2c00      	cmp	r4, #0
    c71e:	d1f1      	bne.n	c704 <_ZN4mbed4Base5clearEPKcPc+0xc>
    c720:	bd70      	pop	{r4, r5, r6, pc}
    c722:	0000      	.short	0x0000
    c724:	10000000 	.word	0x10000000

Disassembly of section i._ZN4mbed4Base6lookupEPKcj:

0000c728 <_ZN4mbed4Base6lookupEPKcj>:
    c728:	b570      	push	{r4, r5, r6, lr}
    c72a:	4606      	mov	r6, r0
    c72c:	480b      	ldr	r0, [pc, #44]	; (c75c <_ZN4mbed4Base6lookupEPKcj+0x34>)
    c72e:	460d      	mov	r5, r1
    c730:	6804      	ldr	r4, [r0, #0]
    c732:	b184      	cbz	r4, c756 <_ZN4mbed4Base6lookupEPKcj+0x2e>
    c734:	68a0      	ldr	r0, [r4, #8]
    c736:	b158      	cbz	r0, c750 <_ZN4mbed4Base6lookupEPKcj+0x28>
    c738:	462a      	mov	r2, r5
    c73a:	4631      	mov	r1, r6
    c73c:	f7f6 fa9a 	bl	2c74 <strncmp>
    c740:	b930      	cbnz	r0, c750 <_ZN4mbed4Base6lookupEPKcj+0x28>
    c742:	68a0      	ldr	r0, [r4, #8]
    c744:	f7f6 fa8e 	bl	2c64 <strlen>
    c748:	42a8      	cmp	r0, r5
    c74a:	bf04      	itt	eq
    c74c:	4620      	moveq	r0, r4
    c74e:	bd70      	popeq	{r4, r5, r6, pc}
    c750:	6864      	ldr	r4, [r4, #4]
    c752:	2c00      	cmp	r4, #0
    c754:	d1ee      	bne.n	c734 <_ZN4mbed4Base6lookupEPKcj+0xc>
    c756:	2000      	movs	r0, #0
    c758:	bd70      	pop	{r4, r5, r6, pc}
    c75a:	0000      	.short	0x0000
    c75c:	10000000 	.word	0x10000000

Disassembly of section i._ZN4mbed4Base9list_objsEPKcPc:

0000c760 <_ZN4mbed4Base9list_objsEPKcPc>:
    c760:	2900      	cmp	r1, #0
    c762:	bf08      	it	eq
    c764:	4770      	bxeq	lr
    c766:	b570      	push	{r4, r5, r6, lr}
    c768:	480b      	ldr	r0, [pc, #44]	; (c798 <_ZN4mbed4Base9list_objsEPKcPc+0x38>)
    c76a:	460d      	mov	r5, r1
    c76c:	6804      	ldr	r4, [r0, #0]
    c76e:	2c00      	cmp	r4, #0
    c770:	bf08      	it	eq
    c772:	bd70      	popeq	{r4, r5, r6, pc}
    c774:	2620      	movs	r6, #32
    c776:	7b20      	ldrb	r0, [r4, #12]
    c778:	b150      	cbz	r0, c790 <_ZN4mbed4Base9list_objsEPKcPc+0x30>
    c77a:	a108      	add	r1, pc, #32	; (adr r1, c79c <_ZN4mbed4Base9list_objsEPKcPc+0x3c>)
    c77c:	4628      	mov	r0, r5
    c77e:	68a2      	ldr	r2, [r4, #8]
    c780:	f7f6 f9d0 	bl	2b24 <sprintf>
    c784:	4405      	add	r5, r0
    c786:	6860      	ldr	r0, [r4, #4]
    c788:	2800      	cmp	r0, #0
    c78a:	bf18      	it	ne
    c78c:	f805 6b01 	strbne.w	r6, [r5], #1
    c790:	6864      	ldr	r4, [r4, #4]
    c792:	2c00      	cmp	r4, #0
    c794:	d1ef      	bne.n	c776 <_ZN4mbed4Base9list_objsEPKcPc+0x16>
    c796:	bd70      	pop	{r4, r5, r6, pc}
    c798:	10000000 	.word	0x10000000
    c79c:	00007325 	.word	0x00007325

Disassembly of section .emb_text:

0000c7a0 <__get_PSP>:
    c7a0:	f3ef 8009 	mrs	r0, PSP
    c7a4:	4770      	bx	lr

0000c7a6 <__set_PSP>:
    c7a6:	f380 8809 	msr	PSP, r0
    c7aa:	4770      	bx	lr

0000c7ac <__get_MSP>:
    c7ac:	f3ef 8008 	mrs	r0, MSP
    c7b0:	4770      	bx	lr

0000c7b2 <__set_MSP>:
    c7b2:	f380 8808 	msr	MSP, r0
    c7b6:	4770      	bx	lr

0000c7b8 <__REV16>:
    c7b8:	ba40      	rev16	r0, r0
    c7ba:	4770      	bx	lr

0000c7bc <__REVSH>:
    c7bc:	bac0      	revsh	r0, r0
    c7be:	4770      	bx	lr

Disassembly of section i.serial_baud:

0000c7c0 <serial_baud>:
    c7c0:	e92d 4ff3 	stmdb	sp!, {r0, r1, r4, r5, r6, r7, r8, r9, sl, fp, lr}
    c7c4:	b089      	sub	sp, #36	; 0x24
    c7c6:	4608      	mov	r0, r1
    c7c8:	9909      	ldr	r1, [sp, #36]	; 0x24
    c7ca:	4b67      	ldr	r3, [pc, #412]	; (c968 <serial_baud+0x1a8>)
    c7cc:	f1a1 4280 	sub.w	r2, r1, #1073741824	; 0x40000000
    c7d0:	f5b2 4240 	subs.w	r2, r2, #49152	; 0xc000
    c7d4:	d015      	beq.n	c802 <serial_baud+0x42>
    c7d6:	f5b2 4f80 	cmp.w	r2, #16384	; 0x4000
    c7da:	d01d      	beq.n	c818 <serial_baud+0x58>
    c7dc:	f5b2 2f0c 	cmp.w	r2, #573440	; 0x8c000
    c7e0:	d040      	beq.n	c864 <serial_baud+0xa4>
    c7e2:	f5b2 2f10 	cmp.w	r2, #589824	; 0x90000
    c7e6:	d148      	bne.n	c87a <serial_baud+0xba>
    c7e8:	f8d3 11ac 	ldr.w	r1, [r3, #428]	; 0x1ac
    c7ec:	f421 2140 	bic.w	r1, r1, #786432	; 0xc0000
    c7f0:	f8c3 11ac 	str.w	r1, [r3, #428]	; 0x1ac
    c7f4:	f8d3 11ac 	ldr.w	r1, [r3, #428]	; 0x1ac
    c7f8:	f441 2180 	orr.w	r1, r1, #262144	; 0x40000
    c7fc:	f8c3 11ac 	str.w	r1, [r3, #428]	; 0x1ac
    c800:	e016      	b.n	c830 <serial_baud+0x70>
    c802:	f8d3 11a8 	ldr.w	r1, [r3, #424]	; 0x1a8
    c806:	f021 01c0 	bic.w	r1, r1, #192	; 0xc0
    c80a:	f8c3 11a8 	str.w	r1, [r3, #424]	; 0x1a8
    c80e:	f8d3 11a8 	ldr.w	r1, [r3, #424]	; 0x1a8
    c812:	f041 0140 	orr.w	r1, r1, #64	; 0x40
    c816:	e009      	b.n	c82c <serial_baud+0x6c>
    c818:	f8d3 11a8 	ldr.w	r1, [r3, #424]	; 0x1a8
    c81c:	f421 7140 	bic.w	r1, r1, #768	; 0x300
    c820:	f8c3 11a8 	str.w	r1, [r3, #424]	; 0x1a8
    c824:	f8d3 11a8 	ldr.w	r1, [r3, #424]	; 0x1a8
    c828:	f441 7180 	orr.w	r1, r1, #256	; 0x100
    c82c:	f8c3 11a8 	str.w	r1, [r3, #424]	; 0x1a8
    c830:	494e      	ldr	r1, [pc, #312]	; (c96c <serial_baud+0x1ac>)
    c832:	0102      	lsls	r2, r0, #4
    c834:	6809      	ldr	r1, [r1, #0]
    c836:	9102      	str	r1, [sp, #8]
    c838:	fbb1 f3f2 	udiv	r3, r1, r2
    c83c:	fb02 1113 	mls	r1, r2, r3, r1
    c840:	f04f 0a00 	mov.w	sl, #0
    c844:	f04f 0b01 	mov.w	fp, #1
    c848:	fa1f f883 	uxth.w	r8, r3
    c84c:	46d1      	mov	r9, sl
    c84e:	2900      	cmp	r1, #0
    c850:	d06e      	beq.n	c930 <serial_baud+0x170>
    c852:	f7f5 f8b5 	bl	19c0 <__aeabi_i2f>
    c856:	9008      	str	r0, [sp, #32]
    c858:	ea4f 0758 	mov.w	r7, r8, lsr #1
    c85c:	f8cd 8000 	str.w	r8, [sp]
    c860:	9001      	str	r0, [sp, #4]
    c862:	e05f      	b.n	c924 <serial_baud+0x164>
    c864:	f8d3 11ac 	ldr.w	r1, [r3, #428]	; 0x1ac
    c868:	f421 3140 	bic.w	r1, r1, #196608	; 0x30000
    c86c:	f8c3 11ac 	str.w	r1, [r3, #428]	; 0x1ac
    c870:	f8d3 11ac 	ldr.w	r1, [r3, #428]	; 0x1ac
    c874:	f441 3180 	orr.w	r1, r1, #65536	; 0x10000
    c878:	e7c0      	b.n	c7fc <serial_baud+0x3c>
    c87a:	2273      	movs	r2, #115	; 0x73
    c87c:	a13c      	add	r1, pc, #240	; (adr r1, c970 <serial_baud+0x1b0>)
    c87e:	a040      	add	r0, pc, #256	; (adr r0, c980 <serial_baud+0x1c0>)
    c880:	f7f5 fabf 	bl	1e02 <__aeabi_assert>
    c884:	2401      	movs	r4, #1
    c886:	2501      	movs	r5, #1
    c888:	2c01      	cmp	r4, #1
    c88a:	d945      	bls.n	c918 <serial_baud+0x158>
    c88c:	4638      	mov	r0, r7
    c88e:	f7f4 fcdd 	bl	124c <__aeabi_ui2d>
    c892:	2204      	movs	r2, #4
    c894:	f7f4 fb14 	bl	ec0 <scalbn>
    c898:	9007      	str	r0, [sp, #28]
    c89a:	9106      	str	r1, [sp, #24]
    c89c:	9802      	ldr	r0, [sp, #8]
    c89e:	f7f5 f88b 	bl	19b8 <__aeabi_ui2f>
    c8a2:	f7f4 fcf5 	bl	1290 <__aeabi_f2d>
    c8a6:	9005      	str	r0, [sp, #20]
    c8a8:	9104      	str	r1, [sp, #16]
    c8aa:	4620      	mov	r0, r4
    c8ac:	f7f5 f884 	bl	19b8 <__aeabi_ui2f>
    c8b0:	9003      	str	r0, [sp, #12]
    c8b2:	4628      	mov	r0, r5
    c8b4:	f7f5 f880 	bl	19b8 <__aeabi_ui2f>
    c8b8:	9903      	ldr	r1, [sp, #12]
    c8ba:	f7f5 f989 	bl	1bd0 <__aeabi_fdiv>
    c8be:	f04f 517e 	mov.w	r1, #1065353216	; 0x3f800000
    c8c2:	f7f4 ffc9 	bl	1858 <__addsf3>
    c8c6:	f7f4 fce3 	bl	1290 <__aeabi_f2d>
    c8ca:	9b06      	ldr	r3, [sp, #24]
    c8cc:	9a07      	ldr	r2, [sp, #28]
    c8ce:	f7f4 fd33 	bl	1338 <__aeabi_dmul>
    c8d2:	4602      	mov	r2, r0
    c8d4:	460b      	mov	r3, r1
    c8d6:	9904      	ldr	r1, [sp, #16]
    c8d8:	9805      	ldr	r0, [sp, #20]
    c8da:	f7f4 fe57 	bl	158c <__aeabi_ddiv>
    c8de:	f7f4 ff65 	bl	17ac <__aeabi_d2f>
    c8e2:	4601      	mov	r1, r0
    c8e4:	9808      	ldr	r0, [sp, #32]
    c8e6:	f7f4 ffb5 	bl	1854 <__aeabi_fsub>
    c8ea:	9908      	ldr	r1, [sp, #32]
    c8ec:	f7f5 f970 	bl	1bd0 <__aeabi_fdiv>
    c8f0:	f020 4600 	bic.w	r6, r0, #2147483648	; 0x80000000
    c8f4:	4630      	mov	r0, r6
    c8f6:	9901      	ldr	r1, [sp, #4]
    c8f8:	f7f5 fa42 	bl	1d80 <__aeabi_cfcmpeq>
    c8fc:	d208      	bcs.n	c910 <serial_baud+0x150>
    c8fe:	4821      	ldr	r0, [pc, #132]	; (c984 <serial_baud+0x1c4>)
    c900:	46b8      	mov	r8, r7
    c902:	46aa      	mov	sl, r5
    c904:	46a3      	mov	fp, r4
    c906:	9601      	str	r6, [sp, #4]
    c908:	4286      	cmp	r6, r0
    c90a:	bfb8      	it	lt
    c90c:	f04f 0901 	movlt.w	r9, #1
    c910:	1c68      	adds	r0, r5, #1
    c912:	b2c5      	uxtb	r5, r0
    c914:	42a5      	cmp	r5, r4
    c916:	d3cc      	bcc.n	c8b2 <serial_baud+0xf2>
    c918:	1c60      	adds	r0, r4, #1
    c91a:	b2c4      	uxtb	r4, r0
    c91c:	2c0f      	cmp	r4, #15
    c91e:	d9b2      	bls.n	c886 <serial_baud+0xc6>
    c920:	1c78      	adds	r0, r7, #1
    c922:	b287      	uxth	r7, r0
    c924:	9800      	ldr	r0, [sp, #0]
    c926:	4287      	cmp	r7, r0
    c928:	bf98      	it	ls
    c92a:	f1b9 0f00 	cmpls.w	r9, #0
    c92e:	d0a9      	beq.n	c884 <serial_baud+0xc4>
    c930:	9809      	ldr	r0, [sp, #36]	; 0x24
    c932:	7b00      	ldrb	r0, [r0, #12]
    c934:	f040 0180 	orr.w	r1, r0, #128	; 0x80
    c938:	9809      	ldr	r0, [sp, #36]	; 0x24
    c93a:	7301      	strb	r1, [r0, #12]
    c93c:	9909      	ldr	r1, [sp, #36]	; 0x24
    c93e:	ea4f 2018 	mov.w	r0, r8, lsr #8
    c942:	7108      	strb	r0, [r1, #4]
    c944:	9809      	ldr	r0, [sp, #36]	; 0x24
    c946:	f880 8000 	strb.w	r8, [r0]
    c94a:	9909      	ldr	r1, [sp, #36]	; 0x24
    c94c:	ea4a 100b 	orr.w	r0, sl, fp, lsl #4
    c950:	f881 0028 	strb.w	r0, [r1, #40]	; 0x28
    c954:	9809      	ldr	r0, [sp, #36]	; 0x24
    c956:	7b00      	ldrb	r0, [r0, #12]
    c958:	f020 0180 	bic.w	r1, r0, #128	; 0x80
    c95c:	9809      	ldr	r0, [sp, #36]	; 0x24
    c95e:	7301      	strb	r1, [r0, #12]
    c960:	b00b      	add	sp, #44	; 0x2c
    c962:	e8bd 8ff0 	ldmia.w	sp!, {r4, r5, r6, r7, r8, r9, sl, fp, pc}
    c966:	0000      	.short	0x0000
    c968:	400fc000 	.word	0x400fc000
    c96c:	10000014 	.word	0x10000014
    c970:	69726573 	.word	0x69726573
    c974:	615f6c61 	.word	0x615f6c61
    c978:	632e6970 	.word	0x632e6970
    c97c:	00000000 	.word	0x00000000
    c980:	00000030 	.word	0x00000030
    c984:	3a83126f 	.word	0x3a83126f

Disassembly of section i.serial_format:

0000c988 <serial_format>:
    c988:	b430      	push	{r4, r5}
    c98a:	f8df c080 	ldr.w	ip, [pc, #128]	; ca0c <serial_format+0x84>
    c98e:	1f4d      	subs	r5, r1, #5
    c990:	f8dc 4000 	ldr.w	r4, [ip]
    c994:	2d04      	cmp	r5, #4
    c996:	d307      	bcc.n	c9a8 <serial_format+0x20>
    c998:	460a      	mov	r2, r1
    c99a:	491d      	ldr	r1, [pc, #116]	; (ca10 <serial_format+0x88>)
    c99c:	4620      	mov	r0, r4
    c99e:	f7f5 fa4b 	bl	1e38 <fprintf>
    c9a2:	2001      	movs	r0, #1
    c9a4:	f000 f8b8 	bl	cb18 <exit>
    c9a8:	f1a1 0c05 	sub.w	ip, r1, #5
    c9ac:	2a05      	cmp	r2, #5
    c9ae:	d21c      	bcs.n	c9ea <serial_format+0x62>
    c9b0:	e8df f002 	tbb	[pc, r2]
    c9b4:	0b080503 	.word	0x0b080503
    c9b8:	000e      	.short	0x000e
    c9ba:	2100      	movs	r1, #0
    c9bc:	e000      	b.n	c9c0 <serial_format+0x38>
    c9be:	2101      	movs	r1, #1
    c9c0:	2200      	movs	r2, #0
    c9c2:	e007      	b.n	c9d4 <serial_format+0x4c>
    c9c4:	2101      	movs	r1, #1
    c9c6:	460a      	mov	r2, r1
    c9c8:	e004      	b.n	c9d4 <serial_format+0x4c>
    c9ca:	2101      	movs	r1, #1
    c9cc:	2202      	movs	r2, #2
    c9ce:	e001      	b.n	c9d4 <serial_format+0x4c>
    c9d0:	2101      	movs	r1, #1
    c9d2:	2203      	movs	r2, #3
    c9d4:	2b01      	cmp	r3, #1
    c9d6:	bf18      	it	ne
    c9d8:	2b02      	cmpne	r3, #2
    c9da:	d00d      	beq.n	c9f8 <serial_format+0x70>
    c9dc:	490d      	ldr	r1, [pc, #52]	; (ca14 <serial_format+0x8c>)
    c9de:	4620      	mov	r0, r4
    c9e0:	f7f5 fa2a 	bl	1e38 <fprintf>
    c9e4:	2001      	movs	r0, #1
    c9e6:	f000 f897 	bl	cb18 <exit>
    c9ea:	490b      	ldr	r1, [pc, #44]	; (ca18 <serial_format+0x90>)
    c9ec:	4620      	mov	r0, r4
    c9ee:	f7f5 fa23 	bl	1e38 <fprintf>
    c9f2:	2001      	movs	r0, #1
    c9f4:	f000 f890 	bl	cb18 <exit>
    c9f8:	1e5b      	subs	r3, r3, #1
    c9fa:	ea4c 0383 	orr.w	r3, ip, r3, lsl #2
    c9fe:	ea43 01c1 	orr.w	r1, r3, r1, lsl #3
    ca02:	ea41 1102 	orr.w	r1, r1, r2, lsl #4
    ca06:	7301      	strb	r1, [r0, #12]
    ca08:	bc30      	pop	{r4, r5}
    ca0a:	4770      	bx	lr
    ca0c:	1000063c 	.word	0x1000063c
    ca10:	0000cfec 	.word	0x0000cfec
    ca14:	0000d04c 	.word	0x0000d04c
    ca18:	0000d02c 	.word	0x0000d02c

Disassembly of section i.serial_getc:

0000ca1c <serial_getc>:
    ca1c:	7d01      	ldrb	r1, [r0, #20]
    ca1e:	f011 0f01 	tst.w	r1, #1
    ca22:	d0fb      	beq.n	ca1c <serial_getc>
    ca24:	7800      	ldrb	r0, [r0, #0]
    ca26:	4770      	bx	lr

Disassembly of section i.serial_init:

0000ca28 <serial_init>:
    ca28:	b570      	push	{r4, r5, r6, lr}
    ca2a:	460e      	mov	r6, r1
    ca2c:	4605      	mov	r5, r0
    ca2e:	492b      	ldr	r1, [pc, #172]	; (cadc <serial_init+0xb4>)
    ca30:	f000 f8ec 	bl	cc0c <pinmap_peripheral>
    ca34:	4604      	mov	r4, r0
    ca36:	492a      	ldr	r1, [pc, #168]	; (cae0 <serial_init+0xb8>)
    ca38:	4630      	mov	r0, r6
    ca3a:	f000 f8e7 	bl	cc0c <pinmap_peripheral>
    ca3e:	4601      	mov	r1, r0
    ca40:	4620      	mov	r0, r4
    ca42:	f000 f8c5 	bl	cbd0 <pinmap_merge>
    ca46:	4604      	mov	r4, r0
    ca48:	1c40      	adds	r0, r0, #1
    ca4a:	d107      	bne.n	ca5c <serial_init+0x34>
    ca4c:	482d      	ldr	r0, [pc, #180]	; (cb04 <serial_init+0xdc>)
    ca4e:	a125      	add	r1, pc, #148	; (adr r1, cae4 <serial_init+0xbc>)
    ca50:	6800      	ldr	r0, [r0, #0]
    ca52:	f7f5 f9f1 	bl	1e38 <fprintf>
    ca56:	2001      	movs	r0, #1
    ca58:	f000 f85e 	bl	cb18 <exit>
    ca5c:	f1a4 4080 	sub.w	r0, r4, #1073741824	; 0x40000000
    ca60:	4929      	ldr	r1, [pc, #164]	; (cb08 <serial_init+0xe0>)
    ca62:	f5b0 4040 	subs.w	r0, r0, #49152	; 0xc000
    ca66:	bf04      	itt	eq
    ca68:	f8d1 00c4 	ldreq.w	r0, [r1, #196]	; 0xc4
    ca6c:	f040 0008 	orreq.w	r0, r0, #8
    ca70:	d016      	beq.n	caa0 <serial_init+0x78>
    ca72:	f5b0 4f80 	cmp.w	r0, #16384	; 0x4000
    ca76:	bf04      	itt	eq
    ca78:	f8d1 00c4 	ldreq.w	r0, [r1, #196]	; 0xc4
    ca7c:	f040 0010 	orreq.w	r0, r0, #16
    ca80:	d00e      	beq.n	caa0 <serial_init+0x78>
    ca82:	f5b0 2f0c 	cmp.w	r0, #573440	; 0x8c000
    ca86:	bf04      	itt	eq
    ca88:	f8d1 00c4 	ldreq.w	r0, [r1, #196]	; 0xc4
    ca8c:	f040 7080 	orreq.w	r0, r0, #16777216	; 0x1000000
    ca90:	d006      	beq.n	caa0 <serial_init+0x78>
    ca92:	f5b0 2f10 	cmp.w	r0, #589824	; 0x90000
    ca96:	d105      	bne.n	caa4 <serial_init+0x7c>
    ca98:	f8d1 00c4 	ldr.w	r0, [r1, #196]	; 0xc4
    ca9c:	f040 7000 	orr.w	r0, r0, #33554432	; 0x2000000
    caa0:	f8c1 00c4 	str.w	r0, [r1, #196]	; 0xc4
    caa4:	2001      	movs	r0, #1
    caa6:	7220      	strb	r0, [r4, #8]
    caa8:	2000      	movs	r0, #0
    caaa:	6060      	str	r0, [r4, #4]
    caac:	f44f 5116 	mov.w	r1, #9600	; 0x2580
    cab0:	4620      	mov	r0, r4
    cab2:	f7ff fe85 	bl	c7c0 <serial_baud>
    cab6:	2301      	movs	r3, #1
    cab8:	2200      	movs	r2, #0
    caba:	2108      	movs	r1, #8
    cabc:	4620      	mov	r0, r4
    cabe:	f7ff ff63 	bl	c988 <serial_format>
    cac2:	2202      	movs	r2, #2
    cac4:	4905      	ldr	r1, [pc, #20]	; (cadc <serial_init+0xb4>)
    cac6:	4628      	mov	r0, r5
    cac8:	f000 f8cc 	bl	cc64 <pinmap_pinout>
    cacc:	2202      	movs	r2, #2
    cace:	4904      	ldr	r1, [pc, #16]	; (cae0 <serial_init+0xb8>)
    cad0:	4630      	mov	r0, r6
    cad2:	f000 f8c7 	bl	cc64 <pinmap_pinout>
    cad6:	4620      	mov	r0, r4
    cad8:	bd70      	pop	{r4, r5, r6, pc}
    cada:	0000      	.short	0x0000
    cadc:	0000cf14 	.word	0x0000cf14
    cae0:	0000cf80 	.word	0x0000cf80
    cae4:	69726553 	.word	0x69726553
    cae8:	70206c61 	.word	0x70206c61
    caec:	756f6e69 	.word	0x756f6e69
    caf0:	616d2074 	.word	0x616d2074
    caf4:	6e697070 	.word	0x6e697070
    caf8:	61662067 	.word	0x61662067
    cafc:	64656c69 	.word	0x64656c69
    cb00:	00000000 	.word	0x00000000
    cb04:	1000063c 	.word	0x1000063c
    cb08:	400fc000 	.word	0x400fc000

Disassembly of section i.serial_putc:

0000cb0c <serial_putc>:
    cb0c:	7d02      	ldrb	r2, [r0, #20]
    cb0e:	f012 0f20 	tst.w	r2, #32
    cb12:	d0fb      	beq.n	cb0c <serial_putc>
    cb14:	7001      	strb	r1, [r0, #0]
    cb16:	4770      	bx	lr

Disassembly of section i.exit:

0000cb18 <exit>:
    cb18:	b510      	push	{r4, lr}
    cb1a:	4604      	mov	r4, r0
    cb1c:	f000 f908 	bl	cd30 <semihost_exit>
    cb20:	2c00      	cmp	r4, #0
    cb22:	bf1c      	itt	ne
    cb24:	e8bd 4010 	ldmiane.w	sp!, {r4, lr}
    cb28:	f000 b908 	bne.w	cd3c <mbed_die>
    cb2c:	e7fe      	b.n	cb2c <exit+0x14>

Disassembly of section i.pin_function:

0000cb30 <pin_function>:
    cb30:	1c42      	adds	r2, r0, #1
    cb32:	bf08      	it	eq
    cb34:	4770      	bxeq	lr
    cb36:	f1a0 5000 	sub.w	r0, r0, #536870912	; 0x20000000
    cb3a:	f5a0 201c 	sub.w	r0, r0, #638976	; 0x9c000
    cb3e:	0903      	lsrs	r3, r0, #4
    cb40:	0700      	lsls	r0, r0, #28
    cb42:	0ec2      	lsrs	r2, r0, #27
    cb44:	4807      	ldr	r0, [pc, #28]	; (cb64 <pin_function+0x34>)
    cb46:	eb00 0083 	add.w	r0, r0, r3, lsl #2
    cb4a:	6803      	ldr	r3, [r0, #0]
    cb4c:	f04f 0c03 	mov.w	ip, #3
    cb50:	fa0c fc02 	lsl.w	ip, ip, r2
    cb54:	ea23 030c 	bic.w	r3, r3, ip
    cb58:	6003      	str	r3, [r0, #0]
    cb5a:	6803      	ldr	r3, [r0, #0]
    cb5c:	4091      	lsls	r1, r2
    cb5e:	4319      	orrs	r1, r3
    cb60:	6001      	str	r1, [r0, #0]
    cb62:	4770      	bx	lr
    cb64:	4002c000 	.word	0x4002c000

Disassembly of section i.pin_mode:

0000cb68 <pin_mode>:
    cb68:	1c42      	adds	r2, r0, #1
    cb6a:	bf08      	it	eq
    cb6c:	4770      	bxeq	lr
    cb6e:	b430      	push	{r4, r5}
    cb70:	f1a0 5000 	sub.w	r0, r0, #536870912	; 0x20000000
    cb74:	f5a0 201c 	sub.w	r0, r0, #638976	; 0x9c000
    cb78:	4c14      	ldr	r4, [pc, #80]	; (cbcc <pin_mode+0x64>)
    cb7a:	0942      	lsrs	r2, r0, #5
    cb7c:	eb04 0282 	add.w	r2, r4, r2, lsl #2
    cb80:	6e95      	ldr	r5, [r2, #104]	; 0x68
    cb82:	f000 0c1f 	and.w	ip, r0, #31
    cb86:	f3c1 0380 	ubfx	r3, r1, #2, #1
    cb8a:	fa03 fc0c 	lsl.w	ip, r3, ip
    cb8e:	ea25 050c 	bic.w	r5, r5, ip
    cb92:	6695      	str	r5, [r2, #104]	; 0x68
    cb94:	6e95      	ldr	r5, [r2, #104]	; 0x68
    cb96:	ea45 0c0c 	orr.w	ip, r5, ip
    cb9a:	f8c2 c068 	str.w	ip, [r2, #104]	; 0x68
    cb9e:	2b00      	cmp	r3, #0
    cba0:	bf1c      	itt	ne
    cba2:	bc30      	popne	{r4, r5}
    cba4:	4770      	bxne	lr
    cba6:	0903      	lsrs	r3, r0, #4
    cba8:	0700      	lsls	r0, r0, #28
    cbaa:	0ec2      	lsrs	r2, r0, #27
    cbac:	eb04 0083 	add.w	r0, r4, r3, lsl #2
    cbb0:	6c03      	ldr	r3, [r0, #64]	; 0x40
    cbb2:	f04f 0c03 	mov.w	ip, #3
    cbb6:	fa0c fc02 	lsl.w	ip, ip, r2
    cbba:	ea23 030c 	bic.w	r3, r3, ip
    cbbe:	6403      	str	r3, [r0, #64]	; 0x40
    cbc0:	6c03      	ldr	r3, [r0, #64]	; 0x40
    cbc2:	4091      	lsls	r1, r2
    cbc4:	4319      	orrs	r1, r3
    cbc6:	6401      	str	r1, [r0, #64]	; 0x40
    cbc8:	bc30      	pop	{r4, r5}
    cbca:	4770      	bx	lr
    cbcc:	4002c000 	.word	0x4002c000

Disassembly of section i.pinmap_merge:

0000cbd0 <pinmap_merge>:
    cbd0:	4288      	cmp	r0, r1
    cbd2:	bf08      	it	eq
    cbd4:	4770      	bxeq	lr
    cbd6:	1c42      	adds	r2, r0, #1
    cbd8:	bf04      	itt	eq
    cbda:	4608      	moveq	r0, r1
    cbdc:	4770      	bxeq	lr
    cbde:	1c49      	adds	r1, r1, #1
    cbe0:	bf08      	it	eq
    cbe2:	4770      	bxeq	lr
    cbe4:	a103      	add	r1, pc, #12	; (adr r1, cbf4 <pinmap_merge+0x24>)
    cbe6:	4808      	ldr	r0, [pc, #32]	; (cc08 <pinmap_merge+0x38>)
    cbe8:	6800      	ldr	r0, [r0, #0]
    cbea:	f7f5 f925 	bl	1e38 <fprintf>
    cbee:	2001      	movs	r0, #1
    cbf0:	f7ff ff92 	bl	cb18 <exit>
    cbf4:	6d6e6970 	.word	0x6d6e6970
    cbf8:	6d207061 	.word	0x6d207061
    cbfc:	6d2d7369 	.word	0x6d2d7369
    cc00:	68637461 	.word	0x68637461
    cc04:	00000000 	.word	0x00000000
    cc08:	1000063c 	.word	0x1000063c

Disassembly of section i.pinmap_peripheral:

0000cc0c <pinmap_peripheral>:
    cc0c:	1c42      	adds	r2, r0, #1
    cc0e:	bf04      	itt	eq
    cc10:	f04f 30ff 	moveq.w	r0, #4294967295
    cc14:	4770      	bxeq	lr
    cc16:	680a      	ldr	r2, [r1, #0]
    cc18:	1c52      	adds	r2, r2, #1
    cc1a:	d008      	beq.n	cc2e <pinmap_peripheral+0x22>
    cc1c:	680a      	ldr	r2, [r1, #0]
    cc1e:	4282      	cmp	r2, r0
    cc20:	bf04      	itt	eq
    cc22:	6848      	ldreq	r0, [r1, #4]
    cc24:	4770      	bxeq	lr
    cc26:	f851 2f0c 	ldr.w	r2, [r1, #12]!
    cc2a:	1c52      	adds	r2, r2, #1
    cc2c:	d1f6      	bne.n	cc1c <pinmap_peripheral+0x10>
    cc2e:	480c      	ldr	r0, [pc, #48]	; (cc60 <pinmap_peripheral+0x54>)
    cc30:	a103      	add	r1, pc, #12	; (adr r1, cc40 <pinmap_peripheral+0x34>)
    cc32:	6800      	ldr	r0, [r0, #0]
    cc34:	f7f5 f900 	bl	1e38 <fprintf>
    cc38:	2001      	movs	r0, #1
    cc3a:	f7ff ff6d 	bl	cb18 <exit>
    cc3e:	0000      	.short	0x0000
    cc40:	6d6e6970 	.word	0x6d6e6970
    cc44:	6e207061 	.word	0x6e207061
    cc48:	6620746f 	.word	0x6620746f
    cc4c:	646e756f 	.word	0x646e756f
    cc50:	726f6620 	.word	0x726f6620
    cc54:	72657020 	.word	0x72657020
    cc58:	65687069 	.word	0x65687069
    cc5c:	006c6172 	.word	0x006c6172
    cc60:	1000063c 	.word	0x1000063c

Disassembly of section i.pinmap_pinout:

0000cc64 <pinmap_pinout>:
    cc64:	b4f0      	push	{r4, r5, r6, r7}
    cc66:	1c43      	adds	r3, r0, #1
    cc68:	bf04      	itt	eq
    cc6a:	bcf0      	popeq	{r4, r5, r6, r7}
    cc6c:	4770      	bxeq	lr
    cc6e:	680b      	ldr	r3, [r1, #0]
    cc70:	1c5b      	adds	r3, r3, #1
    cc72:	d047      	beq.n	cd04 <pinmap_pinout+0xa0>
    cc74:	680b      	ldr	r3, [r1, #0]
    cc76:	4283      	cmp	r3, r0
    cc78:	d140      	bne.n	ccfc <pinmap_pinout+0x98>
    cc7a:	f1a0 5300 	sub.w	r3, r0, #536870912	; 0x20000000
    cc7e:	f5a3 231c 	sub.w	r3, r3, #638976	; 0x9c000
    cc82:	1c45      	adds	r5, r0, #1
    cc84:	0918      	lsrs	r0, r3, #4
    cc86:	688c      	ldr	r4, [r1, #8]
    cc88:	0719      	lsls	r1, r3, #28
    cc8a:	0ec9      	lsrs	r1, r1, #27
    cc8c:	4f21      	ldr	r7, [pc, #132]	; (cd14 <pinmap_pinout+0xb0>)
    cc8e:	f04f 0c03 	mov.w	ip, #3
    cc92:	fa0c fc01 	lsl.w	ip, ip, r1
    cc96:	eb07 0080 	add.w	r0, r7, r0, lsl #2
    cc9a:	2d00      	cmp	r5, #0
    cc9c:	d009      	beq.n	ccb2 <pinmap_pinout+0x4e>
    cc9e:	6805      	ldr	r5, [r0, #0]
    cca0:	ea25 050c 	bic.w	r5, r5, ip
    cca4:	6005      	str	r5, [r0, #0]
    cca6:	6805      	ldr	r5, [r0, #0]
    cca8:	fa04 f401 	lsl.w	r4, r4, r1
    ccac:	ea45 0404 	orr.w	r4, r5, r4
    ccb0:	6004      	str	r4, [r0, #0]
    ccb2:	bf04      	itt	eq
    ccb4:	bcf0      	popeq	{r4, r5, r6, r7}
    ccb6:	4770      	bxeq	lr
    ccb8:	ea4f 1553 	mov.w	r5, r3, lsr #5
    ccbc:	f003 061f 	and.w	r6, r3, #31
    ccc0:	eb07 0385 	add.w	r3, r7, r5, lsl #2
    ccc4:	6e9f      	ldr	r7, [r3, #104]	; 0x68
    ccc6:	f3c2 0480 	ubfx	r4, r2, #2, #1
    ccca:	fa04 f506 	lsl.w	r5, r4, r6
    ccce:	ea27 0605 	bic.w	r6, r7, r5
    ccd2:	669e      	str	r6, [r3, #104]	; 0x68
    ccd4:	6e9e      	ldr	r6, [r3, #104]	; 0x68
    ccd6:	ea46 0505 	orr.w	r5, r6, r5
    ccda:	669d      	str	r5, [r3, #104]	; 0x68
    ccdc:	2c00      	cmp	r4, #0
    ccde:	bf1c      	itt	ne
    cce0:	bcf0      	popne	{r4, r5, r6, r7}
    cce2:	4770      	bxne	lr
    cce4:	6c03      	ldr	r3, [r0, #64]	; 0x40
    cce6:	ea23 030c 	bic.w	r3, r3, ip
    ccea:	6403      	str	r3, [r0, #64]	; 0x40
    ccec:	6c03      	ldr	r3, [r0, #64]	; 0x40
    ccee:	fa02 f101 	lsl.w	r1, r2, r1
    ccf2:	ea43 0101 	orr.w	r1, r3, r1
    ccf6:	6401      	str	r1, [r0, #64]	; 0x40
    ccf8:	bcf0      	pop	{r4, r5, r6, r7}
    ccfa:	4770      	bx	lr
    ccfc:	f851 3f0c 	ldr.w	r3, [r1, #12]!
    cd00:	1c5b      	adds	r3, r3, #1
    cd02:	d1b7      	bne.n	cc74 <pinmap_pinout+0x10>
    cd04:	4809      	ldr	r0, [pc, #36]	; (cd2c <pinmap_pinout+0xc8>)
    cd06:	a104      	add	r1, pc, #16	; (adr r1, cd18 <pinmap_pinout+0xb4>)
    cd08:	6800      	ldr	r0, [r0, #0]
    cd0a:	f7f5 f895 	bl	1e38 <fprintf>
    cd0e:	2001      	movs	r0, #1
    cd10:	f7ff ff02 	bl	cb18 <exit>
    cd14:	4002c000 	.word	0x4002c000
    cd18:	6c756f63 	.word	0x6c756f63
    cd1c:	6f6e2064 	.word	0x6f6e2064
    cd20:	69702074 	.word	0x69702074
    cd24:	74756f6e 	.word	0x74756f6e
    cd28:	00000000 	.word	0x00000000
    cd2c:	1000063c 	.word	0x1000063c

Disassembly of section i.semihost_exit:

0000cd30 <semihost_exit>:
    cd30:	b084      	sub	sp, #16
    cd32:	4669      	mov	r1, sp
    cd34:	2018      	movs	r0, #24
    cd36:	beab      	bkpt	0x00ab
    cd38:	b004      	add	sp, #16
    cd3a:	4770      	bx	lr

Disassembly of section i.mbed_die:

0000cd3c <mbed_die>:
    cd3c:	e92d 41f0 	stmdb	sp!, {r4, r5, r6, r7, r8, lr}
    cd40:	4c1b      	ldr	r4, [pc, #108]	; (cdb0 <mbed_die+0x74>)
    cd42:	4620      	mov	r0, r4
    cd44:	f000 f844 	bl	cdd0 <gpio_output>
    cd48:	1ca5      	adds	r5, r4, #2
    cd4a:	4628      	mov	r0, r5
    cd4c:	f000 f840 	bl	cdd0 <gpio_output>
    cd50:	1ce6      	adds	r6, r4, #3
    cd52:	4630      	mov	r0, r6
    cd54:	f000 f83c 	bl	cdd0 <gpio_output>
    cd58:	1d67      	adds	r7, r4, #5
    cd5a:	4638      	mov	r0, r7
    cd5c:	f000 f838 	bl	cdd0 <gpio_output>
    cd60:	2101      	movs	r1, #1
    cd62:	4620      	mov	r0, r4
    cd64:	f000 f84c 	bl	ce00 <gpio_write>
    cd68:	2100      	movs	r1, #0
    cd6a:	4628      	mov	r0, r5
    cd6c:	f000 f848 	bl	ce00 <gpio_write>
    cd70:	2100      	movs	r1, #0
    cd72:	4630      	mov	r0, r6
    cd74:	f000 f844 	bl	ce00 <gpio_write>
    cd78:	2101      	movs	r1, #1
    cd7a:	4638      	mov	r0, r7
    cd7c:	f000 f840 	bl	ce00 <gpio_write>
    cd80:	2096      	movs	r0, #150	; 0x96
    cd82:	f000 f817 	bl	cdb4 <wait_ms>
    cd86:	2100      	movs	r1, #0
    cd88:	4620      	mov	r0, r4
    cd8a:	f000 f839 	bl	ce00 <gpio_write>
    cd8e:	2101      	movs	r1, #1
    cd90:	4628      	mov	r0, r5
    cd92:	f000 f835 	bl	ce00 <gpio_write>
    cd96:	2101      	movs	r1, #1
    cd98:	4630      	mov	r0, r6
    cd9a:	f000 f831 	bl	ce00 <gpio_write>
    cd9e:	2100      	movs	r1, #0
    cda0:	4638      	mov	r0, r7
    cda2:	f000 f82d 	bl	ce00 <gpio_write>
    cda6:	2096      	movs	r0, #150	; 0x96
    cda8:	f000 f804 	bl	cdb4 <wait_ms>
    cdac:	e7d8      	b.n	cd60 <mbed_die+0x24>
    cdae:	0000      	.short	0x0000
    cdb0:	2009c032 	.word	0x2009c032

Disassembly of section i.wait_ms:

0000cdb4 <wait_ms>:
    cdb4:	b570      	push	{r4, r5, r6, lr}
    cdb6:	f44f 717a 	mov.w	r1, #1000	; 0x3e8
    cdba:	fb00 f501 	mul.w	r5, r0, r1
    cdbe:	f000 f82b 	bl	ce18 <us_ticker_read>
    cdc2:	4604      	mov	r4, r0
    cdc4:	f000 f828 	bl	ce18 <us_ticker_read>
    cdc8:	1b00      	subs	r0, r0, r4
    cdca:	42a8      	cmp	r0, r5
    cdcc:	d3fa      	bcc.n	cdc4 <wait_ms+0x10>
    cdce:	bd70      	pop	{r4, r5, r6, pc}

Disassembly of section i.gpio_output:

0000cdd0 <gpio_output>:
    cdd0:	b570      	push	{r4, r5, r6, lr}
    cdd2:	4604      	mov	r4, r0
    cdd4:	1c40      	adds	r0, r0, #1
    cdd6:	bf08      	it	eq
    cdd8:	bd70      	popeq	{r4, r5, r6, pc}
    cdda:	f024 051f 	bic.w	r5, r4, #31
    cdde:	f004 001f 	and.w	r0, r4, #31
    cde2:	2101      	movs	r1, #1
    cde4:	fa01 f600 	lsl.w	r6, r1, r0
    cde8:	2100      	movs	r1, #0
    cdea:	4620      	mov	r0, r4
    cdec:	f7ff fea0 	bl	cb30 <pin_function>
    cdf0:	2102      	movs	r1, #2
    cdf2:	4620      	mov	r0, r4
    cdf4:	f7ff feb8 	bl	cb68 <pin_mode>
    cdf8:	6828      	ldr	r0, [r5, #0]
    cdfa:	4330      	orrs	r0, r6
    cdfc:	6028      	str	r0, [r5, #0]
    cdfe:	bd70      	pop	{r4, r5, r6, pc}

Disassembly of section i.gpio_write:

0000ce00 <gpio_write>:
    ce00:	f020 021f 	bic.w	r2, r0, #31
    ce04:	f000 001f 	and.w	r0, r0, #31
    ce08:	2301      	movs	r3, #1
    ce0a:	fa03 f000 	lsl.w	r0, r3, r0
    ce0e:	2900      	cmp	r1, #0
    ce10:	bf0c      	ite	eq
    ce12:	61d0      	streq	r0, [r2, #28]
    ce14:	6190      	strne	r0, [r2, #24]
    ce16:	4770      	bx	lr

Disassembly of section i.us_ticker_read:

0000ce18 <us_ticker_read>:
    ce18:	b570      	push	{r4, r5, r6, lr}
    ce1a:	4c0a      	ldr	r4, [pc, #40]	; (ce44 <us_ticker_read+0x2c>)
    ce1c:	4d0a      	ldr	r5, [pc, #40]	; (ce48 <us_ticker_read+0x30>)
    ce1e:	6820      	ldr	r0, [r4, #0]
    ce20:	b958      	cbnz	r0, ce3a <us_ticker_read+0x22>
    ce22:	4628      	mov	r0, r5
    ce24:	f000 f81e 	bl	ce64 <timer_init>
    ce28:	4908      	ldr	r1, [pc, #32]	; (ce4c <us_ticker_read+0x34>)
    ce2a:	4628      	mov	r0, r5
    ce2c:	f000 f810 	bl	ce50 <timer_frequency>
    ce30:	4628      	mov	r0, r5
    ce32:	f000 f851 	bl	ced8 <timer_start>
    ce36:	2001      	movs	r0, #1
    ce38:	6020      	str	r0, [r4, #0]
    ce3a:	4628      	mov	r0, r5
    ce3c:	e8bd 4070 	ldmia.w	sp!, {r4, r5, r6, lr}
    ce40:	f000 b848 	b.w	ced4 <timer_read>
    ce44:	10000018 	.word	0x10000018
    ce48:	40094000 	.word	0x40094000
    ce4c:	000f4240 	.word	0x000f4240

Disassembly of section i.timer_frequency:

0000ce50 <timer_frequency>:
    ce50:	4a03      	ldr	r2, [pc, #12]	; (ce60 <timer_frequency+0x10>)
    ce52:	6812      	ldr	r2, [r2, #0]
    ce54:	0892      	lsrs	r2, r2, #2
    ce56:	fbb2 f1f1 	udiv	r1, r2, r1
    ce5a:	1e49      	subs	r1, r1, #1
    ce5c:	60c1      	str	r1, [r0, #12]
    ce5e:	4770      	bx	lr
    ce60:	10000014 	.word	0x10000014

Disassembly of section i.timer_init:

0000ce64 <timer_init>:
    ce64:	4a18      	ldr	r2, [pc, #96]	; (cec8 <timer_init+0x64>)
    ce66:	f1b0 2f40 	cmp.w	r0, #1073758208	; 0x40004000
    ce6a:	bf04      	itt	eq
    ce6c:	f8d2 10c4 	ldreq.w	r1, [r2, #196]	; 0xc4
    ce70:	f041 0102 	orreq.w	r1, r1, #2
    ce74:	d018      	beq.n	cea8 <timer_init+0x44>
    ce76:	f1a0 4180 	sub.w	r1, r0, #1073741824	; 0x40000000
    ce7a:	f5b1 4100 	subs.w	r1, r1, #32768	; 0x8000
    ce7e:	bf04      	itt	eq
    ce80:	f8d2 10c4 	ldreq.w	r1, [r2, #196]	; 0xc4
    ce84:	f041 0104 	orreq.w	r1, r1, #4
    ce88:	d00e      	beq.n	cea8 <timer_init+0x44>
    ce8a:	f5b1 2f08 	cmp.w	r1, #557056	; 0x88000
    ce8e:	bf04      	itt	eq
    ce90:	f8d2 10c4 	ldreq.w	r1, [r2, #196]	; 0xc4
    ce94:	f441 0180 	orreq.w	r1, r1, #4194304	; 0x400000
    ce98:	d006      	beq.n	cea8 <timer_init+0x44>
    ce9a:	f5b1 2f0c 	cmp.w	r1, #573440	; 0x8c000
    ce9e:	d105      	bne.n	ceac <timer_init+0x48>
    cea0:	f8d2 10c4 	ldr.w	r1, [r2, #196]	; 0xc4
    cea4:	f441 0100 	orr.w	r1, r1, #8388608	; 0x800000
    cea8:	f8c2 10c4 	str.w	r1, [r2, #196]	; 0xc4
    ceac:	2102      	movs	r1, #2
    ceae:	6041      	str	r1, [r0, #4]
    ceb0:	2100      	movs	r1, #0
    ceb2:	6701      	str	r1, [r0, #112]	; 0x70
    ceb4:	4905      	ldr	r1, [pc, #20]	; (cecc <timer_init+0x68>)
    ceb6:	4a06      	ldr	r2, [pc, #24]	; (ced0 <timer_init+0x6c>)
    ceb8:	6809      	ldr	r1, [r1, #0]
    ceba:	0889      	lsrs	r1, r1, #2
    cebc:	fbb1 f1f2 	udiv	r1, r1, r2
    cec0:	1e49      	subs	r1, r1, #1
    cec2:	60c1      	str	r1, [r0, #12]
    cec4:	4770      	bx	lr
    cec6:	0000      	.short	0x0000
    cec8:	400fc000 	.word	0x400fc000
    cecc:	10000014 	.word	0x10000014
    ced0:	000f4240 	.word	0x000f4240

Disassembly of section i.timer_read:

0000ced4 <timer_read>:
    ced4:	6880      	ldr	r0, [r0, #8]
    ced6:	4770      	bx	lr

Disassembly of section i.timer_start:

0000ced8 <timer_start>:
    ced8:	6881      	ldr	r1, [r0, #8]
    ceda:	2900      	cmp	r1, #0
    cedc:	d1fc      	bne.n	ced8 <timer_start>
    cede:	2101      	movs	r1, #1
    cee0:	6041      	str	r1, [r0, #4]
    cee2:	4770      	bx	lr
