
StdIO.elf:     file format elf32-littlearm


Disassembly of section .text:

00000000 <__Vectors>:
       0:	00 80 00 10 d9 04 00 00 e1 04 00 00 e3 04 00 00     ................
      10:	e5 04 00 00 e7 04 00 00 e9 04 00 00 00 00 00 00     ................
	...
      2c:	eb 04 00 00 ed 04 00 00 00 00 00 00 ef 04 00 00     ................
      3c:	f1 04 00 00 f3 04 00 00 f3 04 00 00 f3 04 00 00     ................
      4c:	f3 04 00 00 f3 04 00 00 f3 04 00 00 f3 04 00 00     ................
      5c:	f3 04 00 00 f3 04 00 00 f3 04 00 00 f3 04 00 00     ................
      6c:	f3 04 00 00 f3 04 00 00 f3 04 00 00 f3 04 00 00     ................
      7c:	f3 04 00 00 f3 04 00 00 f3 04 00 00 f3 04 00 00     ................
      8c:	f3 04 00 00 f3 04 00 00 f3 04 00 00 f3 04 00 00     ................
      9c:	f3 04 00 00 f3 04 00 00 f3 04 00 00 f3 04 00 00     ................
      ac:	f3 04 00 00 f3 04 00 00 f3 04 00 00 f3 04 00 00     ................
      bc:	f3 04 00 00 f3 04 00 00                             ........

000000c4 <__do_global_dtors_aux>:
      c4:	f240 53b0 	movw	r3, #1456	; 0x5b0
      c8:	f2c1 0300 	movt	r3, #4096	; 0x1000
      cc:	781a      	ldrb	r2, [r3, #0]
      ce:	b90a      	cbnz	r2, d4 <__do_global_dtors_aux+0x10>
      d0:	2001      	movs	r0, #1
      d2:	7018      	strb	r0, [r3, #0]
      d4:	4770      	bx	lr
      d6:	bf00      	nop

000000d8 <frame_dummy>:
      d8:	f240 50b0 	movw	r0, #1456	; 0x5b0
      dc:	f2c1 0000 	movt	r0, #4096	; 0x1000
      e0:	b508      	push	{r3, lr}
      e2:	6803      	ldr	r3, [r0, #0]
      e4:	b12b      	cbz	r3, f2 <frame_dummy+0x1a>
      e6:	f240 0300 	movw	r3, #0
      ea:	f2c0 0300 	movt	r3, #0
      ee:	b103      	cbz	r3, f2 <frame_dummy+0x1a>
      f0:	4798      	blx	r3
      f2:	bd08      	pop	{r3, pc}

000000f4 <__main>:
      f4:	4839      	ldr	r0, [pc, #228]	; (1dc <__ARM_grp_.debug_frame$8+0x4>)
      f6:	493a      	ldr	r1, [pc, #232]	; (1e0 <__ARM_grp_.debug_frame$8+0x8>)
      f8:	b570      	push	{r4, r5, r6, lr}
      fa:	4288      	cmp	r0, r1
      fc:	d023      	beq.n	146 <__main+0x52>
      fe:	4c39      	ldr	r4, [pc, #228]	; (1e4 <__ARM_grp_.debug_frame$8+0xc>)
     100:	42a1      	cmp	r1, r4
     102:	d220      	bcs.n	146 <__main+0x52>
     104:	4602      	mov	r2, r0
     106:	f852 6b04 	ldr.w	r6, [r2], #4
     10a:	460b      	mov	r3, r1
     10c:	43cd      	mvns	r5, r1
     10e:	f843 6b04 	str.w	r6, [r3], #4
     112:	1965      	adds	r5, r4, r5
     114:	42a3      	cmp	r3, r4
     116:	f3c5 0580 	ubfx	r5, r5, #2, #1
     11a:	d214      	bcs.n	146 <__main+0x52>
     11c:	b13d      	cbz	r5, 12e <__main+0x3a>
     11e:	6816      	ldr	r6, [r2, #0]
     120:	f100 0208 	add.w	r2, r0, #8
     124:	601e      	str	r6, [r3, #0]
     126:	f101 0308 	add.w	r3, r1, #8
     12a:	42a3      	cmp	r3, r4
     12c:	d20b      	bcs.n	146 <__main+0x52>
     12e:	4610      	mov	r0, r2
     130:	f850 5b04 	ldr.w	r5, [r0], #4
     134:	4619      	mov	r1, r3
     136:	f841 5b04 	str.w	r5, [r1], #4
     13a:	6856      	ldr	r6, [r2, #4]
     13c:	1d02      	adds	r2, r0, #4
     13e:	605e      	str	r6, [r3, #4]
     140:	1d0b      	adds	r3, r1, #4
     142:	42a3      	cmp	r3, r4
     144:	d3f3      	bcc.n	12e <__main+0x3a>
     146:	4828      	ldr	r0, [pc, #160]	; (1e8 <__ARM_grp_.debug_frame$8+0x10>)
     148:	4928      	ldr	r1, [pc, #160]	; (1ec <__ARM_grp_.debug_frame$8+0x14>)
     14a:	4288      	cmp	r0, r1
     14c:	d024      	beq.n	198 <__ARM_grp_.debug_frame$5+0x14>
     14e:	4c28      	ldr	r4, [pc, #160]	; (1f0 <__ARM_grp_.debug_frame$8+0x18>)
     150:	42a1      	cmp	r1, r4
     152:	d221      	bcs.n	198 <__ARM_grp_.debug_frame$5+0x14>
     154:	4602      	mov	r2, r0
     156:	f852 6b04 	ldr.w	r6, [r2], #4
     15a:	460b      	mov	r3, r1
     15c:	43cd      	mvns	r5, r1
     15e:	f843 6b04 	str.w	r6, [r3], #4
     162:	eb04 0c05 	add.w	ip, r4, r5
     166:	42a3      	cmp	r3, r4
     168:	f3cc 0580 	ubfx	r5, ip, #2, #1
     16c:	d214      	bcs.n	198 <__ARM_grp_.debug_frame$5+0x14>
     16e:	b13d      	cbz	r5, 180 <__main+0x8c>
     170:	6815      	ldr	r5, [r2, #0]
     172:	f100 0208 	add.w	r2, r0, #8
     176:	601d      	str	r5, [r3, #0]
     178:	f101 0308 	add.w	r3, r1, #8
     17c:	42a3      	cmp	r3, r4
     17e:	d20b      	bcs.n	198 <__ARM_grp_.debug_frame$5+0x14>
     180:	4610      	mov	r0, r2
     182:	f850 5b04 	ldr.w	r5, [r0], #4
     186:	4619      	mov	r1, r3
     188:	f841 5b04 	str.w	r5, [r1], #4
     18c:	6856      	ldr	r6, [r2, #4]
     18e:	1d02      	adds	r2, r0, #4
     190:	605e      	str	r6, [r3, #4]
     192:	1d0b      	adds	r3, r1, #4
     194:	42a3      	cmp	r3, r4
     196:	d3f3      	bcc.n	180 <__main+0x8c>
     198:	4a16      	ldr	r2, [pc, #88]	; (1f4 <__ARM_grp_.debug_frame$8+0x1c>)
     19a:	4817      	ldr	r0, [pc, #92]	; (1f8 <__ARM_grp_.debug_frame$8+0x20>)
     19c:	4282      	cmp	r2, r0
     19e:	d216      	bcs.n	1ce <__ARM_grp_.debug_frame$5+0x4a>
     1a0:	2100      	movs	r1, #0
     1a2:	4613      	mov	r3, r2
     1a4:	43d6      	mvns	r6, r2
     1a6:	f843 1b04 	str.w	r1, [r3], #4
     1aa:	1984      	adds	r4, r0, r6
     1ac:	4283      	cmp	r3, r0
     1ae:	f3c4 0480 	ubfx	r4, r4, #2, #1
     1b2:	d20c      	bcs.n	1ce <__ARM_grp_.debug_frame$5+0x4a>
     1b4:	b124      	cbz	r4, 1c0 <__ARM_grp_.debug_frame$5+0x3c>
     1b6:	6019      	str	r1, [r3, #0]
     1b8:	f102 0308 	add.w	r3, r2, #8
     1bc:	4283      	cmp	r3, r0
     1be:	d206      	bcs.n	1ce <__ARM_grp_.debug_frame$5+0x4a>
     1c0:	461a      	mov	r2, r3
     1c2:	f842 1b04 	str.w	r1, [r2], #4
     1c6:	6059      	str	r1, [r3, #4]
     1c8:	1d13      	adds	r3, r2, #4
     1ca:	4283      	cmp	r3, r0
     1cc:	d3f8      	bcc.n	1c0 <__ARM_grp_.debug_frame$5+0x3c>
     1ce:	f001 ff61 	bl	2094 <__libc_init_array>
     1d2:	f000 f927 	bl	424 <main>
     1d6:	f00c fc43 	bl	ca60 <exit>
     1da:	bf00      	nop
     1dc:	0000d054 	.word	0x0000d054
     1e0:	10000000 	.word	0x10000000
     1e4:	100005b0 	.word	0x100005b0
     1e8:	0000c330 	.word	0x0000c330
     1ec:	10000000 	.word	0x10000000
     1f0:	10000000 	.word	0x10000000
     1f4:	100005b0 	.word	0x100005b0
     1f8:	10000744 	.word	0x10000744

000001fc <_ZL20_OpenStandardHandlesv>:
     1fc:	b508      	push	{r3, lr}
     1fe:	2100      	movs	r1, #0
     200:	4807      	ldr	r0, [pc, #28]	; (220 <__ARM_grp_.debug_frame$11+0x4>)
     202:	f00c f8bf 	bl	c384 <_sys_open>
     206:	2104      	movs	r1, #4
     208:	4806      	ldr	r0, [pc, #24]	; (224 <__ARM_grp_.debug_frame$11+0x8>)
     20a:	f00c f8bb 	bl	c384 <_sys_open>
     20e:	4806      	ldr	r0, [pc, #24]	; (228 <__ARM_grp_.debug_frame$11+0xc>)
     210:	2104      	movs	r1, #4
     212:	f00c f8b7 	bl	c384 <_sys_open>
     216:	4b05      	ldr	r3, [pc, #20]	; (22c <__ARM_grp_.debug_frame$11+0x10>)
     218:	2201      	movs	r2, #1
     21a:	601a      	str	r2, [r3, #0]
     21c:	bd08      	pop	{r3, pc}
     21e:	bf00      	nop
     220:	0000bc28 	.word	0x0000bc28
     224:	0000bc30 	.word	0x0000bc30
     228:	0000bc38 	.word	0x0000bc38
     22c:	100005bc 	.word	0x100005bc

00000230 <_kill>:
     230:	4b02      	ldr	r3, [pc, #8]	; (23c <_kill+0xc>)
     232:	2216      	movs	r2, #22
     234:	601a      	str	r2, [r3, #0]
     236:	f04f 30ff 	mov.w	r0, #4294967295
     23a:	4770      	bx	lr
     23c:	10000640 	.word	0x10000640

00000240 <_exit>:
     240:	b508      	push	{r3, lr}
     242:	f00c fc0d 	bl	ca60 <exit>
     246:	bf00      	nop

00000248 <_getpid>:
     248:	2001      	movs	r0, #1
     24a:	4770      	bx	lr

0000024c <_sbrk>:
     24c:	b570      	push	{r4, r5, r6, lr}
     24e:	4d09      	ldr	r5, [pc, #36]	; (274 <__ARM_grp_.debug_frame$14+0x4>)
     250:	4606      	mov	r6, r0
     252:	682c      	ldr	r4, [r5, #0]
     254:	b14c      	cbz	r4, 26a <_sbrk+0x1e>
     256:	f00c fa4d 	bl	c6f4 <__get_MSP>
     25a:	19a3      	adds	r3, r4, r6
     25c:	4283      	cmp	r3, r0
     25e:	d807      	bhi.n	270 <__ARM_grp_.debug_frame$14>
     260:	6829      	ldr	r1, [r5, #0]
     262:	4620      	mov	r0, r4
     264:	198e      	adds	r6, r1, r6
     266:	602e      	str	r6, [r5, #0]
     268:	bd70      	pop	{r4, r5, r6, pc}
     26a:	4c03      	ldr	r4, [pc, #12]	; (278 <__ARM_grp_.debug_frame$14+0x8>)
     26c:	602c      	str	r4, [r5, #0]
     26e:	e7f2      	b.n	256 <_sbrk+0xa>
     270:	f001 fd28 	bl	1cc4 <abort>
     274:	100005b8 	.word	0x100005b8
     278:	10000748 	.word	0x10000748

0000027c <_close>:
     27c:	f00c b858 	b.w	c330 <__fini_array_end>

00000280 <_isatty>:
     280:	2802      	cmp	r0, #2
     282:	dc01      	bgt.n	288 <_isatty+0x8>
     284:	2001      	movs	r0, #1
     286:	4770      	bx	lr
     288:	f00c b868 	b.w	c35c <_sys_istty>

0000028c <_lseek>:
     28c:	2802      	cmp	r0, #2
     28e:	e92d 47f0 	stmdb	sp!, {r4, r5, r6, r7, r8, r9, sl, lr}
     292:	dd6e      	ble.n	372 <__ARM_grp_.debug_frame$23+0x22>
     294:	4f40      	ldr	r7, [pc, #256]	; (398 <__ARM_grp_.debug_frame$26+0x4>)
     296:	683b      	ldr	r3, [r7, #0]
     298:	2b00      	cmp	r3, #0
     29a:	d161      	bne.n	360 <__ARM_grp_.debug_frame$23+0x10>
     29c:	4d3f      	ldr	r5, [pc, #252]	; (39c <__ARM_grp_.debug_frame$26+0x8>)
     29e:	4c40      	ldr	r4, [pc, #256]	; (3a0 <__ARM_grp_.debug_frame$26+0xc>)
     2a0:	f025 0c01 	bic.w	ip, r5, #1
     2a4:	4665      	mov	r5, ip
     2a6:	f10c 0628 	add.w	r6, ip, #40	; 0x28
     2aa:	f815 ab01 	ldrb.w	sl, [r5], #1
     2ae:	f3c3 084f 	ubfx	r8, r3, #1, #16
     2b2:	ea83 030a 	eor.w	r3, r3, sl
     2b6:	f013 0f01 	tst.w	r3, #1
     2ba:	bf1c      	itt	ne
     2bc:	ea88 0804 	eorne.w	r8, r8, r4
     2c0:	fa1f f888 	uxthne.w	r8, r8
     2c4:	ea4f 095a 	mov.w	r9, sl, lsr #1
     2c8:	ea88 0a09 	eor.w	sl, r8, r9
     2cc:	ea4f 0358 	mov.w	r3, r8, lsr #1
     2d0:	f01a 0f01 	tst.w	sl, #1
     2d4:	bf1c      	itt	ne
     2d6:	4063      	eorne	r3, r4
     2d8:	b29b      	uxthne	r3, r3
     2da:	ea4f 0859 	mov.w	r8, r9, lsr #1
     2de:	ea83 0908 	eor.w	r9, r3, r8
     2e2:	085b      	lsrs	r3, r3, #1
     2e4:	f019 0f01 	tst.w	r9, #1
     2e8:	bf1c      	itt	ne
     2ea:	4063      	eorne	r3, r4
     2ec:	b29b      	uxthne	r3, r3
     2ee:	ea4f 0858 	mov.w	r8, r8, lsr #1
     2f2:	ea83 0908 	eor.w	r9, r3, r8
     2f6:	085b      	lsrs	r3, r3, #1
     2f8:	f019 0f01 	tst.w	r9, #1
     2fc:	bf1c      	itt	ne
     2fe:	4063      	eorne	r3, r4
     300:	b29b      	uxthne	r3, r3
     302:	ea4f 0858 	mov.w	r8, r8, lsr #1
     306:	ea83 0908 	eor.w	r9, r3, r8
     30a:	085b      	lsrs	r3, r3, #1
     30c:	f019 0f01 	tst.w	r9, #1
     310:	bf1c      	itt	ne
     312:	4063      	eorne	r3, r4
     314:	b29b      	uxthne	r3, r3
     316:	ea4f 0858 	mov.w	r8, r8, lsr #1
     31a:	ea83 0908 	eor.w	r9, r3, r8
     31e:	085b      	lsrs	r3, r3, #1
     320:	f019 0f01 	tst.w	r9, #1
     324:	bf1c      	itt	ne
     326:	4063      	eorne	r3, r4
     328:	b29b      	uxthne	r3, r3
     32a:	ea4f 0858 	mov.w	r8, r8, lsr #1
     32e:	ea83 0908 	eor.w	r9, r3, r8
     332:	085b      	lsrs	r3, r3, #1
     334:	f019 0f01 	tst.w	r9, #1
     338:	bf1c      	itt	ne
     33a:	4063      	eorne	r3, r4
     33c:	b29b      	uxthne	r3, r3
     33e:	ea83 0858 	eor.w	r8, r3, r8, lsr #1
     342:	085b      	lsrs	r3, r3, #1
     344:	f018 0f01 	tst.w	r8, #1
     348:	bf1c      	itt	ne
     34a:	4063      	eorne	r3, r4
     34c:	b29b      	uxthne	r3, r3
     34e:	42b5      	cmp	r5, r6
     350:	d1ab      	bne.n	2aa <_lseek+0x1e>
     352:	f242 043f 	movw	r4, #8255	; 0x203f
     356:	42a3      	cmp	r3, r4
     358:	d112      	bne.n	380 <__ARM_grp_.debug_frame$23+0x30>
     35a:	f8dc 3028 	ldr.w	r3, [ip, #40]	; 0x28
     35e:	603b      	str	r3, [r7, #0]
     360:	3803      	subs	r0, #3
     362:	f853 0020 	ldr.w	r0, [r3, r0, lsl #2]
     366:	b138      	cbz	r0, 378 <__ARM_grp_.debug_frame$23+0x28>
     368:	6803      	ldr	r3, [r0, #0]
     36a:	691b      	ldr	r3, [r3, #16]
     36c:	4798      	blx	r3
     36e:	e8bd 87f0 	ldmia.w	sp!, {r4, r5, r6, r7, r8, r9, sl, pc}
     372:	2000      	movs	r0, #0
     374:	e8bd 87f0 	ldmia.w	sp!, {r4, r5, r6, r7, r8, r9, sl, pc}
     378:	f04f 30ff 	mov.w	r0, #4294967295
     37c:	e8bd 87f0 	ldmia.w	sp!, {r4, r5, r6, r7, r8, r9, sl, pc}
     380:	4908      	ldr	r1, [pc, #32]	; (3a4 <__ARM_grp_.debug_frame$26+0x10>)
     382:	4809      	ldr	r0, [pc, #36]	; (3a8 <__ARM_grp_.debug_frame$26+0x14>)
     384:	680c      	ldr	r4, [r1, #0]
     386:	226b      	movs	r2, #107	; 0x6b
     388:	2101      	movs	r1, #1
     38a:	68e3      	ldr	r3, [r4, #12]
     38c:	f001 fe72 	bl	2074 <fwrite>
     390:	2001      	movs	r0, #1
     392:	f00c fb65 	bl	ca60 <exit>
     396:	bf00      	nop
     398:	100005b4 	.word	0x100005b4
     39c:	0000c549 	.word	0x0000c549
     3a0:	ffffa001 	.word	0xffffa001
     3a4:	1000010c 	.word	0x1000010c
     3a8:	0000bc40 	.word	0x0000bc40

000003ac <_read>:
     3ac:	b510      	push	{r4, lr}
     3ae:	4c0b      	ldr	r4, [pc, #44]	; (3dc <__ARM_grp_.debug_frame$29+0x4>)
     3b0:	b082      	sub	sp, #8
     3b2:	6823      	ldr	r3, [r4, #0]
     3b4:	4614      	mov	r4, r2
     3b6:	b90b      	cbnz	r3, 3bc <_read+0x10>
     3b8:	2802      	cmp	r0, #2
     3ba:	dd08      	ble.n	3ce <_read+0x22>
     3bc:	4622      	mov	r2, r4
     3be:	2300      	movs	r3, #0
     3c0:	f00c f8a2 	bl	c508 <_sys_read>
     3c4:	f020 4000 	bic.w	r0, r0, #2147483648	; 0x80000000
     3c8:	1a20      	subs	r0, r4, r0
     3ca:	b002      	add	sp, #8
     3cc:	bd10      	pop	{r4, pc}
     3ce:	9001      	str	r0, [sp, #4]
     3d0:	9100      	str	r1, [sp, #0]
     3d2:	f7ff ff13 	bl	1fc <_ZL20_OpenStandardHandlesv>
     3d6:	9900      	ldr	r1, [sp, #0]
     3d8:	9801      	ldr	r0, [sp, #4]
     3da:	e7ef      	b.n	3bc <_read+0x10>
     3dc:	100005bc 	.word	0x100005bc

000003e0 <_write>:
     3e0:	b510      	push	{r4, lr}
     3e2:	4c0c      	ldr	r4, [pc, #48]	; (414 <_write+0x34>)
     3e4:	b082      	sub	sp, #8
     3e6:	6823      	ldr	r3, [r4, #0]
     3e8:	4614      	mov	r4, r2
     3ea:	b90b      	cbnz	r3, 3f0 <_write+0x10>
     3ec:	2802      	cmp	r0, #2
     3ee:	dd09      	ble.n	404 <_write+0x24>
     3f0:	2300      	movs	r3, #0
     3f2:	4622      	mov	r2, r4
     3f4:	f00c f8be 	bl	c574 <_sys_write>
     3f8:	2800      	cmp	r0, #0
     3fa:	bfa8      	it	ge
     3fc:	ebc0 0004 	rsbge	r0, r0, r4
     400:	b002      	add	sp, #8
     402:	bd10      	pop	{r4, pc}
     404:	9001      	str	r0, [sp, #4]
     406:	9100      	str	r1, [sp, #0]
     408:	f7ff fef8 	bl	1fc <_ZL20_OpenStandardHandlesv>
     40c:	9900      	ldr	r1, [sp, #0]
     40e:	9801      	ldr	r0, [sp, #4]
     410:	e7ee      	b.n	3f0 <_write+0x10>
     412:	bf00      	nop
     414:	100005bc 	.word	0x100005bc

00000418 <_fstat>:
     418:	f44f 5300 	mov.w	r3, #8192	; 0x2000
     41c:	604b      	str	r3, [r1, #4]
     41e:	2000      	movs	r0, #0
     420:	4770      	bx	lr
     422:	bf00      	nop

00000424 <main>:
     424:	b530      	push	{r4, r5, lr}
     426:	b083      	sub	sp, #12
     428:	f04f 31ff 	mov.w	r1, #4294967295
     42c:	ac02      	add	r4, sp, #8
     42e:	481e      	ldr	r0, [pc, #120]	; (4a8 <__ARM_grp_.debug_frame$35+0x3c>)
     430:	f844 1d04 	str.w	r1, [r4, #-4]!
     434:	f002 f8ea 	bl	260c <puts>
     438:	481c      	ldr	r0, [pc, #112]	; (4ac <__ARM_grp_.debug_frame$35+0x40>)
     43a:	f002 f8e7 	bl	260c <puts>
     43e:	481c      	ldr	r0, [pc, #112]	; (4b0 <__ARM_grp_.debug_frame$38>)
     440:	f002 f8e4 	bl	260c <puts>
     444:	481b      	ldr	r0, [pc, #108]	; (4b4 <__ARM_grp_.debug_frame$38+0x4>)
     446:	f002 f8e1 	bl	260c <puts>
     44a:	481b      	ldr	r0, [pc, #108]	; (4b8 <__ARM_grp_.debug_frame$38+0x8>)
     44c:	f002 f88e 	bl	256c <printf>
     450:	4d1a      	ldr	r5, [pc, #104]	; (4bc <__ARM_grp_.debug_frame$38+0xc>)
     452:	4621      	mov	r1, r4
     454:	481a      	ldr	r0, [pc, #104]	; (4c0 <__ARM_grp_.debug_frame$38+0x10>)
     456:	f002 fa6f 	bl	2938 <scanf>
     45a:	9901      	ldr	r1, [sp, #4]
     45c:	4819      	ldr	r0, [pc, #100]	; (4c4 <__ARM_grp_.debug_frame$38+0x14>)
     45e:	f002 f885 	bl	256c <printf>
     462:	682b      	ldr	r3, [r5, #0]
     464:	2101      	movs	r1, #1
     466:	2223      	movs	r2, #35	; 0x23
     468:	689b      	ldr	r3, [r3, #8]
     46a:	4817      	ldr	r0, [pc, #92]	; (4c8 <__ARM_grp_.debug_frame$38+0x18>)
     46c:	f001 fe02 	bl	2074 <fwrite>
     470:	6828      	ldr	r0, [r5, #0]
     472:	2101      	movs	r1, #1
     474:	68c3      	ldr	r3, [r0, #12]
     476:	2223      	movs	r2, #35	; 0x23
     478:	4814      	ldr	r0, [pc, #80]	; (4cc <__ARM_grp_.debug_frame$38+0x1c>)
     47a:	f001 fdfb 	bl	2074 <fwrite>
     47e:	4814      	ldr	r0, [pc, #80]	; (4d0 <__ARM_grp_.debug_frame$38+0x20>)
     480:	f002 f8c4 	bl	260c <puts>
     484:	480c      	ldr	r0, [pc, #48]	; (4b8 <__ARM_grp_.debug_frame$38+0x8>)
     486:	f002 f871 	bl	256c <printf>
     48a:	682b      	ldr	r3, [r5, #0]
     48c:	490c      	ldr	r1, [pc, #48]	; (4c0 <__ARM_grp_.debug_frame$38+0x10>)
     48e:	4622      	mov	r2, r4
     490:	6858      	ldr	r0, [r3, #4]
     492:	f001 fc4b 	bl	1d2c <fscanf>
     496:	480b      	ldr	r0, [pc, #44]	; (4c4 <__ARM_grp_.debug_frame$38+0x14>)
     498:	9901      	ldr	r1, [sp, #4]
     49a:	f002 f867 	bl	256c <printf>
     49e:	480d      	ldr	r0, [pc, #52]	; (4d4 <__ARM_grp_.debug_frame$38+0x24>)
     4a0:	f002 f8b4 	bl	260c <puts>
     4a4:	e7fe      	b.n	4a4 <__ARM_grp_.debug_frame$35+0x38>
     4a6:	bf00      	nop
     4a8:	0000bcac 	.word	0x0000bcac
     4ac:	0000bcc8 	.word	0x0000bcc8
     4b0:	0000bce4 	.word	0x0000bce4
     4b4:	0000bcfc 	.word	0x0000bcfc
     4b8:	0000bd14 	.word	0x0000bd14
     4bc:	1000010c 	.word	0x1000010c
     4c0:	0000bd38 	.word	0x0000bd38
     4c4:	0000bd3c 	.word	0x0000bd3c
     4c8:	0000bd58 	.word	0x0000bd58
     4cc:	0000bd7c 	.word	0x0000bd7c
     4d0:	0000bda0 	.word	0x0000bda0
     4d4:	0000bdc4 	.word	0x0000bdc4

000004d8 <Reset_Handler>:
     4d8:	4806      	ldr	r0, [pc, #24]	; (4f4 <__ARM_grp_.debug_frame$41>)
     4da:	4780      	blx	r0
     4dc:	4806      	ldr	r0, [pc, #24]	; (4f8 <__ARM_grp_.debug_frame$41+0x4>)
     4de:	4700      	bx	r0

000004e0 <NMI_Handler>:
     4e0:	e7fe      	b.n	4e0 <NMI_Handler>

000004e2 <HardFault_Handler>:
     4e2:	e7fe      	b.n	4e2 <HardFault_Handler>

000004e4 <MemManage_Handler>:
     4e4:	e7fe      	b.n	4e4 <MemManage_Handler>

000004e6 <BusFault_Handler>:
     4e6:	e7fe      	b.n	4e6 <BusFault_Handler>

000004e8 <UsageFault_Handler>:
     4e8:	e7fe      	b.n	4e8 <UsageFault_Handler>

000004ea <SVC_Handler>:
     4ea:	e7fe      	b.n	4ea <SVC_Handler>

000004ec <DebugMon_Handler>:
     4ec:	e7fe      	b.n	4ec <DebugMon_Handler>

000004ee <PendSV_Handler>:
     4ee:	e7fe      	b.n	4ee <PendSV_Handler>

000004f0 <SysTick_Handler>:
     4f0:	e7fe      	b.n	4f0 <SysTick_Handler>

000004f2 <ADC_IRQHandler>:
     4f2:	e7fe      	b.n	4f2 <ADC_IRQHandler>
     4f4:	0000c671 	.word	0x0000c671
     4f8:	000000f5 	.word	0x000000f5

000004fc <_ZNK10__cxxabiv117__class_type_info20__do_find_public_srcEiPKvPKS0_S2_>:
     4fc:	9800      	ldr	r0, [sp, #0]
     4fe:	4290      	cmp	r0, r2
     500:	bf14      	ite	ne
     502:	2001      	movne	r0, #1
     504:	2006      	moveq	r0, #6
     506:	4770      	bx	lr

00000508 <_ZNK10__cxxabiv117__class_type_info11__do_upcastEPKS0_PKvRNS0_15__upcast_resultE>:
     508:	b538      	push	{r3, r4, r5, lr}
     50a:	4614      	mov	r4, r2
     50c:	461d      	mov	r5, r3
     50e:	f000 f992 	bl	836 <_ZNKSt9type_infoeqERKS_>
     512:	b128      	cbz	r0, 520 <_ZNK10__cxxabiv117__class_type_info11__do_upcastEPKS0_PKvRNS0_15__upcast_resultE+0x18>
     514:	2001      	movs	r0, #1
     516:	2308      	movs	r3, #8
     518:	602c      	str	r4, [r5, #0]
     51a:	60eb      	str	r3, [r5, #12]
     51c:	3b02      	subs	r3, #2
     51e:	712b      	strb	r3, [r5, #4]
     520:	bd38      	pop	{r3, r4, r5, pc}

00000522 <_ZNK10__cxxabiv117__class_type_info12__do_dyncastEiNS0_10__sub_kindEPKS0_PKvS3_S5_RNS0_16__dyncast_resultE>:
     522:	e92d 41f0 	stmdb	sp!, {r4, r5, r6, r7, r8, lr}
     526:	4698      	mov	r8, r3
     528:	9f06      	ldr	r7, [sp, #24]
     52a:	4604      	mov	r4, r0
     52c:	9b08      	ldr	r3, [sp, #32]
     52e:	4615      	mov	r5, r2
     530:	9e09      	ldr	r6, [sp, #36]	; 0x24
     532:	429f      	cmp	r7, r3
     534:	d10c      	bne.n	550 <__ARM_grp_.debug_frame$44+0x18>
     536:	9907      	ldr	r1, [sp, #28]
     538:	f000 f97d 	bl	836 <_ZNKSt9type_infoeqERKS_>
     53c:	b140      	cbz	r0, 550 <__ARM_grp_.debug_frame$44+0x18>
     53e:	7175      	strb	r5, [r6, #5]
     540:	e003      	b.n	54a <__ARM_grp_.debug_frame$44+0x12>
     542:	2301      	movs	r3, #1
     544:	6037      	str	r7, [r6, #0]
     546:	7135      	strb	r5, [r6, #4]
     548:	71b3      	strb	r3, [r6, #6]
     54a:	2000      	movs	r0, #0
     54c:	e8bd 81f0 	ldmia.w	sp!, {r4, r5, r6, r7, r8, pc}
     550:	4620      	mov	r0, r4
     552:	4641      	mov	r1, r8
     554:	f000 f96f 	bl	836 <_ZNKSt9type_infoeqERKS_>
     558:	2800      	cmp	r0, #0
     55a:	d1f2      	bne.n	542 <__ARM_grp_.debug_frame$44+0xa>
     55c:	e7f5      	b.n	54a <__ARM_grp_.debug_frame$44+0x12>

0000055e <_ZNK10__cxxabiv117__class_type_info10__do_catchEPKSt9type_infoPPvj>:
     55e:	b5f8      	push	{r3, r4, r5, r6, r7, lr}
     560:	4605      	mov	r5, r0
     562:	460c      	mov	r4, r1
     564:	4616      	mov	r6, r2
     566:	461f      	mov	r7, r3
     568:	f000 f965 	bl	836 <_ZNKSt9type_infoeqERKS_>
     56c:	b940      	cbnz	r0, 580 <_ZNK10__cxxabiv117__class_type_info10__do_catchEPKSt9type_infoPPvj+0x22>
     56e:	2f03      	cmp	r7, #3
     570:	d807      	bhi.n	582 <_ZNK10__cxxabiv117__class_type_info10__do_catchEPKSt9type_infoPPvj+0x24>
     572:	6823      	ldr	r3, [r4, #0]
     574:	4620      	mov	r0, r4
     576:	4629      	mov	r1, r5
     578:	4632      	mov	r2, r6
     57a:	695b      	ldr	r3, [r3, #20]
     57c:	4798      	blx	r3
     57e:	bdf8      	pop	{r3, r4, r5, r6, r7, pc}
     580:	2001      	movs	r0, #1
     582:	bdf8      	pop	{r3, r4, r5, r6, r7, pc}

00000584 <_ZN10__cxxabiv117__class_type_infoD1Ev>:
     584:	4b03      	ldr	r3, [pc, #12]	; (594 <__ARM_grp_.debug_frame$47+0x4>)
     586:	b510      	push	{r4, lr}
     588:	4604      	mov	r4, r0
     58a:	6003      	str	r3, [r0, #0]
     58c:	f000 f938 	bl	800 <_ZNSt9type_infoD1Ev>
     590:	4620      	mov	r0, r4
     592:	bd10      	pop	{r4, pc}
     594:	0000bde0 	.word	0x0000bde0

00000598 <_ZN10__cxxabiv117__class_type_infoD0Ev>:
     598:	b510      	push	{r4, lr}
     59a:	4604      	mov	r4, r0
     59c:	f7ff fff2 	bl	584 <_ZN10__cxxabiv117__class_type_infoD1Ev>
     5a0:	4620      	mov	r0, r4
     5a2:	f000 f825 	bl	5f0 <_ZdlPv>
     5a6:	4620      	mov	r0, r4
     5a8:	bd10      	pop	{r4, pc}

000005aa <_ZN10__cxxabiv117__class_type_info15__upcast_resultC1Ei>:
     5aa:	2200      	movs	r2, #0
     5ac:	6081      	str	r1, [r0, #8]
     5ae:	6002      	str	r2, [r0, #0]
     5b0:	7102      	strb	r2, [r0, #4]
     5b2:	60c2      	str	r2, [r0, #12]
     5b4:	4770      	bx	lr

000005b6 <_ZNK10__cxxabiv117__class_type_info11__do_upcastEPKS0_PPv>:
     5b6:	b5f0      	push	{r4, r5, r6, r7, lr}
     5b8:	4606      	mov	r6, r0
     5ba:	b085      	sub	sp, #20
     5bc:	460f      	mov	r7, r1
     5be:	4668      	mov	r0, sp
     5c0:	2110      	movs	r1, #16
     5c2:	4614      	mov	r4, r2
     5c4:	f7ff fff1 	bl	5aa <_ZN10__cxxabiv117__class_type_info15__upcast_resultC1Ei>
     5c8:	6833      	ldr	r3, [r6, #0]
     5ca:	4630      	mov	r0, r6
     5cc:	4639      	mov	r1, r7
     5ce:	6822      	ldr	r2, [r4, #0]
     5d0:	699d      	ldr	r5, [r3, #24]
     5d2:	466b      	mov	r3, sp
     5d4:	47a8      	blx	r5
     5d6:	f89d 3004 	ldrb.w	r3, [sp, #4]
     5da:	f003 0306 	and.w	r3, r3, #6
     5de:	2b06      	cmp	r3, #6
     5e0:	d103      	bne.n	5ea <__ARM_grp_.debug_frame$50+0x16>
     5e2:	9b00      	ldr	r3, [sp, #0]
     5e4:	2001      	movs	r0, #1
     5e6:	6023      	str	r3, [r4, #0]
     5e8:	e000      	b.n	5ec <__ARM_grp_.debug_frame$50+0x18>
     5ea:	2000      	movs	r0, #0
     5ec:	b005      	add	sp, #20
     5ee:	bdf0      	pop	{r4, r5, r6, r7, pc}

000005f0 <_ZdlPv>:
     5f0:	b108      	cbz	r0, 5f6 <_ZdlPv+0x6>
     5f2:	f001 bd7b 	b.w	20ec <free>
     5f6:	4770      	bx	lr

000005f8 <_ZdaPv>:
     5f8:	f7ff bffa 	b.w	5f0 <_ZdlPv>

000005fc <_ZN10__cxxabiv112_GLOBAL__N_118contained_public_pENS_17__class_type_info10__sub_kindE>:
     5fc:	f000 0006 	and.w	r0, r0, #6
     600:	f1a0 0306 	sub.w	r3, r0, #6
     604:	4258      	negs	r0, r3
     606:	eb40 0003 	adc.w	r0, r0, r3
     60a:	4770      	bx	lr

0000060c <_ZN10__cxxabiv112_GLOBAL__N_114adjust_pointerIvEEPKT_PKvi>:
     60c:	1840      	adds	r0, r0, r1
     60e:	4770      	bx	lr

00000610 <_ZN10__cxxabiv117__class_type_info16__dyncast_resultC1Ei>:
     610:	2200      	movs	r2, #0
     612:	6081      	str	r1, [r0, #8]
     614:	6002      	str	r2, [r0, #0]
     616:	7102      	strb	r2, [r0, #4]
     618:	7142      	strb	r2, [r0, #5]
     61a:	7182      	strb	r2, [r0, #6]
     61c:	4770      	bx	lr

0000061e <_ZNK10__cxxabiv117__class_type_info17__find_public_srcEiPKvPKS0_S2_>:
     61e:	b5f7      	push	{r0, r1, r2, r4, r5, r6, r7, lr}
     620:	1e0e      	subs	r6, r1, #0
     622:	9c08      	ldr	r4, [sp, #32]
     624:	db07      	blt.n	636 <_ZNK10__cxxabiv117__class_type_info17__find_public_srcEiPKvPKS0_S2_+0x18>
     626:	4610      	mov	r0, r2
     628:	f7ff fff0 	bl	60c <_ZN10__cxxabiv112_GLOBAL__N_114adjust_pointerIvEEPKT_PKvi>
     62c:	4284      	cmp	r4, r0
     62e:	bf14      	ite	ne
     630:	2001      	movne	r0, #1
     632:	2006      	moveq	r0, #6
     634:	e008      	b.n	648 <_ZNK10__cxxabiv117__class_type_info17__find_public_srcEiPKvPKS0_S2_+0x2a>
     636:	f116 0f02 	cmn.w	r6, #2
     63a:	d004      	beq.n	646 <_ZNK10__cxxabiv117__class_type_info17__find_public_srcEiPKvPKS0_S2_+0x28>
     63c:	6805      	ldr	r5, [r0, #0]
     63e:	9400      	str	r4, [sp, #0]
     640:	6a2c      	ldr	r4, [r5, #32]
     642:	47a0      	blx	r4
     644:	e000      	b.n	648 <_ZNK10__cxxabiv117__class_type_info17__find_public_srcEiPKvPKS0_S2_+0x2a>
     646:	2001      	movs	r0, #1
     648:	bdfe      	pop	{r1, r2, r3, r4, r5, r6, r7, pc}

0000064a <__dynamic_cast>:
     64a:	e92d 47f0 	stmdb	sp!, {r4, r5, r6, r7, r8, r9, sl, lr}
     64e:	461d      	mov	r5, r3
     650:	6803      	ldr	r3, [r0, #0]
     652:	b088      	sub	sp, #32
     654:	4688      	mov	r8, r1
     656:	4616      	mov	r6, r2
     658:	f1a3 0708 	sub.w	r7, r3, #8
     65c:	4604      	mov	r4, r0
     65e:	f853 1c08 	ldr.w	r1, [r3, #-8]
     662:	f7ff ffd3 	bl	60c <_ZN10__cxxabiv112_GLOBAL__N_114adjust_pointerIvEEPKT_PKvi>
     666:	f8d7 9004 	ldr.w	r9, [r7, #4]
     66a:	af05      	add	r7, sp, #20
     66c:	2110      	movs	r1, #16
     66e:	4682      	mov	sl, r0
     670:	4638      	mov	r0, r7
     672:	f7ff ffcd 	bl	610 <_ZN10__cxxabiv117__class_type_info16__dyncast_resultC1Ei>
     676:	f8d9 3000 	ldr.w	r3, [r9]
     67a:	4648      	mov	r0, r9
     67c:	f8cd a000 	str.w	sl, [sp]
     680:	f8cd 8004 	str.w	r8, [sp, #4]
     684:	4629      	mov	r1, r5
     686:	9402      	str	r4, [sp, #8]
     688:	2206      	movs	r2, #6
     68a:	9703      	str	r7, [sp, #12]
     68c:	69df      	ldr	r7, [r3, #28]
     68e:	4633      	mov	r3, r6
     690:	47b8      	blx	r7
     692:	9f05      	ldr	r7, [sp, #20]
     694:	b33f      	cbz	r7, 6e6 <__ARM_grp_.debug_frame$62+0x2>
     696:	f89d 901a 	ldrb.w	r9, [sp, #26]
     69a:	4648      	mov	r0, r9
     69c:	f7ff ffae 	bl	5fc <_ZN10__cxxabiv112_GLOBAL__N_118contained_public_pENS_17__class_type_info10__sub_kindE>
     6a0:	bb08      	cbnz	r0, 6e6 <__ARM_grp_.debug_frame$62+0x2>
     6a2:	f89d a019 	ldrb.w	sl, [sp, #25]
     6a6:	f89d 0018 	ldrb.w	r0, [sp, #24]
     6aa:	ea0a 0000 	and.w	r0, sl, r0
     6ae:	f7ff ffa5 	bl	5fc <_ZN10__cxxabiv112_GLOBAL__N_118contained_public_pENS_17__class_type_info10__sub_kindE>
     6b2:	b9c0      	cbnz	r0, 6e6 <__ARM_grp_.debug_frame$62+0x2>
     6b4:	f00a 0a05 	and.w	sl, sl, #5
     6b8:	f1ba 0f04 	cmp.w	sl, #4
     6bc:	d012      	beq.n	6e4 <__ARM_grp_.debug_frame$62>
     6be:	f1b9 0f00 	cmp.w	r9, #0
     6c2:	d108      	bne.n	6d6 <__ARM_grp_.debug_frame$59+0x36>
     6c4:	4630      	mov	r0, r6
     6c6:	4629      	mov	r1, r5
     6c8:	463a      	mov	r2, r7
     6ca:	4643      	mov	r3, r8
     6cc:	9400      	str	r4, [sp, #0]
     6ce:	f7ff ffa6 	bl	61e <_ZNK10__cxxabiv117__class_type_info17__find_public_srcEiPKvPKS0_S2_>
     6d2:	f88d 001a 	strb.w	r0, [sp, #26]
     6d6:	f89d 001a 	ldrb.w	r0, [sp, #26]
     6da:	f7ff ff8f 	bl	5fc <_ZN10__cxxabiv112_GLOBAL__N_118contained_public_pENS_17__class_type_info10__sub_kindE>
     6de:	b108      	cbz	r0, 6e4 <__ARM_grp_.debug_frame$62>
     6e0:	9f05      	ldr	r7, [sp, #20]
     6e2:	e000      	b.n	6e6 <__ARM_grp_.debug_frame$62+0x2>
     6e4:	4607      	mov	r7, r0
     6e6:	4638      	mov	r0, r7
     6e8:	b008      	add	sp, #32
     6ea:	e8bd 87f0 	ldmia.w	sp!, {r4, r5, r6, r7, r8, r9, sl, pc}

000006ee <_ZNK10__cxxabiv120__si_class_type_info11__do_upcastEPKNS_17__class_type_infoEPKvRNS1_15__upcast_resultE>:
     6ee:	b5f8      	push	{r3, r4, r5, r6, r7, lr}
     6f0:	4604      	mov	r4, r0
     6f2:	460f      	mov	r7, r1
     6f4:	4616      	mov	r6, r2
     6f6:	461d      	mov	r5, r3
     6f8:	f7ff ff06 	bl	508 <_ZNK10__cxxabiv117__class_type_info11__do_upcastEPKS0_PKvRNS0_15__upcast_resultE>
     6fc:	b938      	cbnz	r0, 70e <_ZNK10__cxxabiv120__si_class_type_info11__do_upcastEPKNS_17__class_type_infoEPKvRNS1_15__upcast_resultE+0x20>
     6fe:	68a0      	ldr	r0, [r4, #8]
     700:	4639      	mov	r1, r7
     702:	4632      	mov	r2, r6
     704:	6803      	ldr	r3, [r0, #0]
     706:	699c      	ldr	r4, [r3, #24]
     708:	462b      	mov	r3, r5
     70a:	47a0      	blx	r4
     70c:	bdf8      	pop	{r3, r4, r5, r6, r7, pc}
     70e:	2001      	movs	r0, #1
     710:	bdf8      	pop	{r3, r4, r5, r6, r7, pc}

00000712 <_ZNK10__cxxabiv120__si_class_type_info12__do_dyncastEiNS_17__class_type_info10__sub_kindEPKS1_PKvS4_S6_RNS1_16__dyncast_resultE>:
     712:	e92d 4ff0 	stmdb	sp!, {r4, r5, r6, r7, r8, r9, sl, fp, lr}
     716:	b085      	sub	sp, #20
     718:	460c      	mov	r4, r1
     71a:	4619      	mov	r1, r3
     71c:	4605      	mov	r5, r0
     71e:	4616      	mov	r6, r2
     720:	461f      	mov	r7, r3
     722:	f8dd 9038 	ldr.w	r9, [sp, #56]	; 0x38
     726:	f8dd a040 	ldr.w	sl, [sp, #64]	; 0x40
     72a:	f8dd 8044 	ldr.w	r8, [sp, #68]	; 0x44
     72e:	f000 f882 	bl	836 <_ZNKSt9type_infoeqERKS_>
     732:	4683      	mov	fp, r0
     734:	b1b0      	cbz	r0, 764 <__ARM_grp_.debug_frame$65+0x2c>
     736:	2c00      	cmp	r4, #0
     738:	f8c8 9000 	str.w	r9, [r8]
     73c:	f888 6004 	strb.w	r6, [r8, #4]
     740:	db09      	blt.n	756 <__ARM_grp_.debug_frame$65+0x1e>
     742:	444c      	add	r4, r9
     744:	45a2      	cmp	sl, r4
     746:	bf14      	ite	ne
     748:	f04f 0a01 	movne.w	sl, #1
     74c:	f04f 0a06 	moveq.w	sl, #6
     750:	f888 a006 	strb.w	sl, [r8, #6]
     754:	e011      	b.n	77a <__ARM_grp_.debug_frame$65+0x42>
     756:	f114 0f02 	cmn.w	r4, #2
     75a:	d10e      	bne.n	77a <__ARM_grp_.debug_frame$65+0x42>
     75c:	2301      	movs	r3, #1
     75e:	f888 3006 	strb.w	r3, [r8, #6]
     762:	e00a      	b.n	77a <__ARM_grp_.debug_frame$65+0x42>
     764:	45d1      	cmp	r9, sl
     766:	d10c      	bne.n	782 <__ARM_grp_.debug_frame$65+0x4a>
     768:	4628      	mov	r0, r5
     76a:	990f      	ldr	r1, [sp, #60]	; 0x3c
     76c:	f000 f863 	bl	836 <_ZNKSt9type_infoeqERKS_>
     770:	b138      	cbz	r0, 782 <__ARM_grp_.debug_frame$65+0x4a>
     772:	f888 6005 	strb.w	r6, [r8, #5]
     776:	4658      	mov	r0, fp
     778:	e000      	b.n	77c <__ARM_grp_.debug_frame$65+0x44>
     77a:	2000      	movs	r0, #0
     77c:	b005      	add	sp, #20
     77e:	e8bd 8ff0 	ldmia.w	sp!, {r4, r5, r6, r7, r8, r9, sl, fp, pc}
     782:	68a8      	ldr	r0, [r5, #8]
     784:	4621      	mov	r1, r4
     786:	9a0f      	ldr	r2, [sp, #60]	; 0x3c
     788:	6803      	ldr	r3, [r0, #0]
     78a:	9201      	str	r2, [sp, #4]
     78c:	4632      	mov	r2, r6
     78e:	f8cd 9000 	str.w	r9, [sp]
     792:	f8cd a008 	str.w	sl, [sp, #8]
     796:	f8cd 800c 	str.w	r8, [sp, #12]
     79a:	69dd      	ldr	r5, [r3, #28]
     79c:	463b      	mov	r3, r7
     79e:	47a8      	blx	r5
     7a0:	e7ec      	b.n	77c <__ARM_grp_.debug_frame$65+0x44>

000007a2 <_ZNK10__cxxabiv120__si_class_type_info20__do_find_public_srcEiPKvPKNS_17__class_type_infoES2_>:
     7a2:	e92d 41f3 	stmdb	sp!, {r0, r1, r4, r5, r6, r7, r8, lr}
     7a6:	4604      	mov	r4, r0
     7a8:	f8dd 8020 	ldr.w	r8, [sp, #32]
     7ac:	460d      	mov	r5, r1
     7ae:	4617      	mov	r7, r2
     7b0:	461e      	mov	r6, r3
     7b2:	4590      	cmp	r8, r2
     7b4:	d106      	bne.n	7c4 <_ZNK10__cxxabiv120__si_class_type_info20__do_find_public_srcEiPKvPKNS_17__class_type_infoES2_+0x22>
     7b6:	4619      	mov	r1, r3
     7b8:	f000 f83d 	bl	836 <_ZNKSt9type_infoeqERKS_>
     7bc:	b110      	cbz	r0, 7c4 <_ZNK10__cxxabiv120__si_class_type_info20__do_find_public_srcEiPKvPKNS_17__class_type_infoES2_+0x22>
     7be:	2006      	movs	r0, #6
     7c0:	e8bd 81fc 	ldmia.w	sp!, {r2, r3, r4, r5, r6, r7, r8, pc}
     7c4:	68a0      	ldr	r0, [r4, #8]
     7c6:	4629      	mov	r1, r5
     7c8:	463a      	mov	r2, r7
     7ca:	6803      	ldr	r3, [r0, #0]
     7cc:	f8cd 8000 	str.w	r8, [sp]
     7d0:	6a1c      	ldr	r4, [r3, #32]
     7d2:	4633      	mov	r3, r6
     7d4:	47a0      	blx	r4
     7d6:	e7f3      	b.n	7c0 <_ZNK10__cxxabiv120__si_class_type_info20__do_find_public_srcEiPKvPKNS_17__class_type_infoES2_+0x1e>

000007d8 <_ZN10__cxxabiv120__si_class_type_infoD1Ev>:
     7d8:	4b03      	ldr	r3, [pc, #12]	; (7e8 <_ZN10__cxxabiv120__si_class_type_infoD1Ev+0x10>)
     7da:	b510      	push	{r4, lr}
     7dc:	4604      	mov	r4, r0
     7de:	6003      	str	r3, [r0, #0]
     7e0:	f7ff fed0 	bl	584 <_ZN10__cxxabiv117__class_type_infoD1Ev>
     7e4:	4620      	mov	r0, r4
     7e6:	bd10      	pop	{r4, pc}
     7e8:	0000be40 	.word	0x0000be40

000007ec <_ZN10__cxxabiv120__si_class_type_infoD0Ev>:
     7ec:	b510      	push	{r4, lr}
     7ee:	4604      	mov	r4, r0
     7f0:	f7ff fff2 	bl	7d8 <_ZN10__cxxabiv120__si_class_type_infoD1Ev>
     7f4:	4620      	mov	r0, r4
     7f6:	f7ff fefb 	bl	5f0 <_ZdlPv>
     7fa:	4620      	mov	r0, r4
     7fc:	bd10      	pop	{r4, pc}
	...

00000800 <_ZNSt9type_infoD1Ev>:
     800:	4b01      	ldr	r3, [pc, #4]	; (808 <_ZNSt9type_infoD1Ev+0x8>)
     802:	6003      	str	r3, [r0, #0]
     804:	4770      	bx	lr
     806:	bf00      	nop
     808:	0000bec0 	.word	0x0000bec0

0000080c <_ZNKSt9type_info14__is_pointer_pEv>:
     80c:	2000      	movs	r0, #0
     80e:	4770      	bx	lr

00000810 <_ZNKSt9type_info15__is_function_pEv>:
     810:	2000      	movs	r0, #0
     812:	4770      	bx	lr

00000814 <_ZNKSt9type_info11__do_upcastEPKN10__cxxabiv117__class_type_infoEPPv>:
     814:	2000      	movs	r0, #0
     816:	4770      	bx	lr

00000818 <_ZNSt9type_infoD0Ev>:
     818:	b510      	push	{r4, lr}
     81a:	4604      	mov	r4, r0
     81c:	f7ff fff0 	bl	800 <_ZNSt9type_infoD1Ev>
     820:	4620      	mov	r0, r4
     822:	f7ff fee5 	bl	5f0 <_ZdlPv>
     826:	4620      	mov	r0, r4
     828:	bd10      	pop	{r4, pc}

0000082a <_ZNKSt9type_info4nameEv>:
     82a:	6840      	ldr	r0, [r0, #4]
     82c:	7803      	ldrb	r3, [r0, #0]
     82e:	2b2a      	cmp	r3, #42	; 0x2a
     830:	bf08      	it	eq
     832:	3001      	addeq	r0, #1
     834:	4770      	bx	lr

00000836 <_ZNKSt9type_infoeqERKS_>:
     836:	4281      	cmp	r1, r0
     838:	b538      	push	{r3, r4, r5, lr}
     83a:	460d      	mov	r5, r1
     83c:	d011      	beq.n	862 <_ZNKSt9type_infoeqERKS_+0x2c>
     83e:	f7ff fff4 	bl	82a <_ZNKSt9type_info4nameEv>
     842:	7803      	ldrb	r3, [r0, #0]
     844:	4604      	mov	r4, r0
     846:	2b2a      	cmp	r3, #42	; 0x2a
     848:	d00d      	beq.n	866 <_ZNKSt9type_infoeqERKS_+0x30>
     84a:	4628      	mov	r0, r5
     84c:	f7ff ffed 	bl	82a <_ZNKSt9type_info4nameEv>
     850:	4601      	mov	r1, r0
     852:	4620      	mov	r0, r4
     854:	f002 f963 	bl	2b1e <strcmp>
     858:	f1d0 0001 	rsbs	r0, r0, #1
     85c:	bf38      	it	cc
     85e:	2000      	movcc	r0, #0
     860:	bd38      	pop	{r3, r4, r5, pc}
     862:	2001      	movs	r0, #1
     864:	bd38      	pop	{r3, r4, r5, pc}
     866:	2000      	movs	r0, #0
     868:	bd38      	pop	{r3, r4, r5, pc}

0000086a <_ZNKSt9type_info10__do_catchEPKS_PPvj>:
     86a:	f7ff bfe4 	b.w	836 <_ZNKSt9type_infoeqERKS_>

0000086e <_ZN10__cxxabiv112_GLOBAL__N_111contained_pENS_17__class_type_info10__sub_kindE>:
     86e:	2803      	cmp	r0, #3
     870:	bf94      	ite	ls
     872:	2000      	movls	r0, #0
     874:	2001      	movhi	r0, #1
     876:	4770      	bx	lr

00000878 <_ZN10__cxxabiv112_GLOBAL__N_19virtual_pENS_17__class_type_info10__sub_kindE>:
     878:	f000 0001 	and.w	r0, r0, #1
     87c:	4770      	bx	lr

0000087e <_ZN10__cxxabiv112_GLOBAL__N_114adjust_pointerIvEEPKT_PKvi>:
     87e:	1840      	adds	r0, r0, r1
     880:	4770      	bx	lr

00000882 <_ZN10__cxxabiv112_GLOBAL__N_115convert_to_baseEPKvbi>:
     882:	b109      	cbz	r1, 888 <_ZN10__cxxabiv112_GLOBAL__N_115convert_to_baseEPKvbi+0x6>
     884:	6803      	ldr	r3, [r0, #0]
     886:	589a      	ldr	r2, [r3, r2]
     888:	4611      	mov	r1, r2
     88a:	f7ff bff8 	b.w	87e <_ZN10__cxxabiv112_GLOBAL__N_114adjust_pointerIvEEPKT_PKvi>
	...

00000890 <_ZN10__cxxabiv121__vmi_class_type_infoD1Ev>:
     890:	4b03      	ldr	r3, [pc, #12]	; (8a0 <_ZN10__cxxabiv121__vmi_class_type_infoD1Ev+0x10>)
     892:	b510      	push	{r4, lr}
     894:	4604      	mov	r4, r0
     896:	6003      	str	r3, [r0, #0]
     898:	f7ff fe74 	bl	584 <_ZN10__cxxabiv117__class_type_infoD1Ev>
     89c:	4620      	mov	r0, r4
     89e:	bd10      	pop	{r4, pc}
     8a0:	0000bf18 	.word	0x0000bf18

000008a4 <_ZN10__cxxabiv121__vmi_class_type_infoD0Ev>:
     8a4:	b510      	push	{r4, lr}
     8a6:	4604      	mov	r4, r0
     8a8:	f7ff fff2 	bl	890 <_ZN10__cxxabiv121__vmi_class_type_infoD1Ev>
     8ac:	4620      	mov	r0, r4
     8ae:	f7ff fe9f 	bl	5f0 <_ZdlPv>
     8b2:	4620      	mov	r0, r4
     8b4:	bd10      	pop	{r4, pc}

000008b6 <_ZNK10__cxxabiv122__base_class_type_info14__is_virtual_pEv>:
     8b6:	6840      	ldr	r0, [r0, #4]
     8b8:	f000 0001 	and.w	r0, r0, #1
     8bc:	4770      	bx	lr

000008be <_ZNK10__cxxabiv122__base_class_type_info13__is_public_pEv>:
     8be:	6840      	ldr	r0, [r0, #4]
     8c0:	f3c0 0040 	ubfx	r0, r0, #1, #1
     8c4:	4770      	bx	lr

000008c6 <_ZNK10__cxxabiv122__base_class_type_info8__offsetEv>:
     8c6:	6840      	ldr	r0, [r0, #4]
     8c8:	1200      	asrs	r0, r0, #8
     8ca:	4770      	bx	lr

000008cc <_ZNK10__cxxabiv121__vmi_class_type_info20__do_find_public_srcEiPKvPKNS_17__class_type_infoES2_>:
     8cc:	e92d 4ff7 	stmdb	sp!, {r0, r1, r2, r4, r5, r6, r7, r8, r9, sl, fp, lr}
     8d0:	468b      	mov	fp, r1
     8d2:	990c      	ldr	r1, [sp, #48]	; 0x30
     8d4:	4605      	mov	r5, r0
     8d6:	4692      	mov	sl, r2
     8d8:	4699      	mov	r9, r3
     8da:	428a      	cmp	r2, r1
     8dc:	d13b      	bne.n	956 <__ARM_grp_.debug_frame$17+0x1e>
     8de:	4619      	mov	r1, r3
     8e0:	f7ff ffa9 	bl	836 <_ZNKSt9type_infoeqERKS_>
     8e4:	2800      	cmp	r0, #0
     8e6:	d132      	bne.n	94e <__ARM_grp_.debug_frame$17+0x16>
     8e8:	e035      	b.n	956 <__ARM_grp_.debug_frame$17+0x1e>
     8ea:	3c01      	subs	r4, #1
     8ec:	1ca6      	adds	r6, r4, #2
     8ee:	eb05 06c6 	add.w	r6, r5, r6, lsl #3
     8f2:	4630      	mov	r0, r6
     8f4:	f7ff ffe3 	bl	8be <_ZNK10__cxxabiv122__base_class_type_info13__is_public_pEv>
     8f8:	b318      	cbz	r0, 942 <__ARM_grp_.debug_frame$17+0xa>
     8fa:	4630      	mov	r0, r6
     8fc:	f7ff ffe3 	bl	8c6 <_ZNK10__cxxabiv122__base_class_type_info8__offsetEv>
     900:	4607      	mov	r7, r0
     902:	4630      	mov	r0, r6
     904:	f7ff ffd7 	bl	8b6 <_ZNK10__cxxabiv122__base_class_type_info14__is_virtual_pEv>
     908:	4606      	mov	r6, r0
     90a:	b110      	cbz	r0, 912 <__ARM_grp_.debug_frame$14+0x1e>
     90c:	f11b 0f03 	cmn.w	fp, #3
     910:	d017      	beq.n	942 <__ARM_grp_.debug_frame$17+0xa>
     912:	463a      	mov	r2, r7
     914:	4631      	mov	r1, r6
     916:	4650      	mov	r0, sl
     918:	f7ff ffb3 	bl	882 <_ZN10__cxxabiv112_GLOBAL__N_115convert_to_baseEPKvbi>
     91c:	990c      	ldr	r1, [sp, #48]	; 0x30
     91e:	4602      	mov	r2, r0
     920:	f858 0c08 	ldr.w	r0, [r8, #-8]
     924:	6803      	ldr	r3, [r0, #0]
     926:	9100      	str	r1, [sp, #0]
     928:	4659      	mov	r1, fp
     92a:	6a1f      	ldr	r7, [r3, #32]
     92c:	464b      	mov	r3, r9
     92e:	47b8      	blx	r7
     930:	4607      	mov	r7, r0
     932:	f7ff ff9c 	bl	86e <_ZN10__cxxabiv112_GLOBAL__N_111contained_pENS_17__class_type_info10__sub_kindE>
     936:	b120      	cbz	r0, 942 <__ARM_grp_.debug_frame$17+0xa>
     938:	b156      	cbz	r6, 950 <__ARM_grp_.debug_frame$17+0x18>
     93a:	f047 0701 	orr.w	r7, r7, #1
     93e:	b2ff      	uxtb	r7, r7
     940:	e006      	b.n	950 <__ARM_grp_.debug_frame$17+0x18>
     942:	f1a8 0808 	sub.w	r8, r8, #8
     946:	2c00      	cmp	r4, #0
     948:	d1cf      	bne.n	8ea <_ZNK10__cxxabiv121__vmi_class_type_info20__do_find_public_srcEiPKvPKNS_17__class_type_infoES2_+0x1e>
     94a:	2701      	movs	r7, #1
     94c:	e000      	b.n	950 <__ARM_grp_.debug_frame$17+0x18>
     94e:	2706      	movs	r7, #6
     950:	4638      	mov	r0, r7
     952:	e8bd 8ffe 	ldmia.w	sp!, {r1, r2, r3, r4, r5, r6, r7, r8, r9, sl, fp, pc}
     956:	68ec      	ldr	r4, [r5, #12]
     958:	f104 0802 	add.w	r8, r4, #2
     95c:	eb05 08c8 	add.w	r8, r5, r8, lsl #3
     960:	e7f1      	b.n	946 <__ARM_grp_.debug_frame$17+0xe>

00000962 <_ZNK10__cxxabiv121__vmi_class_type_info11__do_upcastEPKNS_17__class_type_infoEPKvRNS1_15__upcast_resultE>:
     962:	e92d 4ff0 	stmdb	sp!, {r4, r5, r6, r7, r8, r9, sl, fp, lr}
     966:	b089      	sub	sp, #36	; 0x24
     968:	4605      	mov	r5, r0
     96a:	4692      	mov	sl, r2
     96c:	9103      	str	r1, [sp, #12]
     96e:	461c      	mov	r4, r3
     970:	f7ff fdca 	bl	508 <_ZNK10__cxxabiv117__class_type_info11__do_upcastEPKS0_PKvRNS0_15__upcast_resultE>
     974:	2800      	cmp	r0, #0
     976:	f040 808d 	bne.w	a94 <__ARM_grp_.debug_frame$29+0x30>
     97a:	f8d4 9008 	ldr.w	r9, [r4, #8]
     97e:	f8d5 800c 	ldr.w	r8, [r5, #12]
     982:	f019 0f10 	tst.w	r9, #16
     986:	f108 0602 	add.w	r6, r8, #2
     98a:	bf18      	it	ne
     98c:	f8d5 9008 	ldrne.w	r9, [r5, #8]
     990:	eb05 06c6 	add.w	r6, r5, r6, lsl #3
     994:	e076      	b.n	a84 <__ARM_grp_.debug_frame$29+0x20>
     996:	4649      	mov	r1, r9
     998:	f108 38ff 	add.w	r8, r8, #4294967295
     99c:	a804      	add	r0, sp, #16
     99e:	f7ff fe04 	bl	5aa <_ZN10__cxxabiv117__class_type_info15__upcast_resultC1Ei>
     9a2:	f108 0302 	add.w	r3, r8, #2
     9a6:	eb05 03c3 	add.w	r3, r5, r3, lsl #3
     9aa:	9301      	str	r3, [sp, #4]
     9ac:	4618      	mov	r0, r3
     9ae:	f7ff ff8a 	bl	8c6 <_ZNK10__cxxabiv122__base_class_type_info8__offsetEv>
     9b2:	9b01      	ldr	r3, [sp, #4]
     9b4:	4607      	mov	r7, r0
     9b6:	4618      	mov	r0, r3
     9b8:	f7ff ff7d 	bl	8b6 <_ZNK10__cxxabiv122__base_class_type_info14__is_virtual_pEv>
     9bc:	9b01      	ldr	r3, [sp, #4]
     9be:	4683      	mov	fp, r0
     9c0:	4618      	mov	r0, r3
     9c2:	f7ff ff7c 	bl	8be <_ZNK10__cxxabiv122__base_class_type_info13__is_public_pEv>
     9c6:	9002      	str	r0, [sp, #8]
     9c8:	b910      	cbnz	r0, 9d0 <__ARM_grp_.debug_frame$23>
     9ca:	f019 0f01 	tst.w	r9, #1
     9ce:	d058      	beq.n	a82 <__ARM_grp_.debug_frame$29+0x1e>
     9d0:	f1ba 0f00 	cmp.w	sl, #0
     9d4:	d006      	beq.n	9e4 <__ARM_grp_.debug_frame$23+0x14>
     9d6:	463a      	mov	r2, r7
     9d8:	4650      	mov	r0, sl
     9da:	4659      	mov	r1, fp
     9dc:	f7ff ff51 	bl	882 <_ZN10__cxxabiv112_GLOBAL__N_115convert_to_baseEPKvbi>
     9e0:	4602      	mov	r2, r0
     9e2:	e000      	b.n	9e6 <__ARM_grp_.debug_frame$23+0x16>
     9e4:	4652      	mov	r2, sl
     9e6:	f856 0c08 	ldr.w	r0, [r6, #-8]
     9ea:	9903      	ldr	r1, [sp, #12]
     9ec:	6803      	ldr	r3, [r0, #0]
     9ee:	699f      	ldr	r7, [r3, #24]
     9f0:	ab04      	add	r3, sp, #16
     9f2:	47b8      	blx	r7
     9f4:	2800      	cmp	r0, #0
     9f6:	d044      	beq.n	a82 <__ARM_grp_.debug_frame$29+0x1e>
     9f8:	9b07      	ldr	r3, [sp, #28]
     9fa:	2b08      	cmp	r3, #8
     9fc:	d105      	bne.n	a0a <__ARM_grp_.debug_frame$23+0x3a>
     9fe:	f1bb 0f00 	cmp.w	fp, #0
     a02:	d002      	beq.n	a0a <__ARM_grp_.debug_frame$23+0x3a>
     a04:	f856 3c08 	ldr.w	r3, [r6, #-8]
     a08:	9307      	str	r3, [sp, #28]
     a0a:	f89d 7014 	ldrb.w	r7, [sp, #20]
     a0e:	4638      	mov	r0, r7
     a10:	f7ff ff2d 	bl	86e <_ZN10__cxxabiv112_GLOBAL__N_111contained_pENS_17__class_type_info10__sub_kindE>
     a14:	b128      	cbz	r0, a22 <__ARM_grp_.debug_frame$26+0xe>
     a16:	9b02      	ldr	r3, [sp, #8]
     a18:	b91b      	cbnz	r3, a22 <__ARM_grp_.debug_frame$26+0xe>
     a1a:	f027 0702 	bic.w	r7, r7, #2
     a1e:	f88d 7014 	strb.w	r7, [sp, #20]
     a22:	68e1      	ldr	r1, [r4, #12]
     a24:	b9c9      	cbnz	r1, a5a <__ARM_grp_.debug_frame$26+0x46>
     a26:	ab04      	add	r3, sp, #16
     a28:	cb0f      	ldmia	r3, {r0, r1, r2, r3}
     a2a:	e884 000f 	stmia.w	r4, {r0, r1, r2, r3}
     a2e:	7927      	ldrb	r7, [r4, #4]
     a30:	4638      	mov	r0, r7
     a32:	f7ff ff1c 	bl	86e <_ZN10__cxxabiv112_GLOBAL__N_111contained_pENS_17__class_type_info10__sub_kindE>
     a36:	2800      	cmp	r0, #0
     a38:	d02c      	beq.n	a94 <__ARM_grp_.debug_frame$29+0x30>
     a3a:	f017 0f02 	tst.w	r7, #2
     a3e:	d003      	beq.n	a48 <__ARM_grp_.debug_frame$26+0x34>
     a40:	68ab      	ldr	r3, [r5, #8]
     a42:	f013 0f01 	tst.w	r3, #1
     a46:	e006      	b.n	a56 <__ARM_grp_.debug_frame$26+0x42>
     a48:	4638      	mov	r0, r7
     a4a:	f7ff ff15 	bl	878 <_ZN10__cxxabiv112_GLOBAL__N_19virtual_pENS_17__class_type_info10__sub_kindE>
     a4e:	b308      	cbz	r0, a94 <__ARM_grp_.debug_frame$29+0x30>
     a50:	68ab      	ldr	r3, [r5, #8]
     a52:	f013 0f02 	tst.w	r3, #2
     a56:	d114      	bne.n	a82 <__ARM_grp_.debug_frame$29+0x1e>
     a58:	e01c      	b.n	a94 <__ARM_grp_.debug_frame$29+0x30>
     a5a:	6823      	ldr	r3, [r4, #0]
     a5c:	9a04      	ldr	r2, [sp, #16]
     a5e:	4293      	cmp	r3, r2
     a60:	d003      	beq.n	a6a <__ARM_grp_.debug_frame$29+0x6>
     a62:	2300      	movs	r3, #0
     a64:	6023      	str	r3, [r4, #0]
     a66:	3302      	adds	r3, #2
     a68:	e009      	b.n	a7e <__ARM_grp_.debug_frame$29+0x1a>
     a6a:	b9bb      	cbnz	r3, a9c <__ARM_grp_.debug_frame$29+0x38>
     a6c:	9807      	ldr	r0, [sp, #28]
     a6e:	2808      	cmp	r0, #8
     a70:	d004      	beq.n	a7c <__ARM_grp_.debug_frame$29+0x18>
     a72:	2908      	cmp	r1, #8
     a74:	d002      	beq.n	a7c <__ARM_grp_.debug_frame$29+0x18>
     a76:	f7ff fede 	bl	836 <_ZNKSt9type_infoeqERKS_>
     a7a:	b978      	cbnz	r0, a9c <__ARM_grp_.debug_frame$29+0x38>
     a7c:	2302      	movs	r3, #2
     a7e:	7123      	strb	r3, [r4, #4]
     a80:	e008      	b.n	a94 <__ARM_grp_.debug_frame$29+0x30>
     a82:	3e08      	subs	r6, #8
     a84:	f1b8 0f00 	cmp.w	r8, #0
     a88:	d185      	bne.n	996 <__ARM_grp_.debug_frame$20+0x1a>
     a8a:	7920      	ldrb	r0, [r4, #4]
     a8c:	3800      	subs	r0, #0
     a8e:	bf18      	it	ne
     a90:	2001      	movne	r0, #1
     a92:	e000      	b.n	a96 <__ARM_grp_.debug_frame$29+0x32>
     a94:	2001      	movs	r0, #1
     a96:	b009      	add	sp, #36	; 0x24
     a98:	e8bd 8ff0 	ldmia.w	sp!, {r4, r5, r6, r7, r8, r9, sl, fp, pc}
     a9c:	7923      	ldrb	r3, [r4, #4]
     a9e:	f89d 2014 	ldrb.w	r2, [sp, #20]
     aa2:	ea42 0303 	orr.w	r3, r2, r3
     aa6:	7123      	strb	r3, [r4, #4]
     aa8:	e7eb      	b.n	a82 <__ARM_grp_.debug_frame$29+0x1e>

00000aaa <_ZNK10__cxxabiv121__vmi_class_type_info12__do_dyncastEiNS_17__class_type_info10__sub_kindEPKS1_PKvS4_S6_RNS1_16__dyncast_resultE>:
     aaa:	e92d 4ff0 	stmdb	sp!, {r4, r5, r6, r7, r8, r9, sl, fp, lr}
     aae:	b091      	sub	sp, #68	; 0x44
     ab0:	4607      	mov	r7, r0
     ab2:	4689      	mov	r9, r1
     ab4:	9c1d      	ldr	r4, [sp, #116]	; 0x74
     ab6:	9307      	str	r3, [sp, #28]
     ab8:	9206      	str	r2, [sp, #24]
     aba:	68a3      	ldr	r3, [r4, #8]
     abc:	9a1a      	ldr	r2, [sp, #104]	; 0x68
     abe:	f013 0f10 	tst.w	r3, #16
     ac2:	bf1c      	itt	ne
     ac4:	6883      	ldrne	r3, [r0, #8]
     ac6:	60a3      	strne	r3, [r4, #8]
     ac8:	9b1c      	ldr	r3, [sp, #112]	; 0x70
     aca:	429a      	cmp	r2, r3
     acc:	f040 813e 	bne.w	d4c <__ARM_grp_.debug_frame$i._ZN4mbed13BaseDirHandle7readdirEv+0x44>
     ad0:	991b      	ldr	r1, [sp, #108]	; 0x6c
     ad2:	f7ff feb0 	bl	836 <_ZNKSt9type_infoeqERKS_>
     ad6:	2800      	cmp	r0, #0
     ad8:	f000 8138 	beq.w	d4c <__ARM_grp_.debug_frame$i._ZN4mbed13BaseDirHandle7readdirEv+0x44>
     adc:	9a06      	ldr	r2, [sp, #24]
     ade:	7162      	strb	r2, [r4, #5]
     ae0:	e12e      	b.n	d40 <__ARM_grp_.debug_frame$i._ZN4mbed13BaseDirHandle7readdirEv+0x38>
     ae2:	9b1a      	ldr	r3, [sp, #104]	; 0x68
     ae4:	f1b9 0f00 	cmp.w	r9, #0
     ae8:	9a06      	ldr	r2, [sp, #24]
     aea:	6023      	str	r3, [r4, #0]
     aec:	7122      	strb	r2, [r4, #4]
     aee:	db0a      	blt.n	b06 <__ARM_grp_.debug_frame$32+0x22>
     af0:	4618      	mov	r0, r3
     af2:	4649      	mov	r1, r9
     af4:	f7ff fec3 	bl	87e <_ZN10__cxxabiv112_GLOBAL__N_114adjust_pointerIvEEPKT_PKvi>
     af8:	9b1c      	ldr	r3, [sp, #112]	; 0x70
     afa:	4283      	cmp	r3, r0
     afc:	bf14      	ite	ne
     afe:	2001      	movne	r0, #1
     b00:	2006      	moveq	r0, #6
     b02:	71a0      	strb	r0, [r4, #6]
     b04:	e11c      	b.n	d40 <__ARM_grp_.debug_frame$i._ZN4mbed13BaseDirHandle7readdirEv+0x38>
     b06:	f119 0f02 	cmn.w	r9, #2
     b0a:	f040 8119 	bne.w	d40 <__ARM_grp_.debug_frame$i._ZN4mbed13BaseDirHandle7readdirEv+0x38>
     b0e:	2301      	movs	r3, #1
     b10:	71a3      	strb	r3, [r4, #6]
     b12:	e115      	b.n	d40 <__ARM_grp_.debug_frame$i._ZN4mbed13BaseDirHandle7readdirEv+0x38>
     b14:	f1b9 0f00 	cmp.w	r9, #0
     b18:	db04      	blt.n	b24 <__ARM_grp_.debug_frame$32+0x40>
     b1a:	981c      	ldr	r0, [sp, #112]	; 0x70
     b1c:	f1c9 0100 	rsb	r1, r9, #0
     b20:	f7ff fead 	bl	87e <_ZN10__cxxabiv112_GLOBAL__N_114adjust_pointerIvEEPKT_PKvi>
     b24:	f04f 0800 	mov.w	r8, #0
     b28:	2201      	movs	r2, #1
     b2a:	9008      	str	r0, [sp, #32]
     b2c:	f8cd 802c 	str.w	r8, [sp, #44]	; 0x2c
     b30:	9209      	str	r2, [sp, #36]	; 0x24
     b32:	e001      	b.n	b38 <__ARM_grp_.debug_frame$35+0x8>
     b34:	f8cd a024 	str.w	sl, [sp, #36]	; 0x24
     b38:	f8d7 a00c 	ldr.w	sl, [r7, #12]
     b3c:	f10a 0302 	add.w	r3, sl, #2
     b40:	eb07 03c3 	add.w	r3, r7, r3, lsl #3
     b44:	930a      	str	r3, [sp, #40]	; 0x28
     b46:	e0f0      	b.n	d2a <__ARM_grp_.debug_frame$i._ZN4mbed13BaseDirHandle7readdirEv+0x22>
     b48:	f10a 3aff 	add.w	sl, sl, #4294967295
     b4c:	68a1      	ldr	r1, [r4, #8]
     b4e:	f10a 0502 	add.w	r5, sl, #2
     b52:	a80d      	add	r0, sp, #52	; 0x34
     b54:	f7ff fd5c 	bl	610 <_ZN10__cxxabiv117__class_type_info16__dyncast_resultC1Ei>
     b58:	eb07 05c5 	add.w	r5, r7, r5, lsl #3
     b5c:	4628      	mov	r0, r5
     b5e:	f7ff feb2 	bl	8c6 <_ZNK10__cxxabiv122__base_class_type_info8__offsetEv>
     b62:	4683      	mov	fp, r0
     b64:	4628      	mov	r0, r5
     b66:	f7ff fea6 	bl	8b6 <_ZNK10__cxxabiv122__base_class_type_info14__is_virtual_pEv>
     b6a:	4601      	mov	r1, r0
     b6c:	b118      	cbz	r0, b76 <__ARM_grp_.debug_frame$35+0x46>
     b6e:	9b06      	ldr	r3, [sp, #24]
     b70:	f043 0601 	orr.w	r6, r3, #1
     b74:	e000      	b.n	b78 <__ARM_grp_.debug_frame$35+0x48>
     b76:	9e06      	ldr	r6, [sp, #24]
     b78:	465a      	mov	r2, fp
     b7a:	981a      	ldr	r0, [sp, #104]	; 0x68
     b7c:	f7ff fe81 	bl	882 <_ZN10__cxxabiv112_GLOBAL__N_115convert_to_baseEPKvbi>
     b80:	9a08      	ldr	r2, [sp, #32]
     b82:	4683      	mov	fp, r0
     b84:	b13a      	cbz	r2, b96 <__ARM_grp_.debug_frame$38+0x16>
     b86:	4290      	cmp	r0, r2
     b88:	9a09      	ldr	r2, [sp, #36]	; 0x24
     b8a:	bf94      	ite	ls
     b8c:	2300      	movls	r3, #0
     b8e:	2301      	movhi	r3, #1
     b90:	4293      	cmp	r3, r2
     b92:	f000 80c5 	beq.w	d20 <__ARM_grp_.debug_frame$i._ZN4mbed13BaseDirHandle7readdirEv+0x18>
     b96:	4628      	mov	r0, r5
     b98:	f7ff fe91 	bl	8be <_ZNK10__cxxabiv122__base_class_type_info13__is_public_pEv>
     b9c:	b948      	cbnz	r0, bb2 <__ARM_grp_.debug_frame$38+0x32>
     b9e:	f119 0f02 	cmn.w	r9, #2
     ba2:	d104      	bne.n	bae <__ARM_grp_.debug_frame$38+0x2e>
     ba4:	68a3      	ldr	r3, [r4, #8]
     ba6:	f013 0f03 	tst.w	r3, #3
     baa:	f000 80bb 	beq.w	d24 <__ARM_grp_.debug_frame$i._ZN4mbed13BaseDirHandle7readdirEv+0x1c>
     bae:	f006 06fd 	and.w	r6, r6, #253	; 0xfd
     bb2:	9b0a      	ldr	r3, [sp, #40]	; 0x28
     bb4:	4649      	mov	r1, r9
     bb6:	9a1b      	ldr	r2, [sp, #108]	; 0x6c
     bb8:	f853 0c08 	ldr.w	r0, [r3, #-8]
     bbc:	6803      	ldr	r3, [r0, #0]
     bbe:	9201      	str	r2, [sp, #4]
     bc0:	9a1c      	ldr	r2, [sp, #112]	; 0x70
     bc2:	f8cd b000 	str.w	fp, [sp]
     bc6:	9202      	str	r2, [sp, #8]
     bc8:	aa0d      	add	r2, sp, #52	; 0x34
     bca:	9203      	str	r2, [sp, #12]
     bcc:	4632      	mov	r2, r6
     bce:	69dd      	ldr	r5, [r3, #28]
     bd0:	9b07      	ldr	r3, [sp, #28]
     bd2:	47a8      	blx	r5
     bd4:	f89d 503a 	ldrb.w	r5, [sp, #58]	; 0x3a
     bd8:	7963      	ldrb	r3, [r4, #5]
     bda:	f89d 2039 	ldrb.w	r2, [sp, #57]	; 0x39
     bde:	2d06      	cmp	r5, #6
     be0:	ea42 0303 	orr.w	r3, r2, r3
     be4:	7163      	strb	r3, [r4, #5]
     be6:	d001      	beq.n	bec <__ARM_grp_.debug_frame$41+0x1c>
     be8:	2d02      	cmp	r5, #2
     bea:	d106      	bne.n	bfa <__ARM_grp_.debug_frame$41+0x2a>
     bec:	9b0d      	ldr	r3, [sp, #52]	; 0x34
     bee:	71a5      	strb	r5, [r4, #6]
     bf0:	6023      	str	r3, [r4, #0]
     bf2:	f89d 3038 	ldrb.w	r3, [sp, #56]	; 0x38
     bf6:	7123      	strb	r3, [r4, #4]
     bf8:	e0a5      	b.n	d46 <__ARM_grp_.debug_frame$i._ZN4mbed13BaseDirHandle7readdirEv+0x3e>
     bfa:	f8d4 b000 	ldr.w	fp, [r4]
     bfe:	f1b8 0f00 	cmp.w	r8, #0
     c02:	d110      	bne.n	c26 <__ARM_grp_.debug_frame$44+0x6>
     c04:	f1bb 0f00 	cmp.w	fp, #0
     c08:	d10d      	bne.n	c26 <__ARM_grp_.debug_frame$44+0x6>
     c0a:	9a0d      	ldr	r2, [sp, #52]	; 0x34
     c0c:	f89d 1038 	ldrb.w	r1, [sp, #56]	; 0x38
     c10:	6022      	str	r2, [r4, #0]
     c12:	7121      	strb	r1, [r4, #4]
     c14:	2a00      	cmp	r2, #0
     c16:	d07e      	beq.n	d16 <__ARM_grp_.debug_frame$i._ZN4mbed13BaseDirHandle7readdirEv+0xe>
     c18:	2b00      	cmp	r3, #0
     c1a:	d07c      	beq.n	d16 <__ARM_grp_.debug_frame$i._ZN4mbed13BaseDirHandle7readdirEv+0xe>
     c1c:	68bb      	ldr	r3, [r7, #8]
     c1e:	f013 0f01 	tst.w	r3, #1
     c22:	d178      	bne.n	d16 <__ARM_grp_.debug_frame$i._ZN4mbed13BaseDirHandle7readdirEv+0xe>
     c24:	e08f      	b.n	d46 <__ARM_grp_.debug_frame$i._ZN4mbed13BaseDirHandle7readdirEv+0x3e>
     c26:	f1bb 0f00 	cmp.w	fp, #0
     c2a:	d00b      	beq.n	c44 <__ARM_grp_.debug_frame$44+0x24>
     c2c:	9a0d      	ldr	r2, [sp, #52]	; 0x34
     c2e:	4593      	cmp	fp, r2
     c30:	d106      	bne.n	c40 <__ARM_grp_.debug_frame$44+0x20>
     c32:	7923      	ldrb	r3, [r4, #4]
     c34:	f89d 2038 	ldrb.w	r2, [sp, #56]	; 0x38
     c38:	ea42 0303 	orr.w	r3, r2, r3
     c3c:	7123      	strb	r3, [r4, #4]
     c3e:	e06b      	b.n	d18 <__ARM_grp_.debug_frame$i._ZN4mbed13BaseDirHandle7readdirEv+0x10>
     c40:	b932      	cbnz	r2, c50 <__ARM_grp_.debug_frame$44+0x30>
     c42:	b928      	cbnz	r0, c50 <__ARM_grp_.debug_frame$44+0x30>
     c44:	9a0d      	ldr	r2, [sp, #52]	; 0x34
     c46:	2a00      	cmp	r2, #0
     c48:	d066      	beq.n	d18 <__ARM_grp_.debug_frame$i._ZN4mbed13BaseDirHandle7readdirEv+0x10>
     c4a:	f1b8 0f00 	cmp.w	r8, #0
     c4e:	d063      	beq.n	d18 <__ARM_grp_.debug_frame$i._ZN4mbed13BaseDirHandle7readdirEv+0x10>
     c50:	4618      	mov	r0, r3
     c52:	79a6      	ldrb	r6, [r4, #6]
     c54:	9305      	str	r3, [sp, #20]
     c56:	f7ff fe0a 	bl	86e <_ZN10__cxxabiv112_GLOBAL__N_111contained_pENS_17__class_type_info10__sub_kindE>
     c5a:	9b05      	ldr	r3, [sp, #20]
     c5c:	2800      	cmp	r0, #0
     c5e:	d07d      	beq.n	d5c <__ARM_grp_.debug_frame$i._ZN4mbed13BaseDirHandle7telldirEv+0x4>
     c60:	4618      	mov	r0, r3
     c62:	f7ff fe09 	bl	878 <_ZN10__cxxabiv112_GLOBAL__N_19virtual_pENS_17__class_type_info10__sub_kindE>
     c66:	b118      	cbz	r0, c70 <__ARM_grp_.debug_frame$t._ZN4mbed17rpc_method_callerINS_4BaseEXadL_ZNS1_11delete_selfEvEEEEvPS1_PKcPc>
     c68:	68a3      	ldr	r3, [r4, #8]
     c6a:	f013 0f02 	tst.w	r3, #2
     c6e:	d175      	bne.n	d5c <__ARM_grp_.debug_frame$i._ZN4mbed13BaseDirHandle7telldirEv+0x4>
     c70:	2e00      	cmp	r6, #0
     c72:	bf08      	it	eq
     c74:	2601      	moveq	r6, #1
     c76:	2d00      	cmp	r5, #0
     c78:	bf08      	it	eq
     c7a:	2501      	moveq	r5, #1
     c7c:	e01e      	b.n	cbc <__ARM_grp_.debug_frame$i._ZN4mbed13BaseDirHandle8closedirEv>
     c7e:	4628      	mov	r0, r5
     c80:	f7ff fdf5 	bl	86e <_ZN10__cxxabiv112_GLOBAL__N_111contained_pENS_17__class_type_info10__sub_kindE>
     c84:	2800      	cmp	r0, #0
     c86:	d06c      	beq.n	d62 <__ARM_grp_.debug_frame$i._ZN4mbed13BaseDirHandle7telldirEv+0xa>
     c88:	4628      	mov	r0, r5
     c8a:	f7ff fdf5 	bl	878 <_ZN10__cxxabiv112_GLOBAL__N_19virtual_pENS_17__class_type_info10__sub_kindE>
     c8e:	b118      	cbz	r0, c98 <__ARM_grp_.debug_frame$t._ZN4mbed17rpc_method_callerINS_4BaseEXadL_ZNS1_11delete_selfEvEEEEvPS1_PKcPc+0x28>
     c90:	68bb      	ldr	r3, [r7, #8]
     c92:	f013 0f02 	tst.w	r3, #2
     c96:	d164      	bne.n	d62 <__ARM_grp_.debug_frame$i._ZN4mbed13BaseDirHandle7telldirEv+0xa>
     c98:	2601      	movs	r6, #1
     c9a:	b97d      	cbnz	r5, cbc <__ARM_grp_.debug_frame$i._ZN4mbed13BaseDirHandle8closedirEv>
     c9c:	4630      	mov	r0, r6
     c9e:	f7ff fde6 	bl	86e <_ZN10__cxxabiv112_GLOBAL__N_111contained_pENS_17__class_type_info10__sub_kindE>
     ca2:	2800      	cmp	r0, #0
     ca4:	d067      	beq.n	d76 <__ARM_grp_.debug_frame$i._ZN4mbed13BaseDirHandle7telldirEv+0x1e>
     ca6:	4630      	mov	r0, r6
     ca8:	f7ff fde6 	bl	878 <_ZN10__cxxabiv112_GLOBAL__N_19virtual_pENS_17__class_type_info10__sub_kindE>
     cac:	b128      	cbz	r0, cba <__ARM_grp_.debug_frame$t._ZN4mbed17rpc_method_callerINS_4BaseEXadL_ZNS1_11delete_selfEvEEEEvPS1_PKcPc+0x4a>
     cae:	68bb      	ldr	r3, [r7, #8]
     cb0:	f013 0f02 	tst.w	r3, #2
     cb4:	d15f      	bne.n	d76 <__ARM_grp_.debug_frame$i._ZN4mbed13BaseDirHandle7telldirEv+0x1e>
     cb6:	3501      	adds	r5, #1
     cb8:	e000      	b.n	cbc <__ARM_grp_.debug_frame$i._ZN4mbed13BaseDirHandle8closedirEv>
     cba:	2501      	movs	r5, #1
     cbc:	ea86 0005 	eor.w	r0, r6, r5
     cc0:	b2c0      	uxtb	r0, r0
     cc2:	f7ff fdd4 	bl	86e <_ZN10__cxxabiv112_GLOBAL__N_111contained_pENS_17__class_type_info10__sub_kindE>
     cc6:	4683      	mov	fp, r0
     cc8:	b1a0      	cbz	r0, cf4 <__ARM_grp_.debug_frame$i._ZN4mbed13BaseDirHandle8closedirEv+0x38>
     cca:	4628      	mov	r0, r5
     ccc:	f7ff fdcf 	bl	86e <_ZN10__cxxabiv112_GLOBAL__N_111contained_pENS_17__class_type_info10__sub_kindE>
     cd0:	b138      	cbz	r0, ce2 <__ARM_grp_.debug_frame$i._ZN4mbed13BaseDirHandle8closedirEv+0x26>
     cd2:	9b0d      	ldr	r3, [sp, #52]	; 0x34
     cd4:	462e      	mov	r6, r5
     cd6:	f04f 0800 	mov.w	r8, #0
     cda:	6023      	str	r3, [r4, #0]
     cdc:	f89d 3038 	ldrb.w	r3, [sp, #56]	; 0x38
     ce0:	7123      	strb	r3, [r4, #4]
     ce2:	f016 0f02 	tst.w	r6, #2
     ce6:	71a6      	strb	r6, [r4, #6]
     ce8:	d12a      	bne.n	d40 <__ARM_grp_.debug_frame$i._ZN4mbed13BaseDirHandle7readdirEv+0x38>
     cea:	4630      	mov	r0, r6
     cec:	f7ff fdc4 	bl	878 <_ZN10__cxxabiv112_GLOBAL__N_19virtual_pENS_17__class_type_info10__sub_kindE>
     cf0:	b990      	cbnz	r0, d18 <__ARM_grp_.debug_frame$i._ZN4mbed13BaseDirHandle7readdirEv+0x10>
     cf2:	e028      	b.n	d46 <__ARM_grp_.debug_frame$i._ZN4mbed13BaseDirHandle7readdirEv+0x3e>
     cf4:	ea06 0505 	and.w	r5, r6, r5
     cf8:	f04f 0801 	mov.w	r8, #1
     cfc:	b2e8      	uxtb	r0, r5
     cfe:	f7ff fdb6 	bl	86e <_ZN10__cxxabiv112_GLOBAL__N_111contained_pENS_17__class_type_info10__sub_kindE>
     d02:	b120      	cbz	r0, d0e <__ARM_grp_.debug_frame$i._ZN4mbed13BaseDirHandle7readdirEv+0x6>
     d04:	2302      	movs	r3, #2
     d06:	f8c4 b000 	str.w	fp, [r4]
     d0a:	71a3      	strb	r3, [r4, #6]
     d0c:	e01a      	b.n	d44 <__ARM_grp_.debug_frame$i._ZN4mbed13BaseDirHandle7readdirEv+0x3c>
     d0e:	6020      	str	r0, [r4, #0]
     d10:	f884 8006 	strb.w	r8, [r4, #6]
     d14:	e000      	b.n	d18 <__ARM_grp_.debug_frame$i._ZN4mbed13BaseDirHandle7readdirEv+0x10>
     d16:	4680      	mov	r8, r0
     d18:	7963      	ldrb	r3, [r4, #5]
     d1a:	2b04      	cmp	r3, #4
     d1c:	d102      	bne.n	d24 <__ARM_grp_.debug_frame$i._ZN4mbed13BaseDirHandle7readdirEv+0x1c>
     d1e:	e011      	b.n	d44 <__ARM_grp_.debug_frame$i._ZN4mbed13BaseDirHandle7readdirEv+0x3c>
     d20:	2301      	movs	r3, #1
     d22:	930b      	str	r3, [sp, #44]	; 0x2c
     d24:	9a0a      	ldr	r2, [sp, #40]	; 0x28
     d26:	3a08      	subs	r2, #8
     d28:	920a      	str	r2, [sp, #40]	; 0x28
     d2a:	f1ba 0f00 	cmp.w	sl, #0
     d2e:	f47f af0b 	bne.w	b48 <__ARM_grp_.debug_frame$35+0x18>
     d32:	9b0b      	ldr	r3, [sp, #44]	; 0x2c
     d34:	b133      	cbz	r3, d44 <__ARM_grp_.debug_frame$i._ZN4mbed13BaseDirHandle7readdirEv+0x3c>
     d36:	9a09      	ldr	r2, [sp, #36]	; 0x24
     d38:	2a00      	cmp	r2, #0
     d3a:	f47f aefb 	bne.w	b34 <__ARM_grp_.debug_frame$35+0x4>
     d3e:	e001      	b.n	d44 <__ARM_grp_.debug_frame$i._ZN4mbed13BaseDirHandle7readdirEv+0x3c>
     d40:	2000      	movs	r0, #0
     d42:	e000      	b.n	d46 <__ARM_grp_.debug_frame$i._ZN4mbed13BaseDirHandle7readdirEv+0x3e>
     d44:	4640      	mov	r0, r8
     d46:	b011      	add	sp, #68	; 0x44
     d48:	e8bd 8ff0 	ldmia.w	sp!, {r4, r5, r6, r7, r8, r9, sl, fp, pc}
     d4c:	4638      	mov	r0, r7
     d4e:	9907      	ldr	r1, [sp, #28]
     d50:	f7ff fd71 	bl	836 <_ZNKSt9type_infoeqERKS_>
     d54:	2800      	cmp	r0, #0
     d56:	f47f aec4 	bne.w	ae2 <_ZNK10__cxxabiv121__vmi_class_type_info12__do_dyncastEiNS_17__class_type_info10__sub_kindEPKS1_PKvS4_S6_RNS1_16__dyncast_resultE+0x38>
     d5a:	e6db      	b.n	b14 <__ARM_grp_.debug_frame$32+0x30>
     d5c:	2e00      	cmp	r6, #0
     d5e:	d19c      	bne.n	c9a <__ARM_grp_.debug_frame$t._ZN4mbed17rpc_method_callerINS_4BaseEXadL_ZNS1_11delete_selfEvEEEEvPS1_PKcPc+0x2a>
     d60:	e78d      	b.n	c7e <__ARM_grp_.debug_frame$t._ZN4mbed17rpc_method_callerINS_4BaseEXadL_ZNS1_11delete_selfEvEEEEvPS1_PKcPc+0xe>
     d62:	9b1c      	ldr	r3, [sp, #112]	; 0x70
     d64:	4649      	mov	r1, r9
     d66:	9807      	ldr	r0, [sp, #28]
     d68:	465a      	mov	r2, fp
     d6a:	9300      	str	r3, [sp, #0]
     d6c:	9b1b      	ldr	r3, [sp, #108]	; 0x6c
     d6e:	f7ff fc56 	bl	61e <_ZNK10__cxxabiv117__class_type_info17__find_public_srcEiPKvPKS0_S2_>
     d72:	4606      	mov	r6, r0
     d74:	e791      	b.n	c9a <__ARM_grp_.debug_frame$t._ZN4mbed17rpc_method_callerINS_4BaseEXadL_ZNS1_11delete_selfEvEEEEvPS1_PKcPc+0x2a>
     d76:	9a1c      	ldr	r2, [sp, #112]	; 0x70
     d78:	4649      	mov	r1, r9
     d7a:	9807      	ldr	r0, [sp, #28]
     d7c:	9b1b      	ldr	r3, [sp, #108]	; 0x6c
     d7e:	9200      	str	r2, [sp, #0]
     d80:	9a0d      	ldr	r2, [sp, #52]	; 0x34
     d82:	f7ff fc4c 	bl	61e <_ZNK10__cxxabiv117__class_type_info17__find_public_srcEiPKvPKS0_S2_>
     d86:	4605      	mov	r5, r0
     d88:	e798      	b.n	cbc <__ARM_grp_.debug_frame$i._ZN4mbed13BaseDirHandle8closedirEv>
     d8a:	0000      	movs	r0, r0
     d8c:	0000      	movs	r0, r0
	...

00000d90 <scalbn>:
     d90:	b5f8      	push	{r3, r4, r5, r6, r7, lr}
     d92:	4604      	mov	r4, r0
     d94:	4b38      	ldr	r3, [pc, #224]	; (e78 <__ARM_grp_.debug_frame$i._ZN4mbed13BaseDirHandle9rewinddirEv+0x98>)
     d96:	460d      	mov	r5, r1
     d98:	4616      	mov	r6, r2
     d9a:	460f      	mov	r7, r1
     d9c:	ea01 0303 	and.w	r3, r1, r3
     da0:	ea4f 5c23 	mov.w	ip, r3, asr #20
     da4:	b96b      	cbnz	r3, dc2 <__ARM_grp_.debug_frame$i._ZN4mbed13BaseDirHandle7seekdirEl+0x26>
     da6:	f021 4700 	bic.w	r7, r1, #2147483648	; 0x80000000
     daa:	4307      	orrs	r7, r0
     dac:	d056      	beq.n	e5c <__ARM_grp_.debug_frame$i._ZN4mbed13BaseDirHandle9rewinddirEv+0x7c>
     dae:	2200      	movs	r2, #0
     db0:	4b32      	ldr	r3, [pc, #200]	; (e7c <__ARM_grp_.debug_frame$i._ZN4mbed13BaseDirHandle9rewinddirEv+0x9c>)
     db2:	f000 fa29 	bl	1208 <__aeabi_dmul>
     db6:	4f32      	ldr	r7, [pc, #200]	; (e80 <__ARM_grp_.debug_frame$i._ZN4mbed13BaseDirHandle9rewinddirEv+0xa0>)
     db8:	42be      	cmp	r6, r7
     dba:	4604      	mov	r4, r0
     dbc:	460d      	mov	r5, r1
     dbe:	da09      	bge.n	dd4 <__ARM_grp_.debug_frame$i._ZN4mbed13BaseDirHandle7seekdirEl+0x38>
     dc0:	e038      	b.n	e34 <__ARM_grp_.debug_frame$i._ZN4mbed13BaseDirHandle9rewinddirEv+0x54>
     dc2:	f240 73ff 	movw	r3, #2047	; 0x7ff
     dc6:	459c      	cmp	ip, r3
     dc8:	d10c      	bne.n	de4 <__ARM_grp_.debug_frame$i._ZN4mbed13BaseDirHandle9rewinddirEv+0x4>
     dca:	4602      	mov	r2, r0
     dcc:	460b      	mov	r3, r1
     dce:	f000 f869 	bl	ea4 <__adddf3>
     dd2:	e041      	b.n	e58 <__ARM_grp_.debug_frame$i._ZN4mbed13BaseDirHandle9rewinddirEv+0x78>
     dd4:	4b28      	ldr	r3, [pc, #160]	; (e78 <__ARM_grp_.debug_frame$i._ZN4mbed13BaseDirHandle9rewinddirEv+0x98>)
     dd6:	460f      	mov	r7, r1
     dd8:	ea01 0303 	and.w	r3, r1, r3
     ddc:	ea4f 5c23 	mov.w	ip, r3, asr #20
     de0:	f1ac 0c36 	sub.w	ip, ip, #54	; 0x36
     de4:	44b4      	add	ip, r6
     de6:	f240 73fe 	movw	r3, #2046	; 0x7fe
     dea:	459c      	cmp	ip, r3
     dec:	dc10      	bgt.n	e10 <__ARM_grp_.debug_frame$i._ZN4mbed13BaseDirHandle9rewinddirEv+0x30>
     dee:	f1bc 0f00 	cmp.w	ip, #0
     df2:	dd06      	ble.n	e02 <__ARM_grp_.debug_frame$i._ZN4mbed13BaseDirHandle9rewinddirEv+0x22>
     df4:	f027 47fe 	bic.w	r7, r7, #2130706432	; 0x7f000000
     df8:	f427 0770 	bic.w	r7, r7, #15728640	; 0xf00000
     dfc:	ea47 550c 	orr.w	r5, r7, ip, lsl #20
     e00:	e02c      	b.n	e5c <__ARM_grp_.debug_frame$i._ZN4mbed13BaseDirHandle9rewinddirEv+0x7c>
     e02:	f11c 0f35 	cmn.w	ip, #53	; 0x35
     e06:	da19      	bge.n	e3c <__ARM_grp_.debug_frame$i._ZN4mbed13BaseDirHandle9rewinddirEv+0x5c>
     e08:	f24c 3350 	movw	r3, #50000	; 0xc350
     e0c:	429e      	cmp	r6, r3
     e0e:	dd0a      	ble.n	e26 <__ARM_grp_.debug_frame$i._ZN4mbed13BaseDirHandle9rewinddirEv+0x46>
     e10:	4622      	mov	r2, r4
     e12:	462b      	mov	r3, r5
     e14:	a114      	add	r1, pc, #80	; (adr r1, e68 <__ARM_grp_.debug_frame$i._ZN4mbed13BaseDirHandle9rewinddirEv+0x88>)
     e16:	e9d1 0100 	ldrd	r0, r1, [r1]
     e1a:	f000 f835 	bl	e88 <copysign>
     e1e:	a312      	add	r3, pc, #72	; (adr r3, e68 <__ARM_grp_.debug_frame$i._ZN4mbed13BaseDirHandle9rewinddirEv+0x88>)
     e20:	e9d3 2300 	ldrd	r2, r3, [r3]
     e24:	e016      	b.n	e54 <__ARM_grp_.debug_frame$i._ZN4mbed13BaseDirHandle9rewinddirEv+0x74>
     e26:	a112      	add	r1, pc, #72	; (adr r1, e70 <__ARM_grp_.debug_frame$i._ZN4mbed13BaseDirHandle9rewinddirEv+0x90>)
     e28:	e9d1 0100 	ldrd	r0, r1, [r1]
     e2c:	4622      	mov	r2, r4
     e2e:	462b      	mov	r3, r5
     e30:	f000 f82a 	bl	e88 <copysign>
     e34:	a30e      	add	r3, pc, #56	; (adr r3, e70 <__ARM_grp_.debug_frame$i._ZN4mbed13BaseDirHandle9rewinddirEv+0x90>)
     e36:	e9d3 2300 	ldrd	r2, r3, [r3]
     e3a:	e00b      	b.n	e54 <__ARM_grp_.debug_frame$i._ZN4mbed13BaseDirHandle9rewinddirEv+0x74>
     e3c:	f10c 0c36 	add.w	ip, ip, #54	; 0x36
     e40:	f027 47fe 	bic.w	r7, r7, #2130706432	; 0x7f000000
     e44:	f427 0770 	bic.w	r7, r7, #15728640	; 0xf00000
     e48:	4b0e      	ldr	r3, [pc, #56]	; (e84 <__ARM_grp_.debug_frame$i._ZN4mbed13BaseDirHandle9rewinddirEv+0xa4>)
     e4a:	ea47 550c 	orr.w	r5, r7, ip, lsl #20
     e4e:	4620      	mov	r0, r4
     e50:	4629      	mov	r1, r5
     e52:	2200      	movs	r2, #0
     e54:	f000 f9d8 	bl	1208 <__aeabi_dmul>
     e58:	4604      	mov	r4, r0
     e5a:	460d      	mov	r5, r1
     e5c:	4620      	mov	r0, r4
     e5e:	4629      	mov	r1, r5
     e60:	bdf8      	pop	{r3, r4, r5, r6, r7, pc}
     e62:	bf00      	nop
     e64:	f3af 8000 	nop.w
     e68:	8800759c 	.word	0x8800759c
     e6c:	7e37e43c 	.word	0x7e37e43c
     e70:	c2f8f359 	.word	0xc2f8f359
     e74:	01a56e1f 	.word	0x01a56e1f
     e78:	7ff00000 	.word	0x7ff00000
     e7c:	43500000 	.word	0x43500000
     e80:	ffff3cb0 	.word	0xffff3cb0
     e84:	3c900000 	.word	0x3c900000

00000e88 <copysign>:
     e88:	f003 4300 	and.w	r3, r3, #2147483648	; 0x80000000
     e8c:	f021 4200 	bic.w	r2, r1, #2147483648	; 0x80000000
     e90:	b530      	push	{r4, r5, lr}
     e92:	ea43 0102 	orr.w	r1, r3, r2
     e96:	bd30      	pop	{r4, r5, pc}

00000e98 <__aeabi_drsub>:
     e98:	f081 4100 	eor.w	r1, r1, #2147483648	; 0x80000000
     e9c:	e002      	b.n	ea4 <__adddf3>
     e9e:	bf00      	nop

00000ea0 <__aeabi_dsub>:
     ea0:	f083 4300 	eor.w	r3, r3, #2147483648	; 0x80000000

00000ea4 <__adddf3>:
     ea4:	b530      	push	{r4, r5, lr}
     ea6:	ea4f 0441 	mov.w	r4, r1, lsl #1
     eaa:	ea4f 0543 	mov.w	r5, r3, lsl #1
     eae:	ea94 0f05 	teq	r4, r5
     eb2:	bf08      	it	eq
     eb4:	ea90 0f02 	teqeq	r0, r2
     eb8:	bf1f      	itttt	ne
     eba:	ea54 0c00 	orrsne.w	ip, r4, r0
     ebe:	ea55 0c02 	orrsne.w	ip, r5, r2
     ec2:	ea7f 5c64 	mvnsne.w	ip, r4, asr #21
     ec6:	ea7f 5c65 	mvnsne.w	ip, r5, asr #21
     eca:	f000 80e2 	beq.w	1092 <__ARM_grp_.debug_frame$8+0x1e>
     ece:	ea4f 5454 	mov.w	r4, r4, lsr #21
     ed2:	ebd4 5555 	rsbs	r5, r4, r5, lsr #21
     ed6:	bfb8      	it	lt
     ed8:	426d      	neglt	r5, r5
     eda:	dd0c      	ble.n	ef6 <__adddf3+0x52>
     edc:	442c      	add	r4, r5
     ede:	ea80 0202 	eor.w	r2, r0, r2
     ee2:	ea81 0303 	eor.w	r3, r1, r3
     ee6:	ea82 0000 	eor.w	r0, r2, r0
     eea:	ea83 0101 	eor.w	r1, r3, r1
     eee:	ea80 0202 	eor.w	r2, r0, r2
     ef2:	ea81 0303 	eor.w	r3, r1, r3
     ef6:	2d36      	cmp	r5, #54	; 0x36
     ef8:	bf88      	it	hi
     efa:	bd30      	pophi	{r4, r5, pc}
     efc:	f011 4f00 	tst.w	r1, #2147483648	; 0x80000000
     f00:	ea4f 3101 	mov.w	r1, r1, lsl #12
     f04:	f44f 1c80 	mov.w	ip, #1048576	; 0x100000
     f08:	ea4c 3111 	orr.w	r1, ip, r1, lsr #12
     f0c:	d002      	beq.n	f14 <__ARM_grp_.debug_frame$5+0xc>
     f0e:	4240      	negs	r0, r0
     f10:	eb61 0141 	sbc.w	r1, r1, r1, lsl #1
     f14:	f013 4f00 	tst.w	r3, #2147483648	; 0x80000000
     f18:	ea4f 3303 	mov.w	r3, r3, lsl #12
     f1c:	ea4c 3313 	orr.w	r3, ip, r3, lsr #12
     f20:	d002      	beq.n	f28 <__ARM_grp_.debug_frame$5+0x20>
     f22:	4252      	negs	r2, r2
     f24:	eb63 0343 	sbc.w	r3, r3, r3, lsl #1
     f28:	ea94 0f05 	teq	r4, r5
     f2c:	f000 80a7 	beq.w	107e <__ARM_grp_.debug_frame$8+0xa>
     f30:	f1a4 0401 	sub.w	r4, r4, #1
     f34:	f1d5 0e20 	rsbs	lr, r5, #32
     f38:	db0d      	blt.n	f56 <__ARM_grp_.debug_frame$8+0xa>
     f3a:	fa02 fc0e 	lsl.w	ip, r2, lr
     f3e:	fa22 f205 	lsr.w	r2, r2, r5
     f42:	1880      	adds	r0, r0, r2
     f44:	f141 0100 	adc.w	r1, r1, #0
     f48:	fa03 f20e 	lsl.w	r2, r3, lr
     f4c:	1880      	adds	r0, r0, r2
     f4e:	fa43 f305 	asr.w	r3, r3, r5
     f52:	4159      	adcs	r1, r3
     f54:	e00e      	b.n	f74 <__ARM_grp_.debug_frame$8+0x28>
     f56:	f1a5 0520 	sub.w	r5, r5, #32
     f5a:	f10e 0e20 	add.w	lr, lr, #32
     f5e:	2a01      	cmp	r2, #1
     f60:	fa03 fc0e 	lsl.w	ip, r3, lr
     f64:	bf28      	it	cs
     f66:	f04c 0c02 	orrcs.w	ip, ip, #2
     f6a:	fa43 f305 	asr.w	r3, r3, r5
     f6e:	18c0      	adds	r0, r0, r3
     f70:	eb51 71e3 	adcs.w	r1, r1, r3, asr #31
     f74:	f001 4500 	and.w	r5, r1, #2147483648	; 0x80000000
     f78:	d507      	bpl.n	f8a <__ARM_grp_.debug_frame$8+0x3e>
     f7a:	f04f 0e00 	mov.w	lr, #0
     f7e:	f1dc 0c00 	rsbs	ip, ip, #0
     f82:	eb7e 0000 	sbcs.w	r0, lr, r0
     f86:	eb6e 0101 	sbc.w	r1, lr, r1
     f8a:	f5b1 1f80 	cmp.w	r1, #1048576	; 0x100000
     f8e:	d31b      	bcc.n	fc8 <__ARM_grp_.debug_frame$8+0x7c>
     f90:	f5b1 1f00 	cmp.w	r1, #2097152	; 0x200000
     f94:	d30c      	bcc.n	fb0 <__ARM_grp_.debug_frame$8+0x64>
     f96:	0849      	lsrs	r1, r1, #1
     f98:	ea5f 0030 	movs.w	r0, r0, rrx
     f9c:	ea4f 0c3c 	mov.w	ip, ip, rrx
     fa0:	f104 0401 	add.w	r4, r4, #1
     fa4:	ea4f 5244 	mov.w	r2, r4, lsl #21
     fa8:	f512 0f80 	cmn.w	r2, #4194304	; 0x400000
     fac:	f080 809a 	bcs.w	10e4 <__ARM_grp_.debug_frame$11+0x10>
     fb0:	f1bc 4f00 	cmp.w	ip, #2147483648	; 0x80000000
     fb4:	bf08      	it	eq
     fb6:	ea5f 0c50 	movseq.w	ip, r0, lsr #1
     fba:	f150 0000 	adcs.w	r0, r0, #0
     fbe:	eb41 5104 	adc.w	r1, r1, r4, lsl #20
     fc2:	ea41 0105 	orr.w	r1, r1, r5
     fc6:	bd30      	pop	{r4, r5, pc}
     fc8:	ea5f 0c4c 	movs.w	ip, ip, lsl #1
     fcc:	4140      	adcs	r0, r0
     fce:	eb41 0101 	adc.w	r1, r1, r1
     fd2:	f411 1f80 	tst.w	r1, #1048576	; 0x100000
     fd6:	f1a4 0401 	sub.w	r4, r4, #1
     fda:	d1e9      	bne.n	fb0 <__ARM_grp_.debug_frame$8+0x64>
     fdc:	f091 0f00 	teq	r1, #0
     fe0:	bf04      	itt	eq
     fe2:	4601      	moveq	r1, r0
     fe4:	2000      	moveq	r0, #0
     fe6:	fab1 f381 	clz	r3, r1
     fea:	bf08      	it	eq
     fec:	3320      	addeq	r3, #32
     fee:	f1a3 030b 	sub.w	r3, r3, #11
     ff2:	f1b3 0220 	subs.w	r2, r3, #32
     ff6:	da0c      	bge.n	1012 <__ARM_grp_.debug_frame$8+0xc6>
     ff8:	320c      	adds	r2, #12
     ffa:	dd08      	ble.n	100e <__ARM_grp_.debug_frame$8+0xc2>
     ffc:	f102 0c14 	add.w	ip, r2, #20
    1000:	f1c2 020c 	rsb	r2, r2, #12
    1004:	fa01 f00c 	lsl.w	r0, r1, ip
    1008:	fa21 f102 	lsr.w	r1, r1, r2
    100c:	e00c      	b.n	1028 <__ARM_grp_.debug_frame$5+0x4>
    100e:	f102 0214 	add.w	r2, r2, #20
    1012:	bfd8      	it	le
    1014:	f1c2 0c20 	rsble	ip, r2, #32
    1018:	fa01 f102 	lsl.w	r1, r1, r2
    101c:	fa20 fc0c 	lsr.w	ip, r0, ip
    1020:	bfdc      	itt	le
    1022:	ea41 010c 	orrle.w	r1, r1, ip
    1026:	4090      	lslle	r0, r2
    1028:	1ae4      	subs	r4, r4, r3
    102a:	bfa2      	ittt	ge
    102c:	eb01 5104 	addge.w	r1, r1, r4, lsl #20
    1030:	4329      	orrge	r1, r5
    1032:	bd30      	popge	{r4, r5, pc}
    1034:	ea6f 0404 	mvn.w	r4, r4
    1038:	3c1f      	subs	r4, #31
    103a:	da1c      	bge.n	1076 <__ARM_grp_.debug_frame$8+0x2>
    103c:	340c      	adds	r4, #12
    103e:	dc0e      	bgt.n	105e <__ARM_grp_.debug_frame$5+0x3a>
    1040:	f104 0414 	add.w	r4, r4, #20
    1044:	f1c4 0220 	rsb	r2, r4, #32
    1048:	fa20 f004 	lsr.w	r0, r0, r4
    104c:	fa01 f302 	lsl.w	r3, r1, r2
    1050:	ea40 0003 	orr.w	r0, r0, r3
    1054:	fa21 f304 	lsr.w	r3, r1, r4
    1058:	ea45 0103 	orr.w	r1, r5, r3
    105c:	bd30      	pop	{r4, r5, pc}
    105e:	f1c4 040c 	rsb	r4, r4, #12
    1062:	f1c4 0220 	rsb	r2, r4, #32
    1066:	fa20 f002 	lsr.w	r0, r0, r2
    106a:	fa01 f304 	lsl.w	r3, r1, r4
    106e:	ea40 0003 	orr.w	r0, r0, r3
    1072:	4629      	mov	r1, r5
    1074:	bd30      	pop	{r4, r5, pc}
    1076:	fa21 f004 	lsr.w	r0, r1, r4
    107a:	4629      	mov	r1, r5
    107c:	bd30      	pop	{r4, r5, pc}
    107e:	f094 0f00 	teq	r4, #0
    1082:	f483 1380 	eor.w	r3, r3, #1048576	; 0x100000
    1086:	bf06      	itte	eq
    1088:	f481 1180 	eoreq.w	r1, r1, #1048576	; 0x100000
    108c:	3401      	addeq	r4, #1
    108e:	3d01      	subne	r5, #1
    1090:	e74e      	b.n	f30 <__ARM_grp_.debug_frame$5+0x28>
    1092:	ea7f 5c64 	mvns.w	ip, r4, asr #21
    1096:	bf18      	it	ne
    1098:	ea7f 5c65 	mvnsne.w	ip, r5, asr #21
    109c:	d029      	beq.n	10f2 <__ARM_grp_.debug_frame$11+0x1e>
    109e:	ea94 0f05 	teq	r4, r5
    10a2:	bf08      	it	eq
    10a4:	ea90 0f02 	teqeq	r0, r2
    10a8:	d005      	beq.n	10b6 <__ARM_grp_.debug_frame$8+0x42>
    10aa:	ea54 0c00 	orrs.w	ip, r4, r0
    10ae:	bf04      	itt	eq
    10b0:	4619      	moveq	r1, r3
    10b2:	4610      	moveq	r0, r2
    10b4:	bd30      	pop	{r4, r5, pc}
    10b6:	ea91 0f03 	teq	r1, r3
    10ba:	bf1e      	ittt	ne
    10bc:	2100      	movne	r1, #0
    10be:	2000      	movne	r0, #0
    10c0:	bd30      	popne	{r4, r5, pc}
    10c2:	ea5f 5c54 	movs.w	ip, r4, lsr #21
    10c6:	d105      	bne.n	10d4 <__ARM_grp_.debug_frame$11>
    10c8:	0040      	lsls	r0, r0, #1
    10ca:	4149      	adcs	r1, r1
    10cc:	bf28      	it	cs
    10ce:	f041 4100 	orrcs.w	r1, r1, #2147483648	; 0x80000000
    10d2:	bd30      	pop	{r4, r5, pc}
    10d4:	f514 0480 	adds.w	r4, r4, #4194304	; 0x400000
    10d8:	bf3c      	itt	cc
    10da:	f501 1180 	addcc.w	r1, r1, #1048576	; 0x100000
    10de:	bd30      	popcc	{r4, r5, pc}
    10e0:	f001 4500 	and.w	r5, r1, #2147483648	; 0x80000000
    10e4:	f045 41fe 	orr.w	r1, r5, #2130706432	; 0x7f000000
    10e8:	f441 0170 	orr.w	r1, r1, #15728640	; 0xf00000
    10ec:	f04f 0000 	mov.w	r0, #0
    10f0:	bd30      	pop	{r4, r5, pc}
    10f2:	ea7f 5c64 	mvns.w	ip, r4, asr #21
    10f6:	bf1a      	itte	ne
    10f8:	4619      	movne	r1, r3
    10fa:	4610      	movne	r0, r2
    10fc:	ea7f 5c65 	mvnseq.w	ip, r5, asr #21
    1100:	bf1c      	itt	ne
    1102:	460b      	movne	r3, r1
    1104:	4602      	movne	r2, r0
    1106:	ea50 3401 	orrs.w	r4, r0, r1, lsl #12
    110a:	bf06      	itte	eq
    110c:	ea52 3503 	orrseq.w	r5, r2, r3, lsl #12
    1110:	ea91 0f03 	teqeq	r1, r3
    1114:	f441 2100 	orrne.w	r1, r1, #524288	; 0x80000
    1118:	bd30      	pop	{r4, r5, pc}
    111a:	bf00      	nop

0000111c <__aeabi_ui2d>:
    111c:	f090 0f00 	teq	r0, #0
    1120:	bf04      	itt	eq
    1122:	2100      	moveq	r1, #0
    1124:	4770      	bxeq	lr
    1126:	b530      	push	{r4, r5, lr}
    1128:	f44f 6480 	mov.w	r4, #1024	; 0x400
    112c:	f104 0432 	add.w	r4, r4, #50	; 0x32
    1130:	f04f 0500 	mov.w	r5, #0
    1134:	f04f 0100 	mov.w	r1, #0
    1138:	e750      	b.n	fdc <__ARM_grp_.debug_frame$8+0x90>
    113a:	bf00      	nop

0000113c <__aeabi_i2d>:
    113c:	f090 0f00 	teq	r0, #0
    1140:	bf04      	itt	eq
    1142:	2100      	moveq	r1, #0
    1144:	4770      	bxeq	lr
    1146:	b530      	push	{r4, r5, lr}
    1148:	f44f 6480 	mov.w	r4, #1024	; 0x400
    114c:	f104 0432 	add.w	r4, r4, #50	; 0x32
    1150:	f010 4500 	ands.w	r5, r0, #2147483648	; 0x80000000
    1154:	bf48      	it	mi
    1156:	4240      	negmi	r0, r0
    1158:	f04f 0100 	mov.w	r1, #0
    115c:	e73e      	b.n	fdc <__ARM_grp_.debug_frame$8+0x90>
    115e:	bf00      	nop

00001160 <__aeabi_f2d>:
    1160:	0042      	lsls	r2, r0, #1
    1162:	ea4f 01e2 	mov.w	r1, r2, asr #3
    1166:	ea4f 0131 	mov.w	r1, r1, rrx
    116a:	ea4f 7002 	mov.w	r0, r2, lsl #28
    116e:	bf1f      	itttt	ne
    1170:	f012 437f 	andsne.w	r3, r2, #4278190080	; 0xff000000
    1174:	f093 4f7f 	teqne	r3, #4278190080	; 0xff000000
    1178:	f081 5160 	eorne.w	r1, r1, #939524096	; 0x38000000
    117c:	4770      	bxne	lr
    117e:	f092 0f00 	teq	r2, #0
    1182:	bf14      	ite	ne
    1184:	f093 4f7f 	teqne	r3, #4278190080	; 0xff000000
    1188:	4770      	bxeq	lr
    118a:	b530      	push	{r4, r5, lr}
    118c:	f44f 7460 	mov.w	r4, #896	; 0x380
    1190:	f001 4500 	and.w	r5, r1, #2147483648	; 0x80000000
    1194:	f021 4100 	bic.w	r1, r1, #2147483648	; 0x80000000
    1198:	e720      	b.n	fdc <__ARM_grp_.debug_frame$8+0x90>
    119a:	bf00      	nop

0000119c <__aeabi_ul2d>:
    119c:	ea50 0201 	orrs.w	r2, r0, r1
    11a0:	bf08      	it	eq
    11a2:	4770      	bxeq	lr
    11a4:	b530      	push	{r4, r5, lr}
    11a6:	f04f 0500 	mov.w	r5, #0
    11aa:	e00a      	b.n	11c2 <__aeabi_l2d+0x16>

000011ac <__aeabi_l2d>:
    11ac:	ea50 0201 	orrs.w	r2, r0, r1
    11b0:	bf08      	it	eq
    11b2:	4770      	bxeq	lr
    11b4:	b530      	push	{r4, r5, lr}
    11b6:	f011 4500 	ands.w	r5, r1, #2147483648	; 0x80000000
    11ba:	d502      	bpl.n	11c2 <__aeabi_l2d+0x16>
    11bc:	4240      	negs	r0, r0
    11be:	eb61 0141 	sbc.w	r1, r1, r1, lsl #1
    11c2:	f44f 6480 	mov.w	r4, #1024	; 0x400
    11c6:	f104 0432 	add.w	r4, r4, #50	; 0x32
    11ca:	ea5f 5c91 	movs.w	ip, r1, lsr #22
    11ce:	f43f aedc 	beq.w	f8a <__ARM_grp_.debug_frame$8+0x3e>
    11d2:	f04f 0203 	mov.w	r2, #3
    11d6:	ea5f 0cdc 	movs.w	ip, ip, lsr #3
    11da:	bf18      	it	ne
    11dc:	3203      	addne	r2, #3
    11de:	ea5f 0cdc 	movs.w	ip, ip, lsr #3
    11e2:	bf18      	it	ne
    11e4:	3203      	addne	r2, #3
    11e6:	eb02 02dc 	add.w	r2, r2, ip, lsr #3
    11ea:	f1c2 0320 	rsb	r3, r2, #32
    11ee:	fa00 fc03 	lsl.w	ip, r0, r3
    11f2:	fa20 f002 	lsr.w	r0, r0, r2
    11f6:	fa01 fe03 	lsl.w	lr, r1, r3
    11fa:	ea40 000e 	orr.w	r0, r0, lr
    11fe:	fa21 f102 	lsr.w	r1, r1, r2
    1202:	4414      	add	r4, r2
    1204:	e6c1      	b.n	f8a <__ARM_grp_.debug_frame$8+0x3e>
    1206:	bf00      	nop

00001208 <__aeabi_dmul>:
    1208:	b570      	push	{r4, r5, r6, lr}
    120a:	f04f 0cff 	mov.w	ip, #255	; 0xff
    120e:	f44c 6ce0 	orr.w	ip, ip, #1792	; 0x700
    1212:	ea1c 5411 	ands.w	r4, ip, r1, lsr #20
    1216:	bf1d      	ittte	ne
    1218:	ea1c 5513 	andsne.w	r5, ip, r3, lsr #20
    121c:	ea94 0f0c 	teqne	r4, ip
    1220:	ea95 0f0c 	teqne	r5, ip
    1224:	f000 f8de 	bleq	13e4 <__ARM_grp_.debug_frame$8+0x4c>
    1228:	442c      	add	r4, r5
    122a:	ea81 0603 	eor.w	r6, r1, r3
    122e:	ea21 514c 	bic.w	r1, r1, ip, lsl #21
    1232:	ea23 534c 	bic.w	r3, r3, ip, lsl #21
    1236:	ea50 3501 	orrs.w	r5, r0, r1, lsl #12
    123a:	bf18      	it	ne
    123c:	ea52 3503 	orrsne.w	r5, r2, r3, lsl #12
    1240:	f441 1180 	orr.w	r1, r1, #1048576	; 0x100000
    1244:	f443 1380 	orr.w	r3, r3, #1048576	; 0x100000
    1248:	d038      	beq.n	12bc <__ARM_grp_.debug_frame$32>
    124a:	fba0 ce02 	umull	ip, lr, r0, r2
    124e:	f04f 0500 	mov.w	r5, #0
    1252:	fbe1 e502 	umlal	lr, r5, r1, r2
    1256:	f006 4200 	and.w	r2, r6, #2147483648	; 0x80000000
    125a:	fbe0 e503 	umlal	lr, r5, r0, r3
    125e:	f04f 0600 	mov.w	r6, #0
    1262:	fbe1 5603 	umlal	r5, r6, r1, r3
    1266:	f09c 0f00 	teq	ip, #0
    126a:	bf18      	it	ne
    126c:	f04e 0e01 	orrne.w	lr, lr, #1
    1270:	f1a4 04ff 	sub.w	r4, r4, #255	; 0xff
    1274:	f5b6 7f00 	cmp.w	r6, #512	; 0x200
    1278:	f564 7440 	sbc.w	r4, r4, #768	; 0x300
    127c:	d204      	bcs.n	1288 <__ARM_grp_.debug_frame$29+0x10>
    127e:	ea5f 0e4e 	movs.w	lr, lr, lsl #1
    1282:	416d      	adcs	r5, r5
    1284:	eb46 0606 	adc.w	r6, r6, r6
    1288:	ea42 21c6 	orr.w	r1, r2, r6, lsl #11
    128c:	ea41 5155 	orr.w	r1, r1, r5, lsr #21
    1290:	ea4f 20c5 	mov.w	r0, r5, lsl #11
    1294:	ea40 505e 	orr.w	r0, r0, lr, lsr #21
    1298:	ea4f 2ece 	mov.w	lr, lr, lsl #11
    129c:	f1b4 0cfd 	subs.w	ip, r4, #253	; 0xfd
    12a0:	bf88      	it	hi
    12a2:	f5bc 6fe0 	cmphi.w	ip, #1792	; 0x700
    12a6:	d81e      	bhi.n	12e6 <__ARM_grp_.debug_frame$32+0x2a>
    12a8:	f1be 4f00 	cmp.w	lr, #2147483648	; 0x80000000
    12ac:	bf08      	it	eq
    12ae:	ea5f 0e50 	movseq.w	lr, r0, lsr #1
    12b2:	f150 0000 	adcs.w	r0, r0, #0
    12b6:	eb41 5104 	adc.w	r1, r1, r4, lsl #20
    12ba:	bd70      	pop	{r4, r5, r6, pc}
    12bc:	f006 4600 	and.w	r6, r6, #2147483648	; 0x80000000
    12c0:	ea46 0101 	orr.w	r1, r6, r1
    12c4:	ea40 0002 	orr.w	r0, r0, r2
    12c8:	ea81 0103 	eor.w	r1, r1, r3
    12cc:	ebb4 045c 	subs.w	r4, r4, ip, lsr #1
    12d0:	bfc2      	ittt	gt
    12d2:	ebd4 050c 	rsbsgt	r5, r4, ip
    12d6:	ea41 5104 	orrgt.w	r1, r1, r4, lsl #20
    12da:	bd70      	popgt	{r4, r5, r6, pc}
    12dc:	f441 1180 	orr.w	r1, r1, #1048576	; 0x100000
    12e0:	f04f 0e00 	mov.w	lr, #0
    12e4:	3c01      	subs	r4, #1
    12e6:	f300 80ab 	bgt.w	1440 <__ARM_grp_.debug_frame$11+0x50>
    12ea:	f114 0f36 	cmn.w	r4, #54	; 0x36
    12ee:	bfde      	ittt	le
    12f0:	2000      	movle	r0, #0
    12f2:	f001 4100 	andle.w	r1, r1, #2147483648	; 0x80000000
    12f6:	bd70      	pople	{r4, r5, r6, pc}
    12f8:	f1c4 0400 	rsb	r4, r4, #0
    12fc:	3c20      	subs	r4, #32
    12fe:	da35      	bge.n	136c <__ARM_grp_.debug_frame$5+0x18>
    1300:	340c      	adds	r4, #12
    1302:	dc1b      	bgt.n	133c <__ARM_grp_.debug_frame$5+0x3c>
    1304:	f104 0414 	add.w	r4, r4, #20
    1308:	f1c4 0520 	rsb	r5, r4, #32
    130c:	fa00 f305 	lsl.w	r3, r0, r5
    1310:	fa20 f004 	lsr.w	r0, r0, r4
    1314:	fa01 f205 	lsl.w	r2, r1, r5
    1318:	ea40 0002 	orr.w	r0, r0, r2
    131c:	f001 4200 	and.w	r2, r1, #2147483648	; 0x80000000
    1320:	f021 4100 	bic.w	r1, r1, #2147483648	; 0x80000000
    1324:	eb10 70d3 	adds.w	r0, r0, r3, lsr #31
    1328:	fa21 f604 	lsr.w	r6, r1, r4
    132c:	eb42 0106 	adc.w	r1, r2, r6
    1330:	ea5e 0e43 	orrs.w	lr, lr, r3, lsl #1
    1334:	bf08      	it	eq
    1336:	ea20 70d3 	biceq.w	r0, r0, r3, lsr #31
    133a:	bd70      	pop	{r4, r5, r6, pc}
    133c:	f1c4 040c 	rsb	r4, r4, #12
    1340:	f1c4 0520 	rsb	r5, r4, #32
    1344:	fa00 f304 	lsl.w	r3, r0, r4
    1348:	fa20 f005 	lsr.w	r0, r0, r5
    134c:	fa01 f204 	lsl.w	r2, r1, r4
    1350:	ea40 0002 	orr.w	r0, r0, r2
    1354:	f001 4100 	and.w	r1, r1, #2147483648	; 0x80000000
    1358:	eb10 70d3 	adds.w	r0, r0, r3, lsr #31
    135c:	f141 0100 	adc.w	r1, r1, #0
    1360:	ea5e 0e43 	orrs.w	lr, lr, r3, lsl #1
    1364:	bf08      	it	eq
    1366:	ea20 70d3 	biceq.w	r0, r0, r3, lsr #31
    136a:	bd70      	pop	{r4, r5, r6, pc}
    136c:	f1c4 0520 	rsb	r5, r4, #32
    1370:	fa00 f205 	lsl.w	r2, r0, r5
    1374:	ea4e 0e02 	orr.w	lr, lr, r2
    1378:	fa20 f304 	lsr.w	r3, r0, r4
    137c:	fa01 f205 	lsl.w	r2, r1, r5
    1380:	ea43 0302 	orr.w	r3, r3, r2
    1384:	fa21 f004 	lsr.w	r0, r1, r4
    1388:	f001 4100 	and.w	r1, r1, #2147483648	; 0x80000000
    138c:	fa21 f204 	lsr.w	r2, r1, r4
    1390:	ea20 0002 	bic.w	r0, r0, r2
    1394:	eb00 70d3 	add.w	r0, r0, r3, lsr #31
    1398:	ea5e 0e43 	orrs.w	lr, lr, r3, lsl #1
    139c:	bf08      	it	eq
    139e:	ea20 70d3 	biceq.w	r0, r0, r3, lsr #31
    13a2:	bd70      	pop	{r4, r5, r6, pc}
    13a4:	f094 0f00 	teq	r4, #0
    13a8:	d10f      	bne.n	13ca <__ARM_grp_.debug_frame$8+0x32>
    13aa:	f001 4600 	and.w	r6, r1, #2147483648	; 0x80000000
    13ae:	0040      	lsls	r0, r0, #1
    13b0:	eb41 0101 	adc.w	r1, r1, r1
    13b4:	f411 1f80 	tst.w	r1, #1048576	; 0x100000
    13b8:	bf08      	it	eq
    13ba:	3c01      	subeq	r4, #1
    13bc:	d0f7      	beq.n	13ae <__ARM_grp_.debug_frame$8+0x16>
    13be:	ea41 0106 	orr.w	r1, r1, r6
    13c2:	f095 0f00 	teq	r5, #0
    13c6:	bf18      	it	ne
    13c8:	4770      	bxne	lr
    13ca:	f003 4600 	and.w	r6, r3, #2147483648	; 0x80000000
    13ce:	0052      	lsls	r2, r2, #1
    13d0:	eb43 0303 	adc.w	r3, r3, r3
    13d4:	f413 1f80 	tst.w	r3, #1048576	; 0x100000
    13d8:	bf08      	it	eq
    13da:	3d01      	subeq	r5, #1
    13dc:	d0f7      	beq.n	13ce <__ARM_grp_.debug_frame$8+0x36>
    13de:	ea43 0306 	orr.w	r3, r3, r6
    13e2:	4770      	bx	lr
    13e4:	ea94 0f0c 	teq	r4, ip
    13e8:	ea0c 5513 	and.w	r5, ip, r3, lsr #20
    13ec:	bf18      	it	ne
    13ee:	ea95 0f0c 	teqne	r5, ip
    13f2:	d00c      	beq.n	140e <__ARM_grp_.debug_frame$11+0x1e>
    13f4:	ea50 0641 	orrs.w	r6, r0, r1, lsl #1
    13f8:	bf18      	it	ne
    13fa:	ea52 0643 	orrsne.w	r6, r2, r3, lsl #1
    13fe:	d1d1      	bne.n	13a4 <__ARM_grp_.debug_frame$8+0xc>
    1400:	ea81 0103 	eor.w	r1, r1, r3
    1404:	f001 4100 	and.w	r1, r1, #2147483648	; 0x80000000
    1408:	f04f 0000 	mov.w	r0, #0
    140c:	bd70      	pop	{r4, r5, r6, pc}
    140e:	ea50 0641 	orrs.w	r6, r0, r1, lsl #1
    1412:	bf06      	itte	eq
    1414:	4610      	moveq	r0, r2
    1416:	4619      	moveq	r1, r3
    1418:	ea52 0643 	orrsne.w	r6, r2, r3, lsl #1
    141c:	d019      	beq.n	1452 <__ARM_grp_.debug_frame$11+0x62>
    141e:	ea94 0f0c 	teq	r4, ip
    1422:	d102      	bne.n	142a <__ARM_grp_.debug_frame$11+0x3a>
    1424:	ea50 3601 	orrs.w	r6, r0, r1, lsl #12
    1428:	d113      	bne.n	1452 <__ARM_grp_.debug_frame$11+0x62>
    142a:	ea95 0f0c 	teq	r5, ip
    142e:	d105      	bne.n	143c <__ARM_grp_.debug_frame$11+0x4c>
    1430:	ea52 3603 	orrs.w	r6, r2, r3, lsl #12
    1434:	bf1c      	itt	ne
    1436:	4610      	movne	r0, r2
    1438:	4619      	movne	r1, r3
    143a:	d10a      	bne.n	1452 <__ARM_grp_.debug_frame$11+0x62>
    143c:	ea81 0103 	eor.w	r1, r1, r3
    1440:	f001 4100 	and.w	r1, r1, #2147483648	; 0x80000000
    1444:	f041 41fe 	orr.w	r1, r1, #2130706432	; 0x7f000000
    1448:	f441 0170 	orr.w	r1, r1, #15728640	; 0xf00000
    144c:	f04f 0000 	mov.w	r0, #0
    1450:	bd70      	pop	{r4, r5, r6, pc}
    1452:	f041 41fe 	orr.w	r1, r1, #2130706432	; 0x7f000000
    1456:	f441 0178 	orr.w	r1, r1, #16252928	; 0xf80000
    145a:	bd70      	pop	{r4, r5, r6, pc}

0000145c <__aeabi_ddiv>:
    145c:	b570      	push	{r4, r5, r6, lr}
    145e:	f04f 0cff 	mov.w	ip, #255	; 0xff
    1462:	f44c 6ce0 	orr.w	ip, ip, #1792	; 0x700
    1466:	ea1c 5411 	ands.w	r4, ip, r1, lsr #20
    146a:	bf1d      	ittte	ne
    146c:	ea1c 5513 	andsne.w	r5, ip, r3, lsr #20
    1470:	ea94 0f0c 	teqne	r4, ip
    1474:	ea95 0f0c 	teqne	r5, ip
    1478:	f000 f8a7 	bleq	15ca <__ARM_grp_.debug_frame$11+0x3e>
    147c:	eba4 0405 	sub.w	r4, r4, r5
    1480:	ea81 0e03 	eor.w	lr, r1, r3
    1484:	ea52 3503 	orrs.w	r5, r2, r3, lsl #12
    1488:	ea4f 3101 	mov.w	r1, r1, lsl #12
    148c:	f000 8088 	beq.w	15a0 <__ARM_grp_.debug_frame$11+0x14>
    1490:	ea4f 3303 	mov.w	r3, r3, lsl #12
    1494:	f04f 5580 	mov.w	r5, #268435456	; 0x10000000
    1498:	ea45 1313 	orr.w	r3, r5, r3, lsr #4
    149c:	ea43 6312 	orr.w	r3, r3, r2, lsr #24
    14a0:	ea4f 2202 	mov.w	r2, r2, lsl #8
    14a4:	ea45 1511 	orr.w	r5, r5, r1, lsr #4
    14a8:	ea45 6510 	orr.w	r5, r5, r0, lsr #24
    14ac:	ea4f 2600 	mov.w	r6, r0, lsl #8
    14b0:	f00e 4100 	and.w	r1, lr, #2147483648	; 0x80000000
    14b4:	429d      	cmp	r5, r3
    14b6:	bf08      	it	eq
    14b8:	4296      	cmpeq	r6, r2
    14ba:	f144 04fd 	adc.w	r4, r4, #253	; 0xfd
    14be:	f504 7440 	add.w	r4, r4, #768	; 0x300
    14c2:	d202      	bcs.n	14ca <__ARM_grp_.debug_frame$17+0x1e>
    14c4:	085b      	lsrs	r3, r3, #1
    14c6:	ea4f 0232 	mov.w	r2, r2, rrx
    14ca:	1ab6      	subs	r6, r6, r2
    14cc:	eb65 0503 	sbc.w	r5, r5, r3
    14d0:	085b      	lsrs	r3, r3, #1
    14d2:	ea4f 0232 	mov.w	r2, r2, rrx
    14d6:	f44f 1080 	mov.w	r0, #1048576	; 0x100000
    14da:	f44f 2c00 	mov.w	ip, #524288	; 0x80000
    14de:	ebb6 0e02 	subs.w	lr, r6, r2
    14e2:	eb75 0e03 	sbcs.w	lr, r5, r3
    14e6:	bf22      	ittt	cs
    14e8:	1ab6      	subcs	r6, r6, r2
    14ea:	4675      	movcs	r5, lr
    14ec:	ea40 000c 	orrcs.w	r0, r0, ip
    14f0:	085b      	lsrs	r3, r3, #1
    14f2:	ea4f 0232 	mov.w	r2, r2, rrx
    14f6:	ebb6 0e02 	subs.w	lr, r6, r2
    14fa:	eb75 0e03 	sbcs.w	lr, r5, r3
    14fe:	bf22      	ittt	cs
    1500:	1ab6      	subcs	r6, r6, r2
    1502:	4675      	movcs	r5, lr
    1504:	ea40 005c 	orrcs.w	r0, r0, ip, lsr #1
    1508:	085b      	lsrs	r3, r3, #1
    150a:	ea4f 0232 	mov.w	r2, r2, rrx
    150e:	ebb6 0e02 	subs.w	lr, r6, r2
    1512:	eb75 0e03 	sbcs.w	lr, r5, r3
    1516:	bf22      	ittt	cs
    1518:	1ab6      	subcs	r6, r6, r2
    151a:	4675      	movcs	r5, lr
    151c:	ea40 009c 	orrcs.w	r0, r0, ip, lsr #2
    1520:	085b      	lsrs	r3, r3, #1
    1522:	ea4f 0232 	mov.w	r2, r2, rrx
    1526:	ebb6 0e02 	subs.w	lr, r6, r2
    152a:	eb75 0e03 	sbcs.w	lr, r5, r3
    152e:	bf22      	ittt	cs
    1530:	1ab6      	subcs	r6, r6, r2
    1532:	4675      	movcs	r5, lr
    1534:	ea40 00dc 	orrcs.w	r0, r0, ip, lsr #3
    1538:	ea55 0e06 	orrs.w	lr, r5, r6
    153c:	d018      	beq.n	1570 <__ARM_grp_.debug_frame$8+0x30>
    153e:	ea4f 1505 	mov.w	r5, r5, lsl #4
    1542:	ea45 7516 	orr.w	r5, r5, r6, lsr #28
    1546:	ea4f 1606 	mov.w	r6, r6, lsl #4
    154a:	ea4f 03c3 	mov.w	r3, r3, lsl #3
    154e:	ea43 7352 	orr.w	r3, r3, r2, lsr #29
    1552:	ea4f 02c2 	mov.w	r2, r2, lsl #3
    1556:	ea5f 1c1c 	movs.w	ip, ip, lsr #4
    155a:	d1c0      	bne.n	14de <__ARM_grp_.debug_frame$17+0x32>
    155c:	f411 1f80 	tst.w	r1, #1048576	; 0x100000
    1560:	d10b      	bne.n	157a <__ARM_grp_.debug_frame$8+0x3a>
    1562:	ea41 0100 	orr.w	r1, r1, r0
    1566:	f04f 0000 	mov.w	r0, #0
    156a:	f04f 4c00 	mov.w	ip, #2147483648	; 0x80000000
    156e:	e7b6      	b.n	14de <__ARM_grp_.debug_frame$17+0x32>
    1570:	f411 1f80 	tst.w	r1, #1048576	; 0x100000
    1574:	bf04      	itt	eq
    1576:	4301      	orreq	r1, r0
    1578:	2000      	moveq	r0, #0
    157a:	f1b4 0cfd 	subs.w	ip, r4, #253	; 0xfd
    157e:	bf88      	it	hi
    1580:	f5bc 6fe0 	cmphi.w	ip, #1792	; 0x700
    1584:	f63f aeaf 	bhi.w	12e6 <__ARM_grp_.debug_frame$32+0x2a>
    1588:	ebb5 0c03 	subs.w	ip, r5, r3
    158c:	bf04      	itt	eq
    158e:	ebb6 0c02 	subseq.w	ip, r6, r2
    1592:	ea5f 0c50 	movseq.w	ip, r0, lsr #1
    1596:	f150 0000 	adcs.w	r0, r0, #0
    159a:	eb41 5104 	adc.w	r1, r1, r4, lsl #20
    159e:	bd70      	pop	{r4, r5, r6, pc}
    15a0:	f00e 4e00 	and.w	lr, lr, #2147483648	; 0x80000000
    15a4:	ea4e 3111 	orr.w	r1, lr, r1, lsr #12
    15a8:	eb14 045c 	adds.w	r4, r4, ip, lsr #1
    15ac:	bfc2      	ittt	gt
    15ae:	ebd4 050c 	rsbsgt	r5, r4, ip
    15b2:	ea41 5104 	orrgt.w	r1, r1, r4, lsl #20
    15b6:	bd70      	popgt	{r4, r5, r6, pc}
    15b8:	f441 1180 	orr.w	r1, r1, #1048576	; 0x100000
    15bc:	f04f 0e00 	mov.w	lr, #0
    15c0:	3c01      	subs	r4, #1
    15c2:	e690      	b.n	12e6 <__ARM_grp_.debug_frame$32+0x2a>
    15c4:	ea45 0e06 	orr.w	lr, r5, r6
    15c8:	e68d      	b.n	12e6 <__ARM_grp_.debug_frame$32+0x2a>
    15ca:	ea0c 5513 	and.w	r5, ip, r3, lsr #20
    15ce:	ea94 0f0c 	teq	r4, ip
    15d2:	bf08      	it	eq
    15d4:	ea95 0f0c 	teqeq	r5, ip
    15d8:	f43f af3b 	beq.w	1452 <__ARM_grp_.debug_frame$11+0x62>
    15dc:	ea94 0f0c 	teq	r4, ip
    15e0:	d10a      	bne.n	15f8 <__ARM_grp_.debug_frame$14+0x24>
    15e2:	ea50 3401 	orrs.w	r4, r0, r1, lsl #12
    15e6:	f47f af34 	bne.w	1452 <__ARM_grp_.debug_frame$11+0x62>
    15ea:	ea95 0f0c 	teq	r5, ip
    15ee:	f47f af25 	bne.w	143c <__ARM_grp_.debug_frame$11+0x4c>
    15f2:	4610      	mov	r0, r2
    15f4:	4619      	mov	r1, r3
    15f6:	e72c      	b.n	1452 <__ARM_grp_.debug_frame$11+0x62>
    15f8:	ea95 0f0c 	teq	r5, ip
    15fc:	d106      	bne.n	160c <__ARM_grp_.debug_frame$14+0x38>
    15fe:	ea52 3503 	orrs.w	r5, r2, r3, lsl #12
    1602:	f43f aefd 	beq.w	1400 <__ARM_grp_.debug_frame$11+0x10>
    1606:	4610      	mov	r0, r2
    1608:	4619      	mov	r1, r3
    160a:	e722      	b.n	1452 <__ARM_grp_.debug_frame$11+0x62>
    160c:	ea50 0641 	orrs.w	r6, r0, r1, lsl #1
    1610:	bf18      	it	ne
    1612:	ea52 0643 	orrsne.w	r6, r2, r3, lsl #1
    1616:	f47f aec5 	bne.w	13a4 <__ARM_grp_.debug_frame$8+0xc>
    161a:	ea50 0441 	orrs.w	r4, r0, r1, lsl #1
    161e:	f47f af0d 	bne.w	143c <__ARM_grp_.debug_frame$11+0x4c>
    1622:	ea52 0543 	orrs.w	r5, r2, r3, lsl #1
    1626:	f47f aeeb 	bne.w	1400 <__ARM_grp_.debug_frame$11+0x10>
    162a:	e712      	b.n	1452 <__ARM_grp_.debug_frame$11+0x62>

0000162c <__aeabi_d2iz>:
    162c:	ea4f 0241 	mov.w	r2, r1, lsl #1
    1630:	f512 1200 	adds.w	r2, r2, #2097152	; 0x200000
    1634:	d215      	bcs.n	1662 <__aeabi_d2iz+0x36>
    1636:	d511      	bpl.n	165c <__aeabi_d2iz+0x30>
    1638:	f46f 7378 	mvn.w	r3, #992	; 0x3e0
    163c:	ebb3 5262 	subs.w	r2, r3, r2, asr #21
    1640:	d912      	bls.n	1668 <__ARM_grp_.debug_frame$20>
    1642:	ea4f 23c1 	mov.w	r3, r1, lsl #11
    1646:	f043 4300 	orr.w	r3, r3, #2147483648	; 0x80000000
    164a:	ea43 5350 	orr.w	r3, r3, r0, lsr #21
    164e:	f011 4f00 	tst.w	r1, #2147483648	; 0x80000000
    1652:	fa23 f002 	lsr.w	r0, r3, r2
    1656:	bf18      	it	ne
    1658:	4240      	negne	r0, r0
    165a:	4770      	bx	lr
    165c:	f04f 0000 	mov.w	r0, #0
    1660:	4770      	bx	lr
    1662:	ea50 3001 	orrs.w	r0, r0, r1, lsl #12
    1666:	d105      	bne.n	1674 <__ARM_grp_.debug_frame$20+0xc>
    1668:	f011 4000 	ands.w	r0, r1, #2147483648	; 0x80000000
    166c:	bf08      	it	eq
    166e:	f06f 4000 	mvneq.w	r0, #2147483648	; 0x80000000
    1672:	4770      	bx	lr
    1674:	f04f 0000 	mov.w	r0, #0
    1678:	4770      	bx	lr
    167a:	bf00      	nop

0000167c <__aeabi_d2f>:
    167c:	ea4f 0241 	mov.w	r2, r1, lsl #1
    1680:	f1b2 43e0 	subs.w	r3, r2, #1879048192	; 0x70000000
    1684:	bf24      	itt	cs
    1686:	f5b3 1c00 	subscs.w	ip, r3, #2097152	; 0x200000
    168a:	f1dc 5cfe 	rsbscs	ip, ip, #532676608	; 0x1fc00000
    168e:	d90d      	bls.n	16ac <__aeabi_d2f+0x30>
    1690:	f001 4c00 	and.w	ip, r1, #2147483648	; 0x80000000
    1694:	ea4f 02c0 	mov.w	r2, r0, lsl #3
    1698:	ea4c 7050 	orr.w	r0, ip, r0, lsr #29
    169c:	f1b2 4f00 	cmp.w	r2, #2147483648	; 0x80000000
    16a0:	eb40 0083 	adc.w	r0, r0, r3, lsl #2
    16a4:	bf08      	it	eq
    16a6:	f020 0001 	biceq.w	r0, r0, #1
    16aa:	4770      	bx	lr
    16ac:	f011 4f80 	tst.w	r1, #1073741824	; 0x40000000
    16b0:	d121      	bne.n	16f6 <__ARM_grp_.debug_frame$23+0x46>
    16b2:	f113 7238 	adds.w	r2, r3, #48234496	; 0x2e00000
    16b6:	bfbc      	itt	lt
    16b8:	f001 4000 	andlt.w	r0, r1, #2147483648	; 0x80000000
    16bc:	4770      	bxlt	lr
    16be:	f441 1180 	orr.w	r1, r1, #1048576	; 0x100000
    16c2:	ea4f 5252 	mov.w	r2, r2, lsr #21
    16c6:	f1c2 0218 	rsb	r2, r2, #24
    16ca:	f1c2 0c20 	rsb	ip, r2, #32
    16ce:	fa10 f30c 	lsls.w	r3, r0, ip
    16d2:	fa20 f002 	lsr.w	r0, r0, r2
    16d6:	bf18      	it	ne
    16d8:	f040 0001 	orrne.w	r0, r0, #1
    16dc:	ea4f 23c1 	mov.w	r3, r1, lsl #11
    16e0:	ea4f 23d3 	mov.w	r3, r3, lsr #11
    16e4:	fa03 fc0c 	lsl.w	ip, r3, ip
    16e8:	ea40 000c 	orr.w	r0, r0, ip
    16ec:	fa23 f302 	lsr.w	r3, r3, r2
    16f0:	ea4f 0343 	mov.w	r3, r3, lsl #1
    16f4:	e7cc      	b.n	1690 <__aeabi_d2f+0x14>
    16f6:	ea7f 5362 	mvns.w	r3, r2, asr #21
    16fa:	d107      	bne.n	170c <__ARM_grp_.debug_frame$26+0x10>
    16fc:	ea50 3301 	orrs.w	r3, r0, r1, lsl #12
    1700:	bf1e      	ittt	ne
    1702:	f04f 40fe 	movne.w	r0, #2130706432	; 0x7f000000
    1706:	f440 0040 	orrne.w	r0, r0, #12582912	; 0xc00000
    170a:	4770      	bxne	lr
    170c:	f001 4000 	and.w	r0, r1, #2147483648	; 0x80000000
    1710:	f040 40fe 	orr.w	r0, r0, #2130706432	; 0x7f000000
    1714:	f440 0000 	orr.w	r0, r0, #8388608	; 0x800000
    1718:	4770      	bx	lr
    171a:	bf00      	nop

0000171c <__aeabi_frsub>:
    171c:	f080 4000 	eor.w	r0, r0, #2147483648	; 0x80000000
    1720:	e002      	b.n	1728 <__addsf3>
    1722:	bf00      	nop

00001724 <__aeabi_fsub>:
    1724:	f081 4100 	eor.w	r1, r1, #2147483648	; 0x80000000

00001728 <__addsf3>:
    1728:	0042      	lsls	r2, r0, #1
    172a:	bf1f      	itttt	ne
    172c:	ea5f 0341 	movsne.w	r3, r1, lsl #1
    1730:	ea92 0f03 	teqne	r2, r3
    1734:	ea7f 6c22 	mvnsne.w	ip, r2, asr #24
    1738:	ea7f 6c23 	mvnsne.w	ip, r3, asr #24
    173c:	d06a      	beq.n	1814 <__ARM_grp_.debug_frame$35+0x2c>
    173e:	ea4f 6212 	mov.w	r2, r2, lsr #24
    1742:	ebd2 6313 	rsbs	r3, r2, r3, lsr #24
    1746:	bfc1      	itttt	gt
    1748:	18d2      	addgt	r2, r2, r3
    174a:	4041      	eorgt	r1, r0
    174c:	4048      	eorgt	r0, r1
    174e:	4041      	eorgt	r1, r0
    1750:	bfb8      	it	lt
    1752:	425b      	neglt	r3, r3
    1754:	2b19      	cmp	r3, #25
    1756:	bf88      	it	hi
    1758:	4770      	bxhi	lr
    175a:	f010 4f00 	tst.w	r0, #2147483648	; 0x80000000
    175e:	f440 0000 	orr.w	r0, r0, #8388608	; 0x800000
    1762:	f020 407f 	bic.w	r0, r0, #4278190080	; 0xff000000
    1766:	bf18      	it	ne
    1768:	4240      	negne	r0, r0
    176a:	f011 4f00 	tst.w	r1, #2147483648	; 0x80000000
    176e:	f441 0100 	orr.w	r1, r1, #8388608	; 0x800000
    1772:	f021 417f 	bic.w	r1, r1, #4278190080	; 0xff000000
    1776:	bf18      	it	ne
    1778:	4249      	negne	r1, r1
    177a:	ea92 0f03 	teq	r2, r3
    177e:	d03f      	beq.n	1800 <__ARM_grp_.debug_frame$35+0x18>
    1780:	f1a2 0201 	sub.w	r2, r2, #1
    1784:	fa41 fc03 	asr.w	ip, r1, r3
    1788:	eb10 000c 	adds.w	r0, r0, ip
    178c:	f1c3 0320 	rsb	r3, r3, #32
    1790:	fa01 f103 	lsl.w	r1, r1, r3
    1794:	f000 4300 	and.w	r3, r0, #2147483648	; 0x80000000
    1798:	d502      	bpl.n	17a0 <__ARM_grp_.debug_frame$32+0x8>
    179a:	4249      	negs	r1, r1
    179c:	eb60 0040 	sbc.w	r0, r0, r0, lsl #1
    17a0:	f5b0 0f00 	cmp.w	r0, #8388608	; 0x800000
    17a4:	d313      	bcc.n	17ce <__ARM_grp_.debug_frame$32+0x36>
    17a6:	f1b0 7f80 	cmp.w	r0, #16777216	; 0x1000000
    17aa:	d306      	bcc.n	17ba <__ARM_grp_.debug_frame$32+0x22>
    17ac:	0840      	lsrs	r0, r0, #1
    17ae:	ea4f 0131 	mov.w	r1, r1, rrx
    17b2:	f102 0201 	add.w	r2, r2, #1
    17b6:	2afe      	cmp	r2, #254	; 0xfe
    17b8:	d251      	bcs.n	185e <__ARM_grp_.debug_frame$38+0x2e>
    17ba:	f1b1 4f00 	cmp.w	r1, #2147483648	; 0x80000000
    17be:	eb40 50c2 	adc.w	r0, r0, r2, lsl #23
    17c2:	bf08      	it	eq
    17c4:	f020 0001 	biceq.w	r0, r0, #1
    17c8:	ea40 0003 	orr.w	r0, r0, r3
    17cc:	4770      	bx	lr
    17ce:	0049      	lsls	r1, r1, #1
    17d0:	eb40 0000 	adc.w	r0, r0, r0
    17d4:	f410 0f00 	tst.w	r0, #8388608	; 0x800000
    17d8:	f1a2 0201 	sub.w	r2, r2, #1
    17dc:	d1ed      	bne.n	17ba <__ARM_grp_.debug_frame$32+0x22>
    17de:	fab0 fc80 	clz	ip, r0
    17e2:	f1ac 0c08 	sub.w	ip, ip, #8
    17e6:	ebb2 020c 	subs.w	r2, r2, ip
    17ea:	fa00 f00c 	lsl.w	r0, r0, ip
    17ee:	bfaa      	itet	ge
    17f0:	eb00 50c2 	addge.w	r0, r0, r2, lsl #23
    17f4:	4252      	neglt	r2, r2
    17f6:	4318      	orrge	r0, r3
    17f8:	bfbc      	itt	lt
    17fa:	40d0      	lsrlt	r0, r2
    17fc:	4318      	orrlt	r0, r3
    17fe:	4770      	bx	lr
    1800:	f092 0f00 	teq	r2, #0
    1804:	f481 0100 	eor.w	r1, r1, #8388608	; 0x800000
    1808:	bf06      	itte	eq
    180a:	f480 0000 	eoreq.w	r0, r0, #8388608	; 0x800000
    180e:	3201      	addeq	r2, #1
    1810:	3b01      	subne	r3, #1
    1812:	e7b5      	b.n	1780 <__ARM_grp_.debug_frame$29+0x38>
    1814:	ea4f 0341 	mov.w	r3, r1, lsl #1
    1818:	ea7f 6c22 	mvns.w	ip, r2, asr #24
    181c:	bf18      	it	ne
    181e:	ea7f 6c23 	mvnsne.w	ip, r3, asr #24
    1822:	d021      	beq.n	1868 <__ARM_grp_.debug_frame$38+0x38>
    1824:	ea92 0f03 	teq	r2, r3
    1828:	d004      	beq.n	1834 <__ARM_grp_.debug_frame$38+0x4>
    182a:	f092 0f00 	teq	r2, #0
    182e:	bf08      	it	eq
    1830:	4608      	moveq	r0, r1
    1832:	4770      	bx	lr
    1834:	ea90 0f01 	teq	r0, r1
    1838:	bf1c      	itt	ne
    183a:	2000      	movne	r0, #0
    183c:	4770      	bxne	lr
    183e:	f012 4f7f 	tst.w	r2, #4278190080	; 0xff000000
    1842:	d104      	bne.n	184e <__ARM_grp_.debug_frame$38+0x1e>
    1844:	0040      	lsls	r0, r0, #1
    1846:	bf28      	it	cs
    1848:	f040 4000 	orrcs.w	r0, r0, #2147483648	; 0x80000000
    184c:	4770      	bx	lr
    184e:	f112 7200 	adds.w	r2, r2, #33554432	; 0x2000000
    1852:	bf3c      	itt	cc
    1854:	f500 0000 	addcc.w	r0, r0, #8388608	; 0x800000
    1858:	4770      	bxcc	lr
    185a:	f000 4300 	and.w	r3, r0, #2147483648	; 0x80000000
    185e:	f043 40fe 	orr.w	r0, r3, #2130706432	; 0x7f000000
    1862:	f440 0000 	orr.w	r0, r0, #8388608	; 0x800000
    1866:	4770      	bx	lr
    1868:	ea7f 6222 	mvns.w	r2, r2, asr #24
    186c:	bf16      	itet	ne
    186e:	4608      	movne	r0, r1
    1870:	ea7f 6323 	mvnseq.w	r3, r3, asr #24
    1874:	4601      	movne	r1, r0
    1876:	0242      	lsls	r2, r0, #9
    1878:	bf06      	itte	eq
    187a:	ea5f 2341 	movseq.w	r3, r1, lsl #9
    187e:	ea90 0f01 	teqeq	r0, r1
    1882:	f440 0080 	orrne.w	r0, r0, #4194304	; 0x400000
    1886:	4770      	bx	lr

00001888 <__aeabi_ui2f>:
    1888:	f04f 0300 	mov.w	r3, #0
    188c:	e004      	b.n	1898 <__aeabi_i2f+0x8>
    188e:	bf00      	nop

00001890 <__aeabi_i2f>:
    1890:	f010 4300 	ands.w	r3, r0, #2147483648	; 0x80000000
    1894:	bf48      	it	mi
    1896:	4240      	negmi	r0, r0
    1898:	ea5f 0c00 	movs.w	ip, r0
    189c:	bf08      	it	eq
    189e:	4770      	bxeq	lr
    18a0:	f043 4396 	orr.w	r3, r3, #1258291200	; 0x4b000000
    18a4:	4601      	mov	r1, r0
    18a6:	f04f 0000 	mov.w	r0, #0
    18aa:	e01c      	b.n	18e6 <__aeabi_l2f+0x2a>

000018ac <__aeabi_ul2f>:
    18ac:	ea50 0201 	orrs.w	r2, r0, r1
    18b0:	bf08      	it	eq
    18b2:	4770      	bxeq	lr
    18b4:	f04f 0300 	mov.w	r3, #0
    18b8:	e00a      	b.n	18d0 <__aeabi_l2f+0x14>
    18ba:	bf00      	nop

000018bc <__aeabi_l2f>:
    18bc:	ea50 0201 	orrs.w	r2, r0, r1
    18c0:	bf08      	it	eq
    18c2:	4770      	bxeq	lr
    18c4:	f011 4300 	ands.w	r3, r1, #2147483648	; 0x80000000
    18c8:	d502      	bpl.n	18d0 <__aeabi_l2f+0x14>
    18ca:	4240      	negs	r0, r0
    18cc:	eb61 0141 	sbc.w	r1, r1, r1, lsl #1
    18d0:	ea5f 0c01 	movs.w	ip, r1
    18d4:	bf02      	ittt	eq
    18d6:	4684      	moveq	ip, r0
    18d8:	4601      	moveq	r1, r0
    18da:	2000      	moveq	r0, #0
    18dc:	f043 43b6 	orr.w	r3, r3, #1526726656	; 0x5b000000
    18e0:	bf08      	it	eq
    18e2:	f1a3 5380 	subeq.w	r3, r3, #268435456	; 0x10000000
    18e6:	f5a3 0300 	sub.w	r3, r3, #8388608	; 0x800000
    18ea:	fabc f28c 	clz	r2, ip
    18ee:	3a08      	subs	r2, #8
    18f0:	eba3 53c2 	sub.w	r3, r3, r2, lsl #23
    18f4:	db10      	blt.n	1918 <__ARM_grp_.debug_frame$8+0x8>
    18f6:	fa01 fc02 	lsl.w	ip, r1, r2
    18fa:	4463      	add	r3, ip
    18fc:	fa00 fc02 	lsl.w	ip, r0, r2
    1900:	f1c2 0220 	rsb	r2, r2, #32
    1904:	f1bc 4f00 	cmp.w	ip, #2147483648	; 0x80000000
    1908:	fa20 f202 	lsr.w	r2, r0, r2
    190c:	eb43 0002 	adc.w	r0, r3, r2
    1910:	bf08      	it	eq
    1912:	f020 0001 	biceq.w	r0, r0, #1
    1916:	4770      	bx	lr
    1918:	f102 0220 	add.w	r2, r2, #32
    191c:	fa01 fc02 	lsl.w	ip, r1, r2
    1920:	f1c2 0220 	rsb	r2, r2, #32
    1924:	ea50 004c 	orrs.w	r0, r0, ip, lsl #1
    1928:	fa21 f202 	lsr.w	r2, r1, r2
    192c:	eb43 0002 	adc.w	r0, r3, r2
    1930:	bf08      	it	eq
    1932:	ea20 70dc 	biceq.w	r0, r0, ip, lsr #31
    1936:	4770      	bx	lr

00001938 <__aeabi_fmul>:
    1938:	f04f 0cff 	mov.w	ip, #255	; 0xff
    193c:	ea1c 52d0 	ands.w	r2, ip, r0, lsr #23
    1940:	bf1e      	ittt	ne
    1942:	ea1c 53d1 	andsne.w	r3, ip, r1, lsr #23
    1946:	ea92 0f0c 	teqne	r2, ip
    194a:	ea93 0f0c 	teqne	r3, ip
    194e:	d06f      	beq.n	1a30 <__ARM_grp_.debug_frame$17+0x3c>
    1950:	441a      	add	r2, r3
    1952:	ea80 0c01 	eor.w	ip, r0, r1
    1956:	0240      	lsls	r0, r0, #9
    1958:	bf18      	it	ne
    195a:	ea5f 2141 	movsne.w	r1, r1, lsl #9
    195e:	d01e      	beq.n	199e <__ARM_grp_.debug_frame$11+0x4a>
    1960:	f04f 6300 	mov.w	r3, #134217728	; 0x8000000
    1964:	ea43 1050 	orr.w	r0, r3, r0, lsr #5
    1968:	ea43 1151 	orr.w	r1, r3, r1, lsr #5
    196c:	fba0 3101 	umull	r3, r1, r0, r1
    1970:	f00c 4000 	and.w	r0, ip, #2147483648	; 0x80000000
    1974:	f5b1 0f00 	cmp.w	r1, #8388608	; 0x800000
    1978:	bf3e      	ittt	cc
    197a:	0049      	lslcc	r1, r1, #1
    197c:	ea41 71d3 	orrcc.w	r1, r1, r3, lsr #31
    1980:	005b      	lslcc	r3, r3, #1
    1982:	ea40 0001 	orr.w	r0, r0, r1
    1986:	f162 027f 	sbc.w	r2, r2, #127	; 0x7f
    198a:	2afd      	cmp	r2, #253	; 0xfd
    198c:	d81d      	bhi.n	19ca <__ARM_grp_.debug_frame$14+0x1a>
    198e:	f1b3 4f00 	cmp.w	r3, #2147483648	; 0x80000000
    1992:	eb40 50c2 	adc.w	r0, r0, r2, lsl #23
    1996:	bf08      	it	eq
    1998:	f020 0001 	biceq.w	r0, r0, #1
    199c:	4770      	bx	lr
    199e:	f090 0f00 	teq	r0, #0
    19a2:	f00c 4c00 	and.w	ip, ip, #2147483648	; 0x80000000
    19a6:	bf08      	it	eq
    19a8:	0249      	lsleq	r1, r1, #9
    19aa:	ea4c 2050 	orr.w	r0, ip, r0, lsr #9
    19ae:	ea40 2051 	orr.w	r0, r0, r1, lsr #9
    19b2:	3a7f      	subs	r2, #127	; 0x7f
    19b4:	bfc2      	ittt	gt
    19b6:	f1d2 03ff 	rsbsgt	r3, r2, #255	; 0xff
    19ba:	ea40 50c2 	orrgt.w	r0, r0, r2, lsl #23
    19be:	4770      	bxgt	lr
    19c0:	f440 0000 	orr.w	r0, r0, #8388608	; 0x800000
    19c4:	f04f 0300 	mov.w	r3, #0
    19c8:	3a01      	subs	r2, #1
    19ca:	dc5d      	bgt.n	1a88 <__ARM_grp_.debug_frame$8>
    19cc:	f112 0f19 	cmn.w	r2, #25
    19d0:	bfdc      	itt	le
    19d2:	f000 4000 	andle.w	r0, r0, #2147483648	; 0x80000000
    19d6:	4770      	bxle	lr
    19d8:	f1c2 0200 	rsb	r2, r2, #0
    19dc:	0041      	lsls	r1, r0, #1
    19de:	fa21 f102 	lsr.w	r1, r1, r2
    19e2:	f1c2 0220 	rsb	r2, r2, #32
    19e6:	fa00 fc02 	lsl.w	ip, r0, r2
    19ea:	ea5f 0031 	movs.w	r0, r1, rrx
    19ee:	f140 0000 	adc.w	r0, r0, #0
    19f2:	ea53 034c 	orrs.w	r3, r3, ip, lsl #1
    19f6:	bf08      	it	eq
    19f8:	ea20 70dc 	biceq.w	r0, r0, ip, lsr #31
    19fc:	4770      	bx	lr
    19fe:	f092 0f00 	teq	r2, #0
    1a02:	f000 4c00 	and.w	ip, r0, #2147483648	; 0x80000000
    1a06:	bf02      	ittt	eq
    1a08:	0040      	lsleq	r0, r0, #1
    1a0a:	f410 0f00 	tsteq.w	r0, #8388608	; 0x800000
    1a0e:	3a01      	subeq	r2, #1
    1a10:	d0f9      	beq.n	1a06 <__ARM_grp_.debug_frame$17+0x12>
    1a12:	ea40 000c 	orr.w	r0, r0, ip
    1a16:	f093 0f00 	teq	r3, #0
    1a1a:	f001 4c00 	and.w	ip, r1, #2147483648	; 0x80000000
    1a1e:	bf02      	ittt	eq
    1a20:	0049      	lsleq	r1, r1, #1
    1a22:	f411 0f00 	tsteq.w	r1, #8388608	; 0x800000
    1a26:	3b01      	subeq	r3, #1
    1a28:	d0f9      	beq.n	1a1e <__ARM_grp_.debug_frame$17+0x2a>
    1a2a:	ea41 010c 	orr.w	r1, r1, ip
    1a2e:	e78f      	b.n	1950 <__aeabi_fmul+0x18>
    1a30:	ea0c 53d1 	and.w	r3, ip, r1, lsr #23
    1a34:	ea92 0f0c 	teq	r2, ip
    1a38:	bf18      	it	ne
    1a3a:	ea93 0f0c 	teqne	r3, ip
    1a3e:	d00a      	beq.n	1a56 <__ARM_grp_.debug_frame$5+0x1e>
    1a40:	f030 4c00 	bics.w	ip, r0, #2147483648	; 0x80000000
    1a44:	bf18      	it	ne
    1a46:	f031 4c00 	bicsne.w	ip, r1, #2147483648	; 0x80000000
    1a4a:	d1d8      	bne.n	19fe <__ARM_grp_.debug_frame$17+0xa>
    1a4c:	ea80 0001 	eor.w	r0, r0, r1
    1a50:	f000 4000 	and.w	r0, r0, #2147483648	; 0x80000000
    1a54:	4770      	bx	lr
    1a56:	f090 0f00 	teq	r0, #0
    1a5a:	bf17      	itett	ne
    1a5c:	f090 4f00 	teqne	r0, #2147483648	; 0x80000000
    1a60:	4608      	moveq	r0, r1
    1a62:	f091 0f00 	teqne	r1, #0
    1a66:	f091 4f00 	teqne	r1, #2147483648	; 0x80000000
    1a6a:	d014      	beq.n	1a96 <__ARM_grp_.debug_frame$8+0xe>
    1a6c:	ea92 0f0c 	teq	r2, ip
    1a70:	d101      	bne.n	1a76 <__ARM_grp_.debug_frame$5+0x3e>
    1a72:	0242      	lsls	r2, r0, #9
    1a74:	d10f      	bne.n	1a96 <__ARM_grp_.debug_frame$8+0xe>
    1a76:	ea93 0f0c 	teq	r3, ip
    1a7a:	d103      	bne.n	1a84 <__ARM_grp_.debug_frame$5+0x4c>
    1a7c:	024b      	lsls	r3, r1, #9
    1a7e:	bf18      	it	ne
    1a80:	4608      	movne	r0, r1
    1a82:	d108      	bne.n	1a96 <__ARM_grp_.debug_frame$8+0xe>
    1a84:	ea80 0001 	eor.w	r0, r0, r1
    1a88:	f000 4000 	and.w	r0, r0, #2147483648	; 0x80000000
    1a8c:	f040 40fe 	orr.w	r0, r0, #2130706432	; 0x7f000000
    1a90:	f440 0000 	orr.w	r0, r0, #8388608	; 0x800000
    1a94:	4770      	bx	lr
    1a96:	f040 40fe 	orr.w	r0, r0, #2130706432	; 0x7f000000
    1a9a:	f440 0040 	orr.w	r0, r0, #12582912	; 0xc00000
    1a9e:	4770      	bx	lr

00001aa0 <__aeabi_fdiv>:
    1aa0:	f04f 0cff 	mov.w	ip, #255	; 0xff
    1aa4:	ea1c 52d0 	ands.w	r2, ip, r0, lsr #23
    1aa8:	bf1e      	ittt	ne
    1aaa:	ea1c 53d1 	andsne.w	r3, ip, r1, lsr #23
    1aae:	ea92 0f0c 	teqne	r2, ip
    1ab2:	ea93 0f0c 	teqne	r3, ip
    1ab6:	d069      	beq.n	1b8c <__ARM_grp_.debug_frame$8+0x14>
    1ab8:	eba2 0203 	sub.w	r2, r2, r3
    1abc:	ea80 0c01 	eor.w	ip, r0, r1
    1ac0:	0249      	lsls	r1, r1, #9
    1ac2:	ea4f 2040 	mov.w	r0, r0, lsl #9
    1ac6:	d037      	beq.n	1b38 <__ARM_grp_.debug_frame$5+0x10>
    1ac8:	f04f 5380 	mov.w	r3, #268435456	; 0x10000000
    1acc:	ea43 1111 	orr.w	r1, r3, r1, lsr #4
    1ad0:	ea43 1310 	orr.w	r3, r3, r0, lsr #4
    1ad4:	f00c 4000 	and.w	r0, ip, #2147483648	; 0x80000000
    1ad8:	428b      	cmp	r3, r1
    1ada:	bf38      	it	cc
    1adc:	005b      	lslcc	r3, r3, #1
    1ade:	f142 027d 	adc.w	r2, r2, #125	; 0x7d
    1ae2:	f44f 0c00 	mov.w	ip, #8388608	; 0x800000
    1ae6:	428b      	cmp	r3, r1
    1ae8:	bf24      	itt	cs
    1aea:	1a5b      	subcs	r3, r3, r1
    1aec:	ea40 000c 	orrcs.w	r0, r0, ip
    1af0:	ebb3 0f51 	cmp.w	r3, r1, lsr #1
    1af4:	bf24      	itt	cs
    1af6:	eba3 0351 	subcs.w	r3, r3, r1, lsr #1
    1afa:	ea40 005c 	orrcs.w	r0, r0, ip, lsr #1
    1afe:	ebb3 0f91 	cmp.w	r3, r1, lsr #2
    1b02:	bf24      	itt	cs
    1b04:	eba3 0391 	subcs.w	r3, r3, r1, lsr #2
    1b08:	ea40 009c 	orrcs.w	r0, r0, ip, lsr #2
    1b0c:	ebb3 0fd1 	cmp.w	r3, r1, lsr #3
    1b10:	bf24      	itt	cs
    1b12:	eba3 03d1 	subcs.w	r3, r3, r1, lsr #3
    1b16:	ea40 00dc 	orrcs.w	r0, r0, ip, lsr #3
    1b1a:	011b      	lsls	r3, r3, #4
    1b1c:	bf18      	it	ne
    1b1e:	ea5f 1c1c 	movsne.w	ip, ip, lsr #4
    1b22:	d1e0      	bne.n	1ae6 <__ARM_grp_.debug_frame$11+0xe>
    1b24:	2afd      	cmp	r2, #253	; 0xfd
    1b26:	f63f af50 	bhi.w	19ca <__ARM_grp_.debug_frame$14+0x1a>
    1b2a:	428b      	cmp	r3, r1
    1b2c:	eb40 50c2 	adc.w	r0, r0, r2, lsl #23
    1b30:	bf08      	it	eq
    1b32:	f020 0001 	biceq.w	r0, r0, #1
    1b36:	4770      	bx	lr
    1b38:	f00c 4c00 	and.w	ip, ip, #2147483648	; 0x80000000
    1b3c:	ea4c 2050 	orr.w	r0, ip, r0, lsr #9
    1b40:	327f      	adds	r2, #127	; 0x7f
    1b42:	bfc2      	ittt	gt
    1b44:	f1d2 03ff 	rsbsgt	r3, r2, #255	; 0xff
    1b48:	ea40 50c2 	orrgt.w	r0, r0, r2, lsl #23
    1b4c:	4770      	bxgt	lr
    1b4e:	f440 0000 	orr.w	r0, r0, #8388608	; 0x800000
    1b52:	f04f 0300 	mov.w	r3, #0
    1b56:	3a01      	subs	r2, #1
    1b58:	e737      	b.n	19ca <__ARM_grp_.debug_frame$14+0x1a>
    1b5a:	f092 0f00 	teq	r2, #0
    1b5e:	f000 4c00 	and.w	ip, r0, #2147483648	; 0x80000000
    1b62:	bf02      	ittt	eq
    1b64:	0040      	lsleq	r0, r0, #1
    1b66:	f410 0f00 	tsteq.w	r0, #8388608	; 0x800000
    1b6a:	3a01      	subeq	r2, #1
    1b6c:	d0f9      	beq.n	1b62 <__ARM_grp_.debug_frame$5+0x3a>
    1b6e:	ea40 000c 	orr.w	r0, r0, ip
    1b72:	f093 0f00 	teq	r3, #0
    1b76:	f001 4c00 	and.w	ip, r1, #2147483648	; 0x80000000
    1b7a:	bf02      	ittt	eq
    1b7c:	0049      	lsleq	r1, r1, #1
    1b7e:	f411 0f00 	tsteq.w	r1, #8388608	; 0x800000
    1b82:	3b01      	subeq	r3, #1
    1b84:	d0f9      	beq.n	1b7a <__ARM_grp_.debug_frame$8+0x2>
    1b86:	ea41 010c 	orr.w	r1, r1, ip
    1b8a:	e795      	b.n	1ab8 <__aeabi_fdiv+0x18>
    1b8c:	ea0c 53d1 	and.w	r3, ip, r1, lsr #23
    1b90:	ea92 0f0c 	teq	r2, ip
    1b94:	d108      	bne.n	1ba8 <__ARM_grp_.debug_frame$8+0x30>
    1b96:	0242      	lsls	r2, r0, #9
    1b98:	f47f af7d 	bne.w	1a96 <__ARM_grp_.debug_frame$8+0xe>
    1b9c:	ea93 0f0c 	teq	r3, ip
    1ba0:	f47f af70 	bne.w	1a84 <__ARM_grp_.debug_frame$5+0x4c>
    1ba4:	4608      	mov	r0, r1
    1ba6:	e776      	b.n	1a96 <__ARM_grp_.debug_frame$8+0xe>
    1ba8:	ea93 0f0c 	teq	r3, ip
    1bac:	d104      	bne.n	1bb8 <__ARM_grp_.debug_frame$8+0x40>
    1bae:	024b      	lsls	r3, r1, #9
    1bb0:	f43f af4c 	beq.w	1a4c <__ARM_grp_.debug_frame$5+0x14>
    1bb4:	4608      	mov	r0, r1
    1bb6:	e76e      	b.n	1a96 <__ARM_grp_.debug_frame$8+0xe>
    1bb8:	f030 4c00 	bics.w	ip, r0, #2147483648	; 0x80000000
    1bbc:	bf18      	it	ne
    1bbe:	f031 4c00 	bicsne.w	ip, r1, #2147483648	; 0x80000000
    1bc2:	d1ca      	bne.n	1b5a <__ARM_grp_.debug_frame$5+0x32>
    1bc4:	f030 4200 	bics.w	r2, r0, #2147483648	; 0x80000000
    1bc8:	f47f af5c 	bne.w	1a84 <__ARM_grp_.debug_frame$5+0x4c>
    1bcc:	f031 4300 	bics.w	r3, r1, #2147483648	; 0x80000000
    1bd0:	f47f af3c 	bne.w	1a4c <__ARM_grp_.debug_frame$5+0x14>
    1bd4:	e75f      	b.n	1a96 <__ARM_grp_.debug_frame$8+0xe>
    1bd6:	bf00      	nop

00001bd8 <__gesf2>:
    1bd8:	f04f 3cff 	mov.w	ip, #4294967295
    1bdc:	e006      	b.n	1bec <__cmpsf2+0x4>
    1bde:	bf00      	nop

00001be0 <__lesf2>:
    1be0:	f04f 0c01 	mov.w	ip, #1
    1be4:	e002      	b.n	1bec <__cmpsf2+0x4>
    1be6:	bf00      	nop

00001be8 <__cmpsf2>:
    1be8:	f04f 0c01 	mov.w	ip, #1
    1bec:	f84d cd04 	str.w	ip, [sp, #-4]!
    1bf0:	ea4f 0240 	mov.w	r2, r0, lsl #1
    1bf4:	ea4f 0341 	mov.w	r3, r1, lsl #1
    1bf8:	ea7f 6c22 	mvns.w	ip, r2, asr #24
    1bfc:	bf18      	it	ne
    1bfe:	ea7f 6c23 	mvnsne.w	ip, r3, asr #24
    1c02:	d011      	beq.n	1c28 <__ARM_grp_.debug_frame$14+0x1c>
    1c04:	b001      	add	sp, #4
    1c06:	ea52 0c53 	orrs.w	ip, r2, r3, lsr #1
    1c0a:	bf18      	it	ne
    1c0c:	ea90 0f01 	teqne	r0, r1
    1c10:	bf58      	it	pl
    1c12:	ebb2 0003 	subspl.w	r0, r2, r3
    1c16:	bf88      	it	hi
    1c18:	17c8      	asrhi	r0, r1, #31
    1c1a:	bf38      	it	cc
    1c1c:	ea6f 70e1 	mvncc.w	r0, r1, asr #31
    1c20:	bf18      	it	ne
    1c22:	f040 0001 	orrne.w	r0, r0, #1
    1c26:	4770      	bx	lr
    1c28:	ea7f 6c22 	mvns.w	ip, r2, asr #24
    1c2c:	d102      	bne.n	1c34 <__ARM_grp_.debug_frame$14+0x28>
    1c2e:	ea5f 2c40 	movs.w	ip, r0, lsl #9
    1c32:	d105      	bne.n	1c40 <__ARM_grp_.debug_frame$14+0x34>
    1c34:	ea7f 6c23 	mvns.w	ip, r3, asr #24
    1c38:	d1e4      	bne.n	1c04 <__cmpsf2+0x1c>
    1c3a:	ea5f 2c41 	movs.w	ip, r1, lsl #9
    1c3e:	d0e1      	beq.n	1c04 <__cmpsf2+0x1c>
    1c40:	f85d 0b04 	ldr.w	r0, [sp], #4
    1c44:	4770      	bx	lr
    1c46:	bf00      	nop

00001c48 <__aeabi_cfrcmple>:
    1c48:	4684      	mov	ip, r0
    1c4a:	4608      	mov	r0, r1
    1c4c:	4661      	mov	r1, ip
    1c4e:	e7ff      	b.n	1c50 <__aeabi_cfcmpeq>

00001c50 <__aeabi_cfcmpeq>:
    1c50:	b50f      	push	{r0, r1, r2, r3, lr}
    1c52:	f7ff ffc9 	bl	1be8 <__cmpsf2>
    1c56:	2800      	cmp	r0, #0
    1c58:	bf48      	it	mi
    1c5a:	f110 0f00 	cmnmi.w	r0, #0
    1c5e:	bd0f      	pop	{r0, r1, r2, r3, pc}

00001c60 <__aeabi_fcmpeq>:
    1c60:	f84d ed08 	str.w	lr, [sp, #-8]!
    1c64:	f7ff fff4 	bl	1c50 <__aeabi_cfcmpeq>
    1c68:	bf0c      	ite	eq
    1c6a:	2001      	moveq	r0, #1
    1c6c:	2000      	movne	r0, #0
    1c6e:	f85d fb08 	ldr.w	pc, [sp], #8
    1c72:	bf00      	nop

00001c74 <__aeabi_fcmplt>:
    1c74:	f84d ed08 	str.w	lr, [sp, #-8]!
    1c78:	f7ff ffea 	bl	1c50 <__aeabi_cfcmpeq>
    1c7c:	bf34      	ite	cc
    1c7e:	2001      	movcc	r0, #1
    1c80:	2000      	movcs	r0, #0
    1c82:	f85d fb08 	ldr.w	pc, [sp], #8
    1c86:	bf00      	nop

00001c88 <__aeabi_fcmple>:
    1c88:	f84d ed08 	str.w	lr, [sp, #-8]!
    1c8c:	f7ff ffe0 	bl	1c50 <__aeabi_cfcmpeq>
    1c90:	bf94      	ite	ls
    1c92:	2001      	movls	r0, #1
    1c94:	2000      	movhi	r0, #0
    1c96:	f85d fb08 	ldr.w	pc, [sp], #8
    1c9a:	bf00      	nop

00001c9c <__aeabi_fcmpge>:
    1c9c:	f84d ed08 	str.w	lr, [sp, #-8]!
    1ca0:	f7ff ffd2 	bl	1c48 <__aeabi_cfrcmple>
    1ca4:	bf94      	ite	ls
    1ca6:	2001      	movls	r0, #1
    1ca8:	2000      	movhi	r0, #0
    1caa:	f85d fb08 	ldr.w	pc, [sp], #8
    1cae:	bf00      	nop

00001cb0 <__aeabi_fcmpgt>:
    1cb0:	f84d ed08 	str.w	lr, [sp, #-8]!
    1cb4:	f7ff ffc8 	bl	1c48 <__aeabi_cfrcmple>
    1cb8:	bf34      	ite	cc
    1cba:	2001      	movcc	r0, #1
    1cbc:	2000      	movcs	r0, #0
    1cbe:	f85d fb08 	ldr.w	pc, [sp], #8
    1cc2:	bf00      	nop

00001cc4 <abort>:
    1cc4:	b508      	push	{r3, lr}
    1cc6:	2006      	movs	r0, #6
    1cc8:	f000 fe78 	bl	29bc <raise>
    1ccc:	2001      	movs	r0, #1
    1cce:	f7fe fab7 	bl	240 <_exit>

00001cd2 <__aeabi_assert>:
    1cd2:	b508      	push	{r3, lr}
    1cd4:	4603      	mov	r3, r0
    1cd6:	4608      	mov	r0, r1
    1cd8:	4611      	mov	r1, r2
    1cda:	461a      	mov	r2, r3
    1cdc:	f004 fd28 	bl	6730 <__assert>

00001ce0 <setup_aeabi_stdio>:
    1ce0:	4b05      	ldr	r3, [pc, #20]	; (1cf8 <__ARM_grp_.debug_frame$5+0x10>)
    1ce2:	4a06      	ldr	r2, [pc, #24]	; (1cfc <__ARM_grp_.debug_frame$5+0x14>)
    1ce4:	681b      	ldr	r3, [r3, #0]
    1ce6:	6859      	ldr	r1, [r3, #4]
    1ce8:	6011      	str	r1, [r2, #0]
    1cea:	6899      	ldr	r1, [r3, #8]
    1cec:	4a04      	ldr	r2, [pc, #16]	; (1d00 <__ARM_grp_.debug_frame$5+0x18>)
    1cee:	6011      	str	r1, [r2, #0]
    1cf0:	68da      	ldr	r2, [r3, #12]
    1cf2:	4b04      	ldr	r3, [pc, #16]	; (1d04 <__ARM_grp_.debug_frame$5+0x1c>)
    1cf4:	601a      	str	r2, [r3, #0]
    1cf6:	4770      	bx	lr
    1cf8:	1000010c 	.word	0x1000010c
    1cfc:	10000634 	.word	0x10000634
    1d00:	10000638 	.word	0x10000638
    1d04:	1000063c 	.word	0x1000063c

00001d08 <fprintf>:
    1d08:	b40e      	push	{r1, r2, r3}
    1d0a:	b503      	push	{r0, r1, lr}
    1d0c:	ab03      	add	r3, sp, #12
    1d0e:	4601      	mov	r1, r0
    1d10:	4805      	ldr	r0, [pc, #20]	; (1d28 <fprintf+0x20>)
    1d12:	f853 2b04 	ldr.w	r2, [r3], #4
    1d16:	6800      	ldr	r0, [r0, #0]
    1d18:	9301      	str	r3, [sp, #4]
    1d1a:	f002 fd97 	bl	484c <_vfprintf_r>
    1d1e:	e8bd 400c 	ldmia.w	sp!, {r2, r3, lr}
    1d22:	b003      	add	sp, #12
    1d24:	4770      	bx	lr
    1d26:	bf00      	nop
    1d28:	1000010c 	.word	0x1000010c

00001d2c <fscanf>:
    1d2c:	b40e      	push	{r1, r2, r3}
    1d2e:	b503      	push	{r0, r1, lr}
    1d30:	ab03      	add	r3, sp, #12
    1d32:	4601      	mov	r1, r0
    1d34:	4805      	ldr	r0, [pc, #20]	; (1d4c <fscanf+0x20>)
    1d36:	f853 2b04 	ldr.w	r2, [r3], #4
    1d3a:	6800      	ldr	r0, [r0, #0]
    1d3c:	9301      	str	r3, [sp, #4]
    1d3e:	f003 fe6b 	bl	5a18 <__svfscanf_r>
    1d42:	e8bd 400c 	ldmia.w	sp!, {r2, r3, lr}
    1d46:	b003      	add	sp, #12
    1d48:	4770      	bx	lr
    1d4a:	bf00      	nop
    1d4c:	1000010c 	.word	0x1000010c

00001d50 <__sfvwrite_r>:
    1d50:	e92d 4ff7 	stmdb	sp!, {r0, r1, r2, r4, r5, r6, r7, r8, r9, sl, fp, lr}
    1d54:	4606      	mov	r6, r0
    1d56:	6890      	ldr	r0, [r2, #8]
    1d58:	460c      	mov	r4, r1
    1d5a:	4692      	mov	sl, r2
    1d5c:	2800      	cmp	r0, #0
    1d5e:	f000 813f 	beq.w	1fe0 <__ARM_grp_.debug_frame$23+0x160>
    1d62:	898b      	ldrh	r3, [r1, #12]
    1d64:	f013 0f08 	tst.w	r3, #8
    1d68:	d001      	beq.n	1d6e <__sfvwrite_r+0x1e>
    1d6a:	690b      	ldr	r3, [r1, #16]
    1d6c:	b95b      	cbnz	r3, 1d86 <__ARM_grp_.debug_frame$11+0x16>
    1d6e:	4630      	mov	r0, r6
    1d70:	4621      	mov	r1, r4
    1d72:	f004 fc53 	bl	661c <__swsetup_r>
    1d76:	b130      	cbz	r0, 1d86 <__ARM_grp_.debug_frame$11+0x16>
    1d78:	89a3      	ldrh	r3, [r4, #12]
    1d7a:	f043 0340 	orr.w	r3, r3, #64	; 0x40
    1d7e:	81a3      	strh	r3, [r4, #12]
    1d80:	2309      	movs	r3, #9
    1d82:	6033      	str	r3, [r6, #0]
    1d84:	e12a      	b.n	1fdc <__ARM_grp_.debug_frame$23+0x15c>
    1d86:	f8b4 900c 	ldrh.w	r9, [r4, #12]
    1d8a:	f8da 8000 	ldr.w	r8, [sl]
    1d8e:	f019 0702 	ands.w	r7, r9, #2
    1d92:	d024      	beq.n	1dde <__ARM_grp_.debug_frame$14+0x2a>
    1d94:	2700      	movs	r7, #0
    1d96:	46b9      	mov	r9, r7
    1d98:	e005      	b.n	1da6 <__ARM_grp_.debug_frame$11+0x36>
    1d9a:	f8d8 7000 	ldr.w	r7, [r8]
    1d9e:	f8d8 9004 	ldr.w	r9, [r8, #4]
    1da2:	f108 0808 	add.w	r8, r8, #8
    1da6:	f1b9 0f00 	cmp.w	r9, #0
    1daa:	d0f6      	beq.n	1d9a <__ARM_grp_.debug_frame$11+0x2a>
    1dac:	f1b9 0f80 	cmp.w	r9, #128	; 0x80
    1db0:	bf34      	ite	cc
    1db2:	464b      	movcc	r3, r9
    1db4:	2380      	movcs	r3, #128	; 0x80
    1db6:	6aa5      	ldr	r5, [r4, #40]	; 0x28
    1db8:	4630      	mov	r0, r6
    1dba:	6a21      	ldr	r1, [r4, #32]
    1dbc:	463a      	mov	r2, r7
    1dbe:	47a8      	blx	r5
    1dc0:	1e03      	subs	r3, r0, #0
    1dc2:	f340 8107 	ble.w	1fd4 <__ARM_grp_.debug_frame$23+0x154>
    1dc6:	f8da 0008 	ldr.w	r0, [sl, #8]
    1dca:	1ac0      	subs	r0, r0, r3
    1dcc:	f8ca 0008 	str.w	r0, [sl, #8]
    1dd0:	2800      	cmp	r0, #0
    1dd2:	f000 8105 	beq.w	1fe0 <__ARM_grp_.debug_frame$23+0x160>
    1dd6:	18ff      	adds	r7, r7, r3
    1dd8:	ebc3 0909 	rsb	r9, r3, r9
    1ddc:	e7e3      	b.n	1da6 <__ARM_grp_.debug_frame$11+0x36>
    1dde:	f019 0901 	ands.w	r9, r9, #1
    1de2:	d003      	beq.n	1dec <__ARM_grp_.debug_frame$14+0x38>
    1de4:	9701      	str	r7, [sp, #4]
    1de6:	46b9      	mov	r9, r7
    1de8:	9700      	str	r7, [sp, #0]
    1dea:	e09b      	b.n	1f24 <__ARM_grp_.debug_frame$23+0xa4>
    1dec:	464d      	mov	r5, r9
    1dee:	e005      	b.n	1dfc <__ARM_grp_.debug_frame$17+0x4>
    1df0:	f8d8 9000 	ldr.w	r9, [r8]
    1df4:	f8d8 5004 	ldr.w	r5, [r8, #4]
    1df8:	f108 0808 	add.w	r8, r8, #8
    1dfc:	2d00      	cmp	r5, #0
    1dfe:	d0f7      	beq.n	1df0 <__ARM_grp_.debug_frame$14+0x3c>
    1e00:	89a3      	ldrh	r3, [r4, #12]
    1e02:	68a7      	ldr	r7, [r4, #8]
    1e04:	f413 7f00 	tst.w	r3, #512	; 0x200
    1e08:	d050      	beq.n	1eac <__ARM_grp_.debug_frame$23+0x2c>
    1e0a:	42bd      	cmp	r5, r7
    1e0c:	d340      	bcc.n	1e90 <__ARM_grp_.debug_frame$23+0x10>
    1e0e:	f413 6f90 	tst.w	r3, #1152	; 0x480
    1e12:	d03b      	beq.n	1e8c <__ARM_grp_.debug_frame$23+0xc>
    1e14:	6921      	ldr	r1, [r4, #16]
    1e16:	6822      	ldr	r2, [r4, #0]
    1e18:	1a52      	subs	r2, r2, r1
    1e1a:	9200      	str	r2, [sp, #0]
    1e1c:	6962      	ldr	r2, [r4, #20]
    1e1e:	9800      	ldr	r0, [sp, #0]
    1e20:	eb02 0b42 	add.w	fp, r2, r2, lsl #1
    1e24:	1c42      	adds	r2, r0, #1
    1e26:	1952      	adds	r2, r2, r5
    1e28:	eb0b 7bdb 	add.w	fp, fp, fp, lsr #31
    1e2c:	ea4f 0b6b 	mov.w	fp, fp, asr #1
    1e30:	4593      	cmp	fp, r2
    1e32:	bf38      	it	cc
    1e34:	4693      	movcc	fp, r2
    1e36:	f413 6f80 	tst.w	r3, #1024	; 0x400
    1e3a:	d010      	beq.n	1e5e <__ARM_grp_.debug_frame$20+0x22>
    1e3c:	4630      	mov	r0, r6
    1e3e:	4659      	mov	r1, fp
    1e40:	f000 f95c 	bl	20fc <_malloc_r>
    1e44:	4607      	mov	r7, r0
    1e46:	b1a0      	cbz	r0, 1e72 <__ARM_grp_.debug_frame$20+0x36>
    1e48:	6921      	ldr	r1, [r4, #16]
    1e4a:	9a00      	ldr	r2, [sp, #0]
    1e4c:	f000 fb68 	bl	2520 <memcpy>
    1e50:	89a3      	ldrh	r3, [r4, #12]
    1e52:	f423 6390 	bic.w	r3, r3, #1152	; 0x480
    1e56:	f043 0380 	orr.w	r3, r3, #128	; 0x80
    1e5a:	81a3      	strh	r3, [r4, #12]
    1e5c:	e00c      	b.n	1e78 <__ARM_grp_.debug_frame$20+0x3c>
    1e5e:	4630      	mov	r0, r6
    1e60:	465a      	mov	r2, fp
    1e62:	f000 fbdb 	bl	261c <_realloc_r>
    1e66:	4607      	mov	r7, r0
    1e68:	b930      	cbnz	r0, 1e78 <__ARM_grp_.debug_frame$20+0x3c>
    1e6a:	4630      	mov	r0, r6
    1e6c:	6921      	ldr	r1, [r4, #16]
    1e6e:	f005 fd49 	bl	7904 <_free_r>
    1e72:	230c      	movs	r3, #12
    1e74:	6033      	str	r3, [r6, #0]
    1e76:	e0ad      	b.n	1fd4 <__ARM_grp_.debug_frame$23+0x154>
    1e78:	9a00      	ldr	r2, [sp, #0]
    1e7a:	6127      	str	r7, [r4, #16]
    1e7c:	18bf      	adds	r7, r7, r2
    1e7e:	6027      	str	r7, [r4, #0]
    1e80:	462f      	mov	r7, r5
    1e82:	ebc2 030b 	rsb	r3, r2, fp
    1e86:	f8c4 b014 	str.w	fp, [r4, #20]
    1e8a:	60a3      	str	r3, [r4, #8]
    1e8c:	42bd      	cmp	r5, r7
    1e8e:	d200      	bcs.n	1e92 <__ARM_grp_.debug_frame$23+0x12>
    1e90:	462f      	mov	r7, r5
    1e92:	463a      	mov	r2, r7
    1e94:	6820      	ldr	r0, [r4, #0]
    1e96:	4649      	mov	r1, r9
    1e98:	f000 fb4d 	bl	2536 <memmove>
    1e9c:	68a3      	ldr	r3, [r4, #8]
    1e9e:	1bdb      	subs	r3, r3, r7
    1ea0:	60a3      	str	r3, [r4, #8]
    1ea2:	6823      	ldr	r3, [r4, #0]
    1ea4:	19df      	adds	r7, r3, r7
    1ea6:	6027      	str	r7, [r4, #0]
    1ea8:	462f      	mov	r7, r5
    1eaa:	e028      	b.n	1efe <__ARM_grp_.debug_frame$23+0x7e>
    1eac:	6820      	ldr	r0, [r4, #0]
    1eae:	6923      	ldr	r3, [r4, #16]
    1eb0:	4298      	cmp	r0, r3
    1eb2:	d90e      	bls.n	1ed2 <__ARM_grp_.debug_frame$23+0x52>
    1eb4:	42bd      	cmp	r5, r7
    1eb6:	d90c      	bls.n	1ed2 <__ARM_grp_.debug_frame$23+0x52>
    1eb8:	4649      	mov	r1, r9
    1eba:	463a      	mov	r2, r7
    1ebc:	f000 fb3b 	bl	2536 <memmove>
    1ec0:	6823      	ldr	r3, [r4, #0]
    1ec2:	4630      	mov	r0, r6
    1ec4:	4621      	mov	r1, r4
    1ec6:	19db      	adds	r3, r3, r7
    1ec8:	6023      	str	r3, [r4, #0]
    1eca:	f005 fae1 	bl	7490 <_fflush_r>
    1ece:	b1b0      	cbz	r0, 1efe <__ARM_grp_.debug_frame$23+0x7e>
    1ed0:	e080      	b.n	1fd4 <__ARM_grp_.debug_frame$23+0x154>
    1ed2:	6963      	ldr	r3, [r4, #20]
    1ed4:	429d      	cmp	r5, r3
    1ed6:	d307      	bcc.n	1ee8 <__ARM_grp_.debug_frame$23+0x68>
    1ed8:	6aa7      	ldr	r7, [r4, #40]	; 0x28
    1eda:	4630      	mov	r0, r6
    1edc:	6a21      	ldr	r1, [r4, #32]
    1ede:	464a      	mov	r2, r9
    1ee0:	47b8      	blx	r7
    1ee2:	1e07      	subs	r7, r0, #0
    1ee4:	dc0b      	bgt.n	1efe <__ARM_grp_.debug_frame$23+0x7e>
    1ee6:	e075      	b.n	1fd4 <__ARM_grp_.debug_frame$23+0x154>
    1ee8:	4649      	mov	r1, r9
    1eea:	462a      	mov	r2, r5
    1eec:	f000 fb23 	bl	2536 <memmove>
    1ef0:	68a3      	ldr	r3, [r4, #8]
    1ef2:	462f      	mov	r7, r5
    1ef4:	1b5b      	subs	r3, r3, r5
    1ef6:	60a3      	str	r3, [r4, #8]
    1ef8:	6823      	ldr	r3, [r4, #0]
    1efa:	195b      	adds	r3, r3, r5
    1efc:	6023      	str	r3, [r4, #0]
    1efe:	f8da 0008 	ldr.w	r0, [sl, #8]
    1f02:	1bc0      	subs	r0, r0, r7
    1f04:	f8ca 0008 	str.w	r0, [sl, #8]
    1f08:	2800      	cmp	r0, #0
    1f0a:	d069      	beq.n	1fe0 <__ARM_grp_.debug_frame$23+0x160>
    1f0c:	44b9      	add	r9, r7
    1f0e:	1bed      	subs	r5, r5, r7
    1f10:	e774      	b.n	1dfc <__ARM_grp_.debug_frame$17+0x4>
    1f12:	f8d8 3004 	ldr.w	r3, [r8, #4]
    1f16:	2000      	movs	r0, #0
    1f18:	f8d8 9000 	ldr.w	r9, [r8]
    1f1c:	f108 0808 	add.w	r8, r8, #8
    1f20:	9001      	str	r0, [sp, #4]
    1f22:	9300      	str	r3, [sp, #0]
    1f24:	9a00      	ldr	r2, [sp, #0]
    1f26:	2a00      	cmp	r2, #0
    1f28:	d0f3      	beq.n	1f12 <__ARM_grp_.debug_frame$23+0x92>
    1f2a:	9b01      	ldr	r3, [sp, #4]
    1f2c:	b973      	cbnz	r3, 1f4c <__ARM_grp_.debug_frame$23+0xcc>
    1f2e:	4648      	mov	r0, r9
    1f30:	210a      	movs	r1, #10
    1f32:	f000 fae7 	bl	2504 <memchr>
    1f36:	b128      	cbz	r0, 1f44 <__ARM_grp_.debug_frame$23+0xc4>
    1f38:	1c47      	adds	r7, r0, #1
    1f3a:	2001      	movs	r0, #1
    1f3c:	ebc9 0707 	rsb	r7, r9, r7
    1f40:	9001      	str	r0, [sp, #4]
    1f42:	e003      	b.n	1f4c <__ARM_grp_.debug_frame$23+0xcc>
    1f44:	9a00      	ldr	r2, [sp, #0]
    1f46:	2301      	movs	r3, #1
    1f48:	9301      	str	r3, [sp, #4]
    1f4a:	1c57      	adds	r7, r2, #1
    1f4c:	f8dd b000 	ldr.w	fp, [sp]
    1f50:	6820      	ldr	r0, [r4, #0]
    1f52:	6922      	ldr	r2, [r4, #16]
    1f54:	455f      	cmp	r7, fp
    1f56:	bf38      	it	cc
    1f58:	46bb      	movcc	fp, r7
    1f5a:	68a5      	ldr	r5, [r4, #8]
    1f5c:	4290      	cmp	r0, r2
    1f5e:	6963      	ldr	r3, [r4, #20]
    1f60:	d90f      	bls.n	1f82 <__ARM_grp_.debug_frame$23+0x102>
    1f62:	195d      	adds	r5, r3, r5
    1f64:	45ab      	cmp	fp, r5
    1f66:	dd0c      	ble.n	1f82 <__ARM_grp_.debug_frame$23+0x102>
    1f68:	4649      	mov	r1, r9
    1f6a:	462a      	mov	r2, r5
    1f6c:	f000 fae3 	bl	2536 <memmove>
    1f70:	6823      	ldr	r3, [r4, #0]
    1f72:	4630      	mov	r0, r6
    1f74:	4621      	mov	r1, r4
    1f76:	195b      	adds	r3, r3, r5
    1f78:	6023      	str	r3, [r4, #0]
    1f7a:	f005 fa89 	bl	7490 <_fflush_r>
    1f7e:	b1b0      	cbz	r0, 1fae <__ARM_grp_.debug_frame$23+0x12e>
    1f80:	e028      	b.n	1fd4 <__ARM_grp_.debug_frame$23+0x154>
    1f82:	459b      	cmp	fp, r3
    1f84:	db07      	blt.n	1f96 <__ARM_grp_.debug_frame$23+0x116>
    1f86:	6aa5      	ldr	r5, [r4, #40]	; 0x28
    1f88:	4630      	mov	r0, r6
    1f8a:	6a21      	ldr	r1, [r4, #32]
    1f8c:	464a      	mov	r2, r9
    1f8e:	47a8      	blx	r5
    1f90:	1e05      	subs	r5, r0, #0
    1f92:	dc0c      	bgt.n	1fae <__ARM_grp_.debug_frame$23+0x12e>
    1f94:	e01e      	b.n	1fd4 <__ARM_grp_.debug_frame$23+0x154>
    1f96:	4649      	mov	r1, r9
    1f98:	465a      	mov	r2, fp
    1f9a:	f000 facc 	bl	2536 <memmove>
    1f9e:	68a3      	ldr	r3, [r4, #8]
    1fa0:	465d      	mov	r5, fp
    1fa2:	ebcb 0303 	rsb	r3, fp, r3
    1fa6:	60a3      	str	r3, [r4, #8]
    1fa8:	6823      	ldr	r3, [r4, #0]
    1faa:	445b      	add	r3, fp
    1fac:	6023      	str	r3, [r4, #0]
    1fae:	1b7f      	subs	r7, r7, r5
    1fb0:	d105      	bne.n	1fbe <__ARM_grp_.debug_frame$23+0x13e>
    1fb2:	4630      	mov	r0, r6
    1fb4:	4621      	mov	r1, r4
    1fb6:	f005 fa6b 	bl	7490 <_fflush_r>
    1fba:	b958      	cbnz	r0, 1fd4 <__ARM_grp_.debug_frame$23+0x154>
    1fbc:	9701      	str	r7, [sp, #4]
    1fbe:	f8da 0008 	ldr.w	r0, [sl, #8]
    1fc2:	1b40      	subs	r0, r0, r5
    1fc4:	f8ca 0008 	str.w	r0, [sl, #8]
    1fc8:	b150      	cbz	r0, 1fe0 <__ARM_grp_.debug_frame$23+0x160>
    1fca:	9800      	ldr	r0, [sp, #0]
    1fcc:	44a9      	add	r9, r5
    1fce:	1b40      	subs	r0, r0, r5
    1fd0:	9000      	str	r0, [sp, #0]
    1fd2:	e7a7      	b.n	1f24 <__ARM_grp_.debug_frame$23+0xa4>
    1fd4:	89a3      	ldrh	r3, [r4, #12]
    1fd6:	f043 0340 	orr.w	r3, r3, #64	; 0x40
    1fda:	81a3      	strh	r3, [r4, #12]
    1fdc:	f04f 30ff 	mov.w	r0, #4294967295
    1fe0:	e8bd 8ffe 	ldmia.w	sp!, {r1, r2, r3, r4, r5, r6, r7, r8, r9, sl, fp, pc}

00001fe4 <_fwrite_r>:
    1fe4:	e92d 41f0 	stmdb	sp!, {r4, r5, r6, r7, r8, lr}
    1fe8:	b086      	sub	sp, #24
    1fea:	fb02 f603 	mul.w	r6, r2, r3
    1fee:	461d      	mov	r5, r3
    1ff0:	4614      	mov	r4, r2
    1ff2:	ab04      	add	r3, sp, #16
    1ff4:	9f0c      	ldr	r7, [sp, #48]	; 0x30
    1ff6:	4680      	mov	r8, r0
    1ff8:	9301      	str	r3, [sp, #4]
    1ffa:	2301      	movs	r3, #1
    1ffc:	9104      	str	r1, [sp, #16]
    1ffe:	9605      	str	r6, [sp, #20]
    2000:	9603      	str	r6, [sp, #12]
    2002:	9302      	str	r3, [sp, #8]
    2004:	b118      	cbz	r0, 200e <_fwrite_r+0x2a>
    2006:	6983      	ldr	r3, [r0, #24]
    2008:	b90b      	cbnz	r3, 200e <_fwrite_r+0x2a>
    200a:	f005 fb4b 	bl	76a4 <__sinit>
    200e:	4b16      	ldr	r3, [pc, #88]	; (2068 <_fwrite_r+0x84>)
    2010:	429f      	cmp	r7, r3
    2012:	d102      	bne.n	201a <_fwrite_r+0x36>
    2014:	f8d8 7004 	ldr.w	r7, [r8, #4]
    2018:	e00a      	b.n	2030 <_fwrite_r+0x4c>
    201a:	4b14      	ldr	r3, [pc, #80]	; (206c <_fwrite_r+0x88>)
    201c:	429f      	cmp	r7, r3
    201e:	d102      	bne.n	2026 <_fwrite_r+0x42>
    2020:	f8d8 7008 	ldr.w	r7, [r8, #8]
    2024:	e004      	b.n	2030 <_fwrite_r+0x4c>
    2026:	4b12      	ldr	r3, [pc, #72]	; (2070 <_fwrite_r+0x8c>)
    2028:	429f      	cmp	r7, r3
    202a:	bf08      	it	eq
    202c:	f8d8 700c 	ldreq.w	r7, [r8, #12]
    2030:	89bb      	ldrh	r3, [r7, #12]
    2032:	f413 5f00 	tst.w	r3, #8192	; 0x2000
    2036:	d106      	bne.n	2046 <_fwrite_r+0x62>
    2038:	f443 5300 	orr.w	r3, r3, #8192	; 0x2000
    203c:	81bb      	strh	r3, [r7, #12]
    203e:	6e7b      	ldr	r3, [r7, #100]	; 0x64
    2040:	f423 5300 	bic.w	r3, r3, #8192	; 0x2000
    2044:	667b      	str	r3, [r7, #100]	; 0x64
    2046:	4640      	mov	r0, r8
    2048:	4639      	mov	r1, r7
    204a:	aa01      	add	r2, sp, #4
    204c:	f7ff fe80 	bl	1d50 <__sfvwrite_r>
    2050:	b128      	cbz	r0, 205e <_fwrite_r+0x7a>
    2052:	9803      	ldr	r0, [sp, #12]
    2054:	4621      	mov	r1, r4
    2056:	1a30      	subs	r0, r6, r0
    2058:	f008 ff2e 	bl	aeb8 <__aeabi_uidiv>
    205c:	4605      	mov	r5, r0
    205e:	4628      	mov	r0, r5
    2060:	b006      	add	sp, #24
    2062:	e8bd 81f0 	ldmia.w	sp!, {r4, r5, r6, r7, r8, pc}
    2066:	bf00      	nop
    2068:	0000c150 	.word	0x0000c150
    206c:	0000c170 	.word	0x0000c170
    2070:	0000c190 	.word	0x0000c190

00002074 <fwrite>:
    2074:	b573      	push	{r0, r1, r4, r5, r6, lr}
    2076:	4606      	mov	r6, r0
    2078:	9300      	str	r3, [sp, #0]
    207a:	460d      	mov	r5, r1
    207c:	4b04      	ldr	r3, [pc, #16]	; (2090 <fwrite+0x1c>)
    207e:	4614      	mov	r4, r2
    2080:	4631      	mov	r1, r6
    2082:	462a      	mov	r2, r5
    2084:	6818      	ldr	r0, [r3, #0]
    2086:	4623      	mov	r3, r4
    2088:	f7ff ffac 	bl	1fe4 <_fwrite_r>
    208c:	bd7c      	pop	{r2, r3, r4, r5, r6, pc}
    208e:	bf00      	nop
    2090:	1000010c 	.word	0x1000010c

00002094 <__libc_init_array>:
    2094:	b570      	push	{r4, r5, r6, lr}
    2096:	2400      	movs	r4, #0
    2098:	4d0c      	ldr	r5, [pc, #48]	; (20cc <__libc_init_array+0x38>)
    209a:	4e0d      	ldr	r6, [pc, #52]	; (20d0 <__libc_init_array+0x3c>)
    209c:	1b76      	subs	r6, r6, r5
    209e:	10b6      	asrs	r6, r6, #2
    20a0:	e003      	b.n	20aa <__libc_init_array+0x16>
    20a2:	f855 3b04 	ldr.w	r3, [r5], #4
    20a6:	3401      	adds	r4, #1
    20a8:	4798      	blx	r3
    20aa:	42b4      	cmp	r4, r6
    20ac:	d1f9      	bne.n	20a2 <__libc_init_array+0xe>
    20ae:	4d09      	ldr	r5, [pc, #36]	; (20d4 <__libc_init_array+0x40>)
    20b0:	f00a f92c 	bl	c30c <_init>
    20b4:	4e08      	ldr	r6, [pc, #32]	; (20d8 <__libc_init_array+0x44>)
    20b6:	2400      	movs	r4, #0
    20b8:	1b76      	subs	r6, r6, r5
    20ba:	10b6      	asrs	r6, r6, #2
    20bc:	e003      	b.n	20c6 <__libc_init_array+0x32>
    20be:	f855 3b04 	ldr.w	r3, [r5], #4
    20c2:	3401      	adds	r4, #1
    20c4:	4798      	blx	r3
    20c6:	42b4      	cmp	r4, r6
    20c8:	d1f9      	bne.n	20be <__libc_init_array+0x2a>
    20ca:	bd70      	pop	{r4, r5, r6, pc}
    20cc:	0000c318 	.word	0x0000c318
    20d0:	0000c31c 	.word	0x0000c31c
    20d4:	0000c31c 	.word	0x0000c31c
    20d8:	0000c320 	.word	0x0000c320

000020dc <malloc>:
    20dc:	4b02      	ldr	r3, [pc, #8]	; (20e8 <malloc+0xc>)
    20de:	4601      	mov	r1, r0
    20e0:	6818      	ldr	r0, [r3, #0]
    20e2:	f000 b80b 	b.w	20fc <_malloc_r>
    20e6:	bf00      	nop
    20e8:	1000010c 	.word	0x1000010c

000020ec <free>:
    20ec:	4b02      	ldr	r3, [pc, #8]	; (20f8 <free+0xc>)
    20ee:	4601      	mov	r1, r0
    20f0:	6818      	ldr	r0, [r3, #0]
    20f2:	f005 bc07 	b.w	7904 <_free_r>
    20f6:	bf00      	nop
    20f8:	1000010c 	.word	0x1000010c

000020fc <_malloc_r>:
    20fc:	e92d 4ff7 	stmdb	sp!, {r0, r1, r2, r4, r5, r6, r7, r8, r9, sl, fp, lr}
    2100:	f101 040b 	add.w	r4, r1, #11
    2104:	2c16      	cmp	r4, #22
    2106:	4607      	mov	r7, r0
    2108:	d903      	bls.n	2112 <_malloc_r+0x16>
    210a:	f034 0407 	bics.w	r4, r4, #7
    210e:	d501      	bpl.n	2114 <_malloc_r+0x18>
    2110:	e002      	b.n	2118 <_malloc_r+0x1c>
    2112:	2410      	movs	r4, #16
    2114:	428c      	cmp	r4, r1
    2116:	d202      	bcs.n	211e <_malloc_r+0x22>
    2118:	230c      	movs	r3, #12
    211a:	603b      	str	r3, [r7, #0]
    211c:	e1d6      	b.n	24cc <_malloc_r+0x3d0>
    211e:	4638      	mov	r0, r7
    2120:	f000 fa21 	bl	2566 <__malloc_lock>
    2124:	f5b4 7ffc 	cmp.w	r4, #504	; 0x1f8
    2128:	4a97      	ldr	r2, [pc, #604]	; (2388 <_malloc_r+0x28c>)
    212a:	d210      	bcs.n	214e <_malloc_r+0x52>
    212c:	08e1      	lsrs	r1, r4, #3
    212e:	eb02 02c1 	add.w	r2, r2, r1, lsl #3
    2132:	68d6      	ldr	r6, [r2, #12]
    2134:	4296      	cmp	r6, r2
    2136:	d104      	bne.n	2142 <_malloc_r+0x46>
    2138:	f106 0308 	add.w	r3, r6, #8
    213c:	6976      	ldr	r6, [r6, #20]
    213e:	429e      	cmp	r6, r3
    2140:	d003      	beq.n	214a <_malloc_r+0x4e>
    2142:	6873      	ldr	r3, [r6, #4]
    2144:	f023 0303 	bic.w	r3, r3, #3
    2148:	e02f      	b.n	21aa <_malloc_r+0xae>
    214a:	3102      	adds	r1, #2
    214c:	e036      	b.n	21bc <_malloc_r+0xc0>
    214e:	0a61      	lsrs	r1, r4, #9
    2150:	d101      	bne.n	2156 <_malloc_r+0x5a>
    2152:	08e1      	lsrs	r1, r4, #3
    2154:	e01b      	b.n	218e <_malloc_r+0x92>
    2156:	2904      	cmp	r1, #4
    2158:	d802      	bhi.n	2160 <_malloc_r+0x64>
    215a:	09a1      	lsrs	r1, r4, #6
    215c:	3138      	adds	r1, #56	; 0x38
    215e:	e016      	b.n	218e <_malloc_r+0x92>
    2160:	2914      	cmp	r1, #20
    2162:	d801      	bhi.n	2168 <_malloc_r+0x6c>
    2164:	315b      	adds	r1, #91	; 0x5b
    2166:	e012      	b.n	218e <_malloc_r+0x92>
    2168:	2954      	cmp	r1, #84	; 0x54
    216a:	d802      	bhi.n	2172 <_malloc_r+0x76>
    216c:	0b21      	lsrs	r1, r4, #12
    216e:	316e      	adds	r1, #110	; 0x6e
    2170:	e00d      	b.n	218e <_malloc_r+0x92>
    2172:	f5b1 7faa 	cmp.w	r1, #340	; 0x154
    2176:	d802      	bhi.n	217e <_malloc_r+0x82>
    2178:	0be1      	lsrs	r1, r4, #15
    217a:	3177      	adds	r1, #119	; 0x77
    217c:	e007      	b.n	218e <_malloc_r+0x92>
    217e:	f240 5354 	movw	r3, #1364	; 0x554
    2182:	4299      	cmp	r1, r3
    2184:	d802      	bhi.n	218c <_malloc_r+0x90>
    2186:	0ca1      	lsrs	r1, r4, #18
    2188:	317c      	adds	r1, #124	; 0x7c
    218a:	e000      	b.n	218e <_malloc_r+0x92>
    218c:	217e      	movs	r1, #126	; 0x7e
    218e:	eb02 02c1 	add.w	r2, r2, r1, lsl #3
    2192:	68d6      	ldr	r6, [r2, #12]
    2194:	e00f      	b.n	21b6 <_malloc_r+0xba>
    2196:	6873      	ldr	r3, [r6, #4]
    2198:	f023 0303 	bic.w	r3, r3, #3
    219c:	1b18      	subs	r0, r3, r4
    219e:	280f      	cmp	r0, #15
    21a0:	dd01      	ble.n	21a6 <_malloc_r+0xaa>
    21a2:	3901      	subs	r1, #1
    21a4:	e009      	b.n	21ba <_malloc_r+0xbe>
    21a6:	2800      	cmp	r0, #0
    21a8:	db04      	blt.n	21b4 <_malloc_r+0xb8>
    21aa:	68f2      	ldr	r2, [r6, #12]
    21ac:	68b1      	ldr	r1, [r6, #8]
    21ae:	60ca      	str	r2, [r1, #12]
    21b0:	6091      	str	r1, [r2, #8]
    21b2:	e020      	b.n	21f6 <_malloc_r+0xfa>
    21b4:	68f6      	ldr	r6, [r6, #12]
    21b6:	4296      	cmp	r6, r2
    21b8:	d1ed      	bne.n	2196 <_malloc_r+0x9a>
    21ba:	3101      	adds	r1, #1
    21bc:	4d72      	ldr	r5, [pc, #456]	; (2388 <_malloc_r+0x28c>)
    21be:	f105 0208 	add.w	r2, r5, #8
    21c2:	6896      	ldr	r6, [r2, #8]
    21c4:	4296      	cmp	r6, r2
    21c6:	d077      	beq.n	22b8 <_malloc_r+0x1bc>
    21c8:	6873      	ldr	r3, [r6, #4]
    21ca:	f023 0303 	bic.w	r3, r3, #3
    21ce:	1b18      	subs	r0, r3, r4
    21d0:	280f      	cmp	r0, #15
    21d2:	dd0c      	ble.n	21ee <_malloc_r+0xf2>
    21d4:	1933      	adds	r3, r6, r4
    21d6:	f044 0401 	orr.w	r4, r4, #1
    21da:	60d3      	str	r3, [r2, #12]
    21dc:	6093      	str	r3, [r2, #8]
    21de:	6074      	str	r4, [r6, #4]
    21e0:	60da      	str	r2, [r3, #12]
    21e2:	609a      	str	r2, [r3, #8]
    21e4:	f040 0201 	orr.w	r2, r0, #1
    21e8:	5018      	str	r0, [r3, r0]
    21ea:	605a      	str	r2, [r3, #4]
    21ec:	e179      	b.n	24e2 <_malloc_r+0x3e6>
    21ee:	2800      	cmp	r0, #0
    21f0:	60d2      	str	r2, [r2, #12]
    21f2:	6092      	str	r2, [r2, #8]
    21f4:	db05      	blt.n	2202 <_malloc_r+0x106>
    21f6:	18f3      	adds	r3, r6, r3
    21f8:	685a      	ldr	r2, [r3, #4]
    21fa:	f042 0201 	orr.w	r2, r2, #1
    21fe:	605a      	str	r2, [r3, #4]
    2200:	e16f      	b.n	24e2 <_malloc_r+0x3e6>
    2202:	f5b3 7f00 	cmp.w	r3, #512	; 0x200
    2206:	d20e      	bcs.n	2226 <_malloc_r+0x12a>
    2208:	08db      	lsrs	r3, r3, #3
    220a:	f04f 0e01 	mov.w	lr, #1
    220e:	1098      	asrs	r0, r3, #2
    2210:	eb05 03c3 	add.w	r3, r5, r3, lsl #3
    2214:	fa0e f000 	lsl.w	r0, lr, r0
    2218:	f8d5 e004 	ldr.w	lr, [r5, #4]
    221c:	ea4e 0000 	orr.w	r0, lr, r0
    2220:	6068      	str	r0, [r5, #4]
    2222:	6898      	ldr	r0, [r3, #8]
    2224:	e044      	b.n	22b0 <_malloc_r+0x1b4>
    2226:	ea4f 2e53 	mov.w	lr, r3, lsr #9
    222a:	f1be 0f04 	cmp.w	lr, #4
    222e:	d804      	bhi.n	223a <_malloc_r+0x13e>
    2230:	ea4f 1e93 	mov.w	lr, r3, lsr #6
    2234:	f10e 0e38 	add.w	lr, lr, #56	; 0x38
    2238:	e01f      	b.n	227a <_malloc_r+0x17e>
    223a:	f1be 0f14 	cmp.w	lr, #20
    223e:	d802      	bhi.n	2246 <_malloc_r+0x14a>
    2240:	f10e 0e5b 	add.w	lr, lr, #91	; 0x5b
    2244:	e019      	b.n	227a <_malloc_r+0x17e>
    2246:	f1be 0f54 	cmp.w	lr, #84	; 0x54
    224a:	d804      	bhi.n	2256 <_malloc_r+0x15a>
    224c:	ea4f 3e13 	mov.w	lr, r3, lsr #12
    2250:	f10e 0e6e 	add.w	lr, lr, #110	; 0x6e
    2254:	e011      	b.n	227a <_malloc_r+0x17e>
    2256:	f5be 7faa 	cmp.w	lr, #340	; 0x154
    225a:	d804      	bhi.n	2266 <_malloc_r+0x16a>
    225c:	ea4f 3ed3 	mov.w	lr, r3, lsr #15
    2260:	f10e 0e77 	add.w	lr, lr, #119	; 0x77
    2264:	e009      	b.n	227a <_malloc_r+0x17e>
    2266:	f240 5054 	movw	r0, #1364	; 0x554
    226a:	4586      	cmp	lr, r0
    226c:	bf96      	itet	ls
    226e:	ea4f 4e93 	movls.w	lr, r3, lsr #18
    2272:	f04f 0e7e 	movhi.w	lr, #126	; 0x7e
    2276:	f10e 0e7c 	addls.w	lr, lr, #124	; 0x7c
    227a:	eb05 0cce 	add.w	ip, r5, lr, lsl #3
    227e:	f8dc 0008 	ldr.w	r0, [ip, #8]
    2282:	4560      	cmp	r0, ip
    2284:	d10d      	bne.n	22a2 <_malloc_r+0x1a6>
    2286:	2301      	movs	r3, #1
    2288:	ea4f 0eae 	mov.w	lr, lr, asr #2
    228c:	fa03 fe0e 	lsl.w	lr, r3, lr
    2290:	686b      	ldr	r3, [r5, #4]
    2292:	ea43 030e 	orr.w	r3, r3, lr
    2296:	606b      	str	r3, [r5, #4]
    2298:	4603      	mov	r3, r0
    229a:	e009      	b.n	22b0 <_malloc_r+0x1b4>
    229c:	6880      	ldr	r0, [r0, #8]
    229e:	4560      	cmp	r0, ip
    22a0:	d005      	beq.n	22ae <_malloc_r+0x1b2>
    22a2:	f8d0 e004 	ldr.w	lr, [r0, #4]
    22a6:	f02e 0e03 	bic.w	lr, lr, #3
    22aa:	4573      	cmp	r3, lr
    22ac:	d3f6      	bcc.n	229c <_malloc_r+0x1a0>
    22ae:	68c3      	ldr	r3, [r0, #12]
    22b0:	60f3      	str	r3, [r6, #12]
    22b2:	60b0      	str	r0, [r6, #8]
    22b4:	609e      	str	r6, [r3, #8]
    22b6:	60c6      	str	r6, [r0, #12]
    22b8:	2001      	movs	r0, #1
    22ba:	108b      	asrs	r3, r1, #2
    22bc:	fa10 f303 	lsls.w	r3, r0, r3
    22c0:	6868      	ldr	r0, [r5, #4]
    22c2:	4283      	cmp	r3, r0
    22c4:	d862      	bhi.n	238c <_malloc_r+0x290>
    22c6:	4203      	tst	r3, r0
    22c8:	d105      	bne.n	22d6 <_malloc_r+0x1da>
    22ca:	f021 0103 	bic.w	r1, r1, #3
    22ce:	005b      	lsls	r3, r3, #1
    22d0:	3104      	adds	r1, #4
    22d2:	4203      	tst	r3, r0
    22d4:	d0fb      	beq.n	22ce <_malloc_r+0x1d2>
    22d6:	eb05 09c1 	add.w	r9, r5, r1, lsl #3
    22da:	468e      	mov	lr, r1
    22dc:	46cc      	mov	ip, r9
    22de:	f8dc 600c 	ldr.w	r6, [ip, #12]
    22e2:	e02a      	b.n	233a <_malloc_r+0x23e>
    22e4:	6870      	ldr	r0, [r6, #4]
    22e6:	f020 0803 	bic.w	r8, r0, #3
    22ea:	ebc4 0008 	rsb	r0, r4, r8
    22ee:	280f      	cmp	r0, #15
    22f0:	dd11      	ble.n	2316 <_malloc_r+0x21a>
    22f2:	1933      	adds	r3, r6, r4
    22f4:	68f1      	ldr	r1, [r6, #12]
    22f6:	f044 0401 	orr.w	r4, r4, #1
    22fa:	6074      	str	r4, [r6, #4]
    22fc:	f856 4f08 	ldr.w	r4, [r6, #8]!
    2300:	5018      	str	r0, [r3, r0]
    2302:	60e1      	str	r1, [r4, #12]
    2304:	608c      	str	r4, [r1, #8]
    2306:	60d3      	str	r3, [r2, #12]
    2308:	6093      	str	r3, [r2, #8]
    230a:	60da      	str	r2, [r3, #12]
    230c:	609a      	str	r2, [r3, #8]
    230e:	f040 0201 	orr.w	r2, r0, #1
    2312:	605a      	str	r2, [r3, #4]
    2314:	e00c      	b.n	2330 <_malloc_r+0x234>
    2316:	2800      	cmp	r0, #0
    2318:	db0e      	blt.n	2338 <_malloc_r+0x23c>
    231a:	eb06 0308 	add.w	r3, r6, r8
    231e:	685a      	ldr	r2, [r3, #4]
    2320:	f042 0201 	orr.w	r2, r2, #1
    2324:	605a      	str	r2, [r3, #4]
    2326:	68f3      	ldr	r3, [r6, #12]
    2328:	f856 2f08 	ldr.w	r2, [r6, #8]!
    232c:	60d3      	str	r3, [r2, #12]
    232e:	609a      	str	r2, [r3, #8]
    2330:	4638      	mov	r0, r7
    2332:	f000 f919 	bl	2568 <__malloc_unlock>
    2336:	e0d8      	b.n	24ea <_malloc_r+0x3ee>
    2338:	68f6      	ldr	r6, [r6, #12]
    233a:	4566      	cmp	r6, ip
    233c:	d1d2      	bne.n	22e4 <_malloc_r+0x1e8>
    233e:	f10e 0e01 	add.w	lr, lr, #1
    2342:	f01e 0f03 	tst.w	lr, #3
    2346:	d101      	bne.n	234c <_malloc_r+0x250>
    2348:	4648      	mov	r0, r9
    234a:	e002      	b.n	2352 <_malloc_r+0x256>
    234c:	f10c 0c08 	add.w	ip, ip, #8
    2350:	e7c5      	b.n	22de <_malloc_r+0x1e2>
    2352:	f011 0f03 	tst.w	r1, #3
    2356:	d104      	bne.n	2362 <_malloc_r+0x266>
    2358:	6869      	ldr	r1, [r5, #4]
    235a:	ea21 0103 	bic.w	r1, r1, r3
    235e:	6069      	str	r1, [r5, #4]
    2360:	e006      	b.n	2370 <_malloc_r+0x274>
    2362:	4606      	mov	r6, r0
    2364:	f856 0908 	ldr.w	r0, [r6], #-8
    2368:	42b0      	cmp	r0, r6
    236a:	d101      	bne.n	2370 <_malloc_r+0x274>
    236c:	3901      	subs	r1, #1
    236e:	e7f0      	b.n	2352 <_malloc_r+0x256>
    2370:	6868      	ldr	r0, [r5, #4]
    2372:	005b      	lsls	r3, r3, #1
    2374:	4283      	cmp	r3, r0
    2376:	d809      	bhi.n	238c <_malloc_r+0x290>
    2378:	b143      	cbz	r3, 238c <_malloc_r+0x290>
    237a:	4671      	mov	r1, lr
    237c:	e001      	b.n	2382 <_malloc_r+0x286>
    237e:	3104      	adds	r1, #4
    2380:	005b      	lsls	r3, r3, #1
    2382:	4203      	tst	r3, r0
    2384:	d1a7      	bne.n	22d6 <_malloc_r+0x1da>
    2386:	e7fa      	b.n	237e <_malloc_r+0x282>
    2388:	10000110 	.word	0x10000110
    238c:	f8d5 8008 	ldr.w	r8, [r5, #8]
    2390:	f8d8 3004 	ldr.w	r3, [r8, #4]
    2394:	f023 0903 	bic.w	r9, r3, #3
    2398:	45a1      	cmp	r9, r4
    239a:	d304      	bcc.n	23a6 <_malloc_r+0x2aa>
    239c:	ebc4 0309 	rsb	r3, r4, r9
    23a0:	2b0f      	cmp	r3, #15
    23a2:	f300 8095 	bgt.w	24d0 <_malloc_r+0x3d4>
    23a6:	4b52      	ldr	r3, [pc, #328]	; (24f0 <_malloc_r+0x3f4>)
    23a8:	4638      	mov	r0, r7
    23aa:	681b      	ldr	r3, [r3, #0]
    23ac:	f103 0a10 	add.w	sl, r3, #16
    23b0:	4b50      	ldr	r3, [pc, #320]	; (24f4 <_malloc_r+0x3f8>)
    23b2:	44a2      	add	sl, r4
    23b4:	681a      	ldr	r2, [r3, #0]
    23b6:	9301      	str	r3, [sp, #4]
    23b8:	f1b2 3fff 	cmp.w	r2, #4294967295
    23bc:	bf1c      	itt	ne
    23be:	f10a 0a7f 	addne.w	sl, sl, #127	; 0x7f
    23c2:	f02a 0a7f 	bicne.w	sl, sl, #127	; 0x7f
    23c6:	4651      	mov	r1, sl
    23c8:	f000 faa4 	bl	2914 <_sbrk_r>
    23cc:	9b01      	ldr	r3, [sp, #4]
    23ce:	f1b0 3fff 	cmp.w	r0, #4294967295
    23d2:	4606      	mov	r6, r0
    23d4:	d06e      	beq.n	24b4 <_malloc_r+0x3b8>
    23d6:	eb08 0209 	add.w	r2, r8, r9
    23da:	4290      	cmp	r0, r2
    23dc:	d201      	bcs.n	23e2 <_malloc_r+0x2e6>
    23de:	45a8      	cmp	r8, r5
    23e0:	d168      	bne.n	24b4 <_malloc_r+0x3b8>
    23e2:	4945      	ldr	r1, [pc, #276]	; (24f8 <_malloc_r+0x3fc>)
    23e4:	4296      	cmp	r6, r2
    23e6:	468b      	mov	fp, r1
    23e8:	6808      	ldr	r0, [r1, #0]
    23ea:	4450      	add	r0, sl
    23ec:	6008      	str	r0, [r1, #0]
    23ee:	d108      	bne.n	2402 <_malloc_r+0x306>
    23f0:	f016 0f7f 	tst.w	r6, #127	; 0x7f
    23f4:	d105      	bne.n	2402 <_malloc_r+0x306>
    23f6:	68ab      	ldr	r3, [r5, #8]
    23f8:	44d1      	add	r9, sl
    23fa:	f049 0201 	orr.w	r2, r9, #1
    23fe:	605a      	str	r2, [r3, #4]
    2400:	e04c      	b.n	249c <_malloc_r+0x3a0>
    2402:	681b      	ldr	r3, [r3, #0]
    2404:	f1b3 3fff 	cmp.w	r3, #4294967295
    2408:	d102      	bne.n	2410 <_malloc_r+0x314>
    240a:	4b3a      	ldr	r3, [pc, #232]	; (24f4 <_malloc_r+0x3f8>)
    240c:	601e      	str	r6, [r3, #0]
    240e:	e003      	b.n	2418 <_malloc_r+0x31c>
    2410:	1830      	adds	r0, r6, r0
    2412:	1a82      	subs	r2, r0, r2
    2414:	f8cb 2000 	str.w	r2, [fp]
    2418:	f016 0307 	ands.w	r3, r6, #7
    241c:	4638      	mov	r0, r7
    241e:	bf1c      	itt	ne
    2420:	f1c3 0308 	rsbne	r3, r3, #8
    2424:	18f6      	addne	r6, r6, r3
    2426:	3380      	adds	r3, #128	; 0x80
    2428:	44b2      	add	sl, r6
    242a:	f00a 0a7f 	and.w	sl, sl, #127	; 0x7f
    242e:	ebca 0a03 	rsb	sl, sl, r3
    2432:	4651      	mov	r1, sl
    2434:	f000 fa6e 	bl	2914 <_sbrk_r>
    2438:	f8db 3000 	ldr.w	r3, [fp]
    243c:	60ae      	str	r6, [r5, #8]
    243e:	f1b0 3fff 	cmp.w	r0, #4294967295
    2442:	bf04      	itt	eq
    2444:	4630      	moveq	r0, r6
    2446:	f04f 0a00 	moveq.w	sl, #0
    244a:	1b80      	subs	r0, r0, r6
    244c:	45a8      	cmp	r8, r5
    244e:	4450      	add	r0, sl
    2450:	4453      	add	r3, sl
    2452:	f040 0001 	orr.w	r0, r0, #1
    2456:	f8cb 3000 	str.w	r3, [fp]
    245a:	6070      	str	r0, [r6, #4]
    245c:	d01e      	beq.n	249c <_malloc_r+0x3a0>
    245e:	f1b9 0f0f 	cmp.w	r9, #15
    2462:	d802      	bhi.n	246a <_malloc_r+0x36e>
    2464:	2301      	movs	r3, #1
    2466:	6073      	str	r3, [r6, #4]
    2468:	e024      	b.n	24b4 <_malloc_r+0x3b8>
    246a:	f8d8 3004 	ldr.w	r3, [r8, #4]
    246e:	f1a9 090c 	sub.w	r9, r9, #12
    2472:	f029 0907 	bic.w	r9, r9, #7
    2476:	2205      	movs	r2, #5
    2478:	f003 0301 	and.w	r3, r3, #1
    247c:	f1b9 0f0f 	cmp.w	r9, #15
    2480:	ea49 0303 	orr.w	r3, r9, r3
    2484:	f8c8 3004 	str.w	r3, [r8, #4]
    2488:	eb08 0309 	add.w	r3, r8, r9
    248c:	605a      	str	r2, [r3, #4]
    248e:	609a      	str	r2, [r3, #8]
    2490:	d904      	bls.n	249c <_malloc_r+0x3a0>
    2492:	4638      	mov	r0, r7
    2494:	f108 0108 	add.w	r1, r8, #8
    2498:	f005 fa34 	bl	7904 <_free_r>
    249c:	4a17      	ldr	r2, [pc, #92]	; (24fc <_malloc_r+0x400>)
    249e:	f8db 3000 	ldr.w	r3, [fp]
    24a2:	6811      	ldr	r1, [r2, #0]
    24a4:	428b      	cmp	r3, r1
    24a6:	bf88      	it	hi
    24a8:	6013      	strhi	r3, [r2, #0]
    24aa:	4a15      	ldr	r2, [pc, #84]	; (2500 <_malloc_r+0x404>)
    24ac:	6811      	ldr	r1, [r2, #0]
    24ae:	428b      	cmp	r3, r1
    24b0:	bf88      	it	hi
    24b2:	6013      	strhi	r3, [r2, #0]
    24b4:	68ab      	ldr	r3, [r5, #8]
    24b6:	685b      	ldr	r3, [r3, #4]
    24b8:	f023 0303 	bic.w	r3, r3, #3
    24bc:	42a3      	cmp	r3, r4
    24be:	d302      	bcc.n	24c6 <_malloc_r+0x3ca>
    24c0:	1b1b      	subs	r3, r3, r4
    24c2:	2b0f      	cmp	r3, #15
    24c4:	dc04      	bgt.n	24d0 <_malloc_r+0x3d4>
    24c6:	4638      	mov	r0, r7
    24c8:	f000 f84e 	bl	2568 <__malloc_unlock>
    24cc:	2600      	movs	r6, #0
    24ce:	e00c      	b.n	24ea <_malloc_r+0x3ee>
    24d0:	68ae      	ldr	r6, [r5, #8]
    24d2:	f044 0201 	orr.w	r2, r4, #1
    24d6:	f043 0301 	orr.w	r3, r3, #1
    24da:	1934      	adds	r4, r6, r4
    24dc:	60ac      	str	r4, [r5, #8]
    24de:	6072      	str	r2, [r6, #4]
    24e0:	6063      	str	r3, [r4, #4]
    24e2:	4638      	mov	r0, r7
    24e4:	3608      	adds	r6, #8
    24e6:	f000 f83f 	bl	2568 <__malloc_unlock>
    24ea:	4630      	mov	r0, r6
    24ec:	e8bd 8ffe 	ldmia.w	sp!, {r1, r2, r3, r4, r5, r6, r7, r8, r9, sl, fp, pc}
    24f0:	10000608 	.word	0x10000608
    24f4:	1000051c 	.word	0x1000051c
    24f8:	1000060c 	.word	0x1000060c
    24fc:	10000604 	.word	0x10000604
    2500:	10000600 	.word	0x10000600

00002504 <memchr>:
    2504:	b510      	push	{r4, lr}
    2506:	b2c9      	uxtb	r1, r1
    2508:	e003      	b.n	2512 <memchr+0xe>
    250a:	f810 4b01 	ldrb.w	r4, [r0], #1
    250e:	428c      	cmp	r4, r1
    2510:	d004      	beq.n	251c <memchr+0x18>
    2512:	3a01      	subs	r2, #1
    2514:	4603      	mov	r3, r0
    2516:	d2f8      	bcs.n	250a <memchr+0x6>
    2518:	2000      	movs	r0, #0
    251a:	bd10      	pop	{r4, pc}
    251c:	4618      	mov	r0, r3
    251e:	bd10      	pop	{r4, pc}

00002520 <memcpy>:
    2520:	b510      	push	{r4, lr}
    2522:	1882      	adds	r2, r0, r2
    2524:	4603      	mov	r3, r0
    2526:	e003      	b.n	2530 <memcpy+0x10>
    2528:	f811 4b01 	ldrb.w	r4, [r1], #1
    252c:	f803 4b01 	strb.w	r4, [r3], #1
    2530:	4293      	cmp	r3, r2
    2532:	d3f9      	bcc.n	2528 <memcpy+0x8>
    2534:	bd10      	pop	{r4, pc}

00002536 <memmove>:
    2536:	4281      	cmp	r1, r0
    2538:	b510      	push	{r4, lr}
    253a:	4604      	mov	r4, r0
    253c:	d210      	bcs.n	2560 <memmove+0x2a>
    253e:	188b      	adds	r3, r1, r2
    2540:	4298      	cmp	r0, r3
    2542:	d20d      	bcs.n	2560 <memmove+0x2a>
    2544:	4619      	mov	r1, r3
    2546:	1883      	adds	r3, r0, r2
    2548:	e003      	b.n	2552 <memmove+0x1c>
    254a:	f811 4d01 	ldrb.w	r4, [r1, #-1]!
    254e:	f803 4d01 	strb.w	r4, [r3, #-1]!
    2552:	3a01      	subs	r2, #1
    2554:	d2f9      	bcs.n	254a <memmove+0x14>
    2556:	bd10      	pop	{r4, pc}
    2558:	f811 3b01 	ldrb.w	r3, [r1], #1
    255c:	f804 3b01 	strb.w	r3, [r4], #1
    2560:	3a01      	subs	r2, #1
    2562:	d2f9      	bcs.n	2558 <memmove+0x22>
    2564:	bd10      	pop	{r4, pc}

00002566 <__malloc_lock>:
    2566:	4770      	bx	lr

00002568 <__malloc_unlock>:
    2568:	4770      	bx	lr
	...

0000256c <printf>:
    256c:	b40f      	push	{r0, r1, r2, r3}
    256e:	4b0a      	ldr	r3, [pc, #40]	; (2598 <printf+0x2c>)
    2570:	b513      	push	{r0, r1, r4, lr}
    2572:	681c      	ldr	r4, [r3, #0]
    2574:	b124      	cbz	r4, 2580 <printf+0x14>
    2576:	69a3      	ldr	r3, [r4, #24]
    2578:	b913      	cbnz	r3, 2580 <printf+0x14>
    257a:	4620      	mov	r0, r4
    257c:	f005 f892 	bl	76a4 <__sinit>
    2580:	ab05      	add	r3, sp, #20
    2582:	4620      	mov	r0, r4
    2584:	68a1      	ldr	r1, [r4, #8]
    2586:	9a04      	ldr	r2, [sp, #16]
    2588:	9301      	str	r3, [sp, #4]
    258a:	f002 f95f 	bl	484c <_vfprintf_r>
    258e:	e8bd 401c 	ldmia.w	sp!, {r2, r3, r4, lr}
    2592:	b004      	add	sp, #16
    2594:	4770      	bx	lr
    2596:	bf00      	nop
    2598:	1000010c 	.word	0x1000010c

0000259c <_puts_r>:
    259c:	b530      	push	{r4, r5, lr}
    259e:	4604      	mov	r4, r0
    25a0:	b089      	sub	sp, #36	; 0x24
    25a2:	4608      	mov	r0, r1
    25a4:	460d      	mov	r5, r1
    25a6:	f000 fac5 	bl	2b34 <strlen>
    25aa:	4b16      	ldr	r3, [pc, #88]	; (2604 <_puts_r+0x68>)
    25ac:	9501      	str	r5, [sp, #4]
    25ae:	9303      	str	r3, [sp, #12]
    25b0:	2301      	movs	r3, #1
    25b2:	9304      	str	r3, [sp, #16]
    25b4:	9002      	str	r0, [sp, #8]
    25b6:	18c0      	adds	r0, r0, r3
    25b8:	ab01      	add	r3, sp, #4
    25ba:	9007      	str	r0, [sp, #28]
    25bc:	9305      	str	r3, [sp, #20]
    25be:	2302      	movs	r3, #2
    25c0:	9306      	str	r3, [sp, #24]
    25c2:	b124      	cbz	r4, 25ce <_puts_r+0x32>
    25c4:	69a3      	ldr	r3, [r4, #24]
    25c6:	b913      	cbnz	r3, 25ce <_puts_r+0x32>
    25c8:	4620      	mov	r0, r4
    25ca:	f005 f86b 	bl	76a4 <__sinit>
    25ce:	4b0e      	ldr	r3, [pc, #56]	; (2608 <_puts_r+0x6c>)
    25d0:	681b      	ldr	r3, [r3, #0]
    25d2:	689b      	ldr	r3, [r3, #8]
    25d4:	899a      	ldrh	r2, [r3, #12]
    25d6:	f412 5f00 	tst.w	r2, #8192	; 0x2000
    25da:	d106      	bne.n	25ea <_puts_r+0x4e>
    25dc:	f442 5200 	orr.w	r2, r2, #8192	; 0x2000
    25e0:	819a      	strh	r2, [r3, #12]
    25e2:	6e5a      	ldr	r2, [r3, #100]	; 0x64
    25e4:	f422 5200 	bic.w	r2, r2, #8192	; 0x2000
    25e8:	665a      	str	r2, [r3, #100]	; 0x64
    25ea:	4620      	mov	r0, r4
    25ec:	68a1      	ldr	r1, [r4, #8]
    25ee:	aa05      	add	r2, sp, #20
    25f0:	f7ff fbae 	bl	1d50 <__sfvwrite_r>
    25f4:	2800      	cmp	r0, #0
    25f6:	bf0c      	ite	eq
    25f8:	200a      	moveq	r0, #10
    25fa:	f04f 30ff 	movne.w	r0, #4294967295
    25fe:	b009      	add	sp, #36	; 0x24
    2600:	bd30      	pop	{r4, r5, pc}
    2602:	bf00      	nop
    2604:	0000c040 	.word	0x0000c040
    2608:	1000010c 	.word	0x1000010c

0000260c <puts>:
    260c:	4b02      	ldr	r3, [pc, #8]	; (2618 <puts+0xc>)
    260e:	4601      	mov	r1, r0
    2610:	6818      	ldr	r0, [r3, #0]
    2612:	f7ff bfc3 	b.w	259c <_puts_r>
    2616:	bf00      	nop
    2618:	1000010c 	.word	0x1000010c

0000261c <_realloc_r>:
    261c:	e92d 4ff7 	stmdb	sp!, {r0, r1, r2, r4, r5, r6, r7, r8, r9, sl, fp, lr}
    2620:	4681      	mov	r9, r0
    2622:	4617      	mov	r7, r2
    2624:	460e      	mov	r6, r1
    2626:	b929      	cbnz	r1, 2634 <_realloc_r+0x18>
    2628:	4611      	mov	r1, r2
    262a:	b003      	add	sp, #12
    262c:	e8bd 4ff0 	ldmia.w	sp!, {r4, r5, r6, r7, r8, r9, sl, fp, lr}
    2630:	f7ff bd64 	b.w	20fc <_malloc_r>
    2634:	f107 050b 	add.w	r5, r7, #11
    2638:	f7ff ff95 	bl	2566 <__malloc_lock>
    263c:	f1a6 0a08 	sub.w	sl, r6, #8
    2640:	2d16      	cmp	r5, #22
    2642:	f8da 2004 	ldr.w	r2, [sl, #4]
    2646:	d903      	bls.n	2650 <_realloc_r+0x34>
    2648:	f035 0507 	bics.w	r5, r5, #7
    264c:	d501      	bpl.n	2652 <_realloc_r+0x36>
    264e:	e002      	b.n	2656 <_realloc_r+0x3a>
    2650:	2510      	movs	r5, #16
    2652:	42bd      	cmp	r5, r7
    2654:	d204      	bcs.n	2660 <_realloc_r+0x44>
    2656:	230c      	movs	r3, #12
    2658:	2700      	movs	r7, #0
    265a:	f8c9 3000 	str.w	r3, [r9]
    265e:	e155      	b.n	290c <_realloc_r+0x2f0>
    2660:	f022 0b03 	bic.w	fp, r2, #3
    2664:	45ab      	cmp	fp, r5
    2666:	f280 8126 	bge.w	28b6 <_realloc_r+0x29a>
    266a:	4b9f      	ldr	r3, [pc, #636]	; (28e8 <_realloc_r+0x2cc>)
    266c:	eb0a 010b 	add.w	r1, sl, fp
    2670:	f8d3 e008 	ldr.w	lr, [r3, #8]
    2674:	4571      	cmp	r1, lr
    2676:	d007      	beq.n	2688 <_realloc_r+0x6c>
    2678:	6848      	ldr	r0, [r1, #4]
    267a:	f020 0001 	bic.w	r0, r0, #1
    267e:	1808      	adds	r0, r1, r0
    2680:	6840      	ldr	r0, [r0, #4]
    2682:	f010 0f01 	tst.w	r0, #1
    2686:	d125      	bne.n	26d4 <_realloc_r+0xb8>
    2688:	6848      	ldr	r0, [r1, #4]
    268a:	4571      	cmp	r1, lr
    268c:	f020 0003 	bic.w	r0, r0, #3
    2690:	eb00 080b 	add.w	r8, r0, fp
    2694:	d117      	bne.n	26c6 <_realloc_r+0xaa>
    2696:	f105 0410 	add.w	r4, r5, #16
    269a:	45a0      	cmp	r8, r4
    269c:	db1c      	blt.n	26d8 <_realloc_r+0xbc>
    269e:	eb0a 0205 	add.w	r2, sl, r5
    26a2:	ebc5 0808 	rsb	r8, r5, r8
    26a6:	609a      	str	r2, [r3, #8]
    26a8:	f048 0301 	orr.w	r3, r8, #1
    26ac:	6053      	str	r3, [r2, #4]
    26ae:	4648      	mov	r0, r9
    26b0:	f8da 3004 	ldr.w	r3, [sl, #4]
    26b4:	4637      	mov	r7, r6
    26b6:	f003 0301 	and.w	r3, r3, #1
    26ba:	431d      	orrs	r5, r3
    26bc:	f8ca 5004 	str.w	r5, [sl, #4]
    26c0:	f7ff ff52 	bl	2568 <__malloc_unlock>
    26c4:	e122      	b.n	290c <_realloc_r+0x2f0>
    26c6:	45a8      	cmp	r8, r5
    26c8:	db06      	blt.n	26d8 <_realloc_r+0xbc>
    26ca:	68cb      	ldr	r3, [r1, #12]
    26cc:	688a      	ldr	r2, [r1, #8]
    26ce:	60d3      	str	r3, [r2, #12]
    26d0:	609a      	str	r2, [r3, #8]
    26d2:	e0f1      	b.n	28b8 <_realloc_r+0x29c>
    26d4:	2000      	movs	r0, #0
    26d6:	4601      	mov	r1, r0
    26d8:	f012 0f01 	tst.w	r2, #1
    26dc:	f040 809c 	bne.w	2818 <_realloc_r+0x1fc>
    26e0:	f856 4c08 	ldr.w	r4, [r6, #-8]
    26e4:	ebc4 040a 	rsb	r4, r4, sl
    26e8:	6862      	ldr	r2, [r4, #4]
    26ea:	f022 0203 	bic.w	r2, r2, #3
    26ee:	2900      	cmp	r1, #0
    26f0:	d057      	beq.n	27a2 <_realloc_r+0x186>
    26f2:	4571      	cmp	r1, lr
    26f4:	eb02 080b 	add.w	r8, r2, fp
    26f8:	d14b      	bne.n	2792 <_realloc_r+0x176>
    26fa:	4480      	add	r8, r0
    26fc:	f105 0110 	add.w	r1, r5, #16
    2700:	4588      	cmp	r8, r1
    2702:	db4e      	blt.n	27a2 <_realloc_r+0x186>
    2704:	4627      	mov	r7, r4
    2706:	68e2      	ldr	r2, [r4, #12]
    2708:	f857 1f08 	ldr.w	r1, [r7, #8]!
    270c:	60ca      	str	r2, [r1, #12]
    270e:	6091      	str	r1, [r2, #8]
    2710:	f1ab 0204 	sub.w	r2, fp, #4
    2714:	2a24      	cmp	r2, #36	; 0x24
    2716:	d829      	bhi.n	276c <_realloc_r+0x150>
    2718:	2a13      	cmp	r2, #19
    271a:	4639      	mov	r1, r7
    271c:	d91b      	bls.n	2756 <_realloc_r+0x13a>
    271e:	4630      	mov	r0, r6
    2720:	f850 1b04 	ldr.w	r1, [r0], #4
    2724:	60a1      	str	r1, [r4, #8]
    2726:	6871      	ldr	r1, [r6, #4]
    2728:	1d06      	adds	r6, r0, #4
    272a:	2a1b      	cmp	r2, #27
    272c:	60e1      	str	r1, [r4, #12]
    272e:	f104 0110 	add.w	r1, r4, #16
    2732:	d910      	bls.n	2756 <_realloc_r+0x13a>
    2734:	6841      	ldr	r1, [r0, #4]
    2736:	1d30      	adds	r0, r6, #4
    2738:	6121      	str	r1, [r4, #16]
    273a:	6871      	ldr	r1, [r6, #4]
    273c:	3608      	adds	r6, #8
    273e:	2a24      	cmp	r2, #36	; 0x24
    2740:	6161      	str	r1, [r4, #20]
    2742:	f104 0118 	add.w	r1, r4, #24
    2746:	d106      	bne.n	2756 <_realloc_r+0x13a>
    2748:	6842      	ldr	r2, [r0, #4]
    274a:	f104 0120 	add.w	r1, r4, #32
    274e:	61a2      	str	r2, [r4, #24]
    2750:	6872      	ldr	r2, [r6, #4]
    2752:	3608      	adds	r6, #8
    2754:	61e2      	str	r2, [r4, #28]
    2756:	4630      	mov	r0, r6
    2758:	460a      	mov	r2, r1
    275a:	f850 eb04 	ldr.w	lr, [r0], #4
    275e:	f842 eb04 	str.w	lr, [r2], #4
    2762:	6876      	ldr	r6, [r6, #4]
    2764:	604e      	str	r6, [r1, #4]
    2766:	6841      	ldr	r1, [r0, #4]
    2768:	6051      	str	r1, [r2, #4]
    276a:	e005      	b.n	2778 <_realloc_r+0x15c>
    276c:	4638      	mov	r0, r7
    276e:	4631      	mov	r1, r6
    2770:	9301      	str	r3, [sp, #4]
    2772:	f7ff fee0 	bl	2536 <memmove>
    2776:	9b01      	ldr	r3, [sp, #4]
    2778:	1962      	adds	r2, r4, r5
    277a:	ebc5 0808 	rsb	r8, r5, r8
    277e:	609a      	str	r2, [r3, #8]
    2780:	f048 0301 	orr.w	r3, r8, #1
    2784:	6053      	str	r3, [r2, #4]
    2786:	6863      	ldr	r3, [r4, #4]
    2788:	f003 0301 	and.w	r3, r3, #1
    278c:	431d      	orrs	r5, r3
    278e:	6065      	str	r5, [r4, #4]
    2790:	e08d      	b.n	28ae <_realloc_r+0x292>
    2792:	4480      	add	r8, r0
    2794:	45a8      	cmp	r8, r5
    2796:	db04      	blt.n	27a2 <_realloc_r+0x186>
    2798:	68cb      	ldr	r3, [r1, #12]
    279a:	688a      	ldr	r2, [r1, #8]
    279c:	60d3      	str	r3, [r2, #12]
    279e:	609a      	str	r2, [r3, #8]
    27a0:	e003      	b.n	27aa <_realloc_r+0x18e>
    27a2:	eb02 080b 	add.w	r8, r2, fp
    27a6:	45a8      	cmp	r8, r5
    27a8:	db36      	blt.n	2818 <_realloc_r+0x1fc>
    27aa:	4620      	mov	r0, r4
    27ac:	68e3      	ldr	r3, [r4, #12]
    27ae:	f850 2f08 	ldr.w	r2, [r0, #8]!
    27b2:	60d3      	str	r3, [r2, #12]
    27b4:	609a      	str	r2, [r3, #8]
    27b6:	f1ab 0204 	sub.w	r2, fp, #4
    27ba:	2a24      	cmp	r2, #36	; 0x24
    27bc:	d828      	bhi.n	2810 <_realloc_r+0x1f4>
    27be:	2a13      	cmp	r2, #19
    27c0:	d91b      	bls.n	27fa <_realloc_r+0x1de>
    27c2:	4633      	mov	r3, r6
    27c4:	f104 0010 	add.w	r0, r4, #16
    27c8:	f853 1b04 	ldr.w	r1, [r3], #4
    27cc:	60a1      	str	r1, [r4, #8]
    27ce:	6871      	ldr	r1, [r6, #4]
    27d0:	1d1e      	adds	r6, r3, #4
    27d2:	2a1b      	cmp	r2, #27
    27d4:	60e1      	str	r1, [r4, #12]
    27d6:	d910      	bls.n	27fa <_realloc_r+0x1de>
    27d8:	685b      	ldr	r3, [r3, #4]
    27da:	f104 0018 	add.w	r0, r4, #24
    27de:	6123      	str	r3, [r4, #16]
    27e0:	1d33      	adds	r3, r6, #4
    27e2:	6871      	ldr	r1, [r6, #4]
    27e4:	3608      	adds	r6, #8
    27e6:	2a24      	cmp	r2, #36	; 0x24
    27e8:	6161      	str	r1, [r4, #20]
    27ea:	d106      	bne.n	27fa <_realloc_r+0x1de>
    27ec:	685b      	ldr	r3, [r3, #4]
    27ee:	f104 0020 	add.w	r0, r4, #32
    27f2:	61a3      	str	r3, [r4, #24]
    27f4:	6873      	ldr	r3, [r6, #4]
    27f6:	3608      	adds	r6, #8
    27f8:	61e3      	str	r3, [r4, #28]
    27fa:	4632      	mov	r2, r6
    27fc:	4603      	mov	r3, r0
    27fe:	f852 1b04 	ldr.w	r1, [r2], #4
    2802:	f843 1b04 	str.w	r1, [r3], #4
    2806:	6871      	ldr	r1, [r6, #4]
    2808:	6041      	str	r1, [r0, #4]
    280a:	6852      	ldr	r2, [r2, #4]
    280c:	605a      	str	r2, [r3, #4]
    280e:	e054      	b.n	28ba <_realloc_r+0x29e>
    2810:	4631      	mov	r1, r6
    2812:	f7ff fe90 	bl	2536 <memmove>
    2816:	e050      	b.n	28ba <_realloc_r+0x29e>
    2818:	4639      	mov	r1, r7
    281a:	4648      	mov	r0, r9
    281c:	f7ff fc6e 	bl	20fc <_malloc_r>
    2820:	4607      	mov	r7, r0
    2822:	2800      	cmp	r0, #0
    2824:	d043      	beq.n	28ae <_realloc_r+0x292>
    2826:	f8da 2004 	ldr.w	r2, [sl, #4]
    282a:	f1a0 0308 	sub.w	r3, r0, #8
    282e:	f022 0201 	bic.w	r2, r2, #1
    2832:	4452      	add	r2, sl
    2834:	4293      	cmp	r3, r2
    2836:	d105      	bne.n	2844 <_realloc_r+0x228>
    2838:	f850 3c04 	ldr.w	r3, [r0, #-4]
    283c:	f023 0803 	bic.w	r8, r3, #3
    2840:	44d8      	add	r8, fp
    2842:	e039      	b.n	28b8 <_realloc_r+0x29c>
    2844:	f1ab 0204 	sub.w	r2, fp, #4
    2848:	2a24      	cmp	r2, #36	; 0x24
    284a:	d829      	bhi.n	28a0 <_realloc_r+0x284>
    284c:	2a13      	cmp	r2, #19
    284e:	4631      	mov	r1, r6
    2850:	4603      	mov	r3, r0
    2852:	d91a      	bls.n	288a <_realloc_r+0x26e>
    2854:	4634      	mov	r4, r6
    2856:	f854 3b04 	ldr.w	r3, [r4], #4
    285a:	1d21      	adds	r1, r4, #4
    285c:	f840 3b04 	str.w	r3, [r0], #4
    2860:	6873      	ldr	r3, [r6, #4]
    2862:	607b      	str	r3, [r7, #4]
    2864:	1d03      	adds	r3, r0, #4
    2866:	2a1b      	cmp	r2, #27
    2868:	d90f      	bls.n	288a <_realloc_r+0x26e>
    286a:	6864      	ldr	r4, [r4, #4]
    286c:	6044      	str	r4, [r0, #4]
    286e:	1d0c      	adds	r4, r1, #4
    2870:	6849      	ldr	r1, [r1, #4]
    2872:	1d18      	adds	r0, r3, #4
    2874:	6059      	str	r1, [r3, #4]
    2876:	3308      	adds	r3, #8
    2878:	1d21      	adds	r1, r4, #4
    287a:	2a24      	cmp	r2, #36	; 0x24
    287c:	d105      	bne.n	288a <_realloc_r+0x26e>
    287e:	6862      	ldr	r2, [r4, #4]
    2880:	6042      	str	r2, [r0, #4]
    2882:	684a      	ldr	r2, [r1, #4]
    2884:	3108      	adds	r1, #8
    2886:	605a      	str	r2, [r3, #4]
    2888:	3308      	adds	r3, #8
    288a:	4608      	mov	r0, r1
    288c:	461a      	mov	r2, r3
    288e:	f850 4b04 	ldr.w	r4, [r0], #4
    2892:	f842 4b04 	str.w	r4, [r2], #4
    2896:	6849      	ldr	r1, [r1, #4]
    2898:	6059      	str	r1, [r3, #4]
    289a:	6843      	ldr	r3, [r0, #4]
    289c:	6053      	str	r3, [r2, #4]
    289e:	e002      	b.n	28a6 <_realloc_r+0x28a>
    28a0:	4631      	mov	r1, r6
    28a2:	f7ff fe48 	bl	2536 <memmove>
    28a6:	4648      	mov	r0, r9
    28a8:	4631      	mov	r1, r6
    28aa:	f005 f82b 	bl	7904 <_free_r>
    28ae:	4648      	mov	r0, r9
    28b0:	f7ff fe5a 	bl	2568 <__malloc_unlock>
    28b4:	e02a      	b.n	290c <_realloc_r+0x2f0>
    28b6:	46d8      	mov	r8, fp
    28b8:	4654      	mov	r4, sl
    28ba:	ebc5 0308 	rsb	r3, r5, r8
    28be:	6862      	ldr	r2, [r4, #4]
    28c0:	2b0f      	cmp	r3, #15
    28c2:	d913      	bls.n	28ec <_realloc_r+0x2d0>
    28c4:	1961      	adds	r1, r4, r5
    28c6:	f002 0201 	and.w	r2, r2, #1
    28ca:	4315      	orrs	r5, r2
    28cc:	f043 0201 	orr.w	r2, r3, #1
    28d0:	18cb      	adds	r3, r1, r3
    28d2:	6065      	str	r5, [r4, #4]
    28d4:	604a      	str	r2, [r1, #4]
    28d6:	4648      	mov	r0, r9
    28d8:	685a      	ldr	r2, [r3, #4]
    28da:	3108      	adds	r1, #8
    28dc:	f042 0201 	orr.w	r2, r2, #1
    28e0:	605a      	str	r2, [r3, #4]
    28e2:	f005 f80f 	bl	7904 <_free_r>
    28e6:	e00c      	b.n	2902 <_realloc_r+0x2e6>
    28e8:	10000110 	.word	0x10000110
    28ec:	eb04 0308 	add.w	r3, r4, r8
    28f0:	f002 0201 	and.w	r2, r2, #1
    28f4:	ea48 0202 	orr.w	r2, r8, r2
    28f8:	6062      	str	r2, [r4, #4]
    28fa:	685a      	ldr	r2, [r3, #4]
    28fc:	f042 0201 	orr.w	r2, r2, #1
    2900:	605a      	str	r2, [r3, #4]
    2902:	4648      	mov	r0, r9
    2904:	f104 0708 	add.w	r7, r4, #8
    2908:	f7ff fe2e 	bl	2568 <__malloc_unlock>
    290c:	4638      	mov	r0, r7
    290e:	b003      	add	sp, #12
    2910:	e8bd 8ff0 	ldmia.w	sp!, {r4, r5, r6, r7, r8, r9, sl, fp, pc}

00002914 <_sbrk_r>:
    2914:	b538      	push	{r3, r4, r5, lr}
    2916:	4605      	mov	r5, r0
    2918:	4c06      	ldr	r4, [pc, #24]	; (2934 <_sbrk_r+0x20>)
    291a:	4608      	mov	r0, r1
    291c:	2300      	movs	r3, #0
    291e:	6023      	str	r3, [r4, #0]
    2920:	f7fd fc94 	bl	24c <_sbrk>
    2924:	f1b0 3fff 	cmp.w	r0, #4294967295
    2928:	d102      	bne.n	2930 <_sbrk_r+0x1c>
    292a:	6823      	ldr	r3, [r4, #0]
    292c:	b103      	cbz	r3, 2930 <_sbrk_r+0x1c>
    292e:	602b      	str	r3, [r5, #0]
    2930:	bd38      	pop	{r3, r4, r5, pc}
    2932:	bf00      	nop
    2934:	10000640 	.word	0x10000640

00002938 <scanf>:
    2938:	b40f      	push	{r0, r1, r2, r3}
    293a:	b513      	push	{r0, r1, r4, lr}
    293c:	4c08      	ldr	r4, [pc, #32]	; (2960 <scanf+0x28>)
    293e:	6820      	ldr	r0, [r4, #0]
    2940:	b118      	cbz	r0, 294a <scanf+0x12>
    2942:	6983      	ldr	r3, [r0, #24]
    2944:	b90b      	cbnz	r3, 294a <scanf+0x12>
    2946:	f004 fead 	bl	76a4 <__sinit>
    294a:	6820      	ldr	r0, [r4, #0]
    294c:	ab05      	add	r3, sp, #20
    294e:	9a04      	ldr	r2, [sp, #16]
    2950:	9301      	str	r3, [sp, #4]
    2952:	6841      	ldr	r1, [r0, #4]
    2954:	f003 f860 	bl	5a18 <__svfscanf_r>
    2958:	e8bd 401c 	ldmia.w	sp!, {r2, r3, r4, lr}
    295c:	b004      	add	sp, #16
    295e:	4770      	bx	lr
    2960:	1000010c 	.word	0x1000010c

00002964 <_raise_r>:
    2964:	291f      	cmp	r1, #31
    2966:	b570      	push	{r4, r5, r6, lr}
    2968:	4605      	mov	r5, r0
    296a:	460c      	mov	r4, r1
    296c:	d904      	bls.n	2978 <_raise_r+0x14>
    296e:	2316      	movs	r3, #22
    2970:	6003      	str	r3, [r0, #0]
    2972:	f04f 30ff 	mov.w	r0, #4294967295
    2976:	bd70      	pop	{r4, r5, r6, pc}
    2978:	6c42      	ldr	r2, [r0, #68]	; 0x44
    297a:	b112      	cbz	r2, 2982 <_raise_r+0x1e>
    297c:	f852 3021 	ldr.w	r3, [r2, r1, lsl #2]
    2980:	b94b      	cbnz	r3, 2996 <_raise_r+0x32>
    2982:	4628      	mov	r0, r5
    2984:	f000 f834 	bl	29f0 <_getpid_r>
    2988:	4622      	mov	r2, r4
    298a:	4601      	mov	r1, r0
    298c:	4628      	mov	r0, r5
    298e:	e8bd 4070 	ldmia.w	sp!, {r4, r5, r6, lr}
    2992:	f000 b81b 	b.w	29cc <_kill_r>
    2996:	2b01      	cmp	r3, #1
    2998:	d00d      	beq.n	29b6 <_raise_r+0x52>
    299a:	f1b3 3fff 	cmp.w	r3, #4294967295
    299e:	d103      	bne.n	29a8 <_raise_r+0x44>
    29a0:	3317      	adds	r3, #23
    29a2:	6003      	str	r3, [r0, #0]
    29a4:	2001      	movs	r0, #1
    29a6:	bd70      	pop	{r4, r5, r6, pc}
    29a8:	2500      	movs	r5, #0
    29aa:	4608      	mov	r0, r1
    29ac:	f842 5021 	str.w	r5, [r2, r1, lsl #2]
    29b0:	4798      	blx	r3
    29b2:	4628      	mov	r0, r5
    29b4:	bd70      	pop	{r4, r5, r6, pc}
    29b6:	2000      	movs	r0, #0
    29b8:	bd70      	pop	{r4, r5, r6, pc}
	...

000029bc <raise>:
    29bc:	4b02      	ldr	r3, [pc, #8]	; (29c8 <raise+0xc>)
    29be:	4601      	mov	r1, r0
    29c0:	6818      	ldr	r0, [r3, #0]
    29c2:	f7ff bfcf 	b.w	2964 <_raise_r>
    29c6:	bf00      	nop
    29c8:	1000010c 	.word	0x1000010c

000029cc <_kill_r>:
    29cc:	b538      	push	{r3, r4, r5, lr}
    29ce:	4605      	mov	r5, r0
    29d0:	4c06      	ldr	r4, [pc, #24]	; (29ec <_kill_r+0x20>)
    29d2:	4608      	mov	r0, r1
    29d4:	4611      	mov	r1, r2
    29d6:	2300      	movs	r3, #0
    29d8:	6023      	str	r3, [r4, #0]
    29da:	f7fd fc29 	bl	230 <_kill>
    29de:	f1b0 3fff 	cmp.w	r0, #4294967295
    29e2:	d102      	bne.n	29ea <_kill_r+0x1e>
    29e4:	6823      	ldr	r3, [r4, #0]
    29e6:	b103      	cbz	r3, 29ea <_kill_r+0x1e>
    29e8:	602b      	str	r3, [r5, #0]
    29ea:	bd38      	pop	{r3, r4, r5, pc}
    29ec:	10000640 	.word	0x10000640

000029f0 <_getpid_r>:
    29f0:	f7fd bc2a 	b.w	248 <_getpid>

000029f4 <sprintf>:
    29f4:	b40e      	push	{r1, r2, r3}
    29f6:	f44f 7102 	mov.w	r1, #520	; 0x208
    29fa:	b500      	push	{lr}
    29fc:	b09c      	sub	sp, #112	; 0x70
    29fe:	ab1d      	add	r3, sp, #116	; 0x74
    2a00:	f8ad 1010 	strh.w	r1, [sp, #16]
    2a04:	f06f 4100 	mvn.w	r1, #2147483648	; 0x80000000
    2a08:	9103      	str	r1, [sp, #12]
    2a0a:	9106      	str	r1, [sp, #24]
    2a0c:	f04f 31ff 	mov.w	r1, #4294967295
    2a10:	f8ad 1012 	strh.w	r1, [sp, #18]
    2a14:	4908      	ldr	r1, [pc, #32]	; (2a38 <sprintf+0x44>)
    2a16:	f853 2b04 	ldr.w	r2, [r3], #4
    2a1a:	9001      	str	r0, [sp, #4]
    2a1c:	9005      	str	r0, [sp, #20]
    2a1e:	6808      	ldr	r0, [r1, #0]
    2a20:	a901      	add	r1, sp, #4
    2a22:	931b      	str	r3, [sp, #108]	; 0x6c
    2a24:	f000 f8a4 	bl	2b70 <_svfprintf_r>
    2a28:	9b01      	ldr	r3, [sp, #4]
    2a2a:	2200      	movs	r2, #0
    2a2c:	701a      	strb	r2, [r3, #0]
    2a2e:	b01c      	add	sp, #112	; 0x70
    2a30:	f85d eb04 	ldr.w	lr, [sp], #4
    2a34:	b003      	add	sp, #12
    2a36:	4770      	bx	lr
    2a38:	1000010c 	.word	0x1000010c

00002a3c <sscanf>:
    2a3c:	b40e      	push	{r1, r2, r3}
    2a3e:	f44f 7201 	mov.w	r2, #516	; 0x204
    2a42:	b530      	push	{r4, r5, lr}
    2a44:	b09c      	sub	sp, #112	; 0x70
    2a46:	ac1f      	add	r4, sp, #124	; 0x7c
    2a48:	f8ad 2010 	strh.w	r2, [sp, #16]
    2a4c:	f854 5b04 	ldr.w	r5, [r4], #4
    2a50:	9001      	str	r0, [sp, #4]
    2a52:	9005      	str	r0, [sp, #20]
    2a54:	f000 f86e 	bl	2b34 <strlen>
    2a58:	4b0b      	ldr	r3, [pc, #44]	; (2a88 <sscanf+0x4c>)
    2a5a:	a901      	add	r1, sp, #4
    2a5c:	462a      	mov	r2, r5
    2a5e:	941b      	str	r4, [sp, #108]	; 0x6c
    2a60:	930a      	str	r3, [sp, #40]	; 0x28
    2a62:	2300      	movs	r3, #0
    2a64:	930e      	str	r3, [sp, #56]	; 0x38
    2a66:	9313      	str	r3, [sp, #76]	; 0x4c
    2a68:	f04f 33ff 	mov.w	r3, #4294967295
    2a6c:	f8ad 3012 	strh.w	r3, [sp, #18]
    2a70:	4b06      	ldr	r3, [pc, #24]	; (2a8c <sscanf+0x50>)
    2a72:	9002      	str	r0, [sp, #8]
    2a74:	9006      	str	r0, [sp, #24]
    2a76:	6818      	ldr	r0, [r3, #0]
    2a78:	4623      	mov	r3, r4
    2a7a:	f001 f8f9 	bl	3c70 <__ssvfscanf_r>
    2a7e:	b01c      	add	sp, #112	; 0x70
    2a80:	e8bd 4030 	ldmia.w	sp!, {r4, r5, lr}
    2a84:	b003      	add	sp, #12
    2a86:	4770      	bx	lr
    2a88:	00002ab3 	.word	0x00002ab3
    2a8c:	1000010c 	.word	0x1000010c

00002a90 <__sread>:
    2a90:	b510      	push	{r4, lr}
    2a92:	460c      	mov	r4, r1
    2a94:	f9b1 100e 	ldrsh.w	r1, [r1, #14]
    2a98:	f005 fd1e 	bl	84d8 <_read_r>
    2a9c:	2800      	cmp	r0, #0
    2a9e:	db03      	blt.n	2aa8 <__sread+0x18>
    2aa0:	6d63      	ldr	r3, [r4, #84]	; 0x54
    2aa2:	181b      	adds	r3, r3, r0
    2aa4:	6563      	str	r3, [r4, #84]	; 0x54
    2aa6:	bd10      	pop	{r4, pc}
    2aa8:	89a3      	ldrh	r3, [r4, #12]
    2aaa:	f423 5380 	bic.w	r3, r3, #4096	; 0x1000
    2aae:	81a3      	strh	r3, [r4, #12]
    2ab0:	bd10      	pop	{r4, pc}

00002ab2 <__seofread>:
    2ab2:	2000      	movs	r0, #0
    2ab4:	4770      	bx	lr

00002ab6 <__swrite>:
    2ab6:	e92d 41f0 	stmdb	sp!, {r4, r5, r6, r7, r8, lr}
    2aba:	461d      	mov	r5, r3
    2abc:	898b      	ldrh	r3, [r1, #12]
    2abe:	4607      	mov	r7, r0
    2ac0:	460c      	mov	r4, r1
    2ac2:	4616      	mov	r6, r2
    2ac4:	f413 7f80 	tst.w	r3, #256	; 0x100
    2ac8:	d005      	beq.n	2ad6 <__swrite+0x20>
    2aca:	f9b1 100e 	ldrsh.w	r1, [r1, #14]
    2ace:	2200      	movs	r2, #0
    2ad0:	2302      	movs	r3, #2
    2ad2:	f005 f839 	bl	7b48 <_lseek_r>
    2ad6:	89a3      	ldrh	r3, [r4, #12]
    2ad8:	4638      	mov	r0, r7
    2ada:	f9b4 100e 	ldrsh.w	r1, [r4, #14]
    2ade:	4632      	mov	r2, r6
    2ae0:	f423 5380 	bic.w	r3, r3, #4096	; 0x1000
    2ae4:	81a3      	strh	r3, [r4, #12]
    2ae6:	462b      	mov	r3, r5
    2ae8:	e8bd 41f0 	ldmia.w	sp!, {r4, r5, r6, r7, r8, lr}
    2aec:	f003 bd82 	b.w	65f4 <_write_r>

00002af0 <__sseek>:
    2af0:	b510      	push	{r4, lr}
    2af2:	460c      	mov	r4, r1
    2af4:	f9b1 100e 	ldrsh.w	r1, [r1, #14]
    2af8:	f005 f826 	bl	7b48 <_lseek_r>
    2afc:	89a3      	ldrh	r3, [r4, #12]
    2afe:	f1b0 3fff 	cmp.w	r0, #4294967295
    2b02:	d103      	bne.n	2b0c <__sseek+0x1c>
    2b04:	f423 5380 	bic.w	r3, r3, #4096	; 0x1000
    2b08:	81a3      	strh	r3, [r4, #12]
    2b0a:	bd10      	pop	{r4, pc}
    2b0c:	f443 5380 	orr.w	r3, r3, #4096	; 0x1000
    2b10:	6560      	str	r0, [r4, #84]	; 0x54
    2b12:	81a3      	strh	r3, [r4, #12]
    2b14:	bd10      	pop	{r4, pc}

00002b16 <__sclose>:
    2b16:	f9b1 100e 	ldrsh.w	r1, [r1, #14]
    2b1a:	f003 be0f 	b.w	673c <_close_r>

00002b1e <strcmp>:
    2b1e:	f810 2b01 	ldrb.w	r2, [r0], #1
    2b22:	f811 3b01 	ldrb.w	r3, [r1], #1
    2b26:	2a01      	cmp	r2, #1
    2b28:	bf28      	it	cs
    2b2a:	429a      	cmpcs	r2, r3
    2b2c:	d0f7      	beq.n	2b1e <strcmp>
    2b2e:	eba2 0003 	sub.w	r0, r2, r3
    2b32:	4770      	bx	lr

00002b34 <strlen>:
    2b34:	4603      	mov	r3, r0
    2b36:	43c0      	mvns	r0, r0
    2b38:	f813 2b01 	ldrb.w	r2, [r3], #1
    2b3c:	2a00      	cmp	r2, #0
    2b3e:	d1fb      	bne.n	2b38 <strlen+0x4>
    2b40:	1818      	adds	r0, r3, r0
    2b42:	4770      	bx	lr

00002b44 <strncmp>:
    2b44:	b570      	push	{r4, r5, r6, lr}
    2b46:	b91a      	cbnz	r2, 2b50 <strncmp+0xc>
    2b48:	e00f      	b.n	2b6a <strncmp+0x26>
    2b4a:	3a01      	subs	r2, #1
    2b4c:	d009      	beq.n	2b62 <strncmp+0x1e>
    2b4e:	b143      	cbz	r3, 2b62 <strncmp+0x1e>
    2b50:	460c      	mov	r4, r1
    2b52:	4605      	mov	r5, r0
    2b54:	b12a      	cbz	r2, 2b62 <strncmp+0x1e>
    2b56:	f810 3b01 	ldrb.w	r3, [r0], #1
    2b5a:	f811 6b01 	ldrb.w	r6, [r1], #1
    2b5e:	42b3      	cmp	r3, r6
    2b60:	d0f3      	beq.n	2b4a <strncmp+0x6>
    2b62:	7828      	ldrb	r0, [r5, #0]
    2b64:	7823      	ldrb	r3, [r4, #0]
    2b66:	1ac0      	subs	r0, r0, r3
    2b68:	bd70      	pop	{r4, r5, r6, pc}
    2b6a:	4610      	mov	r0, r2
    2b6c:	bd70      	pop	{r4, r5, r6, pc}
	...

00002b70 <_svfprintf_r>:
    2b70:	e92d 4ff0 	stmdb	sp!, {r4, r5, r6, r7, r8, r9, sl, fp, lr}
    2b74:	b0bf      	sub	sp, #252	; 0xfc
    2b76:	460f      	mov	r7, r1
    2b78:	461e      	mov	r6, r3
    2b7a:	4615      	mov	r5, r2
    2b7c:	4680      	mov	r8, r0
    2b7e:	f004 ffdf 	bl	7b40 <_localeconv_r>
    2b82:	6800      	ldr	r0, [r0, #0]
    2b84:	9013      	str	r0, [sp, #76]	; 0x4c
    2b86:	f7ff ffd5 	bl	2b34 <strlen>
    2b8a:	89bb      	ldrh	r3, [r7, #12]
    2b8c:	f013 0f80 	tst.w	r3, #128	; 0x80
    2b90:	9012      	str	r0, [sp, #72]	; 0x48
    2b92:	d011      	beq.n	2bb8 <_svfprintf_r+0x48>
    2b94:	693b      	ldr	r3, [r7, #16]
    2b96:	b97b      	cbnz	r3, 2bb8 <_svfprintf_r+0x48>
    2b98:	4640      	mov	r0, r8
    2b9a:	2140      	movs	r1, #64	; 0x40
    2b9c:	f7ff faae 	bl	20fc <_malloc_r>
    2ba0:	6038      	str	r0, [r7, #0]
    2ba2:	6138      	str	r0, [r7, #16]
    2ba4:	b930      	cbnz	r0, 2bb4 <_svfprintf_r+0x44>
    2ba6:	230c      	movs	r3, #12
    2ba8:	3801      	subs	r0, #1
    2baa:	f8c8 3000 	str.w	r3, [r8]
    2bae:	900f      	str	r0, [sp, #60]	; 0x3c
    2bb0:	f001 b856 	b.w	3c60 <_svfprintf_r+0x10f0>
    2bb4:	2340      	movs	r3, #64	; 0x40
    2bb6:	617b      	str	r3, [r7, #20]
    2bb8:	2300      	movs	r3, #0
    2bba:	ac19      	add	r4, sp, #100	; 0x64
    2bbc:	9335      	str	r3, [sp, #212]	; 0xd4
    2bbe:	9433      	str	r4, [sp, #204]	; 0xcc
    2bc0:	9334      	str	r3, [sp, #208]	; 0xd0
    2bc2:	950c      	str	r5, [sp, #48]	; 0x30
    2bc4:	930b      	str	r3, [sp, #44]	; 0x2c
    2bc6:	9310      	str	r3, [sp, #64]	; 0x40
    2bc8:	9311      	str	r3, [sp, #68]	; 0x44
    2bca:	9316      	str	r3, [sp, #88]	; 0x58
    2bcc:	9315      	str	r3, [sp, #84]	; 0x54
    2bce:	930f      	str	r3, [sp, #60]	; 0x3c
    2bd0:	9b0c      	ldr	r3, [sp, #48]	; 0x30
    2bd2:	461d      	mov	r5, r3
    2bd4:	f813 2b01 	ldrb.w	r2, [r3], #1
    2bd8:	b10a      	cbz	r2, 2bde <_svfprintf_r+0x6e>
    2bda:	2a25      	cmp	r2, #37	; 0x25
    2bdc:	d1f9      	bne.n	2bd2 <_svfprintf_r+0x62>
    2bde:	990c      	ldr	r1, [sp, #48]	; 0x30
    2be0:	ebb5 0901 	subs.w	r9, r5, r1
    2be4:	d018      	beq.n	2c18 <_svfprintf_r+0xa8>
    2be6:	9b35      	ldr	r3, [sp, #212]	; 0xd4
    2be8:	6021      	str	r1, [r4, #0]
    2bea:	f8c4 9004 	str.w	r9, [r4, #4]
    2bee:	444b      	add	r3, r9
    2bf0:	9335      	str	r3, [sp, #212]	; 0xd4
    2bf2:	9b34      	ldr	r3, [sp, #208]	; 0xd0
    2bf4:	3301      	adds	r3, #1
    2bf6:	9334      	str	r3, [sp, #208]	; 0xd0
    2bf8:	2b07      	cmp	r3, #7
    2bfa:	dc01      	bgt.n	2c00 <_svfprintf_r+0x90>
    2bfc:	3408      	adds	r4, #8
    2bfe:	e008      	b.n	2c12 <_svfprintf_r+0xa2>
    2c00:	4640      	mov	r0, r8
    2c02:	4639      	mov	r1, r7
    2c04:	aa33      	add	r2, sp, #204	; 0xcc
    2c06:	f006 fdeb 	bl	97e0 <__ssprint_r>
    2c0a:	2800      	cmp	r0, #0
    2c0c:	f041 801f 	bne.w	3c4e <_svfprintf_r+0x10de>
    2c10:	ac19      	add	r4, sp, #100	; 0x64
    2c12:	9a0f      	ldr	r2, [sp, #60]	; 0x3c
    2c14:	444a      	add	r2, r9
    2c16:	920f      	str	r2, [sp, #60]	; 0x3c
    2c18:	782b      	ldrb	r3, [r5, #0]
    2c1a:	2b00      	cmp	r3, #0
    2c1c:	f001 8010 	beq.w	3c40 <_svfprintf_r+0x10d0>
    2c20:	2300      	movs	r3, #0
    2c22:	3501      	adds	r5, #1
    2c24:	950c      	str	r5, [sp, #48]	; 0x30
    2c26:	461d      	mov	r5, r3
    2c28:	f88d 30f7 	strb.w	r3, [sp, #247]	; 0xf7
    2c2c:	f04f 3cff 	mov.w	ip, #4294967295
    2c30:	930d      	str	r3, [sp, #52]	; 0x34
    2c32:	462a      	mov	r2, r5
    2c34:	9b0c      	ldr	r3, [sp, #48]	; 0x30
    2c36:	e005      	b.n	2c44 <_svfprintf_r+0xd4>
    2c38:	460e      	mov	r6, r1
    2c3a:	e003      	b.n	2c44 <_svfprintf_r+0xd4>
    2c3c:	461e      	mov	r6, r3
    2c3e:	f04f 3cff 	mov.w	ip, #4294967295
    2c42:	460b      	mov	r3, r1
    2c44:	f813 9b01 	ldrb.w	r9, [r3], #1
    2c48:	f1a9 0120 	sub.w	r1, r9, #32
    2c4c:	2958      	cmp	r1, #88	; 0x58
    2c4e:	f200 8412 	bhi.w	3476 <_svfprintf_r+0x906>
    2c52:	e8df f011 	tbh	[pc, r1, lsl #1]
    2c56:	0059      	.short	0x0059
    2c58:	04100410 	.word	0x04100410
    2c5c:	0410005f 	.word	0x0410005f
    2c60:	04100410 	.word	0x04100410
    2c64:	04100410 	.word	0x04100410
    2c68:	00620410 	.word	0x00620410
    2c6c:	0410006b 	.word	0x0410006b
    2c70:	006f0068 	.word	0x006f0068
    2c74:	00920410 	.word	0x00920410
    2c78:	00950095 	.word	0x00950095
    2c7c:	00950095 	.word	0x00950095
    2c80:	00950095 	.word	0x00950095
    2c84:	00950095 	.word	0x00950095
    2c88:	04100095 	.word	0x04100095
    2c8c:	04100410 	.word	0x04100410
    2c90:	04100410 	.word	0x04100410
    2c94:	04100410 	.word	0x04100410
    2c98:	04100410 	.word	0x04100410
    2c9c:	00c00410 	.word	0x00c00410
    2ca0:	041000fd 	.word	0x041000fd
    2ca4:	041000fd 	.word	0x041000fd
    2ca8:	04100410 	.word	0x04100410
    2cac:	00a40410 	.word	0x00a40410
    2cb0:	04100410 	.word	0x04100410
    2cb4:	041002a8 	.word	0x041002a8
    2cb8:	04100410 	.word	0x04100410
    2cbc:	04100410 	.word	0x04100410
    2cc0:	04100313 	.word	0x04100313
    2cc4:	03450410 	.word	0x03450410
    2cc8:	04100410 	.word	0x04100410
    2ccc:	04100410 	.word	0x04100410
    2cd0:	04100410 	.word	0x04100410
    2cd4:	04100410 	.word	0x04100410
    2cd8:	04100410 	.word	0x04100410
    2cdc:	00c500b5 	.word	0x00c500b5
    2ce0:	00fd00fd 	.word	0x00fd00fd
    2ce4:	00a700fd 	.word	0x00a700fd
    2ce8:	041000c5 	.word	0x041000c5
    2cec:	00aa0410 	.word	0x00aa0410
    2cf0:	028a0410 	.word	0x028a0410
    2cf4:	02d902ad 	.word	0x02d902ad
    2cf8:	041000b2 	.word	0x041000b2
    2cfc:	041002ed 	.word	0x041002ed
    2d00:	04100318 	.word	0x04100318
    2d04:	03400410 	.word	0x03400410
    2d08:	f89d 10f7 	ldrb.w	r1, [sp, #247]	; 0xf7
    2d0c:	2900      	cmp	r1, #0
    2d0e:	d199      	bne.n	2c44 <_svfprintf_r+0xd4>
    2d10:	3120      	adds	r1, #32
    2d12:	e00c      	b.n	2d2e <_svfprintf_r+0x1be>
    2d14:	f045 0501 	orr.w	r5, r5, #1
    2d18:	e794      	b.n	2c44 <_svfprintf_r+0xd4>
    2d1a:	6832      	ldr	r2, [r6, #0]
    2d1c:	1d31      	adds	r1, r6, #4
    2d1e:	2a00      	cmp	r2, #0
    2d20:	da8a      	bge.n	2c38 <_svfprintf_r+0xc8>
    2d22:	4252      	negs	r2, r2
    2d24:	460e      	mov	r6, r1
    2d26:	f045 0504 	orr.w	r5, r5, #4
    2d2a:	e78b      	b.n	2c44 <_svfprintf_r+0xd4>
    2d2c:	212b      	movs	r1, #43	; 0x2b
    2d2e:	f88d 10f7 	strb.w	r1, [sp, #247]	; 0xf7
    2d32:	e787      	b.n	2c44 <_svfprintf_r+0xd4>
    2d34:	4619      	mov	r1, r3
    2d36:	f811 9b01 	ldrb.w	r9, [r1], #1
    2d3a:	f1b9 0f2a 	cmp.w	r9, #42	; 0x2a
    2d3e:	d003      	beq.n	2d48 <_svfprintf_r+0x1d8>
    2d40:	4619      	mov	r1, r3
    2d42:	f04f 0c00 	mov.w	ip, #0
    2d46:	e010      	b.n	2d6a <_svfprintf_r+0x1fa>
    2d48:	f8d6 c000 	ldr.w	ip, [r6]
    2d4c:	1d33      	adds	r3, r6, #4
    2d4e:	f1bc 0f00 	cmp.w	ip, #0
    2d52:	f6ff af73 	blt.w	2c3c <_svfprintf_r+0xcc>
    2d56:	461e      	mov	r6, r3
    2d58:	460b      	mov	r3, r1
    2d5a:	e773      	b.n	2c44 <_svfprintf_r+0xd4>
    2d5c:	f04f 090a 	mov.w	r9, #10
    2d60:	fb09 0c0c 	mla	ip, r9, ip, r0
    2d64:	f891 9001 	ldrb.w	r9, [r1, #1]
    2d68:	4619      	mov	r1, r3
    2d6a:	f1a9 0030 	sub.w	r0, r9, #48	; 0x30
    2d6e:	3301      	adds	r3, #1
    2d70:	2809      	cmp	r0, #9
    2d72:	d9f3      	bls.n	2d5c <_svfprintf_r+0x1ec>
    2d74:	ea4c 7cec 	orr.w	ip, ip, ip, asr #31
    2d78:	e766      	b.n	2c48 <_svfprintf_r+0xd8>
    2d7a:	f045 0580 	orr.w	r5, r5, #128	; 0x80
    2d7e:	e761      	b.n	2c44 <_svfprintf_r+0xd4>
    2d80:	4619      	mov	r1, r3
    2d82:	2200      	movs	r2, #0
    2d84:	230a      	movs	r3, #10
    2d86:	f1a9 0930 	sub.w	r9, r9, #48	; 0x30
    2d8a:	fb03 9202 	mla	r2, r3, r2, r9
    2d8e:	f811 9b01 	ldrb.w	r9, [r1], #1
    2d92:	f1a9 0030 	sub.w	r0, r9, #48	; 0x30
    2d96:	460b      	mov	r3, r1
    2d98:	2809      	cmp	r0, #9
    2d9a:	d9f3      	bls.n	2d84 <_svfprintf_r+0x214>
    2d9c:	e754      	b.n	2c48 <_svfprintf_r+0xd8>
    2d9e:	f045 0508 	orr.w	r5, r5, #8
    2da2:	e74f      	b.n	2c44 <_svfprintf_r+0xd4>
    2da4:	f045 0540 	orr.w	r5, r5, #64	; 0x40
    2da8:	e74c      	b.n	2c44 <_svfprintf_r+0xd4>
    2daa:	7819      	ldrb	r1, [r3, #0]
    2dac:	296c      	cmp	r1, #108	; 0x6c
    2dae:	d101      	bne.n	2db4 <_svfprintf_r+0x244>
    2db0:	3301      	adds	r3, #1
    2db2:	e002      	b.n	2dba <_svfprintf_r+0x24a>
    2db4:	f045 0510 	orr.w	r5, r5, #16
    2db8:	e744      	b.n	2c44 <_svfprintf_r+0xd4>
    2dba:	f045 0520 	orr.w	r5, r5, #32
    2dbe:	e741      	b.n	2c44 <_svfprintf_r+0xd4>
    2dc0:	930c      	str	r3, [sp, #48]	; 0x30
    2dc2:	f04f 0c00 	mov.w	ip, #0
    2dc6:	6833      	ldr	r3, [r6, #0]
    2dc8:	3604      	adds	r6, #4
    2dca:	920d      	str	r2, [sp, #52]	; 0x34
    2dcc:	f88d c0f7 	strb.w	ip, [sp, #247]	; 0xf7
    2dd0:	f88d 30a4 	strb.w	r3, [sp, #164]	; 0xa4
    2dd4:	e35b      	b.n	348e <_svfprintf_r+0x91e>
    2dd6:	930c      	str	r3, [sp, #48]	; 0x30
    2dd8:	f045 0510 	orr.w	r5, r5, #16
    2ddc:	920d      	str	r2, [sp, #52]	; 0x34
    2dde:	e001      	b.n	2de4 <_svfprintf_r+0x274>
    2de0:	930c      	str	r3, [sp, #48]	; 0x30
    2de2:	920d      	str	r2, [sp, #52]	; 0x34
    2de4:	f015 0f20 	tst.w	r5, #32
    2de8:	d009      	beq.n	2dfe <_svfprintf_r+0x28e>
    2dea:	3607      	adds	r6, #7
    2dec:	f026 0307 	bic.w	r3, r6, #7
    2df0:	f103 0608 	add.w	r6, r3, #8
    2df4:	e9d3 0100 	ldrd	r0, r1, [r3]
    2df8:	e9cd 0108 	strd	r0, r1, [sp, #32]
    2dfc:	e016      	b.n	2e2c <_svfprintf_r+0x2bc>
    2dfe:	f015 0f10 	tst.w	r5, #16
    2e02:	f106 0304 	add.w	r3, r6, #4
    2e06:	d001      	beq.n	2e0c <_svfprintf_r+0x29c>
    2e08:	6832      	ldr	r2, [r6, #0]
    2e0a:	e009      	b.n	2e20 <_svfprintf_r+0x2b0>
    2e0c:	f015 0f40 	tst.w	r5, #64	; 0x40
    2e10:	6832      	ldr	r2, [r6, #0]
    2e12:	d005      	beq.n	2e20 <_svfprintf_r+0x2b0>
    2e14:	b212      	sxth	r2, r2
    2e16:	4610      	mov	r0, r2
    2e18:	17d1      	asrs	r1, r2, #31
    2e1a:	e9cd 0108 	strd	r0, r1, [sp, #32]
    2e1e:	e004      	b.n	2e2a <_svfprintf_r+0x2ba>
    2e20:	4692      	mov	sl, r2
    2e22:	ea4f 7be2 	mov.w	fp, r2, asr #31
    2e26:	e9cd ab08 	strd	sl, fp, [sp, #32]
    2e2a:	461e      	mov	r6, r3
    2e2c:	e9dd 0108 	ldrd	r0, r1, [sp, #32]
    2e30:	2800      	cmp	r0, #0
    2e32:	f171 0100 	sbcs.w	r1, r1, #0
    2e36:	f280 828e 	bge.w	3356 <_svfprintf_r+0x7e6>
    2e3a:	e9dd 2308 	ldrd	r2, r3, [sp, #32]
    2e3e:	4252      	negs	r2, r2
    2e40:	eb63 0343 	sbc.w	r3, r3, r3, lsl #1
    2e44:	e9cd 2308 	strd	r2, r3, [sp, #32]
    2e48:	232d      	movs	r3, #45	; 0x2d
    2e4a:	f88d 30f7 	strb.w	r3, [sp, #247]	; 0xf7
    2e4e:	e282      	b.n	3356 <_svfprintf_r+0x7e6>
    2e50:	930c      	str	r3, [sp, #48]	; 0x30
    2e52:	1df3      	adds	r3, r6, #7
    2e54:	f015 0f08 	tst.w	r5, #8
    2e58:	f023 0307 	bic.w	r3, r3, #7
    2e5c:	920d      	str	r2, [sp, #52]	; 0x34
    2e5e:	f103 0608 	add.w	r6, r3, #8
    2e62:	bf14      	ite	ne
    2e64:	6818      	ldrne	r0, [r3, #0]
    2e66:	6819      	ldreq	r1, [r3, #0]
    2e68:	f8cd 9038 	str.w	r9, [sp, #56]	; 0x38
    2e6c:	bf14      	ite	ne
    2e6e:	9010      	strne	r0, [sp, #64]	; 0x40
    2e70:	9110      	streq	r1, [sp, #64]	; 0x40
    2e72:	685b      	ldr	r3, [r3, #4]
    2e74:	9810      	ldr	r0, [sp, #64]	; 0x40
    2e76:	f8cd c018 	str.w	ip, [sp, #24]
    2e7a:	9311      	str	r3, [sp, #68]	; 0x44
    2e7c:	9911      	ldr	r1, [sp, #68]	; 0x44
    2e7e:	f005 fbd5 	bl	862c <__fpclassifyd>
    2e82:	f8dd c018 	ldr.w	ip, [sp, #24]
    2e86:	2801      	cmp	r0, #1
    2e88:	d119      	bne.n	2ebe <_svfprintf_r+0x34e>
    2e8a:	9810      	ldr	r0, [sp, #64]	; 0x40
    2e8c:	2200      	movs	r2, #0
    2e8e:	9911      	ldr	r1, [sp, #68]	; 0x44
    2e90:	2300      	movs	r3, #0
    2e92:	f008 fb07 	bl	b4a4 <__aeabi_dcmplt>
    2e96:	b110      	cbz	r0, 2e9e <_svfprintf_r+0x32e>
    2e98:	232d      	movs	r3, #45	; 0x2d
    2e9a:	f88d 30f7 	strb.w	r3, [sp, #247]	; 0xf7
    2e9e:	4ba9      	ldr	r3, [pc, #676]	; (3144 <_svfprintf_r+0x5d4>)
    2ea0:	f04f 0c00 	mov.w	ip, #0
    2ea4:	4aa8      	ldr	r2, [pc, #672]	; (3148 <_svfprintf_r+0x5d8>)
    2ea6:	f025 0580 	bic.w	r5, r5, #128	; 0x80
    2eaa:	f04f 0b03 	mov.w	fp, #3
    2eae:	f8cd c020 	str.w	ip, [sp, #32]
    2eb2:	f1b9 0f47 	cmp.w	r9, #71	; 0x47
    2eb6:	bfcc      	ite	gt
    2eb8:	4692      	movgt	sl, r2
    2eba:	469a      	movle	sl, r3
    2ebc:	e2fd      	b.n	34ba <_svfprintf_r+0x94a>
    2ebe:	9810      	ldr	r0, [sp, #64]	; 0x40
    2ec0:	9911      	ldr	r1, [sp, #68]	; 0x44
    2ec2:	f8cd c018 	str.w	ip, [sp, #24]
    2ec6:	f005 fbb1 	bl	862c <__fpclassifyd>
    2eca:	f8dd c018 	ldr.w	ip, [sp, #24]
    2ece:	b958      	cbnz	r0, 2ee8 <_svfprintf_r+0x378>
    2ed0:	4b9e      	ldr	r3, [pc, #632]	; (314c <_svfprintf_r+0x5dc>)
    2ed2:	f025 0580 	bic.w	r5, r5, #128	; 0x80
    2ed6:	4a9e      	ldr	r2, [pc, #632]	; (3150 <_svfprintf_r+0x5e0>)
    2ed8:	f04f 0b03 	mov.w	fp, #3
    2edc:	f1b9 0f47 	cmp.w	r9, #71	; 0x47
    2ee0:	bfcc      	ite	gt
    2ee2:	4692      	movgt	sl, r2
    2ee4:	469a      	movle	sl, r3
    2ee6:	e2dd      	b.n	34a4 <_svfprintf_r+0x934>
    2ee8:	f1bc 3fff 	cmp.w	ip, #4294967295
    2eec:	d00b      	beq.n	2f06 <_svfprintf_r+0x396>
    2eee:	f1b9 0f67 	cmp.w	r9, #103	; 0x67
    2ef2:	d002      	beq.n	2efa <_svfprintf_r+0x38a>
    2ef4:	f1b9 0f47 	cmp.w	r9, #71	; 0x47
    2ef8:	d107      	bne.n	2f0a <_svfprintf_r+0x39a>
    2efa:	f1bc 0f00 	cmp.w	ip, #0
    2efe:	bf08      	it	eq
    2f00:	f04f 0c01 	moveq.w	ip, #1
    2f04:	e001      	b.n	2f0a <_svfprintf_r+0x39a>
    2f06:	f04f 0c06 	mov.w	ip, #6
    2f0a:	9b11      	ldr	r3, [sp, #68]	; 0x44
    2f0c:	f445 7580 	orr.w	r5, r5, #256	; 0x100
    2f10:	2b00      	cmp	r3, #0
    2f12:	da05      	bge.n	2f20 <_svfprintf_r+0x3b0>
    2f14:	f103 4200 	add.w	r2, r3, #2147483648	; 0x80000000
    2f18:	232d      	movs	r3, #45	; 0x2d
    2f1a:	920b      	str	r2, [sp, #44]	; 0x2c
    2f1c:	9314      	str	r3, [sp, #80]	; 0x50
    2f1e:	e003      	b.n	2f28 <_svfprintf_r+0x3b8>
    2f20:	9811      	ldr	r0, [sp, #68]	; 0x44
    2f22:	2100      	movs	r1, #0
    2f24:	9114      	str	r1, [sp, #80]	; 0x50
    2f26:	900b      	str	r0, [sp, #44]	; 0x2c
    2f28:	f1b9 0f66 	cmp.w	r9, #102	; 0x66
    2f2c:	d00b      	beq.n	2f46 <_svfprintf_r+0x3d6>
    2f2e:	f1b9 0f46 	cmp.w	r9, #70	; 0x46
    2f32:	d008      	beq.n	2f46 <_svfprintf_r+0x3d6>
    2f34:	f1b9 0f65 	cmp.w	r9, #101	; 0x65
    2f38:	d002      	beq.n	2f40 <_svfprintf_r+0x3d0>
    2f3a:	f1b9 0f45 	cmp.w	r9, #69	; 0x45
    2f3e:	d105      	bne.n	2f4c <_svfprintf_r+0x3dc>
    2f40:	f10c 0b01 	add.w	fp, ip, #1
    2f44:	e003      	b.n	2f4e <_svfprintf_r+0x3de>
    2f46:	46e3      	mov	fp, ip
    2f48:	2303      	movs	r3, #3
    2f4a:	e001      	b.n	2f50 <_svfprintf_r+0x3e0>
    2f4c:	46e3      	mov	fp, ip
    2f4e:	2302      	movs	r3, #2
    2f50:	9300      	str	r3, [sp, #0]
    2f52:	4640      	mov	r0, r8
    2f54:	ab3c      	add	r3, sp, #240	; 0xf0
    2f56:	9a10      	ldr	r2, [sp, #64]	; 0x40
    2f58:	9302      	str	r3, [sp, #8]
    2f5a:	ab3b      	add	r3, sp, #236	; 0xec
    2f5c:	9303      	str	r3, [sp, #12]
    2f5e:	ab3a      	add	r3, sp, #232	; 0xe8
    2f60:	9304      	str	r3, [sp, #16]
    2f62:	9b0b      	ldr	r3, [sp, #44]	; 0x2c
    2f64:	f8cd c018 	str.w	ip, [sp, #24]
    2f68:	f8cd b004 	str.w	fp, [sp, #4]
    2f6c:	f003 fc8c 	bl	6888 <_dtoa_r>
    2f70:	f1b9 0f67 	cmp.w	r9, #103	; 0x67
    2f74:	f8dd c018 	ldr.w	ip, [sp, #24]
    2f78:	4682      	mov	sl, r0
    2f7a:	d002      	beq.n	2f82 <_svfprintf_r+0x412>
    2f7c:	f1b9 0f47 	cmp.w	r9, #71	; 0x47
    2f80:	d102      	bne.n	2f88 <_svfprintf_r+0x418>
    2f82:	f015 0f01 	tst.w	r5, #1
    2f86:	d034      	beq.n	2ff2 <_svfprintf_r+0x482>
    2f88:	f1b9 0f66 	cmp.w	r9, #102	; 0x66
    2f8c:	eb0a 020b 	add.w	r2, sl, fp
    2f90:	9208      	str	r2, [sp, #32]
    2f92:	d002      	beq.n	2f9a <_svfprintf_r+0x42a>
    2f94:	f1b9 0f46 	cmp.w	r9, #70	; 0x46
    2f98:	d115      	bne.n	2fc6 <_svfprintf_r+0x456>
    2f9a:	f89a 3000 	ldrb.w	r3, [sl]
    2f9e:	2b30      	cmp	r3, #48	; 0x30
    2fa0:	d10d      	bne.n	2fbe <_svfprintf_r+0x44e>
    2fa2:	9810      	ldr	r0, [sp, #64]	; 0x40
    2fa4:	2200      	movs	r2, #0
    2fa6:	990b      	ldr	r1, [sp, #44]	; 0x2c
    2fa8:	2300      	movs	r3, #0
    2faa:	f8cd c018 	str.w	ip, [sp, #24]
    2fae:	f008 fa6f 	bl	b490 <__aeabi_dcmpeq>
    2fb2:	f8dd c018 	ldr.w	ip, [sp, #24]
    2fb6:	b910      	cbnz	r0, 2fbe <_svfprintf_r+0x44e>
    2fb8:	f1cb 0301 	rsb	r3, fp, #1
    2fbc:	933c      	str	r3, [sp, #240]	; 0xf0
    2fbe:	9808      	ldr	r0, [sp, #32]
    2fc0:	9b3c      	ldr	r3, [sp, #240]	; 0xf0
    2fc2:	18c0      	adds	r0, r0, r3
    2fc4:	9008      	str	r0, [sp, #32]
    2fc6:	9810      	ldr	r0, [sp, #64]	; 0x40
    2fc8:	2200      	movs	r2, #0
    2fca:	990b      	ldr	r1, [sp, #44]	; 0x2c
    2fcc:	2300      	movs	r3, #0
    2fce:	f8cd c018 	str.w	ip, [sp, #24]
    2fd2:	f008 fa5d 	bl	b490 <__aeabi_dcmpeq>
    2fd6:	f8dd c018 	ldr.w	ip, [sp, #24]
    2fda:	b130      	cbz	r0, 2fea <_svfprintf_r+0x47a>
    2fdc:	9908      	ldr	r1, [sp, #32]
    2fde:	913a      	str	r1, [sp, #232]	; 0xe8
    2fe0:	e003      	b.n	2fea <_svfprintf_r+0x47a>
    2fe2:	2230      	movs	r2, #48	; 0x30
    2fe4:	f803 2b01 	strb.w	r2, [r3], #1
    2fe8:	933a      	str	r3, [sp, #232]	; 0xe8
    2fea:	9b3a      	ldr	r3, [sp, #232]	; 0xe8
    2fec:	9a08      	ldr	r2, [sp, #32]
    2fee:	4293      	cmp	r3, r2
    2ff0:	d3f7      	bcc.n	2fe2 <_svfprintf_r+0x472>
    2ff2:	9b3a      	ldr	r3, [sp, #232]	; 0xe8
    2ff4:	f1b9 0f67 	cmp.w	r9, #103	; 0x67
    2ff8:	ebca 0303 	rsb	r3, sl, r3
    2ffc:	930b      	str	r3, [sp, #44]	; 0x2c
    2ffe:	9b3c      	ldr	r3, [sp, #240]	; 0xf0
    3000:	d002      	beq.n	3008 <_svfprintf_r+0x498>
    3002:	f1b9 0f47 	cmp.w	r9, #71	; 0x47
    3006:	d108      	bne.n	301a <_svfprintf_r+0x4aa>
    3008:	f113 0f03 	cmn.w	r3, #3
    300c:	469b      	mov	fp, r3
    300e:	db01      	blt.n	3014 <_svfprintf_r+0x4a4>
    3010:	4563      	cmp	r3, ip
    3012:	dd75      	ble.n	3100 <_svfprintf_r+0x590>
    3014:	f1a9 0902 	sub.w	r9, r9, #2
    3018:	e002      	b.n	3020 <_svfprintf_r+0x4b0>
    301a:	f1b9 0f66 	cmp.w	r9, #102	; 0x66
    301e:	d059      	beq.n	30d4 <_svfprintf_r+0x564>
    3020:	f103 3bff 	add.w	fp, r3, #4294967295
    3024:	f88d 90e0 	strb.w	r9, [sp, #224]	; 0xe0
    3028:	f1bb 0f00 	cmp.w	fp, #0
    302c:	f8cd b0f0 	str.w	fp, [sp, #240]	; 0xf0
    3030:	da03      	bge.n	303a <_svfprintf_r+0x4ca>
    3032:	f1cb 0b00 	rsb	fp, fp, #0
    3036:	232d      	movs	r3, #45	; 0x2d
    3038:	e000      	b.n	303c <_svfprintf_r+0x4cc>
    303a:	232b      	movs	r3, #43	; 0x2b
    303c:	f1bb 0f09 	cmp.w	fp, #9
    3040:	f88d 30e1 	strb.w	r3, [sp, #225]	; 0xe1
    3044:	dd2f      	ble.n	30a6 <_svfprintf_r+0x536>
    3046:	f10d 03de 	add.w	r3, sp, #222	; 0xde
    304a:	4652      	mov	r2, sl
    304c:	46cc      	mov	ip, r9
    304e:	46a2      	mov	sl, r4
    3050:	461c      	mov	r4, r3
    3052:	4658      	mov	r0, fp
    3054:	210a      	movs	r1, #10
    3056:	9207      	str	r2, [sp, #28]
    3058:	46a1      	mov	r9, r4
    305a:	f8cd c018 	str.w	ip, [sp, #24]
    305e:	f008 f9b1 	bl	b3c4 <__aeabi_idivmod>
    3062:	4658      	mov	r0, fp
    3064:	3130      	adds	r1, #48	; 0x30
    3066:	f804 1901 	strb.w	r1, [r4], #-1
    306a:	210a      	movs	r1, #10
    306c:	f008 f860 	bl	b130 <__aeabi_idiv>
    3070:	9a07      	ldr	r2, [sp, #28]
    3072:	f8dd c018 	ldr.w	ip, [sp, #24]
    3076:	2809      	cmp	r0, #9
    3078:	4683      	mov	fp, r0
    307a:	dcea      	bgt.n	3052 <_svfprintf_r+0x4e2>
    307c:	4654      	mov	r4, sl
    307e:	4692      	mov	sl, r2
    3080:	464a      	mov	r2, r9
    3082:	f100 0b30 	add.w	fp, r0, #48	; 0x30
    3086:	46e1      	mov	r9, ip
    3088:	f10d 03e2 	add.w	r3, sp, #226	; 0xe2
    308c:	f802 bc01 	strb.w	fp, [r2, #-1]
    3090:	3a01      	subs	r2, #1
    3092:	e003      	b.n	309c <_svfprintf_r+0x52c>
    3094:	f812 1b01 	ldrb.w	r1, [r2], #1
    3098:	f803 1b01 	strb.w	r1, [r3], #1
    309c:	f10d 01df 	add.w	r1, sp, #223	; 0xdf
    30a0:	428a      	cmp	r2, r1
    30a2:	d3f7      	bcc.n	3094 <_svfprintf_r+0x524>
    30a4:	e006      	b.n	30b4 <_svfprintf_r+0x544>
    30a6:	2330      	movs	r3, #48	; 0x30
    30a8:	f88d 30e2 	strb.w	r3, [sp, #226]	; 0xe2
    30ac:	449b      	add	fp, r3
    30ae:	ab39      	add	r3, sp, #228	; 0xe4
    30b0:	f88d b0e3 	strb.w	fp, [sp, #227]	; 0xe3
    30b4:	aa38      	add	r2, sp, #224	; 0xe0
    30b6:	1a9a      	subs	r2, r3, r2
    30b8:	9b0b      	ldr	r3, [sp, #44]	; 0x2c
    30ba:	9215      	str	r2, [sp, #84]	; 0x54
    30bc:	2b01      	cmp	r3, #1
    30be:	eb02 0b03 	add.w	fp, r2, r3
    30c2:	dc02      	bgt.n	30ca <_svfprintf_r+0x55a>
    30c4:	f015 0301 	ands.w	r3, r5, #1
    30c8:	d044      	beq.n	3154 <_svfprintf_r+0x5e4>
    30ca:	2000      	movs	r0, #0
    30cc:	f10b 0b01 	add.w	fp, fp, #1
    30d0:	9008      	str	r0, [sp, #32]
    30d2:	e040      	b.n	3156 <_svfprintf_r+0x5e6>
    30d4:	2b00      	cmp	r3, #0
    30d6:	469b      	mov	fp, r3
    30d8:	dd09      	ble.n	30ee <_svfprintf_r+0x57e>
    30da:	f1bc 0f00 	cmp.w	ip, #0
    30de:	d102      	bne.n	30e6 <_svfprintf_r+0x576>
    30e0:	f015 0f01 	tst.w	r5, #1
    30e4:	d028      	beq.n	3138 <_svfprintf_r+0x5c8>
    30e6:	f103 0b01 	add.w	fp, r3, #1
    30ea:	44e3      	add	fp, ip
    30ec:	e024      	b.n	3138 <_svfprintf_r+0x5c8>
    30ee:	f1bc 0f00 	cmp.w	ip, #0
    30f2:	d102      	bne.n	30fa <_svfprintf_r+0x58a>
    30f4:	f015 0f01 	tst.w	r5, #1
    30f8:	d019      	beq.n	312e <_svfprintf_r+0x5be>
    30fa:	f10c 0b02 	add.w	fp, ip, #2
    30fe:	e01b      	b.n	3138 <_svfprintf_r+0x5c8>
    3100:	990b      	ldr	r1, [sp, #44]	; 0x2c
    3102:	428b      	cmp	r3, r1
    3104:	db07      	blt.n	3116 <_svfprintf_r+0x5a6>
    3106:	f015 0f01 	tst.w	r5, #1
    310a:	d013      	beq.n	3134 <_svfprintf_r+0x5c4>
    310c:	2267      	movs	r2, #103	; 0x67
    310e:	f103 0b01 	add.w	fp, r3, #1
    3112:	920e      	str	r2, [sp, #56]	; 0x38
    3114:	e010      	b.n	3138 <_svfprintf_r+0x5c8>
    3116:	2b00      	cmp	r3, #0
    3118:	bfd8      	it	le
    311a:	f1c3 0b02 	rsble	fp, r3, #2
    311e:	9b0b      	ldr	r3, [sp, #44]	; 0x2c
    3120:	bfc8      	it	gt
    3122:	f04f 0b01 	movgt.w	fp, #1
    3126:	2067      	movs	r0, #103	; 0x67
    3128:	449b      	add	fp, r3
    312a:	900e      	str	r0, [sp, #56]	; 0x38
    312c:	e004      	b.n	3138 <_svfprintf_r+0x5c8>
    312e:	f04f 0b01 	mov.w	fp, #1
    3132:	e001      	b.n	3138 <_svfprintf_r+0x5c8>
    3134:	2167      	movs	r1, #103	; 0x67
    3136:	910e      	str	r1, [sp, #56]	; 0x38
    3138:	9a3c      	ldr	r2, [sp, #240]	; 0xf0
    313a:	f8dd 9038 	ldr.w	r9, [sp, #56]	; 0x38
    313e:	9208      	str	r2, [sp, #32]
    3140:	e009      	b.n	3156 <_svfprintf_r+0x5e6>
    3142:	bf00      	nop
    3144:	0000bf58 	.word	0x0000bf58
    3148:	0000bf5c 	.word	0x0000bf5c
    314c:	0000bf60 	.word	0x0000bf60
    3150:	0000bf64 	.word	0x0000bf64
    3154:	9308      	strvs	r3, [sp, #32]
    3156:	9b14      	ldr	r3, [sp, #80]	; 0x50
    3158:	2b00      	cmp	r3, #0
    315a:	f000 819f 	beq.w	349c <_svfprintf_r+0x92c>
    315e:	232d      	movs	r3, #45	; 0x2d
    3160:	f04f 0c00 	mov.w	ip, #0
    3164:	f88d 30f7 	strb.w	r3, [sp, #247]	; 0xf7
    3168:	e1a7      	b.n	34ba <_svfprintf_r+0x94a>
    316a:	f015 0f20 	tst.w	r5, #32
    316e:	930c      	str	r3, [sp, #48]	; 0x30
    3170:	f106 0104 	add.w	r1, r6, #4
    3174:	d006      	beq.n	3184 <_svfprintf_r+0x614>
    3176:	9d0f      	ldr	r5, [sp, #60]	; 0x3c
    3178:	6830      	ldr	r0, [r6, #0]
    317a:	462a      	mov	r2, r5
    317c:	17eb      	asrs	r3, r5, #31
    317e:	e9c0 2300 	strd	r2, r3, [r0]
    3182:	e00e      	b.n	31a2 <_svfprintf_r+0x632>
    3184:	f015 0f10 	tst.w	r5, #16
    3188:	d003      	beq.n	3192 <_svfprintf_r+0x622>
    318a:	6833      	ldr	r3, [r6, #0]
    318c:	980f      	ldr	r0, [sp, #60]	; 0x3c
    318e:	6018      	str	r0, [r3, #0]
    3190:	e007      	b.n	31a2 <_svfprintf_r+0x632>
    3192:	f015 0f40 	tst.w	r5, #64	; 0x40
    3196:	6833      	ldr	r3, [r6, #0]
    3198:	bf15      	itete	ne
    319a:	9a0f      	ldrne	r2, [sp, #60]	; 0x3c
    319c:	9d0f      	ldreq	r5, [sp, #60]	; 0x3c
    319e:	801a      	strhne	r2, [r3, #0]
    31a0:	601d      	streq	r5, [r3, #0]
    31a2:	460e      	mov	r6, r1
    31a4:	e514      	b.n	2bd0 <_svfprintf_r+0x60>
    31a6:	930c      	str	r3, [sp, #48]	; 0x30
    31a8:	f045 0510 	orr.w	r5, r5, #16
    31ac:	920d      	str	r2, [sp, #52]	; 0x34
    31ae:	e001      	b.n	31b4 <_svfprintf_r+0x644>
    31b0:	930c      	str	r3, [sp, #48]	; 0x30
    31b2:	920d      	str	r2, [sp, #52]	; 0x34
    31b4:	f015 0220 	ands.w	r2, r5, #32
    31b8:	d00a      	beq.n	31d0 <_svfprintf_r+0x660>
    31ba:	3607      	adds	r6, #7
    31bc:	2200      	movs	r2, #0
    31be:	f026 0307 	bic.w	r3, r6, #7
    31c2:	f103 0608 	add.w	r6, r3, #8
    31c6:	e9d3 ab00 	ldrd	sl, fp, [r3]
    31ca:	e9cd ab08 	strd	sl, fp, [sp, #32]
    31ce:	e0be      	b.n	334e <_svfprintf_r+0x7de>
    31d0:	f015 0110 	ands.w	r1, r5, #16
    31d4:	f106 0304 	add.w	r3, r6, #4
    31d8:	d002      	beq.n	31e0 <_svfprintf_r+0x670>
    31da:	6831      	ldr	r1, [r6, #0]
    31dc:	468a      	mov	sl, r1
    31de:	e00d      	b.n	31fc <_svfprintf_r+0x68c>
    31e0:	f015 0240 	ands.w	r2, r5, #64	; 0x40
    31e4:	6830      	ldr	r0, [r6, #0]
    31e6:	d008      	beq.n	31fa <_svfprintf_r+0x68a>
    31e8:	b280      	uxth	r0, r0
    31ea:	f04f 0b00 	mov.w	fp, #0
    31ee:	4682      	mov	sl, r0
    31f0:	461e      	mov	r6, r3
    31f2:	e9cd ab08 	strd	sl, fp, [sp, #32]
    31f6:	460a      	mov	r2, r1
    31f8:	e0a9      	b.n	334e <_svfprintf_r+0x7de>
    31fa:	4682      	mov	sl, r0
    31fc:	f04f 0b00 	mov.w	fp, #0
    3200:	461e      	mov	r6, r3
    3202:	e9cd ab08 	strd	sl, fp, [sp, #32]
    3206:	e0a2      	b.n	334e <_svfprintf_r+0x7de>
    3208:	930c      	str	r3, [sp, #48]	; 0x30
    320a:	2100      	movs	r1, #0
    320c:	6833      	ldr	r3, [r6, #0]
    320e:	f04f 0978 	mov.w	r9, #120	; 0x78
    3212:	920d      	str	r2, [sp, #52]	; 0x34
    3214:	f045 0502 	orr.w	r5, r5, #2
    3218:	4618      	mov	r0, r3
    321a:	e9cd 0108 	strd	r0, r1, [sp, #32]
    321e:	49a3      	ldr	r1, [pc, #652]	; (34ac <_svfprintf_r+0x93c>)
    3220:	2330      	movs	r3, #48	; 0x30
    3222:	f88d 90f5 	strb.w	r9, [sp, #245]	; 0xf5
    3226:	3604      	adds	r6, #4
    3228:	f88d 30f4 	strb.w	r3, [sp, #244]	; 0xf4
    322c:	9116      	str	r1, [sp, #88]	; 0x58
    322e:	e08d      	b.n	334c <_svfprintf_r+0x7dc>
    3230:	930c      	str	r3, [sp, #48]	; 0x30
    3232:	2300      	movs	r3, #0
    3234:	920d      	str	r2, [sp, #52]	; 0x34
    3236:	4632      	mov	r2, r6
    3238:	3604      	adds	r6, #4
    323a:	459c      	cmp	ip, r3
    323c:	f88d 30f7 	strb.w	r3, [sp, #247]	; 0xf7
    3240:	f8d2 a000 	ldr.w	sl, [r2]
    3244:	db13      	blt.n	326e <_svfprintf_r+0x6fe>
    3246:	4619      	mov	r1, r3
    3248:	4662      	mov	r2, ip
    324a:	4650      	mov	r0, sl
    324c:	9307      	str	r3, [sp, #28]
    324e:	f8cd c018 	str.w	ip, [sp, #24]
    3252:	f7ff f957 	bl	2504 <memchr>
    3256:	9b07      	ldr	r3, [sp, #28]
    3258:	f8dd c018 	ldr.w	ip, [sp, #24]
    325c:	2800      	cmp	r0, #0
    325e:	f000 8120 	beq.w	34a2 <_svfprintf_r+0x932>
    3262:	ebca 0b00 	rsb	fp, sl, r0
    3266:	45e3      	cmp	fp, ip
    3268:	f300 8124 	bgt.w	34b4 <_svfprintf_r+0x944>
    326c:	e123      	b.n	34b6 <_svfprintf_r+0x946>
    326e:	4650      	mov	r0, sl
    3270:	9307      	str	r3, [sp, #28]
    3272:	f7ff fc5f 	bl	2b34 <strlen>
    3276:	9b07      	ldr	r3, [sp, #28]
    3278:	4683      	mov	fp, r0
    327a:	e11c      	b.n	34b6 <_svfprintf_r+0x946>
    327c:	930c      	str	r3, [sp, #48]	; 0x30
    327e:	f045 0510 	orr.w	r5, r5, #16
    3282:	920d      	str	r2, [sp, #52]	; 0x34
    3284:	e001      	b.n	328a <_svfprintf_r+0x71a>
    3286:	930c      	str	r3, [sp, #48]	; 0x30
    3288:	920d      	str	r2, [sp, #52]	; 0x34
    328a:	f015 0f20 	tst.w	r5, #32
    328e:	d009      	beq.n	32a4 <_svfprintf_r+0x734>
    3290:	3607      	adds	r6, #7
    3292:	f026 0307 	bic.w	r3, r6, #7
    3296:	f103 0608 	add.w	r6, r3, #8
    329a:	e9d3 ab00 	ldrd	sl, fp, [r3]
    329e:	e9cd ab08 	strd	sl, fp, [sp, #32]
    32a2:	e016      	b.n	32d2 <_svfprintf_r+0x762>
    32a4:	f015 0f10 	tst.w	r5, #16
    32a8:	f106 0304 	add.w	r3, r6, #4
    32ac:	d001      	beq.n	32b2 <_svfprintf_r+0x742>
    32ae:	6832      	ldr	r2, [r6, #0]
    32b0:	e00a      	b.n	32c8 <_svfprintf_r+0x758>
    32b2:	f015 0f40 	tst.w	r5, #64	; 0x40
    32b6:	6832      	ldr	r2, [r6, #0]
    32b8:	d006      	beq.n	32c8 <_svfprintf_r+0x758>
    32ba:	b292      	uxth	r2, r2
    32bc:	f04f 0b00 	mov.w	fp, #0
    32c0:	4692      	mov	sl, r2
    32c2:	e9cd ab08 	strd	sl, fp, [sp, #32]
    32c6:	e003      	b.n	32d0 <_svfprintf_r+0x760>
    32c8:	4610      	mov	r0, r2
    32ca:	2100      	movs	r1, #0
    32cc:	e9cd 0108 	strd	r0, r1, [sp, #32]
    32d0:	461e      	mov	r6, r3
    32d2:	2201      	movs	r2, #1
    32d4:	e03b      	b.n	334e <_svfprintf_r+0x7de>
    32d6:	4975      	ldr	r1, [pc, #468]	; (34ac <_svfprintf_r+0x93c>)
    32d8:	930c      	str	r3, [sp, #48]	; 0x30
    32da:	920d      	str	r2, [sp, #52]	; 0x34
    32dc:	9116      	str	r1, [sp, #88]	; 0x58
    32de:	e003      	b.n	32e8 <_svfprintf_r+0x778>
    32e0:	920d      	str	r2, [sp, #52]	; 0x34
    32e2:	4a73      	ldr	r2, [pc, #460]	; (34b0 <_svfprintf_r+0x940>)
    32e4:	930c      	str	r3, [sp, #48]	; 0x30
    32e6:	9216      	str	r2, [sp, #88]	; 0x58
    32e8:	f015 0f20 	tst.w	r5, #32
    32ec:	d009      	beq.n	3302 <_svfprintf_r+0x792>
    32ee:	3607      	adds	r6, #7
    32f0:	f026 0307 	bic.w	r3, r6, #7
    32f4:	f103 0608 	add.w	r6, r3, #8
    32f8:	e9d3 ab00 	ldrd	sl, fp, [r3]
    32fc:	e9cd ab08 	strd	sl, fp, [sp, #32]
    3300:	e016      	b.n	3330 <_svfprintf_r+0x7c0>
    3302:	f015 0f10 	tst.w	r5, #16
    3306:	f106 0304 	add.w	r3, r6, #4
    330a:	d001      	beq.n	3310 <_svfprintf_r+0x7a0>
    330c:	6832      	ldr	r2, [r6, #0]
    330e:	e00a      	b.n	3326 <_svfprintf_r+0x7b6>
    3310:	f015 0f40 	tst.w	r5, #64	; 0x40
    3314:	6832      	ldr	r2, [r6, #0]
    3316:	d006      	beq.n	3326 <_svfprintf_r+0x7b6>
    3318:	b292      	uxth	r2, r2
    331a:	f04f 0b00 	mov.w	fp, #0
    331e:	4692      	mov	sl, r2
    3320:	e9cd ab08 	strd	sl, fp, [sp, #32]
    3324:	e003      	b.n	332e <_svfprintf_r+0x7be>
    3326:	4610      	mov	r0, r2
    3328:	2100      	movs	r1, #0
    332a:	e9cd 0108 	strd	r0, r1, [sp, #32]
    332e:	461e      	mov	r6, r3
    3330:	f015 0f01 	tst.w	r5, #1
    3334:	d00a      	beq.n	334c <_svfprintf_r+0x7dc>
    3336:	e9dd 2308 	ldrd	r2, r3, [sp, #32]
    333a:	4313      	orrs	r3, r2
    333c:	d006      	beq.n	334c <_svfprintf_r+0x7dc>
    333e:	f045 0502 	orr.w	r5, r5, #2
    3342:	2330      	movs	r3, #48	; 0x30
    3344:	f88d 90f5 	strb.w	r9, [sp, #245]	; 0xf5
    3348:	f88d 30f4 	strb.w	r3, [sp, #244]	; 0xf4
    334c:	2202      	movs	r2, #2
    334e:	2300      	movs	r3, #0
    3350:	f88d 30f7 	strb.w	r3, [sp, #247]	; 0xf7
    3354:	e000      	b.n	3358 <_svfprintf_r+0x7e8>
    3356:	2201      	movs	r2, #1
    3358:	e9dd ab08 	ldrd	sl, fp, [sp, #32]
    335c:	f1bc 0f00 	cmp.w	ip, #0
    3360:	bfa8      	it	ge
    3362:	f025 0580 	bicge.w	r5, r5, #128	; 0x80
    3366:	ea5a 0b0b 	orrs.w	fp, sl, fp
    336a:	d102      	bne.n	3372 <_svfprintf_r+0x802>
    336c:	f1bc 0f00 	cmp.w	ip, #0
    3370:	d06e      	beq.n	3450 <_svfprintf_r+0x8e0>
    3372:	2a01      	cmp	r2, #1
    3374:	d023      	beq.n	33be <_svfprintf_r+0x84e>
    3376:	2a02      	cmp	r2, #2
    3378:	d051      	beq.n	341e <_svfprintf_r+0x8ae>
    337a:	f10d 03cb 	add.w	r3, sp, #203	; 0xcb
    337e:	9808      	ldr	r0, [sp, #32]
    3380:	469a      	mov	sl, r3
    3382:	f000 0207 	and.w	r2, r0, #7
    3386:	3230      	adds	r2, #48	; 0x30
    3388:	701a      	strb	r2, [r3, #0]
    338a:	9908      	ldr	r1, [sp, #32]
    338c:	3b01      	subs	r3, #1
    338e:	f8dd b024 	ldr.w	fp, [sp, #36]	; 0x24
    3392:	08c8      	lsrs	r0, r1, #3
    3394:	ea40 714b 	orr.w	r1, r0, fp, lsl #29
    3398:	ea4f 0bdb 	mov.w	fp, fp, lsr #3
    339c:	9108      	str	r1, [sp, #32]
    339e:	f8cd b024 	str.w	fp, [sp, #36]	; 0x24
    33a2:	e9dd 0108 	ldrd	r0, r1, [sp, #32]
    33a6:	4301      	orrs	r1, r0
    33a8:	d1e9      	bne.n	337e <_svfprintf_r+0x80e>
    33aa:	f015 0f01 	tst.w	r5, #1
    33ae:	d05b      	beq.n	3468 <_svfprintf_r+0x8f8>
    33b0:	2a30      	cmp	r2, #48	; 0x30
    33b2:	d059      	beq.n	3468 <_svfprintf_r+0x8f8>
    33b4:	469a      	mov	sl, r3
    33b6:	2330      	movs	r3, #48	; 0x30
    33b8:	f88a 3000 	strb.w	r3, [sl]
    33bc:	e054      	b.n	3468 <_svfprintf_r+0x8f8>
    33be:	e9dd 2308 	ldrd	r2, r3, [sp, #32]
    33c2:	2a0a      	cmp	r2, #10
    33c4:	f173 0300 	sbcs.w	r3, r3, #0
    33c8:	d208      	bcs.n	33dc <_svfprintf_r+0x86c>
    33ca:	f8dd a020 	ldr.w	sl, [sp, #32]
    33ce:	f10a 0330 	add.w	r3, sl, #48	; 0x30
    33d2:	f10d 0acb 	add.w	sl, sp, #203	; 0xcb
    33d6:	f88d 30cb 	strb.w	r3, [sp, #203]	; 0xcb
    33da:	e045      	b.n	3468 <_svfprintf_r+0x8f8>
    33dc:	f10d 0bcb 	add.w	fp, sp, #203	; 0xcb
    33e0:	4623      	mov	r3, r4
    33e2:	465c      	mov	r4, fp
    33e4:	46cb      	mov	fp, r9
    33e6:	4699      	mov	r9, r3
    33e8:	e9dd 0108 	ldrd	r0, r1, [sp, #32]
    33ec:	220a      	movs	r2, #10
    33ee:	2300      	movs	r3, #0
    33f0:	f8cd c018 	str.w	ip, [sp, #24]
    33f4:	f008 f89e 	bl	b534 <__aeabi_uldivmod>
    33f8:	46a2      	mov	sl, r4
    33fa:	2300      	movs	r3, #0
    33fc:	3230      	adds	r2, #48	; 0x30
    33fe:	f804 2901 	strb.w	r2, [r4], #-1
    3402:	e9dd 0108 	ldrd	r0, r1, [sp, #32]
    3406:	220a      	movs	r2, #10
    3408:	f008 f894 	bl	b534 <__aeabi_uldivmod>
    340c:	f8dd c018 	ldr.w	ip, [sp, #24]
    3410:	e9cd 0108 	strd	r0, r1, [sp, #32]
    3414:	4308      	orrs	r0, r1
    3416:	d1e7      	bne.n	33e8 <_svfprintf_r+0x878>
    3418:	464c      	mov	r4, r9
    341a:	46d9      	mov	r9, fp
    341c:	e024      	b.n	3468 <_svfprintf_r+0x8f8>
    341e:	f10d 03cb 	add.w	r3, sp, #203	; 0xcb
    3422:	9908      	ldr	r1, [sp, #32]
    3424:	469a      	mov	sl, r3
    3426:	f8dd b058 	ldr.w	fp, [sp, #88]	; 0x58
    342a:	f001 020f 	and.w	r2, r1, #15
    342e:	f81b 2002 	ldrb.w	r2, [fp, r2]
    3432:	f803 2901 	strb.w	r2, [r3], #-1
    3436:	9908      	ldr	r1, [sp, #32]
    3438:	9a09      	ldr	r2, [sp, #36]	; 0x24
    343a:	0908      	lsrs	r0, r1, #4
    343c:	ea40 7102 	orr.w	r1, r0, r2, lsl #28
    3440:	0912      	lsrs	r2, r2, #4
    3442:	9108      	str	r1, [sp, #32]
    3444:	9209      	str	r2, [sp, #36]	; 0x24
    3446:	e9dd 0108 	ldrd	r0, r1, [sp, #32]
    344a:	4301      	orrs	r1, r0
    344c:	d1e9      	bne.n	3422 <_svfprintf_r+0x8b2>
    344e:	e00b      	b.n	3468 <_svfprintf_r+0x8f8>
    3450:	b942      	cbnz	r2, 3464 <_svfprintf_r+0x8f4>
    3452:	f015 0f01 	tst.w	r5, #1
    3456:	d005      	beq.n	3464 <_svfprintf_r+0x8f4>
    3458:	f10d 0af8 	add.w	sl, sp, #248	; 0xf8
    345c:	2330      	movs	r3, #48	; 0x30
    345e:	f80a 3d2d 	strb.w	r3, [sl, #-45]!
    3462:	e001      	b.n	3468 <_svfprintf_r+0x8f8>
    3464:	f10d 0acc 	add.w	sl, sp, #204	; 0xcc
    3468:	f10d 0bcc 	add.w	fp, sp, #204	; 0xcc
    346c:	2200      	movs	r2, #0
    346e:	ebca 0b0b 	rsb	fp, sl, fp
    3472:	9208      	str	r2, [sp, #32]
    3474:	e021      	b.n	34ba <_svfprintf_r+0x94a>
    3476:	930c      	str	r3, [sp, #48]	; 0x30
    3478:	920d      	str	r2, [sp, #52]	; 0x34
    347a:	f1b9 0f00 	cmp.w	r9, #0
    347e:	f000 83df 	beq.w	3c40 <_svfprintf_r+0x10d0>
    3482:	f04f 0c00 	mov.w	ip, #0
    3486:	f88d 90a4 	strb.w	r9, [sp, #164]	; 0xa4
    348a:	f88d c0f7 	strb.w	ip, [sp, #247]	; 0xf7
    348e:	f04f 0b01 	mov.w	fp, #1
    3492:	f8cd c020 	str.w	ip, [sp, #32]
    3496:	f10d 0aa4 	add.w	sl, sp, #164	; 0xa4
    349a:	e00e      	b.n	34ba <_svfprintf_r+0x94a>
    349c:	f8dd c050 	ldr.w	ip, [sp, #80]	; 0x50
    34a0:	e00b      	b.n	34ba <_svfprintf_r+0x94a>
    34a2:	46e3      	mov	fp, ip
    34a4:	4684      	mov	ip, r0
    34a6:	9008      	str	r0, [sp, #32]
    34a8:	e007      	b.n	34ba <_svfprintf_r+0x94a>
    34aa:	bf00      	nop
    34ac:	0000bf79 	.word	0x0000bf79
    34b0:	0000bf68 	.word	0x0000bf68
    34b4:	46e3      	mov	fp, ip
    34b6:	469c      	mov	ip, r3
    34b8:	9308      	str	r3, [sp, #32]
    34ba:	45e3      	cmp	fp, ip
    34bc:	bfac      	ite	ge
    34be:	465b      	movge	r3, fp
    34c0:	4663      	movlt	r3, ip
    34c2:	930e      	str	r3, [sp, #56]	; 0x38
    34c4:	f89d 30f7 	ldrb.w	r3, [sp, #247]	; 0xf7
    34c8:	b113      	cbz	r3, 34d0 <_svfprintf_r+0x960>
    34ca:	980e      	ldr	r0, [sp, #56]	; 0x38
    34cc:	3001      	adds	r0, #1
    34ce:	900e      	str	r0, [sp, #56]	; 0x38
    34d0:	f015 0102 	ands.w	r1, r5, #2
    34d4:	9114      	str	r1, [sp, #80]	; 0x50
    34d6:	d002      	beq.n	34de <_svfprintf_r+0x96e>
    34d8:	9a0e      	ldr	r2, [sp, #56]	; 0x38
    34da:	3202      	adds	r2, #2
    34dc:	920e      	str	r2, [sp, #56]	; 0x38
    34de:	f015 0384 	ands.w	r3, r5, #132	; 0x84
    34e2:	9317      	str	r3, [sp, #92]	; 0x5c
    34e4:	d146      	bne.n	3574 <_svfprintf_r+0xa04>
    34e6:	980d      	ldr	r0, [sp, #52]	; 0x34
    34e8:	990e      	ldr	r1, [sp, #56]	; 0x38
    34ea:	1a43      	subs	r3, r0, r1
    34ec:	2b00      	cmp	r3, #0
    34ee:	dc1b      	bgt.n	3528 <_svfprintf_r+0x9b8>
    34f0:	e040      	b.n	3574 <_svfprintf_r+0xa04>
    34f2:	601a      	str	r2, [r3, #0]
    34f4:	2210      	movs	r2, #16
    34f6:	1889      	adds	r1, r1, r2
    34f8:	605a      	str	r2, [r3, #4]
    34fa:	9a34      	ldr	r2, [sp, #208]	; 0xd0
    34fc:	9135      	str	r1, [sp, #212]	; 0xd4
    34fe:	3201      	adds	r2, #1
    3500:	9234      	str	r2, [sp, #208]	; 0xd0
    3502:	2a07      	cmp	r2, #7
    3504:	dc01      	bgt.n	350a <_svfprintf_r+0x99a>
    3506:	3308      	adds	r3, #8
    3508:	e00c      	b.n	3524 <_svfprintf_r+0x9b4>
    350a:	4640      	mov	r0, r8
    350c:	4639      	mov	r1, r7
    350e:	aa33      	add	r2, sp, #204	; 0xcc
    3510:	f8cd c018 	str.w	ip, [sp, #24]
    3514:	f006 f964 	bl	97e0 <__ssprint_r>
    3518:	f8dd c018 	ldr.w	ip, [sp, #24]
    351c:	2800      	cmp	r0, #0
    351e:	f040 8396 	bne.w	3c4e <_svfprintf_r+0x10de>
    3522:	ab19      	add	r3, sp, #100	; 0x64
    3524:	3d10      	subs	r5, #16
    3526:	e004      	b.n	3532 <_svfprintf_r+0x9c2>
    3528:	462a      	mov	r2, r5
    352a:	461d      	mov	r5, r3
    352c:	4623      	mov	r3, r4
    352e:	464c      	mov	r4, r9
    3530:	4691      	mov	r9, r2
    3532:	2d10      	cmp	r5, #16
    3534:	9935      	ldr	r1, [sp, #212]	; 0xd4
    3536:	4a93      	ldr	r2, [pc, #588]	; (3784 <_svfprintf_r+0xc14>)
    3538:	dcdb      	bgt.n	34f2 <_svfprintf_r+0x982>
    353a:	4648      	mov	r0, r9
    353c:	46a1      	mov	r9, r4
    353e:	461c      	mov	r4, r3
    3540:	462b      	mov	r3, r5
    3542:	4605      	mov	r5, r0
    3544:	6063      	str	r3, [r4, #4]
    3546:	18cb      	adds	r3, r1, r3
    3548:	6022      	str	r2, [r4, #0]
    354a:	9335      	str	r3, [sp, #212]	; 0xd4
    354c:	9b34      	ldr	r3, [sp, #208]	; 0xd0
    354e:	3301      	adds	r3, #1
    3550:	9334      	str	r3, [sp, #208]	; 0xd0
    3552:	2b07      	cmp	r3, #7
    3554:	dc01      	bgt.n	355a <_svfprintf_r+0x9ea>
    3556:	3408      	adds	r4, #8
    3558:	e00c      	b.n	3574 <_svfprintf_r+0xa04>
    355a:	4640      	mov	r0, r8
    355c:	4639      	mov	r1, r7
    355e:	aa33      	add	r2, sp, #204	; 0xcc
    3560:	f8cd c018 	str.w	ip, [sp, #24]
    3564:	f006 f93c 	bl	97e0 <__ssprint_r>
    3568:	f8dd c018 	ldr.w	ip, [sp, #24]
    356c:	2800      	cmp	r0, #0
    356e:	f040 836e 	bne.w	3c4e <_svfprintf_r+0x10de>
    3572:	ac19      	add	r4, sp, #100	; 0x64
    3574:	f89d 30f7 	ldrb.w	r3, [sp, #247]	; 0xf7
    3578:	b1db      	cbz	r3, 35b2 <_svfprintf_r+0xa42>
    357a:	f10d 03f7 	add.w	r3, sp, #247	; 0xf7
    357e:	6023      	str	r3, [r4, #0]
    3580:	2301      	movs	r3, #1
    3582:	6063      	str	r3, [r4, #4]
    3584:	9b35      	ldr	r3, [sp, #212]	; 0xd4
    3586:	3301      	adds	r3, #1
    3588:	9335      	str	r3, [sp, #212]	; 0xd4
    358a:	9b34      	ldr	r3, [sp, #208]	; 0xd0
    358c:	3301      	adds	r3, #1
    358e:	9334      	str	r3, [sp, #208]	; 0xd0
    3590:	2b07      	cmp	r3, #7
    3592:	dc01      	bgt.n	3598 <_svfprintf_r+0xa28>
    3594:	3408      	adds	r4, #8
    3596:	e00c      	b.n	35b2 <_svfprintf_r+0xa42>
    3598:	4640      	mov	r0, r8
    359a:	4639      	mov	r1, r7
    359c:	aa33      	add	r2, sp, #204	; 0xcc
    359e:	f8cd c018 	str.w	ip, [sp, #24]
    35a2:	f006 f91d 	bl	97e0 <__ssprint_r>
    35a6:	f8dd c018 	ldr.w	ip, [sp, #24]
    35aa:	2800      	cmp	r0, #0
    35ac:	f040 834f 	bne.w	3c4e <_svfprintf_r+0x10de>
    35b0:	ac19      	add	r4, sp, #100	; 0x64
    35b2:	9a14      	ldr	r2, [sp, #80]	; 0x50
    35b4:	b1d2      	cbz	r2, 35ec <_svfprintf_r+0xa7c>
    35b6:	ab3d      	add	r3, sp, #244	; 0xf4
    35b8:	6023      	str	r3, [r4, #0]
    35ba:	2302      	movs	r3, #2
    35bc:	6063      	str	r3, [r4, #4]
    35be:	9b35      	ldr	r3, [sp, #212]	; 0xd4
    35c0:	3302      	adds	r3, #2
    35c2:	9335      	str	r3, [sp, #212]	; 0xd4
    35c4:	9b34      	ldr	r3, [sp, #208]	; 0xd0
    35c6:	3301      	adds	r3, #1
    35c8:	9334      	str	r3, [sp, #208]	; 0xd0
    35ca:	2b07      	cmp	r3, #7
    35cc:	dc01      	bgt.n	35d2 <_svfprintf_r+0xa62>
    35ce:	3408      	adds	r4, #8
    35d0:	e00c      	b.n	35ec <_svfprintf_r+0xa7c>
    35d2:	4640      	mov	r0, r8
    35d4:	4639      	mov	r1, r7
    35d6:	aa33      	add	r2, sp, #204	; 0xcc
    35d8:	f8cd c018 	str.w	ip, [sp, #24]
    35dc:	f006 f900 	bl	97e0 <__ssprint_r>
    35e0:	f8dd c018 	ldr.w	ip, [sp, #24]
    35e4:	2800      	cmp	r0, #0
    35e6:	f040 8332 	bne.w	3c4e <_svfprintf_r+0x10de>
    35ea:	ac19      	add	r4, sp, #100	; 0x64
    35ec:	9b17      	ldr	r3, [sp, #92]	; 0x5c
    35ee:	2b80      	cmp	r3, #128	; 0x80
    35f0:	d146      	bne.n	3680 <_svfprintf_r+0xb10>
    35f2:	980d      	ldr	r0, [sp, #52]	; 0x34
    35f4:	990e      	ldr	r1, [sp, #56]	; 0x38
    35f6:	1a43      	subs	r3, r0, r1
    35f8:	2b00      	cmp	r3, #0
    35fa:	dc1b      	bgt.n	3634 <_svfprintf_r+0xac4>
    35fc:	e040      	b.n	3680 <_svfprintf_r+0xb10>
    35fe:	601a      	str	r2, [r3, #0]
    3600:	2210      	movs	r2, #16
    3602:	1889      	adds	r1, r1, r2
    3604:	605a      	str	r2, [r3, #4]
    3606:	9a34      	ldr	r2, [sp, #208]	; 0xd0
    3608:	9135      	str	r1, [sp, #212]	; 0xd4
    360a:	3201      	adds	r2, #1
    360c:	9234      	str	r2, [sp, #208]	; 0xd0
    360e:	2a07      	cmp	r2, #7
    3610:	dc01      	bgt.n	3616 <_svfprintf_r+0xaa6>
    3612:	3308      	adds	r3, #8
    3614:	e00c      	b.n	3630 <_svfprintf_r+0xac0>
    3616:	4640      	mov	r0, r8
    3618:	4639      	mov	r1, r7
    361a:	aa33      	add	r2, sp, #204	; 0xcc
    361c:	f8cd c018 	str.w	ip, [sp, #24]
    3620:	f006 f8de 	bl	97e0 <__ssprint_r>
    3624:	f8dd c018 	ldr.w	ip, [sp, #24]
    3628:	2800      	cmp	r0, #0
    362a:	f040 8310 	bne.w	3c4e <_svfprintf_r+0x10de>
    362e:	ab19      	add	r3, sp, #100	; 0x64
    3630:	3d10      	subs	r5, #16
    3632:	e004      	b.n	363e <_svfprintf_r+0xace>
    3634:	462a      	mov	r2, r5
    3636:	461d      	mov	r5, r3
    3638:	4623      	mov	r3, r4
    363a:	464c      	mov	r4, r9
    363c:	4691      	mov	r9, r2
    363e:	2d10      	cmp	r5, #16
    3640:	9935      	ldr	r1, [sp, #212]	; 0xd4
    3642:	4a51      	ldr	r2, [pc, #324]	; (3788 <_svfprintf_r+0xc18>)
    3644:	dcdb      	bgt.n	35fe <_svfprintf_r+0xa8e>
    3646:	4648      	mov	r0, r9
    3648:	46a1      	mov	r9, r4
    364a:	461c      	mov	r4, r3
    364c:	462b      	mov	r3, r5
    364e:	4605      	mov	r5, r0
    3650:	6063      	str	r3, [r4, #4]
    3652:	18cb      	adds	r3, r1, r3
    3654:	6022      	str	r2, [r4, #0]
    3656:	9335      	str	r3, [sp, #212]	; 0xd4
    3658:	9b34      	ldr	r3, [sp, #208]	; 0xd0
    365a:	3301      	adds	r3, #1
    365c:	9334      	str	r3, [sp, #208]	; 0xd0
    365e:	2b07      	cmp	r3, #7
    3660:	dc01      	bgt.n	3666 <_svfprintf_r+0xaf6>
    3662:	3408      	adds	r4, #8
    3664:	e00c      	b.n	3680 <_svfprintf_r+0xb10>
    3666:	4640      	mov	r0, r8
    3668:	4639      	mov	r1, r7
    366a:	aa33      	add	r2, sp, #204	; 0xcc
    366c:	f8cd c018 	str.w	ip, [sp, #24]
    3670:	f006 f8b6 	bl	97e0 <__ssprint_r>
    3674:	f8dd c018 	ldr.w	ip, [sp, #24]
    3678:	2800      	cmp	r0, #0
    367a:	f040 82e8 	bne.w	3c4e <_svfprintf_r+0x10de>
    367e:	ac19      	add	r4, sp, #100	; 0x64
    3680:	ebcb 030c 	rsb	r3, fp, ip
    3684:	2b00      	cmp	r3, #0
    3686:	dc17      	bgt.n	36b8 <_svfprintf_r+0xb48>
    3688:	e038      	b.n	36fc <_svfprintf_r+0xb8c>
    368a:	601a      	str	r2, [r3, #0]
    368c:	2210      	movs	r2, #16
    368e:	1889      	adds	r1, r1, r2
    3690:	605a      	str	r2, [r3, #4]
    3692:	9a34      	ldr	r2, [sp, #208]	; 0xd0
    3694:	9135      	str	r1, [sp, #212]	; 0xd4
    3696:	3201      	adds	r2, #1
    3698:	9234      	str	r2, [sp, #208]	; 0xd0
    369a:	2a07      	cmp	r2, #7
    369c:	dc01      	bgt.n	36a2 <_svfprintf_r+0xb32>
    369e:	3308      	adds	r3, #8
    36a0:	e008      	b.n	36b4 <_svfprintf_r+0xb44>
    36a2:	4640      	mov	r0, r8
    36a4:	4639      	mov	r1, r7
    36a6:	aa33      	add	r2, sp, #204	; 0xcc
    36a8:	f006 f89a 	bl	97e0 <__ssprint_r>
    36ac:	2800      	cmp	r0, #0
    36ae:	f040 82ce 	bne.w	3c4e <_svfprintf_r+0x10de>
    36b2:	ab19      	add	r3, sp, #100	; 0x64
    36b4:	3d10      	subs	r5, #16
    36b6:	e004      	b.n	36c2 <_svfprintf_r+0xb52>
    36b8:	462a      	mov	r2, r5
    36ba:	461d      	mov	r5, r3
    36bc:	4623      	mov	r3, r4
    36be:	464c      	mov	r4, r9
    36c0:	4691      	mov	r9, r2
    36c2:	2d10      	cmp	r5, #16
    36c4:	9935      	ldr	r1, [sp, #212]	; 0xd4
    36c6:	4a30      	ldr	r2, [pc, #192]	; (3788 <_svfprintf_r+0xc18>)
    36c8:	dcdf      	bgt.n	368a <_svfprintf_r+0xb1a>
    36ca:	4648      	mov	r0, r9
    36cc:	46a1      	mov	r9, r4
    36ce:	461c      	mov	r4, r3
    36d0:	462b      	mov	r3, r5
    36d2:	4605      	mov	r5, r0
    36d4:	6063      	str	r3, [r4, #4]
    36d6:	18cb      	adds	r3, r1, r3
    36d8:	6022      	str	r2, [r4, #0]
    36da:	9335      	str	r3, [sp, #212]	; 0xd4
    36dc:	9b34      	ldr	r3, [sp, #208]	; 0xd0
    36de:	3301      	adds	r3, #1
    36e0:	9334      	str	r3, [sp, #208]	; 0xd0
    36e2:	2b07      	cmp	r3, #7
    36e4:	dc01      	bgt.n	36ea <_svfprintf_r+0xb7a>
    36e6:	3408      	adds	r4, #8
    36e8:	e008      	b.n	36fc <_svfprintf_r+0xb8c>
    36ea:	4640      	mov	r0, r8
    36ec:	4639      	mov	r1, r7
    36ee:	aa33      	add	r2, sp, #204	; 0xcc
    36f0:	f006 f876 	bl	97e0 <__ssprint_r>
    36f4:	2800      	cmp	r0, #0
    36f6:	f040 82aa 	bne.w	3c4e <_svfprintf_r+0x10de>
    36fa:	ac19      	add	r4, sp, #100	; 0x64
    36fc:	f415 7f80 	tst.w	r5, #256	; 0x100
    3700:	d106      	bne.n	3710 <_svfprintf_r+0xba0>
    3702:	9b35      	ldr	r3, [sp, #212]	; 0xd4
    3704:	f8c4 a000 	str.w	sl, [r4]
    3708:	f8c4 b004 	str.w	fp, [r4, #4]
    370c:	445b      	add	r3, fp
    370e:	e23f      	b.n	3b90 <_svfprintf_r+0x1020>
    3710:	f1b9 0f65 	cmp.w	r9, #101	; 0x65
    3714:	f340 81b7 	ble.w	3a86 <_svfprintf_r+0xf16>
    3718:	9810      	ldr	r0, [sp, #64]	; 0x40
    371a:	2200      	movs	r2, #0
    371c:	9911      	ldr	r1, [sp, #68]	; 0x44
    371e:	2300      	movs	r3, #0
    3720:	f007 feb6 	bl	b490 <__aeabi_dcmpeq>
    3724:	2800      	cmp	r0, #0
    3726:	d060      	beq.n	37ea <_svfprintf_r+0xc7a>
    3728:	4b18      	ldr	r3, [pc, #96]	; (378c <_svfprintf_r+0xc1c>)
    372a:	6023      	str	r3, [r4, #0]
    372c:	2301      	movs	r3, #1
    372e:	6063      	str	r3, [r4, #4]
    3730:	9b35      	ldr	r3, [sp, #212]	; 0xd4
    3732:	3301      	adds	r3, #1
    3734:	9335      	str	r3, [sp, #212]	; 0xd4
    3736:	9b34      	ldr	r3, [sp, #208]	; 0xd0
    3738:	3301      	adds	r3, #1
    373a:	9334      	str	r3, [sp, #208]	; 0xd0
    373c:	2b07      	cmp	r3, #7
    373e:	dc01      	bgt.n	3744 <_svfprintf_r+0xbd4>
    3740:	3408      	adds	r4, #8
    3742:	e008      	b.n	3756 <_svfprintf_r+0xbe6>
    3744:	4640      	mov	r0, r8
    3746:	4639      	mov	r1, r7
    3748:	aa33      	add	r2, sp, #204	; 0xcc
    374a:	f006 f849 	bl	97e0 <__ssprint_r>
    374e:	2800      	cmp	r0, #0
    3750:	f040 827d 	bne.w	3c4e <_svfprintf_r+0x10de>
    3754:	ac19      	add	r4, sp, #100	; 0x64
    3756:	9b3c      	ldr	r3, [sp, #240]	; 0xf0
    3758:	9a0b      	ldr	r2, [sp, #44]	; 0x2c
    375a:	4293      	cmp	r3, r2
    375c:	db03      	blt.n	3766 <_svfprintf_r+0xbf6>
    375e:	f015 0f01 	tst.w	r5, #1
    3762:	f000 8225 	beq.w	3bb0 <_svfprintf_r+0x1040>
    3766:	9b13      	ldr	r3, [sp, #76]	; 0x4c
    3768:	9812      	ldr	r0, [sp, #72]	; 0x48
    376a:	6023      	str	r3, [r4, #0]
    376c:	9b35      	ldr	r3, [sp, #212]	; 0xd4
    376e:	6060      	str	r0, [r4, #4]
    3770:	181b      	adds	r3, r3, r0
    3772:	9335      	str	r3, [sp, #212]	; 0xd4
    3774:	9b34      	ldr	r3, [sp, #208]	; 0xd0
    3776:	3301      	adds	r3, #1
    3778:	9334      	str	r3, [sp, #208]	; 0xd0
    377a:	2b07      	cmp	r3, #7
    377c:	dc08      	bgt.n	3790 <_svfprintf_r+0xc20>
    377e:	3408      	adds	r4, #8
    3780:	e00f      	b.n	37a2 <_svfprintf_r+0xc32>
    3782:	bf00      	nop
    3784:	0000bf8c 	.word	0x0000bf8c
    3788:	0000bf48 	.word	0x0000bf48
    378c:	0000bf8a 	.word	0x0000bf8a
    3790:	4640      	movls	r0, r8
    3792:	4639      	movhi	r1, r7
    3794:	aa33      	add	r2, sp, #204	; 0xcc
    3796:	f006 f823 	bl	97e0 <__ssprint_r>
    379a:	2800      	cmp	r0, #0
    379c:	f040 8257 	bne.w	3c4e <_svfprintf_r+0x10de>
    37a0:	ac19      	add	r4, sp, #100	; 0x64
    37a2:	990b      	ldr	r1, [sp, #44]	; 0x2c
    37a4:	f101 39ff 	add.w	r9, r1, #4294967295
    37a8:	f1b9 0f00 	cmp.w	r9, #0
    37ac:	dc17      	bgt.n	37de <_svfprintf_r+0xc6e>
    37ae:	e1ff      	b.n	3bb0 <_svfprintf_r+0x1040>
    37b0:	6022      	str	r2, [r4, #0]
    37b2:	2210      	movs	r2, #16
    37b4:	189b      	adds	r3, r3, r2
    37b6:	6062      	str	r2, [r4, #4]
    37b8:	9335      	str	r3, [sp, #212]	; 0xd4
    37ba:	9b34      	ldr	r3, [sp, #208]	; 0xd0
    37bc:	3301      	adds	r3, #1
    37be:	9334      	str	r3, [sp, #208]	; 0xd0
    37c0:	2b07      	cmp	r3, #7
    37c2:	dc01      	bgt.n	37c8 <_svfprintf_r+0xc58>
    37c4:	3408      	adds	r4, #8
    37c6:	e008      	b.n	37da <_svfprintf_r+0xc6a>
    37c8:	4640      	mov	r0, r8
    37ca:	4639      	mov	r1, r7
    37cc:	aa33      	add	r2, sp, #204	; 0xcc
    37ce:	f006 f807 	bl	97e0 <__ssprint_r>
    37d2:	2800      	cmp	r0, #0
    37d4:	f040 823b 	bne.w	3c4e <_svfprintf_r+0x10de>
    37d8:	ac19      	add	r4, sp, #100	; 0x64
    37da:	f1a9 0910 	sub.w	r9, r9, #16
    37de:	f1b9 0f10 	cmp.w	r9, #16
    37e2:	9b35      	ldr	r3, [sp, #212]	; 0xd4
    37e4:	4a95      	ldr	r2, [pc, #596]	; (3a3c <_svfprintf_r+0xecc>)
    37e6:	dce3      	bgt.n	37b0 <_svfprintf_r+0xc40>
    37e8:	e148      	b.n	3a7c <_svfprintf_r+0xf0c>
    37ea:	9b3c      	ldr	r3, [sp, #240]	; 0xf0
    37ec:	2b00      	cmp	r3, #0
    37ee:	dc79      	bgt.n	38e4 <_svfprintf_r+0xd74>
    37f0:	4b93      	ldr	r3, [pc, #588]	; (3a40 <_svfprintf_r+0xed0>)
    37f2:	6023      	str	r3, [r4, #0]
    37f4:	2301      	movs	r3, #1
    37f6:	6063      	str	r3, [r4, #4]
    37f8:	9b35      	ldr	r3, [sp, #212]	; 0xd4
    37fa:	3301      	adds	r3, #1
    37fc:	9335      	str	r3, [sp, #212]	; 0xd4
    37fe:	9b34      	ldr	r3, [sp, #208]	; 0xd0
    3800:	3301      	adds	r3, #1
    3802:	9334      	str	r3, [sp, #208]	; 0xd0
    3804:	2b07      	cmp	r3, #7
    3806:	dc01      	bgt.n	380c <_svfprintf_r+0xc9c>
    3808:	3408      	adds	r4, #8
    380a:	e008      	b.n	381e <_svfprintf_r+0xcae>
    380c:	4640      	mov	r0, r8
    380e:	4639      	mov	r1, r7
    3810:	aa33      	add	r2, sp, #204	; 0xcc
    3812:	f005 ffe5 	bl	97e0 <__ssprint_r>
    3816:	2800      	cmp	r0, #0
    3818:	f040 8219 	bne.w	3c4e <_svfprintf_r+0x10de>
    381c:	ac19      	add	r4, sp, #100	; 0x64
    381e:	9b3c      	ldr	r3, [sp, #240]	; 0xf0
    3820:	b92b      	cbnz	r3, 382e <_svfprintf_r+0xcbe>
    3822:	9a0b      	ldr	r2, [sp, #44]	; 0x2c
    3824:	b91a      	cbnz	r2, 382e <_svfprintf_r+0xcbe>
    3826:	f015 0f01 	tst.w	r5, #1
    382a:	f000 81c1 	beq.w	3bb0 <_svfprintf_r+0x1040>
    382e:	9b13      	ldr	r3, [sp, #76]	; 0x4c
    3830:	9812      	ldr	r0, [sp, #72]	; 0x48
    3832:	6023      	str	r3, [r4, #0]
    3834:	9b35      	ldr	r3, [sp, #212]	; 0xd4
    3836:	6060      	str	r0, [r4, #4]
    3838:	181b      	adds	r3, r3, r0
    383a:	9335      	str	r3, [sp, #212]	; 0xd4
    383c:	9b34      	ldr	r3, [sp, #208]	; 0xd0
    383e:	3301      	adds	r3, #1
    3840:	9334      	str	r3, [sp, #208]	; 0xd0
    3842:	2b07      	cmp	r3, #7
    3844:	dc02      	bgt.n	384c <_svfprintf_r+0xcdc>
    3846:	f104 0308 	add.w	r3, r4, #8
    384a:	e008      	b.n	385e <_svfprintf_r+0xcee>
    384c:	4640      	mov	r0, r8
    384e:	4639      	mov	r1, r7
    3850:	aa33      	add	r2, sp, #204	; 0xcc
    3852:	f005 ffc5 	bl	97e0 <__ssprint_r>
    3856:	2800      	cmp	r0, #0
    3858:	f040 81f9 	bne.w	3c4e <_svfprintf_r+0x10de>
    385c:	ab19      	add	r3, sp, #100	; 0x64
    385e:	9c3c      	ldr	r4, [sp, #240]	; 0xf0
    3860:	4264      	negs	r4, r4
    3862:	2c00      	cmp	r4, #0
    3864:	dc16      	bgt.n	3894 <_svfprintf_r+0xd24>
    3866:	e02d      	b.n	38c4 <_svfprintf_r+0xd54>
    3868:	6019      	str	r1, [r3, #0]
    386a:	2110      	movs	r1, #16
    386c:	1852      	adds	r2, r2, r1
    386e:	6059      	str	r1, [r3, #4]
    3870:	9235      	str	r2, [sp, #212]	; 0xd4
    3872:	9a34      	ldr	r2, [sp, #208]	; 0xd0
    3874:	3201      	adds	r2, #1
    3876:	9234      	str	r2, [sp, #208]	; 0xd0
    3878:	2a07      	cmp	r2, #7
    387a:	dc01      	bgt.n	3880 <_svfprintf_r+0xd10>
    387c:	3308      	adds	r3, #8
    387e:	e008      	b.n	3892 <_svfprintf_r+0xd22>
    3880:	4640      	mov	r0, r8
    3882:	4639      	mov	r1, r7
    3884:	aa33      	add	r2, sp, #204	; 0xcc
    3886:	f005 ffab 	bl	97e0 <__ssprint_r>
    388a:	2800      	cmp	r0, #0
    388c:	f040 81df 	bne.w	3c4e <_svfprintf_r+0x10de>
    3890:	ab19      	add	r3, sp, #100	; 0x64
    3892:	3c10      	subs	r4, #16
    3894:	2c10      	cmp	r4, #16
    3896:	9a35      	ldr	r2, [sp, #212]	; 0xd4
    3898:	4968      	ldr	r1, [pc, #416]	; (3a3c <_svfprintf_r+0xecc>)
    389a:	dce5      	bgt.n	3868 <_svfprintf_r+0xcf8>
    389c:	605c      	str	r4, [r3, #4]
    389e:	1914      	adds	r4, r2, r4
    38a0:	9a34      	ldr	r2, [sp, #208]	; 0xd0
    38a2:	6019      	str	r1, [r3, #0]
    38a4:	3201      	adds	r2, #1
    38a6:	9435      	str	r4, [sp, #212]	; 0xd4
    38a8:	2a07      	cmp	r2, #7
    38aa:	9234      	str	r2, [sp, #208]	; 0xd0
    38ac:	dc01      	bgt.n	38b2 <_svfprintf_r+0xd42>
    38ae:	3308      	adds	r3, #8
    38b0:	e008      	b.n	38c4 <_svfprintf_r+0xd54>
    38b2:	4640      	mov	r0, r8
    38b4:	4639      	mov	r1, r7
    38b6:	aa33      	add	r2, sp, #204	; 0xcc
    38b8:	f005 ff92 	bl	97e0 <__ssprint_r>
    38bc:	2800      	cmp	r0, #0
    38be:	f040 81c6 	bne.w	3c4e <_svfprintf_r+0x10de>
    38c2:	ab19      	add	r3, sp, #100	; 0x64
    38c4:	990b      	ldr	r1, [sp, #44]	; 0x2c
    38c6:	9a35      	ldr	r2, [sp, #212]	; 0xd4
    38c8:	f8c3 a000 	str.w	sl, [r3]
    38cc:	6059      	str	r1, [r3, #4]
    38ce:	1852      	adds	r2, r2, r1
    38d0:	9235      	str	r2, [sp, #212]	; 0xd4
    38d2:	9a34      	ldr	r2, [sp, #208]	; 0xd0
    38d4:	3201      	adds	r2, #1
    38d6:	9234      	str	r2, [sp, #208]	; 0xd0
    38d8:	2a07      	cmp	r2, #7
    38da:	f300 8161 	bgt.w	3ba0 <_svfprintf_r+0x1030>
    38de:	f103 0408 	add.w	r4, r3, #8
    38e2:	e165      	b.n	3bb0 <_svfprintf_r+0x1040>
    38e4:	9a0b      	ldr	r2, [sp, #44]	; 0x2c
    38e6:	9b08      	ldr	r3, [sp, #32]
    38e8:	4691      	mov	r9, r2
    38ea:	eb0a 0b02 	add.w	fp, sl, r2
    38ee:	4599      	cmp	r9, r3
    38f0:	bfa8      	it	ge
    38f2:	4699      	movge	r9, r3
    38f4:	f1b9 0f00 	cmp.w	r9, #0
    38f8:	dd16      	ble.n	3928 <_svfprintf_r+0xdb8>
    38fa:	9b35      	ldr	r3, [sp, #212]	; 0xd4
    38fc:	f8c4 a000 	str.w	sl, [r4]
    3900:	f8c4 9004 	str.w	r9, [r4, #4]
    3904:	444b      	add	r3, r9
    3906:	9335      	str	r3, [sp, #212]	; 0xd4
    3908:	9b34      	ldr	r3, [sp, #208]	; 0xd0
    390a:	3301      	adds	r3, #1
    390c:	9334      	str	r3, [sp, #208]	; 0xd0
    390e:	2b07      	cmp	r3, #7
    3910:	dc01      	bgt.n	3916 <_svfprintf_r+0xda6>
    3912:	3408      	adds	r4, #8
    3914:	e008      	b.n	3928 <_svfprintf_r+0xdb8>
    3916:	4640      	mov	r0, r8
    3918:	4639      	mov	r1, r7
    391a:	aa33      	add	r2, sp, #204	; 0xcc
    391c:	f005 ff60 	bl	97e0 <__ssprint_r>
    3920:	2800      	cmp	r0, #0
    3922:	f040 8194 	bne.w	3c4e <_svfprintf_r+0x10de>
    3926:	ac19      	add	r4, sp, #100	; 0x64
    3928:	9808      	ldr	r0, [sp, #32]
    392a:	ea29 79e9 	bic.w	r9, r9, r9, asr #31
    392e:	ebc9 0900 	rsb	r9, r9, r0
    3932:	f1b9 0f00 	cmp.w	r9, #0
    3936:	dc17      	bgt.n	3968 <_svfprintf_r+0xdf8>
    3938:	e030      	b.n	399c <_svfprintf_r+0xe2c>
    393a:	6022      	str	r2, [r4, #0]
    393c:	2210      	movs	r2, #16
    393e:	189b      	adds	r3, r3, r2
    3940:	6062      	str	r2, [r4, #4]
    3942:	9335      	str	r3, [sp, #212]	; 0xd4
    3944:	9b34      	ldr	r3, [sp, #208]	; 0xd0
    3946:	3301      	adds	r3, #1
    3948:	9334      	str	r3, [sp, #208]	; 0xd0
    394a:	2b07      	cmp	r3, #7
    394c:	dc01      	bgt.n	3952 <_svfprintf_r+0xde2>
    394e:	3408      	adds	r4, #8
    3950:	e008      	b.n	3964 <_svfprintf_r+0xdf4>
    3952:	4640      	mov	r0, r8
    3954:	4639      	mov	r1, r7
    3956:	aa33      	add	r2, sp, #204	; 0xcc
    3958:	f005 ff42 	bl	97e0 <__ssprint_r>
    395c:	2800      	cmp	r0, #0
    395e:	f040 8176 	bne.w	3c4e <_svfprintf_r+0x10de>
    3962:	ac19      	add	r4, sp, #100	; 0x64
    3964:	f1a9 0910 	sub.w	r9, r9, #16
    3968:	f1b9 0f10 	cmp.w	r9, #16
    396c:	9b35      	ldr	r3, [sp, #212]	; 0xd4
    396e:	4a33      	ldr	r2, [pc, #204]	; (3a3c <_svfprintf_r+0xecc>)
    3970:	dce3      	bgt.n	393a <_svfprintf_r+0xdca>
    3972:	6022      	str	r2, [r4, #0]
    3974:	444b      	add	r3, r9
    3976:	f8c4 9004 	str.w	r9, [r4, #4]
    397a:	9335      	str	r3, [sp, #212]	; 0xd4
    397c:	9b34      	ldr	r3, [sp, #208]	; 0xd0
    397e:	3301      	adds	r3, #1
    3980:	9334      	str	r3, [sp, #208]	; 0xd0
    3982:	2b07      	cmp	r3, #7
    3984:	dc01      	bgt.n	398a <_svfprintf_r+0xe1a>
    3986:	3408      	adds	r4, #8
    3988:	e008      	b.n	399c <_svfprintf_r+0xe2c>
    398a:	4640      	mov	r0, r8
    398c:	4639      	mov	r1, r7
    398e:	aa33      	add	r2, sp, #204	; 0xcc
    3990:	f005 ff26 	bl	97e0 <__ssprint_r>
    3994:	2800      	cmp	r0, #0
    3996:	f040 815a 	bne.w	3c4e <_svfprintf_r+0x10de>
    399a:	ac19      	add	r4, sp, #100	; 0x64
    399c:	9b3c      	ldr	r3, [sp, #240]	; 0xf0
    399e:	990b      	ldr	r1, [sp, #44]	; 0x2c
    39a0:	428b      	cmp	r3, r1
    39a2:	db02      	blt.n	39aa <_svfprintf_r+0xe3a>
    39a4:	f015 0f01 	tst.w	r5, #1
    39a8:	d017      	beq.n	39da <_svfprintf_r+0xe6a>
    39aa:	9b12      	ldr	r3, [sp, #72]	; 0x48
    39ac:	9a13      	ldr	r2, [sp, #76]	; 0x4c
    39ae:	9812      	ldr	r0, [sp, #72]	; 0x48
    39b0:	6063      	str	r3, [r4, #4]
    39b2:	9b35      	ldr	r3, [sp, #212]	; 0xd4
    39b4:	6022      	str	r2, [r4, #0]
    39b6:	181b      	adds	r3, r3, r0
    39b8:	9335      	str	r3, [sp, #212]	; 0xd4
    39ba:	9b34      	ldr	r3, [sp, #208]	; 0xd0
    39bc:	3301      	adds	r3, #1
    39be:	9334      	str	r3, [sp, #208]	; 0xd0
    39c0:	2b07      	cmp	r3, #7
    39c2:	dc01      	bgt.n	39c8 <_svfprintf_r+0xe58>
    39c4:	3408      	adds	r4, #8
    39c6:	e008      	b.n	39da <_svfprintf_r+0xe6a>
    39c8:	4640      	mov	r0, r8
    39ca:	4639      	mov	r1, r7
    39cc:	aa33      	add	r2, sp, #204	; 0xcc
    39ce:	f005 ff07 	bl	97e0 <__ssprint_r>
    39d2:	2800      	cmp	r0, #0
    39d4:	f040 813b 	bne.w	3c4e <_svfprintf_r+0x10de>
    39d8:	ac19      	add	r4, sp, #100	; 0x64
    39da:	9908      	ldr	r1, [sp, #32]
    39dc:	9a3c      	ldr	r2, [sp, #240]	; 0xf0
    39de:	980b      	ldr	r0, [sp, #44]	; 0x2c
    39e0:	eb0a 0301 	add.w	r3, sl, r1
    39e4:	ebc3 0b0b 	rsb	fp, r3, fp
    39e8:	ebc2 0900 	rsb	r9, r2, r0
    39ec:	45cb      	cmp	fp, r9
    39ee:	bfb8      	it	lt
    39f0:	46d9      	movlt	r9, fp
    39f2:	f1b9 0f00 	cmp.w	r9, #0
    39f6:	dd15      	ble.n	3a24 <_svfprintf_r+0xeb4>
    39f8:	6023      	str	r3, [r4, #0]
    39fa:	9b35      	ldr	r3, [sp, #212]	; 0xd4
    39fc:	f8c4 9004 	str.w	r9, [r4, #4]
    3a00:	444b      	add	r3, r9
    3a02:	9335      	str	r3, [sp, #212]	; 0xd4
    3a04:	9b34      	ldr	r3, [sp, #208]	; 0xd0
    3a06:	3301      	adds	r3, #1
    3a08:	9334      	str	r3, [sp, #208]	; 0xd0
    3a0a:	2b07      	cmp	r3, #7
    3a0c:	dc01      	bgt.n	3a12 <_svfprintf_r+0xea2>
    3a0e:	3408      	adds	r4, #8
    3a10:	e008      	b.n	3a24 <_svfprintf_r+0xeb4>
    3a12:	4640      	mov	r0, r8
    3a14:	4639      	mov	r1, r7
    3a16:	aa33      	add	r2, sp, #204	; 0xcc
    3a18:	f005 fee2 	bl	97e0 <__ssprint_r>
    3a1c:	2800      	cmp	r0, #0
    3a1e:	f040 8116 	bne.w	3c4e <_svfprintf_r+0x10de>
    3a22:	ac19      	add	r4, sp, #100	; 0x64
    3a24:	9b3c      	ldr	r3, [sp, #240]	; 0xf0
    3a26:	ea29 79e9 	bic.w	r9, r9, r9, asr #31
    3a2a:	990b      	ldr	r1, [sp, #44]	; 0x2c
    3a2c:	1acb      	subs	r3, r1, r3
    3a2e:	ebc9 0903 	rsb	r9, r9, r3
    3a32:	f1b9 0f00 	cmp.w	r9, #0
    3a36:	dc1c      	bgt.n	3a72 <_svfprintf_r+0xf02>
    3a38:	e0ba      	b.n	3bb0 <_svfprintf_r+0x1040>
    3a3a:	bf00      	nop
    3a3c:	0000bf48 	.word	0x0000bf48
    3a40:	0000bf8a 	.word	0x0000bf8a
    3a44:	6022      	strls	r2, [r4, #0]
    3a46:	2210      	movhi	r2, #16
    3a48:	189b      	adds	r3, r3, r2
    3a4a:	6062      	str	r2, [r4, #4]
    3a4c:	9335      	str	r3, [sp, #212]	; 0xd4
    3a4e:	9b34      	ldr	r3, [sp, #208]	; 0xd0
    3a50:	3301      	adds	r3, #1
    3a52:	9334      	str	r3, [sp, #208]	; 0xd0
    3a54:	2b07      	cmp	r3, #7
    3a56:	dc01      	bgt.n	3a5c <_svfprintf_r+0xeec>
    3a58:	3408      	adds	r4, #8
    3a5a:	e008      	b.n	3a6e <_svfprintf_r+0xefe>
    3a5c:	4640      	mov	r0, r8
    3a5e:	4639      	mov	r1, r7
    3a60:	aa33      	add	r2, sp, #204	; 0xcc
    3a62:	f005 febd 	bl	97e0 <__ssprint_r>
    3a66:	2800      	cmp	r0, #0
    3a68:	f040 80f1 	bne.w	3c4e <_svfprintf_r+0x10de>
    3a6c:	ac19      	add	r4, sp, #100	; 0x64
    3a6e:	f1a9 0910 	sub.w	r9, r9, #16
    3a72:	f1b9 0f10 	cmp.w	r9, #16
    3a76:	9b35      	ldr	r3, [sp, #212]	; 0xd4
    3a78:	4a7b      	ldr	r2, [pc, #492]	; (3c68 <_svfprintf_r+0x10f8>)
    3a7a:	dce3      	bgt.n	3a44 <_svfprintf_r+0xed4>
    3a7c:	6022      	str	r2, [r4, #0]
    3a7e:	444b      	add	r3, r9
    3a80:	f8c4 9004 	str.w	r9, [r4, #4]
    3a84:	e084      	b.n	3b90 <_svfprintf_r+0x1020>
    3a86:	9a0b      	ldr	r2, [sp, #44]	; 0x2c
    3a88:	2a01      	cmp	r2, #1
    3a8a:	dc02      	bgt.n	3a92 <_svfprintf_r+0xf22>
    3a8c:	f015 0f01 	tst.w	r5, #1
    3a90:	d062      	beq.n	3b58 <_svfprintf_r+0xfe8>
    3a92:	2301      	movs	r3, #1
    3a94:	6063      	str	r3, [r4, #4]
    3a96:	9b35      	ldr	r3, [sp, #212]	; 0xd4
    3a98:	f8c4 a000 	str.w	sl, [r4]
    3a9c:	3301      	adds	r3, #1
    3a9e:	9335      	str	r3, [sp, #212]	; 0xd4
    3aa0:	9b34      	ldr	r3, [sp, #208]	; 0xd0
    3aa2:	3301      	adds	r3, #1
    3aa4:	9334      	str	r3, [sp, #208]	; 0xd0
    3aa6:	2b07      	cmp	r3, #7
    3aa8:	dc01      	bgt.n	3aae <_svfprintf_r+0xf3e>
    3aaa:	3408      	adds	r4, #8
    3aac:	e008      	b.n	3ac0 <_svfprintf_r+0xf50>
    3aae:	4640      	mov	r0, r8
    3ab0:	4639      	mov	r1, r7
    3ab2:	aa33      	add	r2, sp, #204	; 0xcc
    3ab4:	f005 fe94 	bl	97e0 <__ssprint_r>
    3ab8:	2800      	cmp	r0, #0
    3aba:	f040 80c8 	bne.w	3c4e <_svfprintf_r+0x10de>
    3abe:	ac19      	add	r4, sp, #100	; 0x64
    3ac0:	9b13      	ldr	r3, [sp, #76]	; 0x4c
    3ac2:	9812      	ldr	r0, [sp, #72]	; 0x48
    3ac4:	6023      	str	r3, [r4, #0]
    3ac6:	9b35      	ldr	r3, [sp, #212]	; 0xd4
    3ac8:	6060      	str	r0, [r4, #4]
    3aca:	181b      	adds	r3, r3, r0
    3acc:	9335      	str	r3, [sp, #212]	; 0xd4
    3ace:	9b34      	ldr	r3, [sp, #208]	; 0xd0
    3ad0:	3301      	adds	r3, #1
    3ad2:	9334      	str	r3, [sp, #208]	; 0xd0
    3ad4:	2b07      	cmp	r3, #7
    3ad6:	dc01      	bgt.n	3adc <_svfprintf_r+0xf6c>
    3ad8:	3408      	adds	r4, #8
    3ada:	e008      	b.n	3aee <_svfprintf_r+0xf7e>
    3adc:	4640      	mov	r0, r8
    3ade:	4639      	mov	r1, r7
    3ae0:	aa33      	add	r2, sp, #204	; 0xcc
    3ae2:	f005 fe7d 	bl	97e0 <__ssprint_r>
    3ae6:	2800      	cmp	r0, #0
    3ae8:	f040 80b1 	bne.w	3c4e <_svfprintf_r+0x10de>
    3aec:	ac19      	add	r4, sp, #100	; 0x64
    3aee:	9911      	ldr	r1, [sp, #68]	; 0x44
    3af0:	2300      	movs	r3, #0
    3af2:	9810      	ldr	r0, [sp, #64]	; 0x40
    3af4:	2200      	movs	r2, #0
    3af6:	f007 fccb 	bl	b490 <__aeabi_dcmpeq>
    3afa:	990b      	ldr	r1, [sp, #44]	; 0x2c
    3afc:	1e4b      	subs	r3, r1, #1
    3afe:	b930      	cbnz	r0, 3b0e <_svfprintf_r+0xf9e>
    3b00:	f10a 0201 	add.w	r2, sl, #1
    3b04:	6022      	str	r2, [r4, #0]
    3b06:	9a35      	ldr	r2, [sp, #212]	; 0xd4
    3b08:	6063      	str	r3, [r4, #4]
    3b0a:	18d3      	adds	r3, r2, r3
    3b0c:	e02a      	b.n	3b64 <_svfprintf_r+0xff4>
    3b0e:	f1b3 0900 	subs.w	r9, r3, #0
    3b12:	dc17      	bgt.n	3b44 <_svfprintf_r+0xfd4>
    3b14:	e036      	b.n	3b84 <_svfprintf_r+0x1014>
    3b16:	6022      	str	r2, [r4, #0]
    3b18:	2210      	movs	r2, #16
    3b1a:	189b      	adds	r3, r3, r2
    3b1c:	6062      	str	r2, [r4, #4]
    3b1e:	9335      	str	r3, [sp, #212]	; 0xd4
    3b20:	9b34      	ldr	r3, [sp, #208]	; 0xd0
    3b22:	3301      	adds	r3, #1
    3b24:	9334      	str	r3, [sp, #208]	; 0xd0
    3b26:	2b07      	cmp	r3, #7
    3b28:	dc01      	bgt.n	3b2e <_svfprintf_r+0xfbe>
    3b2a:	3408      	adds	r4, #8
    3b2c:	e008      	b.n	3b40 <_svfprintf_r+0xfd0>
    3b2e:	4640      	mov	r0, r8
    3b30:	4639      	mov	r1, r7
    3b32:	aa33      	add	r2, sp, #204	; 0xcc
    3b34:	f005 fe54 	bl	97e0 <__ssprint_r>
    3b38:	2800      	cmp	r0, #0
    3b3a:	f040 8088 	bne.w	3c4e <_svfprintf_r+0x10de>
    3b3e:	ac19      	add	r4, sp, #100	; 0x64
    3b40:	f1a9 0910 	sub.w	r9, r9, #16
    3b44:	f1b9 0f10 	cmp.w	r9, #16
    3b48:	9b35      	ldr	r3, [sp, #212]	; 0xd4
    3b4a:	4a47      	ldr	r2, [pc, #284]	; (3c68 <_svfprintf_r+0x10f8>)
    3b4c:	dce3      	bgt.n	3b16 <_svfprintf_r+0xfa6>
    3b4e:	6022      	str	r2, [r4, #0]
    3b50:	444b      	add	r3, r9
    3b52:	f8c4 9004 	str.w	r9, [r4, #4]
    3b56:	e005      	b.n	3b64 <_svfprintf_r+0xff4>
    3b58:	2301      	movs	r3, #1
    3b5a:	6063      	str	r3, [r4, #4]
    3b5c:	9b35      	ldr	r3, [sp, #212]	; 0xd4
    3b5e:	f8c4 a000 	str.w	sl, [r4]
    3b62:	3301      	adds	r3, #1
    3b64:	9335      	str	r3, [sp, #212]	; 0xd4
    3b66:	9b34      	ldr	r3, [sp, #208]	; 0xd0
    3b68:	3301      	adds	r3, #1
    3b6a:	9334      	str	r3, [sp, #208]	; 0xd0
    3b6c:	2b07      	cmp	r3, #7
    3b6e:	dc01      	bgt.n	3b74 <_svfprintf_r+0x1004>
    3b70:	3408      	adds	r4, #8
    3b72:	e007      	b.n	3b84 <_svfprintf_r+0x1014>
    3b74:	4640      	mov	r0, r8
    3b76:	4639      	mov	r1, r7
    3b78:	aa33      	add	r2, sp, #204	; 0xcc
    3b7a:	f005 fe31 	bl	97e0 <__ssprint_r>
    3b7e:	2800      	cmp	r0, #0
    3b80:	d165      	bne.n	3c4e <_svfprintf_r+0x10de>
    3b82:	ac19      	add	r4, sp, #100	; 0x64
    3b84:	ab38      	add	r3, sp, #224	; 0xe0
    3b86:	9a15      	ldr	r2, [sp, #84]	; 0x54
    3b88:	6023      	str	r3, [r4, #0]
    3b8a:	9b35      	ldr	r3, [sp, #212]	; 0xd4
    3b8c:	6062      	str	r2, [r4, #4]
    3b8e:	189b      	adds	r3, r3, r2
    3b90:	9335      	str	r3, [sp, #212]	; 0xd4
    3b92:	9b34      	ldr	r3, [sp, #208]	; 0xd0
    3b94:	3301      	adds	r3, #1
    3b96:	9334      	str	r3, [sp, #208]	; 0xd0
    3b98:	2b07      	cmp	r3, #7
    3b9a:	dc01      	bgt.n	3ba0 <_svfprintf_r+0x1030>
    3b9c:	3408      	adds	r4, #8
    3b9e:	e007      	b.n	3bb0 <_svfprintf_r+0x1040>
    3ba0:	4640      	mov	r0, r8
    3ba2:	4639      	mov	r1, r7
    3ba4:	aa33      	add	r2, sp, #204	; 0xcc
    3ba6:	f005 fe1b 	bl	97e0 <__ssprint_r>
    3baa:	2800      	cmp	r0, #0
    3bac:	d14f      	bne.n	3c4e <_svfprintf_r+0x10de>
    3bae:	ac19      	add	r4, sp, #100	; 0x64
    3bb0:	f015 0f04 	tst.w	r5, #4
    3bb4:	d02f      	beq.n	3c16 <_svfprintf_r+0x10a6>
    3bb6:	9b0d      	ldr	r3, [sp, #52]	; 0x34
    3bb8:	f8dd a038 	ldr.w	sl, [sp, #56]	; 0x38
    3bbc:	ebca 0503 	rsb	r5, sl, r3
    3bc0:	2d00      	cmp	r5, #0
    3bc2:	dc15      	bgt.n	3bf0 <_svfprintf_r+0x1080>
    3bc4:	e027      	b.n	3c16 <_svfprintf_r+0x10a6>
    3bc6:	6022      	str	r2, [r4, #0]
    3bc8:	2210      	movs	r2, #16
    3bca:	189b      	adds	r3, r3, r2
    3bcc:	6062      	str	r2, [r4, #4]
    3bce:	9335      	str	r3, [sp, #212]	; 0xd4
    3bd0:	9b34      	ldr	r3, [sp, #208]	; 0xd0
    3bd2:	3301      	adds	r3, #1
    3bd4:	9334      	str	r3, [sp, #208]	; 0xd0
    3bd6:	2b07      	cmp	r3, #7
    3bd8:	dc01      	bgt.n	3bde <_svfprintf_r+0x106e>
    3bda:	3408      	adds	r4, #8
    3bdc:	e007      	b.n	3bee <_svfprintf_r+0x107e>
    3bde:	4640      	mov	r0, r8
    3be0:	4639      	mov	r1, r7
    3be2:	aa33      	add	r2, sp, #204	; 0xcc
    3be4:	f005 fdfc 	bl	97e0 <__ssprint_r>
    3be8:	2800      	cmp	r0, #0
    3bea:	d130      	bne.n	3c4e <_svfprintf_r+0x10de>
    3bec:	ac19      	add	r4, sp, #100	; 0x64
    3bee:	3d10      	subs	r5, #16
    3bf0:	2d10      	cmp	r5, #16
    3bf2:	9b35      	ldr	r3, [sp, #212]	; 0xd4
    3bf4:	4a1d      	ldr	r2, [pc, #116]	; (3c6c <_svfprintf_r+0x10fc>)
    3bf6:	dce6      	bgt.n	3bc6 <_svfprintf_r+0x1056>
    3bf8:	6065      	str	r5, [r4, #4]
    3bfa:	195d      	adds	r5, r3, r5
    3bfc:	9b34      	ldr	r3, [sp, #208]	; 0xd0
    3bfe:	6022      	str	r2, [r4, #0]
    3c00:	3301      	adds	r3, #1
    3c02:	9535      	str	r5, [sp, #212]	; 0xd4
    3c04:	2b07      	cmp	r3, #7
    3c06:	9334      	str	r3, [sp, #208]	; 0xd0
    3c08:	dd05      	ble.n	3c16 <_svfprintf_r+0x10a6>
    3c0a:	4640      	mov	r0, r8
    3c0c:	4639      	mov	r1, r7
    3c0e:	aa33      	add	r2, sp, #204	; 0xcc
    3c10:	f005 fde6 	bl	97e0 <__ssprint_r>
    3c14:	b9d8      	cbnz	r0, 3c4e <_svfprintf_r+0x10de>
    3c16:	980f      	ldr	r0, [sp, #60]	; 0x3c
    3c18:	9a0e      	ldr	r2, [sp, #56]	; 0x38
    3c1a:	990d      	ldr	r1, [sp, #52]	; 0x34
    3c1c:	9b35      	ldr	r3, [sp, #212]	; 0xd4
    3c1e:	428a      	cmp	r2, r1
    3c20:	bfac      	ite	ge
    3c22:	1880      	addge	r0, r0, r2
    3c24:	1840      	addlt	r0, r0, r1
    3c26:	900f      	str	r0, [sp, #60]	; 0x3c
    3c28:	b12b      	cbz	r3, 3c36 <_svfprintf_r+0x10c6>
    3c2a:	4640      	mov	r0, r8
    3c2c:	4639      	mov	r1, r7
