
main.elf:     file format elf32-littlearm


Disassembly of section .text:

00000000 <__Vectors>:
       0:	00 80 00 10 9d 4e 00 00 a5 4e 00 00 a7 4e 00 00     .....N...N...N..
      10:	a9 4e 00 00 ab 4e 00 00 ad 4e 00 00 00 00 00 00     .N...N...N......
	...
      2c:	af 4e 00 00 b1 4e 00 00 00 00 00 00 b3 4e 00 00     .N...N.......N..
      3c:	b5 4e 00 00 b7 4e 00 00 e9 4a 00 00 95 4d 00 00     .N...N...J...M..
      4c:	b7 4e 00 00 b7 4e 00 00 b7 4e 00 00 b7 4e 00 00     .N...N...N...N..
      5c:	b7 4e 00 00 b7 4e 00 00 b7 4e 00 00 b7 4e 00 00     .N...N...N...N..
      6c:	b7 4e 00 00 b7 4e 00 00 b7 4e 00 00 b7 4e 00 00     .N...N...N...N..
      7c:	b7 4e 00 00 b7 4e 00 00 b7 4e 00 00 b7 4e 00 00     .N...N...N...N..
      8c:	b7 4e 00 00 b7 4e 00 00 b7 4e 00 00 b7 4e 00 00     .N...N...N...N..
      9c:	b7 4e 00 00 b7 4e 00 00 b7 4e 00 00 b7 4e 00 00     .N...N...N...N..
      ac:	b7 4e 00 00 b7 4e 00 00 b7 4e 00 00 b7 4e 00 00     .N...N...N...N..
      bc:	b7 4e 00 00 b7 4e 00 00                             .N...N..

000000c4 <__do_global_dtors_aux>:
      c4:	f240 63b4 	movw	r3, #1716	; 0x6b4
      c8:	f2c1 0300 	movt	r3, #4096	; 0x1000
      cc:	781a      	ldrb	r2, [r3, #0]
      ce:	b90a      	cbnz	r2, d4 <__do_global_dtors_aux+0x10>
      d0:	2001      	movs	r0, #1
      d2:	7018      	strb	r0, [r3, #0]
      d4:	4770      	bx	lr
      d6:	bf00      	nop

000000d8 <frame_dummy>:
      d8:	f240 60b4 	movw	r0, #1716	; 0x6b4
      dc:	f2c1 0000 	movt	r0, #4096	; 0x1000
      e0:	b508      	push	{r3, lr}
      e2:	6803      	ldr	r3, [r0, #0]
      e4:	b12b      	cbz	r3, f2 <frame_dummy+0x1a>
      e6:	f240 0300 	movw	r3, #0
      ea:	f2c0 0300 	movt	r3, #0
      ee:	b103      	cbz	r3, f2 <frame_dummy+0x1a>
      f0:	4798      	blx	r3
      f2:	bd08      	pop	{r3, pc}

000000f4 <_Z12get_checksumSs>:
      f4:	e92d 43f8 	stmdb	sp!, {r3, r4, r5, r6, r7, r8, r9, lr}
      f8:	6803      	ldr	r3, [r0, #0]
      fa:	4681      	mov	r9, r0
      fc:	f853 0c0c 	ldr.w	r0, [r3, #-12]
     100:	f1a3 020c 	sub.w	r2, r3, #12
     104:	2800      	cmp	r0, #0
     106:	d034      	beq.n	172 <_Z12get_checksumSs+0x7e>
     108:	2600      	movs	r6, #0
     10a:	f8df 806c 	ldr.w	r8, [pc, #108]	; 178 <_Z12get_checksumSs+0x84>
     10e:	4634      	mov	r4, r6
     110:	4637      	mov	r7, r6
     112:	4635      	mov	r5, r6
     114:	6892      	ldr	r2, [r2, #8]
     116:	3401      	adds	r4, #1
     118:	2a00      	cmp	r2, #0
     11a:	db04      	blt.n	126 <_Z12get_checksumSs+0x32>
     11c:	4648      	mov	r0, r9
     11e:	f005 fa1b 	bl	5558 <_ZNSs12_M_leak_hardEv>
     122:	f8d9 3000 	ldr.w	r3, [r9]
     126:	5d9e      	ldrb	r6, [r3, r6]
     128:	f853 1c0c 	ldr.w	r1, [r3, #-12]
     12c:	1976      	adds	r6, r6, r5
     12e:	fb88 0c06 	smull	r0, ip, r8, r6
     132:	17f0      	asrs	r0, r6, #31
     134:	eb0c 0506 	add.w	r5, ip, r6
     138:	ebc0 12e5 	rsb	r2, r0, r5, asr #7
     13c:	0210      	lsls	r0, r2, #8
     13e:	ebc2 0c00 	rsb	ip, r2, r0
     142:	ebcc 0506 	rsb	r5, ip, r6
     146:	b2ad      	uxth	r5, r5
     148:	19ee      	adds	r6, r5, r7
     14a:	fb88 0206 	smull	r0, r2, r8, r6
     14e:	17f0      	asrs	r0, r6, #31
     150:	eb02 0c06 	add.w	ip, r2, r6
     154:	ebc0 12ec 	rsb	r2, r0, ip, asr #7
     158:	0217      	lsls	r7, r2, #8
     15a:	1ab8      	subs	r0, r7, r2
     15c:	1a37      	subs	r7, r6, r0
     15e:	42a1      	cmp	r1, r4
     160:	b2bf      	uxth	r7, r7
     162:	4626      	mov	r6, r4
     164:	f1a3 020c 	sub.w	r2, r3, #12
     168:	d8d4      	bhi.n	114 <_Z12get_checksumSs+0x20>
     16a:	0239      	lsls	r1, r7, #8
     16c:	b28b      	uxth	r3, r1
     16e:	ea43 0005 	orr.w	r0, r3, r5
     172:	e8bd 83f8 	ldmia.w	sp!, {r3, r4, r5, r6, r7, r8, r9, pc}
     176:	bf00      	nop
     178:	80808081 	.word	0x80808081

0000017c <_Z2lcSs>:
     17c:	e92d 41f0 	stmdb	sp!, {r4, r5, r6, r7, r8, lr}
     180:	680d      	ldr	r5, [r1, #0]
     182:	4604      	mov	r4, r0
     184:	4628      	mov	r0, r5
     186:	460f      	mov	r7, r1
     188:	f00d fde0 	bl	dd4c <strlen>
     18c:	2600      	movs	r6, #0
     18e:	42b0      	cmp	r0, r6
     190:	d912      	bls.n	1b8 <_Z2lcSs+0x3c>
     192:	f855 3c04 	ldr.w	r3, [r5, #-4]
     196:	2b00      	cmp	r3, #0
     198:	db03      	blt.n	1a2 <_Z2lcSs+0x26>
     19a:	4638      	mov	r0, r7
     19c:	f005 f9dc 	bl	5558 <_ZNSs12_M_leak_hardEv>
     1a0:	683d      	ldr	r5, [r7, #0]
     1a2:	5dab      	ldrb	r3, [r5, r6]
     1a4:	eb05 0806 	add.w	r8, r5, r6
     1a8:	2b40      	cmp	r3, #64	; 0x40
     1aa:	d80c      	bhi.n	1c6 <_Z2lcSs+0x4a>
     1ac:	3601      	adds	r6, #1
     1ae:	4628      	mov	r0, r5
     1b0:	f00d fdcc 	bl	dd4c <strlen>
     1b4:	42b0      	cmp	r0, r6
     1b6:	d8ec      	bhi.n	192 <_Z2lcSs+0x16>
     1b8:	4620      	mov	r0, r4
     1ba:	4639      	mov	r1, r7
     1bc:	f005 f829 	bl	5212 <_ZNSsC1ERKSs>
     1c0:	4620      	mov	r0, r4
     1c2:	e8bd 81f0 	ldmia.w	sp!, {r4, r5, r6, r7, r8, pc}
     1c6:	f855 2c04 	ldr.w	r2, [r5, #-4]
     1ca:	2a00      	cmp	r2, #0
     1cc:	db06      	blt.n	1dc <_Z2lcSs+0x60>
     1ce:	4638      	mov	r0, r7
     1d0:	f005 f9c2 	bl	5558 <_ZNSs12_M_leak_hardEv>
     1d4:	683d      	ldr	r5, [r7, #0]
     1d6:	5dab      	ldrb	r3, [r5, r6]
     1d8:	eb05 0806 	add.w	r8, r5, r6
     1dc:	2b5a      	cmp	r3, #90	; 0x5a
     1de:	d8e5      	bhi.n	1ac <_Z2lcSs+0x30>
     1e0:	f855 0c04 	ldr.w	r0, [r5, #-4]
     1e4:	2800      	cmp	r0, #0
     1e6:	db0e      	blt.n	206 <_Z2lcSs+0x8a>
     1e8:	4638      	mov	r0, r7
     1ea:	f005 f9b5 	bl	5558 <_ZNSs12_M_leak_hardEv>
     1ee:	683b      	ldr	r3, [r7, #0]
     1f0:	f853 1c04 	ldr.w	r1, [r3, #-4]
     1f4:	eb03 0806 	add.w	r8, r3, r6
     1f8:	2900      	cmp	r1, #0
     1fa:	db03      	blt.n	204 <_Z2lcSs+0x88>
     1fc:	4638      	mov	r0, r7
     1fe:	f005 f9ab 	bl	5558 <_ZNSs12_M_leak_hardEv>
     202:	683b      	ldr	r3, [r7, #0]
     204:	5d9b      	ldrb	r3, [r3, r6]
     206:	3320      	adds	r3, #32
     208:	f888 3000 	strb.w	r3, [r8]
     20c:	683d      	ldr	r5, [r7, #0]
     20e:	3601      	adds	r6, #1
     210:	e7cd      	b.n	1ae <_Z2lcSs+0x32>
     212:	bf00      	nop

00000214 <_Z15shift_parameterRSs>:
     214:	b570      	push	{r4, r5, r6, lr}
     216:	460c      	mov	r4, r1
     218:	2200      	movs	r2, #0
     21a:	2301      	movs	r3, #1
     21c:	b086      	sub	sp, #24
     21e:	4605      	mov	r5, r0
     220:	492d      	ldr	r1, [pc, #180]	; (2d8 <_Z15shift_parameterRSs+0xc4>)
     222:	4620      	mov	r0, r4
     224:	f004 fed0 	bl	4fc8 <_ZNKSs13find_first_ofEPKcjj>
     228:	f1b0 3fff 	cmp.w	r0, #4294967295
     22c:	4606      	mov	r6, r0
     22e:	d023      	beq.n	278 <_Z15shift_parameterRSs+0x64>
     230:	2200      	movs	r2, #0
     232:	4633      	mov	r3, r6
     234:	a801      	add	r0, sp, #4
     236:	4621      	mov	r1, r4
     238:	f005 f9f0 	bl	561c <_ZNSsC1ERKSsjj>
     23c:	6820      	ldr	r0, [r4, #0]
     23e:	1c72      	adds	r2, r6, #1
     240:	f850 3c0c 	ldr.w	r3, [r0, #-12]
     244:	429a      	cmp	r2, r3
     246:	d844      	bhi.n	2d2 <_Z15shift_parameterRSs+0xbe>
     248:	4621      	mov	r1, r4
     24a:	4668      	mov	r0, sp
     24c:	f005 f9e6 	bl	561c <_ZNSsC1ERKSsjj>
     250:	4620      	mov	r0, r4
     252:	4669      	mov	r1, sp
     254:	f005 f80a 	bl	526c <_ZNSs6assignERKSs>
     258:	9800      	ldr	r0, [sp, #0]
     25a:	4c20      	ldr	r4, [pc, #128]	; (2dc <_Z15shift_parameterRSs+0xc8>)
     25c:	380c      	subs	r0, #12
     25e:	42a0      	cmp	r0, r4
     260:	d12e      	bne.n	2c0 <_Z15shift_parameterRSs+0xac>
     262:	4628      	mov	r0, r5
     264:	a901      	add	r1, sp, #4
     266:	f004 ffd4 	bl	5212 <_ZNSsC1ERKSs>
     26a:	9801      	ldr	r0, [sp, #4]
     26c:	380c      	subs	r0, #12
     26e:	4284      	cmp	r4, r0
     270:	d11d      	bne.n	2ae <_Z15shift_parameterRSs+0x9a>
     272:	4628      	mov	r0, r5
     274:	b006      	add	sp, #24
     276:	bd70      	pop	{r4, r5, r6, pc}
     278:	4621      	mov	r1, r4
     27a:	a802      	add	r0, sp, #8
     27c:	f004 ffc9 	bl	5212 <_ZNSsC1ERKSs>
     280:	2200      	movs	r2, #0
     282:	4917      	ldr	r1, [pc, #92]	; (2e0 <_Z15shift_parameterRSs+0xcc>)
     284:	4620      	mov	r0, r4
     286:	f005 f929 	bl	54dc <_ZNSs6assignEPKcj>
     28a:	4628      	mov	r0, r5
     28c:	a902      	add	r1, sp, #8
     28e:	f004 ffc0 	bl	5212 <_ZNSsC1ERKSs>
     292:	9802      	ldr	r0, [sp, #8]
     294:	4b11      	ldr	r3, [pc, #68]	; (2dc <_Z15shift_parameterRSs+0xc8>)
     296:	380c      	subs	r0, #12
     298:	4298      	cmp	r0, r3
     29a:	d0ea      	beq.n	272 <_Z15shift_parameterRSs+0x5e>
     29c:	6881      	ldr	r1, [r0, #8]
     29e:	1e4a      	subs	r2, r1, #1
     2a0:	2900      	cmp	r1, #0
     2a2:	6082      	str	r2, [r0, #8]
     2a4:	dce5      	bgt.n	272 <_Z15shift_parameterRSs+0x5e>
     2a6:	a905      	add	r1, sp, #20
     2a8:	f004 ffc7 	bl	523a <_ZNSs4_Rep10_M_destroyERKSaIcE>
     2ac:	e7e1      	b.n	272 <_Z15shift_parameterRSs+0x5e>
     2ae:	6883      	ldr	r3, [r0, #8]
     2b0:	1e5a      	subs	r2, r3, #1
     2b2:	2b00      	cmp	r3, #0
     2b4:	6082      	str	r2, [r0, #8]
     2b6:	dcdc      	bgt.n	272 <_Z15shift_parameterRSs+0x5e>
     2b8:	a903      	add	r1, sp, #12
     2ba:	f004 ffbe 	bl	523a <_ZNSs4_Rep10_M_destroyERKSaIcE>
     2be:	e7d8      	b.n	272 <_Z15shift_parameterRSs+0x5e>
     2c0:	6883      	ldr	r3, [r0, #8]
     2c2:	1e59      	subs	r1, r3, #1
     2c4:	2b00      	cmp	r3, #0
     2c6:	6081      	str	r1, [r0, #8]
     2c8:	dccb      	bgt.n	262 <_Z15shift_parameterRSs+0x4e>
     2ca:	a904      	add	r1, sp, #16
     2cc:	f004 ffb5 	bl	523a <_ZNSs4_Rep10_M_destroyERKSaIcE>
     2d0:	e7c7      	b.n	262 <_Z15shift_parameterRSs+0x4e>
     2d2:	4804      	ldr	r0, [pc, #16]	; (2e4 <_Z15shift_parameterRSs+0xd0>)
     2d4:	f004 fdfd 	bl	4ed2 <_ZSt20__throw_out_of_rangePKc>
     2d8:	00014c94 	.word	0x00014c94
     2dc:	100009f8 	.word	0x100009f8
     2e0:	00014f94 	.word	0x00014f94
     2e4:	00014c98 	.word	0x00014c98

000002e8 <__main>:
     2e8:	4839      	ldr	r0, [pc, #228]	; (3d0 <__main+0xe8>)
     2ea:	493a      	ldr	r1, [pc, #232]	; (3d4 <__main+0xec>)
     2ec:	b570      	push	{r4, r5, r6, lr}
     2ee:	4288      	cmp	r0, r1
     2f0:	d023      	beq.n	33a <__main+0x52>
     2f2:	4c39      	ldr	r4, [pc, #228]	; (3d8 <__main+0xf0>)
     2f4:	42a1      	cmp	r1, r4
     2f6:	d220      	bcs.n	33a <__main+0x52>
     2f8:	4602      	mov	r2, r0
     2fa:	f852 6b04 	ldr.w	r6, [r2], #4
     2fe:	460b      	mov	r3, r1
     300:	43cd      	mvns	r5, r1
     302:	f843 6b04 	str.w	r6, [r3], #4
     306:	1965      	adds	r5, r4, r5
     308:	42a3      	cmp	r3, r4
     30a:	f3c5 0580 	ubfx	r5, r5, #2, #1
     30e:	d214      	bcs.n	33a <__main+0x52>
     310:	b13d      	cbz	r5, 322 <__main+0x3a>
     312:	6816      	ldr	r6, [r2, #0]
     314:	f100 0208 	add.w	r2, r0, #8
     318:	601e      	str	r6, [r3, #0]
     31a:	f101 0308 	add.w	r3, r1, #8
     31e:	42a3      	cmp	r3, r4
     320:	d20b      	bcs.n	33a <__main+0x52>
     322:	4610      	mov	r0, r2
     324:	f850 5b04 	ldr.w	r5, [r0], #4
     328:	4619      	mov	r1, r3
     32a:	f841 5b04 	str.w	r5, [r1], #4
     32e:	6856      	ldr	r6, [r2, #4]
     330:	1d02      	adds	r2, r0, #4
     332:	605e      	str	r6, [r3, #4]
     334:	1d0b      	adds	r3, r1, #4
     336:	42a3      	cmp	r3, r4
     338:	d3f3      	bcc.n	322 <__main+0x3a>
     33a:	4828      	ldr	r0, [pc, #160]	; (3dc <__main+0xf4>)
     33c:	4928      	ldr	r1, [pc, #160]	; (3e0 <__main+0xf8>)
     33e:	4288      	cmp	r0, r1
     340:	d024      	beq.n	38c <__main+0xa4>
     342:	4c28      	ldr	r4, [pc, #160]	; (3e4 <__main+0xfc>)
     344:	42a1      	cmp	r1, r4
     346:	d221      	bcs.n	38c <__main+0xa4>
     348:	4602      	mov	r2, r0
     34a:	f852 6b04 	ldr.w	r6, [r2], #4
     34e:	460b      	mov	r3, r1
     350:	43cd      	mvns	r5, r1
     352:	f843 6b04 	str.w	r6, [r3], #4
     356:	eb04 0c05 	add.w	ip, r4, r5
     35a:	42a3      	cmp	r3, r4
     35c:	f3cc 0580 	ubfx	r5, ip, #2, #1
     360:	d214      	bcs.n	38c <__main+0xa4>
     362:	b13d      	cbz	r5, 374 <__main+0x8c>
     364:	6815      	ldr	r5, [r2, #0]
     366:	f100 0208 	add.w	r2, r0, #8
     36a:	601d      	str	r5, [r3, #0]
     36c:	f101 0308 	add.w	r3, r1, #8
     370:	42a3      	cmp	r3, r4
     372:	d20b      	bcs.n	38c <__main+0xa4>
     374:	4610      	mov	r0, r2
     376:	f850 5b04 	ldr.w	r5, [r0], #4
     37a:	4619      	mov	r1, r3
     37c:	f841 5b04 	str.w	r5, [r1], #4
     380:	6856      	ldr	r6, [r2, #4]
     382:	1d02      	adds	r2, r0, #4
     384:	605e      	str	r6, [r3, #4]
     386:	1d0b      	adds	r3, r1, #4
     388:	42a3      	cmp	r3, r4
     38a:	d3f3      	bcc.n	374 <__main+0x8c>
     38c:	4a16      	ldr	r2, [pc, #88]	; (3e8 <__main+0x100>)
     38e:	4817      	ldr	r0, [pc, #92]	; (3ec <__main+0x104>)
     390:	4282      	cmp	r2, r0
     392:	d216      	bcs.n	3c2 <__main+0xda>
     394:	2100      	movs	r1, #0
     396:	4613      	mov	r3, r2
     398:	43d6      	mvns	r6, r2
     39a:	f843 1b04 	str.w	r1, [r3], #4
     39e:	1984      	adds	r4, r0, r6
     3a0:	4283      	cmp	r3, r0
     3a2:	f3c4 0480 	ubfx	r4, r4, #2, #1
     3a6:	d20c      	bcs.n	3c2 <__main+0xda>
     3a8:	b124      	cbz	r4, 3b4 <__main+0xcc>
     3aa:	6019      	str	r1, [r3, #0]
     3ac:	f102 0308 	add.w	r3, r2, #8
     3b0:	4283      	cmp	r3, r0
     3b2:	d206      	bcs.n	3c2 <__main+0xda>
     3b4:	461a      	mov	r2, r3
     3b6:	f842 1b04 	str.w	r1, [r2], #4
     3ba:	6059      	str	r1, [r3, #4]
     3bc:	1d13      	adds	r3, r2, #4
     3be:	4283      	cmp	r3, r0
     3c0:	d3f8      	bcc.n	3b4 <__main+0xcc>
     3c2:	f00c fd5d 	bl	ce80 <__libc_init_array>
     3c6:	f000 f965 	bl	694 <main>
     3ca:	f018 f9ad 	bl	18728 <exit>
     3ce:	bf00      	nop
     3d0:	0001b504 	.word	0x0001b504
     3d4:	10000000 	.word	0x10000000
     3d8:	100006b4 	.word	0x100006b4
     3dc:	0001687c 	.word	0x0001687c
     3e0:	10000000 	.word	0x10000000
     3e4:	10000000 	.word	0x10000000
     3e8:	100006b4 	.word	0x100006b4
     3ec:	10000b60 	.word	0x10000b60

000003f0 <_ZL20_OpenStandardHandlesv>:
     3f0:	b508      	push	{r3, lr}
     3f2:	2100      	movs	r1, #0
     3f4:	4807      	ldr	r0, [pc, #28]	; (414 <_ZL20_OpenStandardHandlesv+0x24>)
     3f6:	f016 fe4b 	bl	17090 <_sys_open>
     3fa:	2104      	movs	r1, #4
     3fc:	4806      	ldr	r0, [pc, #24]	; (418 <_ZL20_OpenStandardHandlesv+0x28>)
     3fe:	f016 fe47 	bl	17090 <_sys_open>
     402:	4806      	ldr	r0, [pc, #24]	; (41c <_ZL20_OpenStandardHandlesv+0x2c>)
     404:	2104      	movs	r1, #4
     406:	f016 fe43 	bl	17090 <_sys_open>
     40a:	4b05      	ldr	r3, [pc, #20]	; (420 <_ZL20_OpenStandardHandlesv+0x30>)
     40c:	2201      	movs	r2, #1
     40e:	601a      	str	r2, [r3, #0]
     410:	bd08      	pop	{r3, pc}
     412:	bf00      	nop
     414:	00014cb0 	.word	0x00014cb0
     418:	00014cb8 	.word	0x00014cb8
     41c:	00014cc0 	.word	0x00014cc0
     420:	100006c0 	.word	0x100006c0

00000424 <_kill>:
     424:	4b02      	ldr	r3, [pc, #8]	; (430 <_kill+0xc>)
     426:	2216      	movs	r2, #22
     428:	601a      	str	r2, [r3, #0]
     42a:	f04f 30ff 	mov.w	r0, #4294967295
     42e:	4770      	bx	lr
     430:	10000a5c 	.word	0x10000a5c

00000434 <_exit>:
     434:	b508      	push	{r3, lr}
     436:	f018 f977 	bl	18728 <exit>
     43a:	bf00      	nop

0000043c <_getpid>:
     43c:	2001      	movs	r0, #1
     43e:	4770      	bx	lr

00000440 <_sbrk>:
     440:	b570      	push	{r4, r5, r6, lr}
     442:	4d09      	ldr	r5, [pc, #36]	; (468 <_sbrk+0x28>)
     444:	4606      	mov	r6, r0
     446:	682c      	ldr	r4, [r5, #0]
     448:	b14c      	cbz	r4, 45e <_sbrk+0x1e>
     44a:	f017 feab 	bl	181a4 <__get_MSP>
     44e:	19a3      	adds	r3, r4, r6
     450:	4283      	cmp	r3, r0
     452:	d807      	bhi.n	464 <_sbrk+0x24>
     454:	6829      	ldr	r1, [r5, #0]
     456:	4620      	mov	r0, r4
     458:	198e      	adds	r6, r1, r6
     45a:	602e      	str	r6, [r5, #0]
     45c:	bd70      	pop	{r4, r5, r6, pc}
     45e:	4c03      	ldr	r4, [pc, #12]	; (46c <_sbrk+0x2c>)
     460:	602c      	str	r4, [r5, #0]
     462:	e7f2      	b.n	44a <_sbrk+0xa>
     464:	f00b fd88 	bl	bf78 <abort>
     468:	100006bc 	.word	0x100006bc
     46c:	10000b60 	.word	0x10000b60

00000470 <_open>:
     470:	f001 0302 	and.w	r3, r1, #2
     474:	f411 6f80 	tst.w	r1, #1024	; 0x400
     478:	bf18      	it	ne
     47a:	f043 0304 	orrne.w	r3, r3, #4
     47e:	f011 0f08 	tst.w	r1, #8
     482:	bf18      	it	ne
     484:	f043 0308 	orrne.w	r3, r3, #8
     488:	4619      	mov	r1, r3
     48a:	f016 be01 	b.w	17090 <_sys_open>
     48e:	bf00      	nop

00000490 <_close>:
     490:	f016 bdd4 	b.w	1703c <_sys_close>

00000494 <_isatty>:
     494:	2802      	cmp	r0, #2
     496:	dc01      	bgt.n	49c <_isatty+0x8>
     498:	2001      	movs	r0, #1
     49a:	4770      	bx	lr
     49c:	f016 bde4 	b.w	17068 <_sys_istty>

000004a0 <_lseek>:
     4a0:	2802      	cmp	r0, #2
     4a2:	e92d 47f0 	stmdb	sp!, {r4, r5, r6, r7, r8, r9, sl, lr}
     4a6:	dd6e      	ble.n	586 <_lseek+0xe6>
     4a8:	4f40      	ldr	r7, [pc, #256]	; (5ac <_lseek+0x10c>)
     4aa:	683b      	ldr	r3, [r7, #0]
     4ac:	2b00      	cmp	r3, #0
     4ae:	d161      	bne.n	574 <_lseek+0xd4>
     4b0:	4d3f      	ldr	r5, [pc, #252]	; (5b0 <_lseek+0x110>)
     4b2:	4c40      	ldr	r4, [pc, #256]	; (5b4 <_lseek+0x114>)
     4b4:	f025 0c01 	bic.w	ip, r5, #1
     4b8:	4665      	mov	r5, ip
     4ba:	f10c 0628 	add.w	r6, ip, #40	; 0x28
     4be:	f815 ab01 	ldrb.w	sl, [r5], #1
     4c2:	f3c3 084f 	ubfx	r8, r3, #1, #16
     4c6:	ea83 030a 	eor.w	r3, r3, sl
     4ca:	f013 0f01 	tst.w	r3, #1
     4ce:	bf1c      	itt	ne
     4d0:	ea88 0804 	eorne.w	r8, r8, r4
     4d4:	fa1f f888 	uxthne.w	r8, r8
     4d8:	ea4f 095a 	mov.w	r9, sl, lsr #1
     4dc:	ea88 0a09 	eor.w	sl, r8, r9
     4e0:	ea4f 0358 	mov.w	r3, r8, lsr #1
     4e4:	f01a 0f01 	tst.w	sl, #1
     4e8:	bf1c      	itt	ne
     4ea:	4063      	eorne	r3, r4
     4ec:	b29b      	uxthne	r3, r3
     4ee:	ea4f 0859 	mov.w	r8, r9, lsr #1
     4f2:	ea83 0908 	eor.w	r9, r3, r8
     4f6:	085b      	lsrs	r3, r3, #1
     4f8:	f019 0f01 	tst.w	r9, #1
     4fc:	bf1c      	itt	ne
     4fe:	4063      	eorne	r3, r4
     500:	b29b      	uxthne	r3, r3
     502:	ea4f 0858 	mov.w	r8, r8, lsr #1
     506:	ea83 0908 	eor.w	r9, r3, r8
     50a:	085b      	lsrs	r3, r3, #1
     50c:	f019 0f01 	tst.w	r9, #1
     510:	bf1c      	itt	ne
     512:	4063      	eorne	r3, r4
     514:	b29b      	uxthne	r3, r3
     516:	ea4f 0858 	mov.w	r8, r8, lsr #1
     51a:	ea83 0908 	eor.w	r9, r3, r8
     51e:	085b      	lsrs	r3, r3, #1
     520:	f019 0f01 	tst.w	r9, #1
     524:	bf1c      	itt	ne
     526:	4063      	eorne	r3, r4
     528:	b29b      	uxthne	r3, r3
     52a:	ea4f 0858 	mov.w	r8, r8, lsr #1
     52e:	ea83 0908 	eor.w	r9, r3, r8
     532:	085b      	lsrs	r3, r3, #1
     534:	f019 0f01 	tst.w	r9, #1
     538:	bf1c      	itt	ne
     53a:	4063      	eorne	r3, r4
     53c:	b29b      	uxthne	r3, r3
     53e:	ea4f 0858 	mov.w	r8, r8, lsr #1
     542:	ea83 0908 	eor.w	r9, r3, r8
     546:	085b      	lsrs	r3, r3, #1
     548:	f019 0f01 	tst.w	r9, #1
     54c:	bf1c      	itt	ne
     54e:	4063      	eorne	r3, r4
     550:	b29b      	uxthne	r3, r3
     552:	ea83 0858 	eor.w	r8, r3, r8, lsr #1
     556:	085b      	lsrs	r3, r3, #1
     558:	f018 0f01 	tst.w	r8, #1
     55c:	bf1c      	itt	ne
     55e:	4063      	eorne	r3, r4
     560:	b29b      	uxthne	r3, r3
     562:	42b5      	cmp	r5, r6
     564:	d1ab      	bne.n	4be <_lseek+0x1e>
     566:	f242 043f 	movw	r4, #8255	; 0x203f
     56a:	42a3      	cmp	r3, r4
     56c:	d112      	bne.n	594 <_lseek+0xf4>
     56e:	f8dc 3028 	ldr.w	r3, [ip, #40]	; 0x28
     572:	603b      	str	r3, [r7, #0]
     574:	3803      	subs	r0, #3
     576:	f853 0020 	ldr.w	r0, [r3, r0, lsl #2]
     57a:	b138      	cbz	r0, 58c <_lseek+0xec>
     57c:	6803      	ldr	r3, [r0, #0]
     57e:	691b      	ldr	r3, [r3, #16]
     580:	4798      	blx	r3
     582:	e8bd 87f0 	ldmia.w	sp!, {r4, r5, r6, r7, r8, r9, sl, pc}
     586:	2000      	movs	r0, #0
     588:	e8bd 87f0 	ldmia.w	sp!, {r4, r5, r6, r7, r8, r9, sl, pc}
     58c:	f04f 30ff 	mov.w	r0, #4294967295
     590:	e8bd 87f0 	ldmia.w	sp!, {r4, r5, r6, r7, r8, r9, sl, pc}
     594:	4908      	ldr	r1, [pc, #32]	; (5b8 <_lseek+0x118>)
     596:	4809      	ldr	r0, [pc, #36]	; (5bc <_lseek+0x11c>)
     598:	680c      	ldr	r4, [r1, #0]
     59a:	226b      	movs	r2, #107	; 0x6b
     59c:	2101      	movs	r1, #1
     59e:	68e3      	ldr	r3, [r4, #12]
     5a0:	f00c fc5e 	bl	ce60 <fwrite>
     5a4:	2001      	movs	r0, #1
     5a6:	f018 f8bf 	bl	18728 <exit>
     5aa:	bf00      	nop
     5ac:	100006b8 	.word	0x100006b8
     5b0:	00017255 	.word	0x00017255
     5b4:	ffffa001 	.word	0xffffa001
     5b8:	10000210 	.word	0x10000210
     5bc:	00014cc8 	.word	0x00014cc8

000005c0 <_read>:
     5c0:	b510      	push	{r4, lr}
     5c2:	4c0b      	ldr	r4, [pc, #44]	; (5f0 <_read+0x30>)
     5c4:	b082      	sub	sp, #8
     5c6:	6823      	ldr	r3, [r4, #0]
     5c8:	4614      	mov	r4, r2
     5ca:	b90b      	cbnz	r3, 5d0 <_read+0x10>
     5cc:	2802      	cmp	r0, #2
     5ce:	dd08      	ble.n	5e2 <_read+0x22>
     5d0:	4622      	mov	r2, r4
     5d2:	2300      	movs	r3, #0
     5d4:	f016 fe1e 	bl	17214 <_sys_read>
     5d8:	f020 4000 	bic.w	r0, r0, #2147483648	; 0x80000000
     5dc:	1a20      	subs	r0, r4, r0
     5de:	b002      	add	sp, #8
     5e0:	bd10      	pop	{r4, pc}
     5e2:	9001      	str	r0, [sp, #4]
     5e4:	9100      	str	r1, [sp, #0]
     5e6:	f7ff ff03 	bl	3f0 <_ZL20_OpenStandardHandlesv>
     5ea:	9900      	ldr	r1, [sp, #0]
     5ec:	9801      	ldr	r0, [sp, #4]
     5ee:	e7ef      	b.n	5d0 <_read+0x10>
     5f0:	100006c0 	.word	0x100006c0

000005f4 <_write>:
     5f4:	b510      	push	{r4, lr}
     5f6:	4c0c      	ldr	r4, [pc, #48]	; (628 <_write+0x34>)
     5f8:	b082      	sub	sp, #8
     5fa:	6823      	ldr	r3, [r4, #0]
     5fc:	4614      	mov	r4, r2
     5fe:	b90b      	cbnz	r3, 604 <_write+0x10>
     600:	2802      	cmp	r0, #2
     602:	dd09      	ble.n	618 <_write+0x24>
     604:	2300      	movs	r3, #0
     606:	4622      	mov	r2, r4
     608:	f016 fe3a 	bl	17280 <_sys_write>
     60c:	2800      	cmp	r0, #0
     60e:	bfa8      	it	ge
     610:	ebc0 0004 	rsbge	r0, r0, r4
     614:	b002      	add	sp, #8
     616:	bd10      	pop	{r4, pc}
     618:	9001      	str	r0, [sp, #4]
     61a:	9100      	str	r1, [sp, #0]
     61c:	f7ff fee8 	bl	3f0 <_ZL20_OpenStandardHandlesv>
     620:	9900      	ldr	r1, [sp, #0]
     622:	9801      	ldr	r0, [sp, #4]
     624:	e7ee      	b.n	604 <_write+0x10>
     626:	bf00      	nop
     628:	100006c0 	.word	0x100006c0

0000062c <_fstat>:
     62c:	f44f 5300 	mov.w	r3, #8192	; 0x2000
     630:	604b      	str	r3, [r1, #4]
     632:	2000      	movs	r0, #0
     634:	4770      	bx	lr
     636:	bf00      	nop

00000638 <_ZN12SDFileSystemD1Ev>:
     638:	4a0b      	ldr	r2, [pc, #44]	; (668 <_ZN12SDFileSystemD1Ev+0x30>)
     63a:	490c      	ldr	r1, [pc, #48]	; (66c <_ZN12SDFileSystemD1Ev+0x34>)
     63c:	b510      	push	{r4, lr}
     63e:	4604      	mov	r4, r0
     640:	6002      	str	r2, [r0, #0]
     642:	f8c0 1264 	str.w	r1, [r0, #612]	; 0x264
     646:	f500 7019 	add.w	r0, r0, #612	; 0x264
     64a:	f016 fc29 	bl	16ea0 <_ZN4mbed4BaseD1Ev>
     64e:	4b08      	ldr	r3, [pc, #32]	; (670 <_ZN12SDFileSystemD1Ev+0x38>)
     650:	f504 7011 	add.w	r0, r4, #580	; 0x244
     654:	f8c4 3244 	str.w	r3, [r4, #580]	; 0x244
     658:	f016 fc22 	bl	16ea0 <_ZN4mbed4BaseD1Ev>
     65c:	4620      	mov	r0, r4
     65e:	f018 fc73 	bl	18f48 <_ZN4mbed13FATFileSystemD1Ev>
     662:	4620      	mov	r0, r4
     664:	bd10      	pop	{r4, pc}
     666:	bf00      	nop
     668:	00014f38 	.word	0x00014f38
     66c:	0001b0dc 	.word	0x0001b0dc
     670:	0001b2b4 	.word	0x0001b2b4

00000674 <_ZN11SimpleShell16on_module_loadedEv>:
     674:	b510      	push	{r4, lr}
     676:	4906      	ldr	r1, [pc, #24]	; (690 <_ZN11SimpleShell16on_module_loadedEv+0x1c>)
     678:	4604      	mov	r4, r0
     67a:	2201      	movs	r2, #1
     67c:	3008      	adds	r0, #8
     67e:	f004 ff2d 	bl	54dc <_ZNSs6assignEPKcj>
     682:	6821      	ldr	r1, [r4, #0]
     684:	4620      	mov	r0, r4
     686:	684b      	ldr	r3, [r1, #4]
     688:	2101      	movs	r1, #1
     68a:	4798      	blx	r3
     68c:	bd10      	pop	{r4, pc}
     68e:	bf00      	nop
     690:	00014d84 	.word	0x00014d84

00000694 <main>:
     694:	b538      	push	{r3, r4, r5, lr}
     696:	2078      	movs	r0, #120	; 0x78
     698:	f005 f93e 	bl	5918 <_Znwj>
     69c:	4604      	mov	r4, r0
     69e:	f000 fcb9 	bl	1014 <_ZN6KernelC1Ev>
     6a2:	6820      	ldr	r0, [r4, #0]
     6a4:	4910      	ldr	r1, [pc, #64]	; (6e8 <main+0x54>)
     6a6:	3008      	adds	r0, #8
     6a8:	f017 fb58 	bl	17d5c <_ZN4mbed6Stream6printfEPKcz>
     6ac:	201c      	movs	r0, #28
     6ae:	f005 f933 	bl	5918 <_Znwj>
     6b2:	490e      	ldr	r1, [pc, #56]	; (6ec <main+0x58>)
     6b4:	4605      	mov	r5, r0
     6b6:	f004 fbdb 	bl	4e70 <_ZN5LaserC1E7PinName>
     6ba:	4629      	mov	r1, r5
     6bc:	4620      	mov	r0, r4
     6be:	f000 fd27 	bl	1110 <_ZN6Kernel10add_moduleEP6Module>
     6c2:	200c      	movs	r0, #12
     6c4:	f005 f928 	bl	5918 <_Znwj>
     6c8:	4605      	mov	r5, r0
     6ca:	f000 fe3f 	bl	134c <_ZN6ModuleC1Ev>
     6ce:	4808      	ldr	r0, [pc, #32]	; (6f0 <main+0x5c>)
     6d0:	4b08      	ldr	r3, [pc, #32]	; (6f4 <main+0x60>)
     6d2:	6028      	str	r0, [r5, #0]
     6d4:	60ab      	str	r3, [r5, #8]
     6d6:	4620      	mov	r0, r4
     6d8:	4629      	mov	r1, r5
     6da:	f000 fd19 	bl	1110 <_ZN6Kernel10add_moduleEP6Module>
     6de:	4620      	mov	r0, r4
     6e0:	2100      	movs	r1, #0
     6e2:	f000 fd1d 	bl	1120 <_ZN6Kernel10call_eventEj>
     6e6:	e7fa      	b.n	6de <main+0x4a>
     6e8:	00014d88 	.word	0x00014d88
     6ec:	2009c045 	.word	0x2009c045
     6f0:	00014d40 	.word	0x00014d40
     6f4:	10000a04 	.word	0x10000a04

000006f8 <_ZStplIcSt11char_traitsIcESaIcEESbIT_T0_T1_ERKS6_S8_>:
     6f8:	b538      	push	{r3, r4, r5, lr}
     6fa:	4604      	mov	r4, r0
     6fc:	4615      	mov	r5, r2
     6fe:	f004 fd88 	bl	5212 <_ZNSsC1ERKSs>
     702:	4620      	mov	r0, r4
     704:	4629      	mov	r1, r5
     706:	f004 fe3d 	bl	5384 <_ZNSs6appendERKSs>
     70a:	4620      	mov	r0, r4
     70c:	bd38      	pop	{r3, r4, r5, pc}
     70e:	bf00      	nop

00000710 <_ZN11SimpleShell24on_console_line_receivedEPv>:
     710:	e92d 47f0 	stmdb	sp!, {r4, r5, r6, r7, r8, r9, sl, lr}
     714:	b0a6      	sub	sp, #152	; 0x98
     716:	4605      	mov	r5, r0
     718:	a80f      	add	r0, sp, #60	; 0x3c
     71a:	f004 fd7a 	bl	5212 <_ZNSsC1ERKSs>
     71e:	2200      	movs	r2, #0
     720:	2303      	movs	r3, #3
     722:	499d      	ldr	r1, [pc, #628]	; (998 <_ZN11SimpleShell24on_console_line_receivedEPv+0x288>)
     724:	a80f      	add	r0, sp, #60	; 0x3c
     726:	f004 fc4f 	bl	4fc8 <_ZNKSs13find_first_ofEPKcjj>
     72a:	2200      	movs	r2, #0
     72c:	4603      	mov	r3, r0
     72e:	a90f      	add	r1, sp, #60	; 0x3c
     730:	a80e      	add	r0, sp, #56	; 0x38
     732:	f004 ff73 	bl	561c <_ZNSsC1ERKSsjj>
     736:	a80e      	add	r0, sp, #56	; 0x38
     738:	f7ff fcdc 	bl	f4 <_Z12get_checksumSs>
     73c:	4606      	mov	r6, r0
     73e:	980e      	ldr	r0, [sp, #56]	; 0x38
     740:	4c96      	ldr	r4, [pc, #600]	; (99c <_ZN11SimpleShell24on_console_line_receivedEPv+0x28c>)
     742:	380c      	subs	r0, #12
     744:	42a0      	cmp	r0, r4
     746:	f040 8213 	bne.w	b70 <_ZN11SimpleShell24on_console_line_receivedEPv+0x460>
     74a:	f644 40df 	movw	r0, #19679	; 0x4cdf
     74e:	4286      	cmp	r6, r0
     750:	f000 812e 	beq.w	9b0 <_ZN11SimpleShell24on_console_line_receivedEPv+0x2a0>
     754:	f246 1139 	movw	r1, #24889	; 0x6139
     758:	428e      	cmp	r6, r1
     75a:	f000 808a 	beq.w	872 <_ZN11SimpleShell24on_console_line_receivedEPv+0x162>
     75e:	f642 3cc7 	movw	ip, #11207	; 0x2bc7
     762:	4566      	cmp	r6, ip
     764:	d007      	beq.n	776 <_ZN11SimpleShell24on_console_line_receivedEPv+0x66>
     766:	980f      	ldr	r0, [sp, #60]	; 0x3c
     768:	380c      	subs	r0, #12
     76a:	4284      	cmp	r4, r0
     76c:	f040 820a 	bne.w	b84 <_ZN11SimpleShell24on_console_line_receivedEPv+0x474>
     770:	b026      	add	sp, #152	; 0x98
     772:	e8bd 87f0 	ldmia.w	sp!, {r4, r5, r6, r7, r8, r9, sl, pc}
     776:	a90f      	add	r1, sp, #60	; 0x3c
     778:	a80b      	add	r0, sp, #44	; 0x2c
     77a:	f004 fd4a 	bl	5212 <_ZNSsC1ERKSs>
     77e:	2301      	movs	r3, #1
     780:	2200      	movs	r2, #0
     782:	a80b      	add	r0, sp, #44	; 0x2c
     784:	4986      	ldr	r1, [pc, #536]	; (9a0 <_ZN11SimpleShell24on_console_line_receivedEPv+0x290>)
     786:	f004 fc1f 	bl	4fc8 <_ZNKSs13find_first_ofEPKcjj>
     78a:	f1b0 3fff 	cmp.w	r0, #4294967295
     78e:	4603      	mov	r3, r0
     790:	f000 819b 	beq.w	aca <_ZN11SimpleShell24on_console_line_receivedEPv+0x3ba>
     794:	9f0b      	ldr	r7, [sp, #44]	; 0x2c
     796:	1c42      	adds	r2, r0, #1
     798:	f857 7c0c 	ldr.w	r7, [r7, #-12]
     79c:	42ba      	cmp	r2, r7
     79e:	f200 8205 	bhi.w	bac <_ZN11SimpleShell24on_console_line_receivedEPv+0x49c>
     7a2:	ae0a      	add	r6, sp, #40	; 0x28
     7a4:	4630      	mov	r0, r6
     7a6:	a90b      	add	r1, sp, #44	; 0x2c
     7a8:	1afb      	subs	r3, r7, r3
     7aa:	f004 ff37 	bl	561c <_ZNSsC1ERKSsjj>
     7ae:	4631      	mov	r1, r6
     7b0:	a804      	add	r0, sp, #16
     7b2:	f004 fd2e 	bl	5212 <_ZNSsC1ERKSs>
     7b6:	9b04      	ldr	r3, [sp, #16]
     7b8:	f853 6c04 	ldr.w	r6, [r3, #-4]
     7bc:	2e00      	cmp	r6, #0
     7be:	db03      	blt.n	7c8 <_ZN11SimpleShell24on_console_line_receivedEPv+0xb8>
     7c0:	a804      	add	r0, sp, #16
     7c2:	f004 fec9 	bl	5558 <_ZNSs12_M_leak_hardEv>
     7c6:	9b04      	ldr	r3, [sp, #16]
     7c8:	781a      	ldrb	r2, [r3, #0]
     7ca:	2a2f      	cmp	r2, #47	; 0x2f
     7cc:	f000 8190 	beq.w	af0 <_ZN11SimpleShell24on_console_line_receivedEPv+0x3e0>
     7d0:	f853 0c04 	ldr.w	r0, [r3, #-4]
     7d4:	2800      	cmp	r0, #0
     7d6:	db04      	blt.n	7e2 <_ZN11SimpleShell24on_console_line_receivedEPv+0xd2>
     7d8:	a804      	add	r0, sp, #16
     7da:	f004 febd 	bl	5558 <_ZNSs12_M_leak_hardEv>
     7de:	9904      	ldr	r1, [sp, #16]
     7e0:	780a      	ldrb	r2, [r1, #0]
     7e2:	2a2e      	cmp	r2, #46	; 0x2e
     7e4:	f000 8195 	beq.w	b12 <_ZN11SimpleShell24on_console_line_receivedEPv+0x402>
     7e8:	ae03      	add	r6, sp, #12
     7ea:	4630      	mov	r0, r6
     7ec:	f105 0108 	add.w	r1, r5, #8
     7f0:	aa04      	add	r2, sp, #16
     7f2:	f7ff ff81 	bl	6f8 <_ZStplIcSt11char_traitsIcESaIcEESbIT_T0_T1_ERKS6_S8_>
     7f6:	9804      	ldr	r0, [sp, #16]
     7f8:	380c      	subs	r0, #12
     7fa:	4284      	cmp	r4, r0
     7fc:	f040 822a 	bne.w	c54 <_ZN11SimpleShell24on_console_line_receivedEPv+0x544>
     800:	9803      	ldr	r0, [sp, #12]
     802:	f850 7c0c 	ldr.w	r7, [r0, #-12]
     806:	f850 1c04 	ldr.w	r1, [r0, #-4]
     80a:	3f01      	subs	r7, #1
     80c:	2900      	cmp	r1, #0
     80e:	db03      	blt.n	818 <_ZN11SimpleShell24on_console_line_receivedEPv+0x108>
     810:	4630      	mov	r0, r6
     812:	f004 fea1 	bl	5558 <_ZNSs12_M_leak_hardEv>
     816:	9803      	ldr	r0, [sp, #12]
     818:	f810 e007 	ldrb.w	lr, [r0, r7]
     81c:	f1be 0f2f 	cmp.w	lr, #47	; 0x2f
     820:	d005      	beq.n	82e <_ZN11SimpleShell24on_console_line_receivedEPv+0x11e>
     822:	4630      	mov	r0, r6
     824:	495f      	ldr	r1, [pc, #380]	; (9a4 <_ZN11SimpleShell24on_console_line_receivedEPv+0x294>)
     826:	2201      	movs	r2, #1
     828:	f004 fd64 	bl	52f4 <_ZNSs6appendEPKcj>
     82c:	9803      	ldr	r0, [sp, #12]
     82e:	f016 fd51 	bl	172d4 <opendir>
     832:	2800      	cmp	r0, #0
     834:	f000 817a 	beq.w	b2c <_ZN11SimpleShell24on_console_line_receivedEPv+0x41c>
     838:	f105 0008 	add.w	r0, r5, #8
     83c:	4631      	mov	r1, r6
     83e:	f004 fd15 	bl	526c <_ZNSs6assignERKSs>
     842:	9803      	ldr	r0, [sp, #12]
     844:	380c      	subs	r0, #12
     846:	4284      	cmp	r4, r0
     848:	f040 81c7 	bne.w	bda <_ZN11SimpleShell24on_console_line_receivedEPv+0x4ca>
     84c:	980a      	ldr	r0, [sp, #40]	; 0x28
     84e:	380c      	subs	r0, #12
     850:	4284      	cmp	r4, r0
     852:	f040 81a1 	bne.w	b98 <_ZN11SimpleShell24on_console_line_receivedEPv+0x488>
     856:	980b      	ldr	r0, [sp, #44]	; 0x2c
     858:	380c      	subs	r0, #12
     85a:	4284      	cmp	r4, r0
     85c:	d083      	beq.n	766 <_ZN11SimpleShell24on_console_line_receivedEPv+0x56>
     85e:	6881      	ldr	r1, [r0, #8]
     860:	1e4a      	subs	r2, r1, #1
     862:	2900      	cmp	r1, #0
     864:	6082      	str	r2, [r0, #8]
     866:	f73f af7e 	bgt.w	766 <_ZN11SimpleShell24on_console_line_receivedEPv+0x56>
     86a:	a918      	add	r1, sp, #96	; 0x60
     86c:	f004 fce5 	bl	523a <_ZNSs4_Rep10_M_destroyERKSaIcE>
     870:	e779      	b.n	766 <_ZN11SimpleShell24on_console_line_receivedEPv+0x56>
     872:	a90f      	add	r1, sp, #60	; 0x3c
     874:	a809      	add	r0, sp, #36	; 0x24
     876:	f004 fccc 	bl	5212 <_ZNSsC1ERKSs>
     87a:	2301      	movs	r3, #1
     87c:	2200      	movs	r2, #0
     87e:	a809      	add	r0, sp, #36	; 0x24
     880:	4947      	ldr	r1, [pc, #284]	; (9a0 <_ZN11SimpleShell24on_console_line_receivedEPv+0x290>)
     882:	f004 fba1 	bl	4fc8 <_ZNKSs13find_first_ofEPKcjj>
     886:	f1b0 3fff 	cmp.w	r0, #4294967295
     88a:	4603      	mov	r3, r0
     88c:	f000 8116 	beq.w	abc <_ZN11SimpleShell24on_console_line_receivedEPv+0x3ac>
     890:	9e09      	ldr	r6, [sp, #36]	; 0x24
     892:	1c42      	adds	r2, r0, #1
     894:	f856 7c0c 	ldr.w	r7, [r6, #-12]
     898:	42ba      	cmp	r2, r7
     89a:	f200 8187 	bhi.w	bac <_ZN11SimpleShell24on_console_line_receivedEPv+0x49c>
     89e:	ae08      	add	r6, sp, #32
     8a0:	4630      	mov	r0, r6
     8a2:	a909      	add	r1, sp, #36	; 0x24
     8a4:	1afb      	subs	r3, r7, r3
     8a6:	f004 feb9 	bl	561c <_ZNSsC1ERKSsjj>
     8aa:	a801      	add	r0, sp, #4
     8ac:	4631      	mov	r1, r6
     8ae:	f7ff fcb1 	bl	214 <_Z15shift_parameterRSs>
     8b2:	9b01      	ldr	r3, [sp, #4]
     8b4:	f853 7c04 	ldr.w	r7, [r3, #-4]
     8b8:	2f00      	cmp	r7, #0
     8ba:	db03      	blt.n	8c4 <_ZN11SimpleShell24on_console_line_receivedEPv+0x1b4>
     8bc:	a801      	add	r0, sp, #4
     8be:	f004 fe4b 	bl	5558 <_ZNSs12_M_leak_hardEv>
     8c2:	9b01      	ldr	r3, [sp, #4]
     8c4:	781a      	ldrb	r2, [r3, #0]
     8c6:	2a2f      	cmp	r2, #47	; 0x2f
     8c8:	f000 8118 	beq.w	afc <_ZN11SimpleShell24on_console_line_receivedEPv+0x3ec>
     8cc:	f853 0c04 	ldr.w	r0, [r3, #-4]
     8d0:	2800      	cmp	r0, #0
     8d2:	db04      	blt.n	8de <_ZN11SimpleShell24on_console_line_receivedEPv+0x1ce>
     8d4:	a801      	add	r0, sp, #4
     8d6:	f004 fe3f 	bl	5558 <_ZNSs12_M_leak_hardEv>
     8da:	9b01      	ldr	r3, [sp, #4]
     8dc:	781a      	ldrb	r2, [r3, #0]
     8de:	2a2e      	cmp	r2, #46	; 0x2e
     8e0:	f000 8111 	beq.w	b06 <_ZN11SimpleShell24on_console_line_receivedEPv+0x3f6>
     8e4:	a803      	add	r0, sp, #12
     8e6:	f105 0108 	add.w	r1, r5, #8
     8ea:	aa01      	add	r2, sp, #4
     8ec:	f7ff ff04 	bl	6f8 <_ZStplIcSt11char_traitsIcESaIcEESbIT_T0_T1_ERKS6_S8_>
     8f0:	9801      	ldr	r0, [sp, #4]
     8f2:	380c      	subs	r0, #12
     8f4:	4284      	cmp	r4, r0
     8f6:	f040 81a3 	bne.w	c40 <_ZN11SimpleShell24on_console_line_receivedEPv+0x530>
     8fa:	4631      	mov	r1, r6
     8fc:	a802      	add	r0, sp, #8
     8fe:	f7ff fc89 	bl	214 <_Z15shift_parameterRSs>
     902:	a802      	add	r0, sp, #8
     904:	4928      	ldr	r1, [pc, #160]	; (9a8 <_ZN11SimpleShell24on_console_line_receivedEPv+0x298>)
     906:	f004 fbfb 	bl	5100 <_ZNKSs7compareEPKc>
     90a:	2800      	cmp	r0, #0
     90c:	f040 80e4 	bne.w	ad8 <_ZN11SimpleShell24on_console_line_receivedEPv+0x3c8>
     910:	f04f 38ff 	mov.w	r8, #4294967295
     914:	9803      	ldr	r0, [sp, #12]
     916:	4925      	ldr	r1, [pc, #148]	; (9ac <_ZN11SimpleShell24on_console_line_receivedEPv+0x29c>)
     918:	f00b fdba 	bl	c490 <fopen>
     91c:	2600      	movs	r6, #0
     91e:	4607      	mov	r7, r0
     920:	4638      	mov	r0, r7
     922:	f00b fcc1 	bl	c2a8 <fgetc>
     926:	f1b0 3fff 	cmp.w	r0, #4294967295
     92a:	4681      	mov	r9, r0
     92c:	d013      	beq.n	956 <_ZN11SimpleShell24on_console_line_receivedEPv+0x246>
     92e:	6868      	ldr	r0, [r5, #4]
     930:	fa5f fa89 	uxtb.w	sl, r9
     934:	f1ba 0f0a 	cmp.w	sl, #10
     938:	f8d0 a000 	ldr.w	sl, [r0]
     93c:	bf08      	it	eq
     93e:	3601      	addeq	r6, #1
     940:	f8da 001c 	ldr.w	r0, [sl, #28]
     944:	f00b fc72 	bl	c22c <fflush>
     948:	4648      	mov	r0, r9
     94a:	f8da 101c 	ldr.w	r1, [sl, #28]
     94e:	f00b fddf 	bl	c510 <fputc>
     952:	4546      	cmp	r6, r8
     954:	d1e4      	bne.n	920 <_ZN11SimpleShell24on_console_line_receivedEPv+0x210>
     956:	4638      	mov	r0, r7
     958:	f00b fba6 	bl	c0a8 <fclose>
     95c:	9802      	ldr	r0, [sp, #8]
     95e:	380c      	subs	r0, #12
     960:	4284      	cmp	r4, r0
     962:	f040 8158 	bne.w	c16 <_ZN11SimpleShell24on_console_line_receivedEPv+0x506>
     966:	9803      	ldr	r0, [sp, #12]
     968:	380c      	subs	r0, #12
     96a:	4284      	cmp	r4, r0
     96c:	f040 812b 	bne.w	bc6 <_ZN11SimpleShell24on_console_line_receivedEPv+0x4b6>
     970:	9808      	ldr	r0, [sp, #32]
     972:	380c      	subs	r0, #12
     974:	4284      	cmp	r4, r0
     976:	f040 811c 	bne.w	bb2 <_ZN11SimpleShell24on_console_line_receivedEPv+0x4a2>
     97a:	9809      	ldr	r0, [sp, #36]	; 0x24
     97c:	380c      	subs	r0, #12
     97e:	4284      	cmp	r4, r0
     980:	f43f aef1 	beq.w	766 <_ZN11SimpleShell24on_console_line_receivedEPv+0x56>
     984:	6881      	ldr	r1, [r0, #8]
     986:	1e4a      	subs	r2, r1, #1
     988:	2900      	cmp	r1, #0
     98a:	6082      	str	r2, [r0, #8]
     98c:	f73f aeeb 	bgt.w	766 <_ZN11SimpleShell24on_console_line_receivedEPv+0x56>
     990:	a911      	add	r1, sp, #68	; 0x44
     992:	f004 fc52 	bl	523a <_ZNSs4_Rep10_M_destroyERKSaIcE>
     996:	e6e6      	b.n	766 <_ZN11SimpleShell24on_console_line_receivedEPv+0x56>
     998:	00014db8 	.word	0x00014db8
     99c:	100009f8 	.word	0x100009f8
     9a0:	00014c94 	.word	0x00014c94
     9a4:	00014d84 	.word	0x00014d84
     9a8:	00014f94 	.word	0x00014f94
     9ac:	00014de4 	.word	0x00014de4
     9b0:	a90f      	add	r1, sp, #60	; 0x3c
     9b2:	a80d      	add	r0, sp, #52	; 0x34
     9b4:	f004 fc2d 	bl	5212 <_ZNSsC1ERKSs>
     9b8:	2301      	movs	r3, #1
     9ba:	2200      	movs	r2, #0
     9bc:	a80d      	add	r0, sp, #52	; 0x34
     9be:	499b      	ldr	r1, [pc, #620]	; (c2c <_ZN11SimpleShell24on_console_line_receivedEPv+0x51c>)
     9c0:	f004 fb02 	bl	4fc8 <_ZNKSs13find_first_ofEPKcjj>
     9c4:	f1b0 3fff 	cmp.w	r0, #4294967295
     9c8:	4603      	mov	r3, r0
     9ca:	d070      	beq.n	aae <_ZN11SimpleShell24on_console_line_receivedEPv+0x39e>
     9cc:	9e0d      	ldr	r6, [sp, #52]	; 0x34
     9ce:	1c42      	adds	r2, r0, #1
     9d0:	f856 7c0c 	ldr.w	r7, [r6, #-12]
     9d4:	42ba      	cmp	r2, r7
     9d6:	f200 80e9 	bhi.w	bac <_ZN11SimpleShell24on_console_line_receivedEPv+0x49c>
     9da:	ae0c      	add	r6, sp, #48	; 0x30
     9dc:	4630      	mov	r0, r6
     9de:	a90d      	add	r1, sp, #52	; 0x34
     9e0:	1afb      	subs	r3, r7, r3
     9e2:	f004 fe1b 	bl	561c <_ZNSsC1ERKSsjj>
     9e6:	a805      	add	r0, sp, #20
     9e8:	4631      	mov	r1, r6
     9ea:	f004 fc12 	bl	5212 <_ZNSsC1ERKSs>
     9ee:	9b05      	ldr	r3, [sp, #20]
     9f0:	f853 7c04 	ldr.w	r7, [r3, #-4]
     9f4:	2f00      	cmp	r7, #0
     9f6:	db03      	blt.n	a00 <_ZN11SimpleShell24on_console_line_receivedEPv+0x2f0>
     9f8:	a805      	add	r0, sp, #20
     9fa:	f004 fdad 	bl	5558 <_ZNSs12_M_leak_hardEv>
     9fe:	9b05      	ldr	r3, [sp, #20]
     a00:	781a      	ldrb	r2, [r3, #0]
     a02:	2a2f      	cmp	r2, #47	; 0x2f
     a04:	d06f      	beq.n	ae6 <_ZN11SimpleShell24on_console_line_receivedEPv+0x3d6>
     a06:	f853 3c04 	ldr.w	r3, [r3, #-4]
     a0a:	2b00      	cmp	r3, #0
     a0c:	db04      	blt.n	a18 <_ZN11SimpleShell24on_console_line_receivedEPv+0x308>
     a0e:	a805      	add	r0, sp, #20
     a10:	f004 fda2 	bl	5558 <_ZNSs12_M_leak_hardEv>
     a14:	9a05      	ldr	r2, [sp, #20]
     a16:	7812      	ldrb	r2, [r2, #0]
     a18:	2a2e      	cmp	r2, #46	; 0x2e
     a1a:	f000 8081 	beq.w	b20 <_ZN11SimpleShell24on_console_line_receivedEPv+0x410>
     a1e:	a803      	add	r0, sp, #12
     a20:	f105 0108 	add.w	r1, r5, #8
     a24:	aa05      	add	r2, sp, #20
     a26:	f7ff fe67 	bl	6f8 <_ZStplIcSt11char_traitsIcESaIcEESbIT_T0_T1_ERKS6_S8_>
     a2a:	9805      	ldr	r0, [sp, #20]
     a2c:	380c      	subs	r0, #12
     a2e:	4284      	cmp	r4, r0
     a30:	f040 811a 	bne.w	c68 <_ZN11SimpleShell24on_console_line_receivedEPv+0x558>
     a34:	9803      	ldr	r0, [sp, #12]
     a36:	f016 fc4d 	bl	172d4 <opendir>
     a3a:	4607      	mov	r7, r0
     a3c:	b9c8      	cbnz	r0, a72 <_ZN11SimpleShell24on_console_line_receivedEPv+0x362>
     a3e:	e07d      	b.n	b3c <_ZN11SimpleShell24on_console_line_receivedEPv+0x42c>
     a40:	686e      	ldr	r6, [r5, #4]
     a42:	aa23      	add	r2, sp, #140	; 0x8c
     a44:	6836      	ldr	r6, [r6, #0]
     a46:	4601      	mov	r1, r0
     a48:	a807      	add	r0, sp, #28
     a4a:	f004 fe4f 	bl	56ec <_ZNSsC1EPKcRKSaIcE>
     a4e:	3608      	adds	r6, #8
     a50:	a907      	add	r1, sp, #28
     a52:	a806      	add	r0, sp, #24
     a54:	f7ff fb92 	bl	17c <_Z2lcSs>
     a58:	4630      	mov	r0, r6
     a5a:	4975      	ldr	r1, [pc, #468]	; (c30 <_ZN11SimpleShell24on_console_line_receivedEPv+0x520>)
     a5c:	9a06      	ldr	r2, [sp, #24]
     a5e:	f017 f97d 	bl	17d5c <_ZN4mbed6Stream6printfEPKcz>
     a62:	9806      	ldr	r0, [sp, #24]
     a64:	380c      	subs	r0, #12
     a66:	4284      	cmp	r4, r0
     a68:	d170      	bne.n	b4c <_ZN11SimpleShell24on_console_line_receivedEPv+0x43c>
     a6a:	9807      	ldr	r0, [sp, #28]
     a6c:	380c      	subs	r0, #12
     a6e:	4284      	cmp	r4, r0
     a70:	d175      	bne.n	b5e <_ZN11SimpleShell24on_console_line_receivedEPv+0x44e>
     a72:	4638      	mov	r0, r7
     a74:	f016 fc58 	bl	17328 <readdir>
     a78:	2800      	cmp	r0, #0
     a7a:	d1e1      	bne.n	a40 <_ZN11SimpleShell24on_console_line_receivedEPv+0x330>
     a7c:	9803      	ldr	r0, [sp, #12]
     a7e:	380c      	subs	r0, #12
     a80:	4284      	cmp	r4, r0
     a82:	f040 80b4 	bne.w	bee <_ZN11SimpleShell24on_console_line_receivedEPv+0x4de>
     a86:	980c      	ldr	r0, [sp, #48]	; 0x30
     a88:	380c      	subs	r0, #12
     a8a:	4284      	cmp	r4, r0
     a8c:	f040 80b9 	bne.w	c02 <_ZN11SimpleShell24on_console_line_receivedEPv+0x4f2>
     a90:	980d      	ldr	r0, [sp, #52]	; 0x34
     a92:	380c      	subs	r0, #12
     a94:	4284      	cmp	r4, r0
     a96:	f43f ae66 	beq.w	766 <_ZN11SimpleShell24on_console_line_receivedEPv+0x56>
     a9a:	6883      	ldr	r3, [r0, #8]
     a9c:	1e5a      	subs	r2, r3, #1
     a9e:	2b00      	cmp	r3, #0
     aa0:	6082      	str	r2, [r0, #8]
     aa2:	f73f ae60 	bgt.w	766 <_ZN11SimpleShell24on_console_line_receivedEPv+0x56>
     aa6:	a91d      	add	r1, sp, #116	; 0x74
     aa8:	f004 fbc7 	bl	523a <_ZNSs4_Rep10_M_destroyERKSaIcE>
     aac:	e65b      	b.n	766 <_ZN11SimpleShell24on_console_line_receivedEPv+0x56>
     aae:	ae0c      	add	r6, sp, #48	; 0x30
     ab0:	4630      	mov	r0, r6
     ab2:	4960      	ldr	r1, [pc, #384]	; (c34 <_ZN11SimpleShell24on_console_line_receivedEPv+0x524>)
     ab4:	aa24      	add	r2, sp, #144	; 0x90
     ab6:	f004 fe19 	bl	56ec <_ZNSsC1EPKcRKSaIcE>
     aba:	e794      	b.n	9e6 <_ZN11SimpleShell24on_console_line_receivedEPv+0x2d6>
     abc:	ae08      	add	r6, sp, #32
     abe:	4630      	mov	r0, r6
     ac0:	495c      	ldr	r1, [pc, #368]	; (c34 <_ZN11SimpleShell24on_console_line_receivedEPv+0x524>)
     ac2:	aa17      	add	r2, sp, #92	; 0x5c
     ac4:	f004 fe12 	bl	56ec <_ZNSsC1EPKcRKSaIcE>
     ac8:	e6ef      	b.n	8aa <_ZN11SimpleShell24on_console_line_receivedEPv+0x19a>
     aca:	ae0a      	add	r6, sp, #40	; 0x28
     acc:	4630      	mov	r0, r6
     ace:	4959      	ldr	r1, [pc, #356]	; (c34 <_ZN11SimpleShell24on_console_line_receivedEPv+0x524>)
     ad0:	aa1c      	add	r2, sp, #112	; 0x70
     ad2:	f004 fe0b 	bl	56ec <_ZNSsC1EPKcRKSaIcE>
     ad6:	e66a      	b.n	7ae <_ZN11SimpleShell24on_console_line_receivedEPv+0x9e>
     ad8:	9802      	ldr	r0, [sp, #8]
     ada:	f00b fa5e 	bl	bf9a <atof>
     ade:	f00a f9e3 	bl	aea8 <__aeabi_d2iz>
     ae2:	4680      	mov	r8, r0
     ae4:	e716      	b.n	914 <_ZN11SimpleShell24on_console_line_receivedEPv+0x204>
     ae6:	a803      	add	r0, sp, #12
     ae8:	a905      	add	r1, sp, #20
     aea:	f004 fb92 	bl	5212 <_ZNSsC1ERKSs>
     aee:	e79c      	b.n	a2a <_ZN11SimpleShell24on_console_line_receivedEPv+0x31a>
     af0:	ae03      	add	r6, sp, #12
     af2:	4630      	mov	r0, r6
     af4:	a904      	add	r1, sp, #16
     af6:	f004 fb8c 	bl	5212 <_ZNSsC1ERKSs>
     afa:	e67c      	b.n	7f6 <_ZN11SimpleShell24on_console_line_receivedEPv+0xe6>
     afc:	a803      	add	r0, sp, #12
     afe:	a901      	add	r1, sp, #4
     b00:	f004 fb87 	bl	5212 <_ZNSsC1ERKSs>
     b04:	e6f4      	b.n	8f0 <_ZN11SimpleShell24on_console_line_receivedEPv+0x1e0>
     b06:	a803      	add	r0, sp, #12
     b08:	f105 0108 	add.w	r1, r5, #8
     b0c:	f004 fb81 	bl	5212 <_ZNSsC1ERKSs>
     b10:	e6ee      	b.n	8f0 <_ZN11SimpleShell24on_console_line_receivedEPv+0x1e0>
     b12:	ae03      	add	r6, sp, #12
     b14:	4630      	mov	r0, r6
     b16:	f105 0108 	add.w	r1, r5, #8
     b1a:	f004 fb7a 	bl	5212 <_ZNSsC1ERKSs>
     b1e:	e66a      	b.n	7f6 <_ZN11SimpleShell24on_console_line_receivedEPv+0xe6>
     b20:	a803      	add	r0, sp, #12
     b22:	f105 0108 	add.w	r1, r5, #8
     b26:	f004 fb74 	bl	5212 <_ZNSsC1ERKSs>
     b2a:	e77e      	b.n	a2a <_ZN11SimpleShell24on_console_line_receivedEPv+0x31a>
     b2c:	6868      	ldr	r0, [r5, #4]
     b2e:	4942      	ldr	r1, [pc, #264]	; (c38 <_ZN11SimpleShell24on_console_line_receivedEPv+0x528>)
     b30:	6800      	ldr	r0, [r0, #0]
     b32:	9a03      	ldr	r2, [sp, #12]
     b34:	3008      	adds	r0, #8
     b36:	f017 f911 	bl	17d5c <_ZN4mbed6Stream6printfEPKcz>
     b3a:	e682      	b.n	842 <_ZN11SimpleShell24on_console_line_receivedEPv+0x132>
     b3c:	6868      	ldr	r0, [r5, #4]
     b3e:	493e      	ldr	r1, [pc, #248]	; (c38 <_ZN11SimpleShell24on_console_line_receivedEPv+0x528>)
     b40:	6800      	ldr	r0, [r0, #0]
     b42:	9a03      	ldr	r2, [sp, #12]
     b44:	3008      	adds	r0, #8
     b46:	f017 f909 	bl	17d5c <_ZN4mbed6Stream6printfEPKcz>
     b4a:	e797      	b.n	a7c <_ZN11SimpleShell24on_console_line_receivedEPv+0x36c>
     b4c:	6883      	ldr	r3, [r0, #8]
     b4e:	1e5a      	subs	r2, r3, #1
     b50:	2b00      	cmp	r3, #0
     b52:	6082      	str	r2, [r0, #8]
     b54:	dc89      	bgt.n	a6a <_ZN11SimpleShell24on_console_line_receivedEPv+0x35a>
     b56:	a921      	add	r1, sp, #132	; 0x84
     b58:	f004 fb6f 	bl	523a <_ZNSs4_Rep10_M_destroyERKSaIcE>
     b5c:	e785      	b.n	a6a <_ZN11SimpleShell24on_console_line_receivedEPv+0x35a>
     b5e:	6881      	ldr	r1, [r0, #8]
     b60:	1e4b      	subs	r3, r1, #1
     b62:	2900      	cmp	r1, #0
     b64:	6083      	str	r3, [r0, #8]
     b66:	dc84      	bgt.n	a72 <_ZN11SimpleShell24on_console_line_receivedEPv+0x362>
     b68:	a920      	add	r1, sp, #128	; 0x80
     b6a:	f004 fb66 	bl	523a <_ZNSs4_Rep10_M_destroyERKSaIcE>
     b6e:	e780      	b.n	a72 <_ZN11SimpleShell24on_console_line_receivedEPv+0x362>
     b70:	6883      	ldr	r3, [r0, #8]
     b72:	1e5a      	subs	r2, r3, #1
     b74:	2b00      	cmp	r3, #0
     b76:	6082      	str	r2, [r0, #8]
     b78:	f73f ade7 	bgt.w	74a <_ZN11SimpleShell24on_console_line_receivedEPv+0x3a>
     b7c:	a925      	add	r1, sp, #148	; 0x94
     b7e:	f004 fb5c 	bl	523a <_ZNSs4_Rep10_M_destroyERKSaIcE>
     b82:	e5e2      	b.n	74a <_ZN11SimpleShell24on_console_line_receivedEPv+0x3a>
     b84:	6883      	ldr	r3, [r0, #8]
     b86:	1e59      	subs	r1, r3, #1
     b88:	2b00      	cmp	r3, #0
     b8a:	6081      	str	r1, [r0, #8]
     b8c:	f73f adf0 	bgt.w	770 <_ZN11SimpleShell24on_console_line_receivedEPv+0x60>
     b90:	a910      	add	r1, sp, #64	; 0x40
     b92:	f004 fb52 	bl	523a <_ZNSs4_Rep10_M_destroyERKSaIcE>
     b96:	e5eb      	b.n	770 <_ZN11SimpleShell24on_console_line_receivedEPv+0x60>
     b98:	6881      	ldr	r1, [r0, #8]
     b9a:	1e4b      	subs	r3, r1, #1
     b9c:	2900      	cmp	r1, #0
     b9e:	6083      	str	r3, [r0, #8]
     ba0:	f73f ae59 	bgt.w	856 <_ZN11SimpleShell24on_console_line_receivedEPv+0x146>
     ba4:	a919      	add	r1, sp, #100	; 0x64
     ba6:	f004 fb48 	bl	523a <_ZNSs4_Rep10_M_destroyERKSaIcE>
     baa:	e654      	b.n	856 <_ZN11SimpleShell24on_console_line_receivedEPv+0x146>
     bac:	4823      	ldr	r0, [pc, #140]	; (c3c <_ZN11SimpleShell24on_console_line_receivedEPv+0x52c>)
     bae:	f004 f990 	bl	4ed2 <_ZSt20__throw_out_of_rangePKc>
     bb2:	6881      	ldr	r1, [r0, #8]
     bb4:	1e4b      	subs	r3, r1, #1
     bb6:	2900      	cmp	r1, #0
     bb8:	6083      	str	r3, [r0, #8]
     bba:	f73f aede 	bgt.w	97a <_ZN11SimpleShell24on_console_line_receivedEPv+0x26a>
     bbe:	a912      	add	r1, sp, #72	; 0x48
     bc0:	f004 fb3b 	bl	523a <_ZNSs4_Rep10_M_destroyERKSaIcE>
     bc4:	e6d9      	b.n	97a <_ZN11SimpleShell24on_console_line_receivedEPv+0x26a>
     bc6:	6883      	ldr	r3, [r0, #8]
     bc8:	1e5a      	subs	r2, r3, #1
     bca:	2b00      	cmp	r3, #0
     bcc:	6082      	str	r2, [r0, #8]
     bce:	f73f aecf 	bgt.w	970 <_ZN11SimpleShell24on_console_line_receivedEPv+0x260>
     bd2:	a913      	add	r1, sp, #76	; 0x4c
     bd4:	f004 fb31 	bl	523a <_ZNSs4_Rep10_M_destroyERKSaIcE>
     bd8:	e6ca      	b.n	970 <_ZN11SimpleShell24on_console_line_receivedEPv+0x260>
     bda:	6883      	ldr	r3, [r0, #8]
     bdc:	1e5a      	subs	r2, r3, #1
     bde:	2b00      	cmp	r3, #0
     be0:	6082      	str	r2, [r0, #8]
     be2:	f73f ae33 	bgt.w	84c <_ZN11SimpleShell24on_console_line_receivedEPv+0x13c>
     be6:	a91a      	add	r1, sp, #104	; 0x68
     be8:	f004 fb27 	bl	523a <_ZNSs4_Rep10_M_destroyERKSaIcE>
     bec:	e62e      	b.n	84c <_ZN11SimpleShell24on_console_line_receivedEPv+0x13c>
     bee:	6881      	ldr	r1, [r0, #8]
     bf0:	1e4a      	subs	r2, r1, #1
     bf2:	2900      	cmp	r1, #0
     bf4:	6082      	str	r2, [r0, #8]
     bf6:	f73f af46 	bgt.w	a86 <_ZN11SimpleShell24on_console_line_receivedEPv+0x376>
     bfa:	a91f      	add	r1, sp, #124	; 0x7c
     bfc:	f004 fb1d 	bl	523a <_ZNSs4_Rep10_M_destroyERKSaIcE>
     c00:	e741      	b.n	a86 <_ZN11SimpleShell24on_console_line_receivedEPv+0x376>
     c02:	6883      	ldr	r3, [r0, #8]
     c04:	1e59      	subs	r1, r3, #1
     c06:	2b00      	cmp	r3, #0
     c08:	6081      	str	r1, [r0, #8]
     c0a:	f73f af41 	bgt.w	a90 <_ZN11SimpleShell24on_console_line_receivedEPv+0x380>
     c0e:	a91e      	add	r1, sp, #120	; 0x78
     c10:	f004 fb13 	bl	523a <_ZNSs4_Rep10_M_destroyERKSaIcE>
     c14:	e73c      	b.n	a90 <_ZN11SimpleShell24on_console_line_receivedEPv+0x380>
     c16:	6883      	ldr	r3, [r0, #8]
     c18:	1e59      	subs	r1, r3, #1
     c1a:	2b00      	cmp	r3, #0
     c1c:	6081      	str	r1, [r0, #8]
     c1e:	f73f aea2 	bgt.w	966 <_ZN11SimpleShell24on_console_line_receivedEPv+0x256>
     c22:	a914      	add	r1, sp, #80	; 0x50
     c24:	f004 fb09 	bl	523a <_ZNSs4_Rep10_M_destroyERKSaIcE>
     c28:	e69d      	b.n	966 <_ZN11SimpleShell24on_console_line_receivedEPv+0x256>
     c2a:	bf00      	nop
     c2c:	00014c94 	.word	0x00014c94
     c30:	00014dbc 	.word	0x00014dbc
     c34:	00014f94 	.word	0x00014f94
     c38:	00014dc4 	.word	0x00014dc4
     c3c:	00014c98 	.word	0x00014c98
     c40:	6881      	ldr	r1, [r0, #8]
     c42:	1e4a      	subs	r2, r1, #1
     c44:	2900      	cmp	r1, #0
     c46:	6082      	str	r2, [r0, #8]
     c48:	f73f ae57 	bgt.w	8fa <_ZN11SimpleShell24on_console_line_receivedEPv+0x1ea>
     c4c:	a916      	add	r1, sp, #88	; 0x58
     c4e:	f004 faf4 	bl	523a <_ZNSs4_Rep10_M_destroyERKSaIcE>
     c52:	e652      	b.n	8fa <_ZN11SimpleShell24on_console_line_receivedEPv+0x1ea>
     c54:	6883      	ldr	r3, [r0, #8]
     c56:	1e5a      	subs	r2, r3, #1
     c58:	2b00      	cmp	r3, #0
     c5a:	6082      	str	r2, [r0, #8]
     c5c:	f73f add0 	bgt.w	800 <_ZN11SimpleShell24on_console_line_receivedEPv+0xf0>
     c60:	a91b      	add	r1, sp, #108	; 0x6c
     c62:	f004 faea 	bl	523a <_ZNSs4_Rep10_M_destroyERKSaIcE>
     c66:	e5cb      	b.n	800 <_ZN11SimpleShell24on_console_line_receivedEPv+0xf0>
     c68:	6881      	ldr	r1, [r0, #8]
     c6a:	1e4f      	subs	r7, r1, #1
     c6c:	2900      	cmp	r1, #0
     c6e:	6087      	str	r7, [r0, #8]
     c70:	f73f aee0 	bgt.w	a34 <_ZN11SimpleShell24on_console_line_receivedEPv+0x324>
     c74:	a922      	add	r1, sp, #136	; 0x88
     c76:	f004 fae0 	bl	523a <_ZNSs4_Rep10_M_destroyERKSaIcE>
     c7a:	e6db      	b.n	a34 <_ZN11SimpleShell24on_console_line_receivedEPv+0x324>

00000c7c <_ZN12SDFileSystemD0Ev>:
     c7c:	4a0c      	ldr	r2, [pc, #48]	; (cb0 <_ZN12SDFileSystemD0Ev+0x34>)
     c7e:	490d      	ldr	r1, [pc, #52]	; (cb4 <_ZN12SDFileSystemD0Ev+0x38>)
     c80:	b510      	push	{r4, lr}
     c82:	4604      	mov	r4, r0
     c84:	6002      	str	r2, [r0, #0]
     c86:	f8c0 1264 	str.w	r1, [r0, #612]	; 0x264
     c8a:	f500 7019 	add.w	r0, r0, #612	; 0x264
     c8e:	f016 f907 	bl	16ea0 <_ZN4mbed4BaseD1Ev>
     c92:	4b09      	ldr	r3, [pc, #36]	; (cb8 <_ZN12SDFileSystemD0Ev+0x3c>)
     c94:	f504 7011 	add.w	r0, r4, #580	; 0x244
     c98:	f8c4 3244 	str.w	r3, [r4, #580]	; 0x244
     c9c:	f016 f900 	bl	16ea0 <_ZN4mbed4BaseD1Ev>
     ca0:	4620      	mov	r0, r4
     ca2:	f018 f951 	bl	18f48 <_ZN4mbed13FATFileSystemD1Ev>
     ca6:	4620      	mov	r0, r4
     ca8:	f004 fdb6 	bl	5818 <_ZdlPv>
     cac:	4620      	mov	r0, r4
     cae:	bd10      	pop	{r4, pc}
     cb0:	00014f38 	.word	0x00014f38
     cb4:	0001b0dc 	.word	0x0001b0dc
     cb8:	0001b2b4 	.word	0x0001b2b4

00000cbc <_GLOBAL__I_sd>:
     cbc:	b530      	push	{r4, r5, lr}
     cbe:	4d0a      	ldr	r5, [pc, #40]	; (ce8 <_GLOBAL__I_sd+0x2c>)
     cc0:	b083      	sub	sp, #12
     cc2:	4c0a      	ldr	r4, [pc, #40]	; (cec <_GLOBAL__I_sd+0x30>)
     cc4:	9500      	str	r5, [sp, #0]
     cc6:	4d0a      	ldr	r5, [pc, #40]	; (cf0 <_GLOBAL__I_sd+0x34>)
     cc8:	490a      	ldr	r1, [pc, #40]	; (cf4 <_GLOBAL__I_sd+0x38>)
     cca:	4a0b      	ldr	r2, [pc, #44]	; (cf8 <_GLOBAL__I_sd+0x3c>)
     ccc:	4620      	mov	r0, r4
     cce:	4b0b      	ldr	r3, [pc, #44]	; (cfc <_GLOBAL__I_sd+0x40>)
     cd0:	9501      	str	r5, [sp, #4]
     cd2:	f000 fb99 	bl	1408 <_ZN12SDFileSystemC1E7PinNameS0_S0_S0_PKc>
     cd6:	490a      	ldr	r1, [pc, #40]	; (d00 <_GLOBAL__I_sd+0x44>)
     cd8:	4a0a      	ldr	r2, [pc, #40]	; (d04 <_GLOBAL__I_sd+0x48>)
     cda:	4620      	mov	r0, r4
     cdc:	b003      	add	sp, #12
     cde:	e8bd 4030 	ldmia.w	sp!, {r4, r5, lr}
     ce2:	f004 bd1a 	b.w	571a <__aeabi_atexit>
     ce6:	bf00      	nop
     ce8:	2009c006 	.word	0x2009c006
     cec:	100006c4 	.word	0x100006c4
     cf0:	00014de8 	.word	0x00014de8
     cf4:	2009c009 	.word	0x2009c009
     cf8:	2009c008 	.word	0x2009c008
     cfc:	2009c007 	.word	0x2009c007
     d00:	00000639 	.word	0x00000639
     d04:	100000c4 	.word	0x100000c4

00000d08 <_ZN6ConfigC1Ev>:
     d08:	b510      	push	{r4, lr}
     d0a:	4604      	mov	r4, r0
     d0c:	f000 fb1e 	bl	134c <_ZN6ModuleC1Ev>
     d10:	4903      	ldr	r1, [pc, #12]	; (d20 <_ZN6ConfigC1Ev+0x18>)
     d12:	4804      	ldr	r0, [pc, #16]	; (d24 <_ZN6ConfigC1Ev+0x1c>)
     d14:	2300      	movs	r3, #0
     d16:	60a0      	str	r0, [r4, #8]
     d18:	6021      	str	r1, [r4, #0]
     d1a:	7323      	strb	r3, [r4, #12]
     d1c:	4620      	mov	r0, r4
     d1e:	bd10      	pop	{r4, pc}
     d20:	00014df8 	.word	0x00014df8
     d24:	10000a04 	.word	0x10000a04

00000d28 <_ZN6Config15try_config_fileESs>:
     d28:	b570      	push	{r4, r5, r6, lr}
     d2a:	460d      	mov	r5, r1
     d2c:	4606      	mov	r6, r0
     d2e:	4909      	ldr	r1, [pc, #36]	; (d54 <_ZN6Config15try_config_fileESs+0x2c>)
     d30:	6828      	ldr	r0, [r5, #0]
     d32:	f00b fbad 	bl	c490 <fopen>
     d36:	4604      	mov	r4, r0
     d38:	b130      	cbz	r0, d48 <_ZN6Config15try_config_fileESs+0x20>
     d3a:	2301      	movs	r3, #1
     d3c:	7333      	strb	r3, [r6, #12]
     d3e:	f106 0008 	add.w	r0, r6, #8
     d42:	4629      	mov	r1, r5
     d44:	f004 fa92 	bl	526c <_ZNSs6assignERKSs>
     d48:	4620      	mov	r0, r4
     d4a:	e8bd 4070 	ldmia.w	sp!, {r4, r5, r6, lr}
     d4e:	f00b b9ab 	b.w	c0a8 <fclose>
     d52:	bf00      	nop
     d54:	00014de4 	.word	0x00014de4

00000d58 <_ZN6Config15get_config_fileEv>:
     d58:	b570      	push	{r4, r5, r6, lr}
     d5a:	7b0b      	ldrb	r3, [r1, #12]
     d5c:	b086      	sub	sp, #24
     d5e:	460c      	mov	r4, r1
     d60:	4605      	mov	r5, r0
     d62:	2b00      	cmp	r3, #0
     d64:	d128      	bne.n	db8 <_ZN6Config15get_config_fileEv+0x60>
     d66:	aa05      	add	r2, sp, #20
     d68:	491e      	ldr	r1, [pc, #120]	; (de4 <_ZN6Config15get_config_fileEv+0x8c>)
     d6a:	a801      	add	r0, sp, #4
     d6c:	f004 fcbe 	bl	56ec <_ZNSsC1EPKcRKSaIcE>
     d70:	4620      	mov	r0, r4
     d72:	a901      	add	r1, sp, #4
     d74:	f7ff ffd8 	bl	d28 <_ZN6Config15try_config_fileESs>
     d78:	9801      	ldr	r0, [sp, #4]
     d7a:	4e1b      	ldr	r6, [pc, #108]	; (de8 <_ZN6Config15get_config_fileEv+0x90>)
     d7c:	380c      	subs	r0, #12
     d7e:	42b0      	cmp	r0, r6
     d80:	d127      	bne.n	dd2 <_ZN6Config15get_config_fileEv+0x7a>
     d82:	aa04      	add	r2, sp, #16
     d84:	4919      	ldr	r1, [pc, #100]	; (dec <_ZN6Config15get_config_fileEv+0x94>)
     d86:	4668      	mov	r0, sp
     d88:	f004 fcb0 	bl	56ec <_ZNSsC1EPKcRKSaIcE>
     d8c:	4620      	mov	r0, r4
     d8e:	4669      	mov	r1, sp
     d90:	f7ff ffca 	bl	d28 <_ZN6Config15try_config_fileESs>
     d94:	9800      	ldr	r0, [sp, #0]
     d96:	380c      	subs	r0, #12
     d98:	4286      	cmp	r6, r0
     d9a:	d111      	bne.n	dc0 <_ZN6Config15get_config_fileEv+0x68>
     d9c:	7b20      	ldrb	r0, [r4, #12]
     d9e:	b928      	cbnz	r0, dac <_ZN6Config15get_config_fileEv+0x54>
     da0:	4813      	ldr	r0, [pc, #76]	; (df0 <_ZN6Config15get_config_fileEv+0x98>)
     da2:	f00c fbe9 	bl	d578 <puts>
     da6:	4628      	mov	r0, r5
     da8:	b006      	add	sp, #24
     daa:	bd70      	pop	{r4, r5, r6, pc}
     dac:	4628      	mov	r0, r5
     dae:	f104 0108 	add.w	r1, r4, #8
     db2:	f004 fa2e 	bl	5212 <_ZNSsC1ERKSs>
     db6:	e7f6      	b.n	da6 <_ZN6Config15get_config_fileEv+0x4e>
     db8:	3108      	adds	r1, #8
     dba:	f004 fa2a 	bl	5212 <_ZNSsC1ERKSs>
     dbe:	e7f2      	b.n	da6 <_ZN6Config15get_config_fileEv+0x4e>
     dc0:	6883      	ldr	r3, [r0, #8]
     dc2:	1e59      	subs	r1, r3, #1
     dc4:	2b00      	cmp	r3, #0
     dc6:	6081      	str	r1, [r0, #8]
     dc8:	dce8      	bgt.n	d9c <_ZN6Config15get_config_fileEv+0x44>
     dca:	a902      	add	r1, sp, #8
     dcc:	f004 fa35 	bl	523a <_ZNSs4_Rep10_M_destroyERKSaIcE>
     dd0:	e7e4      	b.n	d9c <_ZN6Config15get_config_fileEv+0x44>
     dd2:	6881      	ldr	r1, [r0, #8]
     dd4:	1e4a      	subs	r2, r1, #1
     dd6:	2900      	cmp	r1, #0
     dd8:	6082      	str	r2, [r0, #8]
     dda:	dcd2      	bgt.n	d82 <_ZN6Config15get_config_fileEv+0x2a>
     ddc:	a903      	add	r1, sp, #12
     dde:	f004 fa2c 	bl	523a <_ZNSs4_Rep10_M_destroyERKSaIcE>
     de2:	e7ce      	b.n	d82 <_ZN6Config15get_config_fileEv+0x2a>
     de4:	00014e34 	.word	0x00014e34
     de8:	100009f8 	.word	0x100009f8
     dec:	00014e44 	.word	0x00014e44
     df0:	00014e50 	.word	0x00014e50

00000df4 <_ZN6Config10get_stringEt>:
     df4:	e92d 47f0 	stmdb	sp!, {r4, r5, r6, r7, r8, r9, sl, lr}
     df8:	b088      	sub	sp, #32
     dfa:	4680      	mov	r8, r0
     dfc:	a803      	add	r0, sp, #12
     dfe:	4691      	mov	r9, r2
     e00:	f7ff ffaa 	bl	d58 <_ZN6Config15get_config_fileEv>
     e04:	9803      	ldr	r0, [sp, #12]
     e06:	496b      	ldr	r1, [pc, #428]	; (fb4 <_ZN6Config10get_stringEt+0x1c0>)
     e08:	f00b fb42 	bl	c490 <fopen>
     e0c:	4605      	mov	r5, r0
     e0e:	9803      	ldr	r0, [sp, #12]
     e10:	4c69      	ldr	r4, [pc, #420]	; (fb8 <_ZN6Config10get_stringEt+0x1c4>)
     e12:	380c      	subs	r0, #12
     e14:	42a0      	cmp	r0, r4
     e16:	f040 80b9 	bne.w	f8c <_ZN6Config10get_stringEt+0x198>
     e1a:	4868      	ldr	r0, [pc, #416]	; (fbc <_ZN6Config10get_stringEt+0x1c8>)
     e1c:	9002      	str	r0, [sp, #8]
     e1e:	4628      	mov	r0, r5
     e20:	f00b fa42 	bl	c2a8 <fgetc>
     e24:	280a      	cmp	r0, #10
     e26:	4606      	mov	r6, r0
     e28:	d02c      	beq.n	e84 <_ZN6Config10get_stringEt+0x90>
     e2a:	9b02      	ldr	r3, [sp, #8]
     e2c:	4682      	mov	sl, r0
     e2e:	f853 2c0c 	ldr.w	r2, [r3, #-12]
     e32:	f853 0c08 	ldr.w	r0, [r3, #-8]
     e36:	1c57      	adds	r7, r2, #1
     e38:	4287      	cmp	r7, r0
     e3a:	d803      	bhi.n	e44 <_ZN6Config10get_stringEt+0x50>
     e3c:	f853 1c04 	ldr.w	r1, [r3, #-4]
     e40:	2900      	cmp	r1, #0
     e42:	dd06      	ble.n	e52 <_ZN6Config10get_stringEt+0x5e>
     e44:	a802      	add	r0, sp, #8
     e46:	4639      	mov	r1, r7
     e48:	f004 fa2c 	bl	52a4 <_ZNSs7reserveEj>
     e4c:	9b02      	ldr	r3, [sp, #8]
     e4e:	f853 2c0c 	ldr.w	r2, [r3, #-12]
     e52:	f803 a002 	strb.w	sl, [r3, r2]
     e56:	9a02      	ldr	r2, [sp, #8]
     e58:	f1a2 030c 	sub.w	r3, r2, #12
     e5c:	429c      	cmp	r4, r3
     e5e:	d17f      	bne.n	f60 <_ZN6Config10get_stringEt+0x16c>
     e60:	f1b6 3fff 	cmp.w	r6, #4294967295
     e64:	d1db      	bne.n	e1e <_ZN6Config10get_stringEt+0x2a>
     e66:	4628      	mov	r0, r5
     e68:	f00b f91e 	bl	c0a8 <fclose>
     e6c:	4854      	ldr	r0, [pc, #336]	; (fc0 <_ZN6Config10get_stringEt+0x1cc>)
     e6e:	f00c fb83 	bl	d578 <puts>
     e72:	9802      	ldr	r0, [sp, #8]
     e74:	380c      	subs	r0, #12
     e76:	4284      	cmp	r4, r0
     e78:	f040 8092 	bne.w	fa0 <_ZN6Config10get_stringEt+0x1ac>
     e7c:	4640      	mov	r0, r8
     e7e:	b008      	add	sp, #32
     e80:	e8bd 87f0 	ldmia.w	sp!, {r4, r5, r6, r7, r8, r9, sl, pc}
     e84:	9b02      	ldr	r3, [sp, #8]
     e86:	f853 1c04 	ldr.w	r1, [r3, #-4]
     e8a:	2900      	cmp	r1, #0
     e8c:	db03      	blt.n	e96 <_ZN6Config10get_stringEt+0xa2>
     e8e:	a802      	add	r0, sp, #8
     e90:	f004 fb62 	bl	5558 <_ZNSs12_M_leak_hardEv>
     e94:	9b02      	ldr	r3, [sp, #8]
     e96:	781e      	ldrb	r6, [r3, #0]
     e98:	2e23      	cmp	r6, #35	; 0x23
     e9a:	d037      	beq.n	f0c <_ZN6Config10get_stringEt+0x118>
     e9c:	2200      	movs	r2, #0
     e9e:	2301      	movs	r3, #1
     ea0:	4948      	ldr	r1, [pc, #288]	; (fc4 <_ZN6Config10get_stringEt+0x1d0>)
     ea2:	a802      	add	r0, sp, #8
     ea4:	f004 f8ae 	bl	5004 <_ZNKSs17find_first_not_ofEPKcjj>
     ea8:	4606      	mov	r6, r0
     eaa:	2301      	movs	r3, #1
     eac:	4945      	ldr	r1, [pc, #276]	; (fc4 <_ZN6Config10get_stringEt+0x1d0>)
     eae:	4632      	mov	r2, r6
     eb0:	a802      	add	r0, sp, #8
     eb2:	f004 f889 	bl	4fc8 <_ZNKSs13find_first_ofEPKcjj>
     eb6:	2301      	movs	r3, #1
     eb8:	4602      	mov	r2, r0
     eba:	4942      	ldr	r1, [pc, #264]	; (fc4 <_ZN6Config10get_stringEt+0x1d0>)
     ebc:	a802      	add	r0, sp, #8
     ebe:	f004 f8a1 	bl	5004 <_ZNKSs17find_first_not_ofEPKcjj>
     ec2:	2301      	movs	r3, #1
     ec4:	4632      	mov	r2, r6
     ec6:	4607      	mov	r7, r0
     ec8:	493e      	ldr	r1, [pc, #248]	; (fc4 <_ZN6Config10get_stringEt+0x1d0>)
     eca:	a802      	add	r0, sp, #8
     ecc:	f004 f87c 	bl	4fc8 <_ZNKSs13find_first_ofEPKcjj>
     ed0:	9a02      	ldr	r2, [sp, #8]
     ed2:	f852 3c0c 	ldr.w	r3, [r2, #-12]
     ed6:	429e      	cmp	r6, r3
     ed8:	d855      	bhi.n	f86 <_ZN6Config10get_stringEt+0x192>
     eda:	1b83      	subs	r3, r0, r6
     edc:	4632      	mov	r2, r6
     ede:	a902      	add	r1, sp, #8
     ee0:	a801      	add	r0, sp, #4
     ee2:	f004 fb9b 	bl	561c <_ZNSsC1ERKSsjj>
     ee6:	a801      	add	r0, sp, #4
     ee8:	f7ff f904 	bl	f4 <_Z12get_checksumSs>
     eec:	4606      	mov	r6, r0
     eee:	9801      	ldr	r0, [sp, #4]
     ef0:	380c      	subs	r0, #12
     ef2:	4284      	cmp	r4, r0
     ef4:	d13e      	bne.n	f74 <_ZN6Config10get_stringEt+0x180>
     ef6:	454e      	cmp	r6, r9
     ef8:	d010      	beq.n	f1c <_ZN6Config10get_stringEt+0x128>
     efa:	9f02      	ldr	r7, [sp, #8]
     efc:	2100      	movs	r1, #0
     efe:	a802      	add	r0, sp, #8
     f00:	f857 2c0c 	ldr.w	r2, [r7, #-12]
     f04:	460b      	mov	r3, r1
     f06:	f004 fa73 	bl	53f0 <_ZNSs9_M_mutateEjjj>
     f0a:	e788      	b.n	e1e <_ZN6Config10get_stringEt+0x2a>
     f0c:	2100      	movs	r1, #0
     f0e:	f853 2c0c 	ldr.w	r2, [r3, #-12]
     f12:	a802      	add	r0, sp, #8
     f14:	460b      	mov	r3, r1
     f16:	f004 fa6b 	bl	53f0 <_ZNSs9_M_mutateEjjj>
     f1a:	e780      	b.n	e1e <_ZN6Config10get_stringEt+0x2a>
     f1c:	4628      	mov	r0, r5
     f1e:	f00b f8c3 	bl	c0a8 <fclose>
     f22:	1c7a      	adds	r2, r7, #1
     f24:	2304      	movs	r3, #4
     f26:	a802      	add	r0, sp, #8
     f28:	4927      	ldr	r1, [pc, #156]	; (fc8 <_ZN6Config10get_stringEt+0x1d4>)
     f2a:	f004 f84d 	bl	4fc8 <_ZNKSs13find_first_ofEPKcjj>
     f2e:	9a02      	ldr	r2, [sp, #8]
     f30:	4603      	mov	r3, r0
     f32:	f852 0c0c 	ldr.w	r0, [r2, #-12]
     f36:	4287      	cmp	r7, r0
     f38:	d825      	bhi.n	f86 <_ZN6Config10get_stringEt+0x192>
     f3a:	463a      	mov	r2, r7
     f3c:	4640      	mov	r0, r8
     f3e:	a902      	add	r1, sp, #8
     f40:	1bdb      	subs	r3, r3, r7
     f42:	f004 fb6b 	bl	561c <_ZNSsC1ERKSsjj>
     f46:	9802      	ldr	r0, [sp, #8]
     f48:	380c      	subs	r0, #12
     f4a:	4284      	cmp	r4, r0
     f4c:	d096      	beq.n	e7c <_ZN6Config10get_stringEt+0x88>
     f4e:	6881      	ldr	r1, [r0, #8]
     f50:	1e4b      	subs	r3, r1, #1
     f52:	2900      	cmp	r1, #0
     f54:	6083      	str	r3, [r0, #8]
     f56:	dc91      	bgt.n	e7c <_ZN6Config10get_stringEt+0x88>
     f58:	a905      	add	r1, sp, #20
     f5a:	f004 f96e 	bl	523a <_ZNSs4_Rep10_M_destroyERKSaIcE>
     f5e:	e78d      	b.n	e7c <_ZN6Config10get_stringEt+0x88>
     f60:	2000      	movs	r0, #0
     f62:	eb03 0c07 	add.w	ip, r3, r7
     f66:	f842 0c04 	str.w	r0, [r2, #-4]
     f6a:	f842 7c0c 	str.w	r7, [r2, #-12]
     f6e:	f88c 000c 	strb.w	r0, [ip, #12]
     f72:	e775      	b.n	e60 <_ZN6Config10get_stringEt+0x6c>
     f74:	6881      	ldr	r1, [r0, #8]
     f76:	1e4b      	subs	r3, r1, #1
     f78:	2900      	cmp	r1, #0
     f7a:	6083      	str	r3, [r0, #8]
     f7c:	dcbb      	bgt.n	ef6 <_ZN6Config10get_stringEt+0x102>
     f7e:	a906      	add	r1, sp, #24
     f80:	f004 f95b 	bl	523a <_ZNSs4_Rep10_M_destroyERKSaIcE>
     f84:	e7b7      	b.n	ef6 <_ZN6Config10get_stringEt+0x102>
     f86:	4811      	ldr	r0, [pc, #68]	; (fcc <_ZN6Config10get_stringEt+0x1d8>)
     f88:	f003 ffa3 	bl	4ed2 <_ZSt20__throw_out_of_rangePKc>
     f8c:	6883      	ldr	r3, [r0, #8]
     f8e:	1e5a      	subs	r2, r3, #1
     f90:	2b00      	cmp	r3, #0
     f92:	6082      	str	r2, [r0, #8]
     f94:	f73f af41 	bgt.w	e1a <_ZN6Config10get_stringEt+0x26>
     f98:	a907      	add	r1, sp, #28
     f9a:	f004 f94e 	bl	523a <_ZNSs4_Rep10_M_destroyERKSaIcE>
     f9e:	e73c      	b.n	e1a <_ZN6Config10get_stringEt+0x26>
     fa0:	6883      	ldr	r3, [r0, #8]
     fa2:	1e5a      	subs	r2, r3, #1
     fa4:	2b00      	cmp	r3, #0
     fa6:	6082      	str	r2, [r0, #8]
     fa8:	f73f af68 	bgt.w	e7c <_ZN6Config10get_stringEt+0x88>
     fac:	a904      	add	r1, sp, #16
     fae:	f004 f944 	bl	523a <_ZNSs4_Rep10_M_destroyERKSaIcE>
     fb2:	e763      	b.n	e7c <_ZN6Config10get_stringEt+0x88>
     fb4:	00014de4 	.word	0x00014de4
     fb8:	100009f8 	.word	0x100009f8
     fbc:	10000a04 	.word	0x10000a04
     fc0:	00014e78 	.word	0x00014e78
     fc4:	00014c94 	.word	0x00014c94
     fc8:	00014e70 	.word	0x00014e70
     fcc:	00014c98 	.word	0x00014c98

00000fd0 <_ZN6Config3getEt>:
     fd0:	b530      	push	{r4, r5, lr}
     fd2:	4604      	mov	r4, r0
     fd4:	b083      	sub	sp, #12
     fd6:	460a      	mov	r2, r1
     fd8:	4668      	mov	r0, sp
     fda:	4621      	mov	r1, r4
     fdc:	f7ff ff0a 	bl	df4 <_ZN6Config10get_stringEt>
     fe0:	9800      	ldr	r0, [sp, #0]
     fe2:	f00a ffda 	bl	bf9a <atof>
     fe6:	4604      	mov	r4, r0
     fe8:	9800      	ldr	r0, [sp, #0]
     fea:	4b09      	ldr	r3, [pc, #36]	; (1010 <_ZN6Config3getEt+0x40>)
     fec:	380c      	subs	r0, #12
     fee:	4298      	cmp	r0, r3
     ff0:	460d      	mov	r5, r1
     ff2:	d103      	bne.n	ffc <_ZN6Config3getEt+0x2c>
     ff4:	4620      	mov	r0, r4
     ff6:	4629      	mov	r1, r5
     ff8:	b003      	add	sp, #12
     ffa:	bd30      	pop	{r4, r5, pc}
     ffc:	6881      	ldr	r1, [r0, #8]
     ffe:	1e4a      	subs	r2, r1, #1
    1000:	2900      	cmp	r1, #0
    1002:	6082      	str	r2, [r0, #8]
    1004:	dcf6      	bgt.n	ff4 <_ZN6Config3getEt+0x24>
    1006:	a901      	add	r1, sp, #4
    1008:	f004 f917 	bl	523a <_ZNSs4_Rep10_M_destroyERKSaIcE>
    100c:	e7f2      	b.n	ff4 <_ZN6Config3getEt+0x24>
    100e:	bf00      	nop
    1010:	100009f8 	.word	0x100009f8

00001014 <_ZN6KernelC1Ev>:
    1014:	b5f8      	push	{r3, r4, r5, r6, r7, lr}
    1016:	2700      	movs	r7, #0
    1018:	4606      	mov	r6, r0
    101a:	6187      	str	r7, [r0, #24]
    101c:	61c7      	str	r7, [r0, #28]
    101e:	6207      	str	r7, [r0, #32]
    1020:	6247      	str	r7, [r0, #36]	; 0x24
    1022:	6287      	str	r7, [r0, #40]	; 0x28
    1024:	62c7      	str	r7, [r0, #44]	; 0x2c
    1026:	6307      	str	r7, [r0, #48]	; 0x30
    1028:	6347      	str	r7, [r0, #52]	; 0x34
    102a:	6387      	str	r7, [r0, #56]	; 0x38
    102c:	63c7      	str	r7, [r0, #60]	; 0x3c
    102e:	6407      	str	r7, [r0, #64]	; 0x40
    1030:	6447      	str	r7, [r0, #68]	; 0x44
    1032:	6487      	str	r7, [r0, #72]	; 0x48
    1034:	64c7      	str	r7, [r0, #76]	; 0x4c
    1036:	6507      	str	r7, [r0, #80]	; 0x50
    1038:	6547      	str	r7, [r0, #84]	; 0x54
    103a:	6587      	str	r7, [r0, #88]	; 0x58
    103c:	65c7      	str	r7, [r0, #92]	; 0x5c
    103e:	6607      	str	r7, [r0, #96]	; 0x60
    1040:	6647      	str	r7, [r0, #100]	; 0x64
    1042:	6687      	str	r7, [r0, #104]	; 0x68
    1044:	66c7      	str	r7, [r0, #108]	; 0x6c
    1046:	6707      	str	r7, [r0, #112]	; 0x70
    1048:	6747      	str	r7, [r0, #116]	; 0x74
    104a:	2010      	movs	r0, #16
    104c:	f004 fc64 	bl	5918 <_Znwj>
    1050:	4605      	mov	r5, r0
    1052:	f7ff fe59 	bl	d08 <_ZN6ConfigC1Ev>
    1056:	6175      	str	r5, [r6, #20]
    1058:	4628      	mov	r0, r5
    105a:	f642 21aa 	movw	r1, #10922	; 0x2aaa
    105e:	f7ff ffb7 	bl	fd0 <_ZN6Config3getEt>
    1062:	4604      	mov	r4, r0
    1064:	2070      	movs	r0, #112	; 0x70
    1066:	460d      	mov	r5, r1
    1068:	f004 fc56 	bl	5918 <_Znwj>
    106c:	4629      	mov	r1, r5
    106e:	4607      	mov	r7, r0
    1070:	4620      	mov	r0, r4
    1072:	f009 ff19 	bl	aea8 <__aeabi_d2iz>
    1076:	4924      	ldr	r1, [pc, #144]	; (1108 <_ZN6KernelC1Ev+0xf4>)
    1078:	4603      	mov	r3, r0
    107a:	4a24      	ldr	r2, [pc, #144]	; (110c <_ZN6KernelC1Ev+0xf8>)
    107c:	4638      	mov	r0, r7
    107e:	f000 fed9 	bl	1e34 <_ZN13SerialConsoleC1E7PinNameS0_i>
    1082:	6971      	ldr	r1, [r6, #20]
    1084:	6037      	str	r7, [r6, #0]
    1086:	680a      	ldr	r2, [r1, #0]
    1088:	4608      	mov	r0, r1
    108a:	604e      	str	r6, [r1, #4]
    108c:	6814      	ldr	r4, [r2, #0]
    108e:	47a0      	blx	r4
    1090:	6833      	ldr	r3, [r6, #0]
    1092:	6819      	ldr	r1, [r3, #0]
    1094:	4618      	mov	r0, r3
    1096:	605e      	str	r6, [r3, #4]
    1098:	680a      	ldr	r2, [r1, #0]
    109a:	4790      	blx	r2
    109c:	2008      	movs	r0, #8
    109e:	f004 fc3b 	bl	5918 <_Znwj>
    10a2:	4604      	mov	r4, r0
    10a4:	f000 fd86 	bl	1bb4 <_ZN13GcodeDispatchC1Ev>
    10a8:	6074      	str	r4, [r6, #4]
    10aa:	2068      	movs	r0, #104	; 0x68
    10ac:	f004 fc34 	bl	5918 <_Znwj>
    10b0:	4604      	mov	r4, r0
    10b2:	f002 fbc9 	bl	3848 <_ZN5RobotC1Ev>
    10b6:	60b4      	str	r4, [r6, #8]
    10b8:	20e8      	movs	r0, #232	; 0xe8
    10ba:	f004 fc2d 	bl	5918 <_Znwj>
    10be:	4604      	mov	r4, r0
    10c0:	f003 fb3c 	bl	473c <_ZN7StepperC1Ev>
    10c4:	60f4      	str	r4, [r6, #12]
    10c6:	f44f 501a 	mov.w	r0, #9856	; 0x2680
    10ca:	f004 fc25 	bl	5918 <_Znwj>
    10ce:	4604      	mov	r4, r0
    10d0:	f001 fed2 	bl	2e78 <_ZN7PlannerC1Ev>
    10d4:	6873      	ldr	r3, [r6, #4]
    10d6:	6134      	str	r4, [r6, #16]
    10d8:	6819      	ldr	r1, [r3, #0]
    10da:	4618      	mov	r0, r3
    10dc:	605e      	str	r6, [r3, #4]
    10de:	680a      	ldr	r2, [r1, #0]
    10e0:	4790      	blx	r2
    10e2:	68b3      	ldr	r3, [r6, #8]
    10e4:	6819      	ldr	r1, [r3, #0]
    10e6:	4618      	mov	r0, r3
    10e8:	605e      	str	r6, [r3, #4]
    10ea:	680a      	ldr	r2, [r1, #0]
    10ec:	4790      	blx	r2
    10ee:	68f3      	ldr	r3, [r6, #12]
    10f0:	6819      	ldr	r1, [r3, #0]
    10f2:	4618      	mov	r0, r3
    10f4:	680a      	ldr	r2, [r1, #0]
    10f6:	605e      	str	r6, [r3, #4]
    10f8:	4790      	blx	r2
    10fa:	6930      	ldr	r0, [r6, #16]
    10fc:	6801      	ldr	r1, [r0, #0]
    10fe:	6046      	str	r6, [r0, #4]
    1100:	680b      	ldr	r3, [r1, #0]
    1102:	4798      	blx	r3
    1104:	4630      	mov	r0, r6
    1106:	bdf8      	pop	{r3, r4, r5, r6, r7, pc}
    1108:	2009c002 	.word	0x2009c002
    110c:	2009c003 	.word	0x2009c003

00001110 <_ZN6Kernel10add_moduleEP6Module>:
    1110:	680a      	ldr	r2, [r1, #0]
    1112:	b508      	push	{r3, lr}
    1114:	6048      	str	r0, [r1, #4]
    1116:	6813      	ldr	r3, [r2, #0]
    1118:	4608      	mov	r0, r1
    111a:	4798      	blx	r3
    111c:	bd08      	pop	{r3, pc}
    111e:	bf00      	nop

00001120 <_ZN6Kernel10call_eventEj>:
    1120:	e92d 47f0 	stmdb	sp!, {r4, r5, r6, r7, r8, r9, sl, lr}
    1124:	eb01 0541 	add.w	r5, r1, r1, lsl #1
    1128:	eb00 0585 	add.w	r5, r0, r5, lsl #2
    112c:	4680      	mov	r8, r0
    112e:	69ab      	ldr	r3, [r5, #24]
    1130:	69e8      	ldr	r0, [r5, #28]
    1132:	460f      	mov	r7, r1
    1134:	1ac2      	subs	r2, r0, r3
    1136:	0892      	lsrs	r2, r2, #2
    1138:	d02a      	beq.n	1190 <_ZN6Kernel10call_eventEj+0x70>
    113a:	f8df 9058 	ldr.w	r9, [pc, #88]	; 1194 <_ZN6Kernel10call_eventEj+0x74>
    113e:	2400      	movs	r4, #0
    1140:	eb09 01c1 	add.w	r1, r9, r1, lsl #3
    1144:	684e      	ldr	r6, [r1, #4]
    1146:	f006 0a01 	and.w	sl, r6, #1
    114a:	1076      	asrs	r6, r6, #1
    114c:	e00e      	b.n	116c <_ZN6Kernel10call_eventEj+0x4c>
    114e:	5982      	ldr	r2, [r0, r6]
    1150:	f859 3037 	ldr.w	r3, [r9, r7, lsl #3]
    1154:	1980      	adds	r0, r0, r6
    1156:	58d3      	ldr	r3, [r2, r3]
    1158:	4641      	mov	r1, r8
    115a:	4798      	blx	r3
    115c:	69ab      	ldr	r3, [r5, #24]
    115e:	69e8      	ldr	r0, [r5, #28]
    1160:	3401      	adds	r4, #1
    1162:	ebc3 0c00 	rsb	ip, r3, r0
    1166:	ebb4 0fac 	cmp.w	r4, ip, asr #2
    116a:	d211      	bcs.n	1190 <_ZN6Kernel10call_eventEj+0x70>
    116c:	f853 0024 	ldr.w	r0, [r3, r4, lsl #2]
    1170:	f1ba 0f00 	cmp.w	sl, #0
    1174:	d1eb      	bne.n	114e <_ZN6Kernel10call_eventEj+0x2e>
    1176:	f859 3037 	ldr.w	r3, [r9, r7, lsl #3]
    117a:	1980      	adds	r0, r0, r6
    117c:	4641      	mov	r1, r8
    117e:	4798      	blx	r3
    1180:	69ab      	ldr	r3, [r5, #24]
    1182:	69e8      	ldr	r0, [r5, #28]
    1184:	3401      	adds	r4, #1
    1186:	ebc3 0c00 	rsb	ip, r3, r0
    118a:	ebb4 0fac 	cmp.w	r4, ip, asr #2
    118e:	d3ed      	bcc.n	116c <_ZN6Kernel10call_eventEj+0x4c>
    1190:	e8bd 87f0 	ldmia.w	sp!, {r4, r5, r6, r7, r8, r9, sl, pc}
    1194:	00014ea0 	.word	0x00014ea0

00001198 <_ZN6Kernel10call_eventEjPv>:
    1198:	e92d 47f0 	stmdb	sp!, {r4, r5, r6, r7, r8, r9, sl, lr}
    119c:	eb01 0641 	add.w	r6, r1, r1, lsl #1
    11a0:	eb00 0686 	add.w	r6, r0, r6, lsl #2
    11a4:	69b3      	ldr	r3, [r6, #24]
    11a6:	69f0      	ldr	r0, [r6, #28]
    11a8:	460c      	mov	r4, r1
    11aa:	1ac1      	subs	r1, r0, r3
    11ac:	0889      	lsrs	r1, r1, #2
    11ae:	4691      	mov	r9, r2
    11b0:	d02a      	beq.n	1208 <__ARM_grp_.debug_frame$5+0x44>
    11b2:	f8df 8058 	ldr.w	r8, [pc, #88]	; 120c <__ARM_grp_.debug_frame$5+0x48>
    11b6:	2500      	movs	r5, #0
    11b8:	eb08 02c4 	add.w	r2, r8, r4, lsl #3
    11bc:	6857      	ldr	r7, [r2, #4]
    11be:	f007 0a01 	and.w	sl, r7, #1
    11c2:	107f      	asrs	r7, r7, #1
    11c4:	e00e      	b.n	11e4 <__ARM_grp_.debug_frame$5+0x20>
    11c6:	59c1      	ldr	r1, [r0, r7]
    11c8:	f858 3034 	ldr.w	r3, [r8, r4, lsl #3]
    11cc:	19c0      	adds	r0, r0, r7
    11ce:	58cb      	ldr	r3, [r1, r3]
    11d0:	4649      	mov	r1, r9
    11d2:	4798      	blx	r3
    11d4:	69b3      	ldr	r3, [r6, #24]
    11d6:	69f0      	ldr	r0, [r6, #28]
    11d8:	3501      	adds	r5, #1
    11da:	ebc3 0c00 	rsb	ip, r3, r0
    11de:	ebb5 0fac 	cmp.w	r5, ip, asr #2
    11e2:	d211      	bcs.n	1208 <__ARM_grp_.debug_frame$5+0x44>
    11e4:	f853 0025 	ldr.w	r0, [r3, r5, lsl #2]
    11e8:	f1ba 0f00 	cmp.w	sl, #0
    11ec:	d1eb      	bne.n	11c6 <__ARM_grp_.debug_frame$5+0x2>
    11ee:	f858 3034 	ldr.w	r3, [r8, r4, lsl #3]
    11f2:	19c0      	adds	r0, r0, r7
    11f4:	4649      	mov	r1, r9
    11f6:	4798      	blx	r3
    11f8:	69b3      	ldr	r3, [r6, #24]
    11fa:	69f0      	ldr	r0, [r6, #28]
    11fc:	3501      	adds	r5, #1
    11fe:	ebc3 0c00 	rsb	ip, r3, r0
    1202:	ebb5 0fac 	cmp.w	r5, ip, asr #2
    1206:	d3ed      	bcc.n	11e4 <__ARM_grp_.debug_frame$5+0x20>
    1208:	e8bd 87f0 	ldmia.w	sp!, {r4, r5, r6, r7, r8, r9, sl, pc}
    120c:	00014ea0 	.word	0x00014ea0

00001210 <_ZNSt6vectorIP6ModuleSaIS1_EE13_M_insert_auxEN9__gnu_cxx17__normal_iteratorIPS1_S3_EERKS1_>:
    1210:	e92d 43f0 	stmdb	sp!, {r4, r5, r6, r7, r8, r9, lr}
    1214:	4604      	mov	r4, r0
    1216:	68a3      	ldr	r3, [r4, #8]
    1218:	6840      	ldr	r0, [r0, #4]
    121a:	b083      	sub	sp, #12
    121c:	4298      	cmp	r0, r3
    121e:	460d      	mov	r5, r1
    1220:	d016      	beq.n	1250 <__ARM_grp_.debug_frame$8+0x3c>
    1222:	b110      	cbz	r0, 122a <__ARM_grp_.debug_frame$8+0x16>
    1224:	f850 1c04 	ldr.w	r1, [r0, #-4]
    1228:	6001      	str	r1, [r0, #0]
    122a:	1f03      	subs	r3, r0, #4
    122c:	ebc5 0c03 	rsb	ip, r5, r3
    1230:	1d01      	adds	r1, r0, #4
    1232:	ea5f 03ac 	movs.w	r3, ip, asr #2
    1236:	6061      	str	r1, [r4, #4]
    1238:	6814      	ldr	r4, [r2, #0]
    123a:	d103      	bne.n	1244 <__ARM_grp_.debug_frame$8+0x30>
    123c:	602c      	str	r4, [r5, #0]
    123e:	b003      	add	sp, #12
    1240:	e8bd 83f0 	ldmia.w	sp!, {r4, r5, r6, r7, r8, r9, pc}
    1244:	009a      	lsls	r2, r3, #2
    1246:	1a80      	subs	r0, r0, r2
    1248:	4629      	mov	r1, r5
    124a:	f00c f8e6 	bl	d41a <memmove>
    124e:	e7f5      	b.n	123c <__ARM_grp_.debug_frame$8+0x28>
    1250:	6821      	ldr	r1, [r4, #0]
    1252:	1a40      	subs	r0, r0, r1
    1254:	1080      	asrs	r0, r0, #2
    1256:	d036      	beq.n	12c6 <__ARM_grp_.debug_frame$14+0x2a>
    1258:	0043      	lsls	r3, r0, #1
    125a:	4298      	cmp	r0, r3
    125c:	d93d      	bls.n	12da <__ARM_grp_.debug_frame$14+0x3e>
    125e:	f06f 0703 	mvn.w	r7, #3
    1262:	f06f 4640 	mvn.w	r6, #3221225472	; 0xc0000000
    1266:	1a6b      	subs	r3, r5, r1
    1268:	109b      	asrs	r3, r3, #2
    126a:	4698      	mov	r8, r3
    126c:	b146      	cbz	r6, 1280 <__ARM_grp_.debug_frame$11+0x28>
    126e:	4638      	mov	r0, r7
    1270:	9201      	str	r2, [sp, #4]
    1272:	f004 fb51 	bl	5918 <_Znwj>
    1276:	6821      	ldr	r1, [r4, #0]
    1278:	4606      	mov	r6, r0
    127a:	1a6a      	subs	r2, r5, r1
    127c:	1093      	asrs	r3, r2, #2
    127e:	9a01      	ldr	r2, [sp, #4]
    1280:	eb06 0088 	add.w	r0, r6, r8, lsl #2
    1284:	b110      	cbz	r0, 128c <__ARM_grp_.debug_frame$11+0x34>
    1286:	6812      	ldr	r2, [r2, #0]
    1288:	f846 2028 	str.w	r2, [r6, r8, lsl #2]
    128c:	b9f3      	cbnz	r3, 12cc <__ARM_grp_.debug_frame$14+0x30>
    128e:	4699      	mov	r9, r3
    1290:	6861      	ldr	r1, [r4, #4]
    1292:	44b1      	add	r9, r6
    1294:	ebc5 0801 	rsb	r8, r5, r1
    1298:	ea5f 08a8 	movs.w	r8, r8, asr #2
    129c:	f109 0904 	add.w	r9, r9, #4
    12a0:	d006      	beq.n	12b0 <__ARM_grp_.debug_frame$14+0x14>
    12a2:	ea4f 0888 	mov.w	r8, r8, lsl #2
    12a6:	4648      	mov	r0, r9
    12a8:	4629      	mov	r1, r5
    12aa:	4642      	mov	r2, r8
    12ac:	f00c f8b5 	bl	d41a <memmove>
    12b0:	6820      	ldr	r0, [r4, #0]
    12b2:	eb09 0508 	add.w	r5, r9, r8
    12b6:	b108      	cbz	r0, 12bc <__ARM_grp_.debug_frame$14+0x20>
    12b8:	f004 faae 	bl	5818 <_ZdlPv>
    12bc:	19f7      	adds	r7, r6, r7
    12be:	6026      	str	r6, [r4, #0]
    12c0:	6065      	str	r5, [r4, #4]
    12c2:	60a7      	str	r7, [r4, #8]
    12c4:	e7bb      	b.n	123e <__ARM_grp_.debug_frame$8+0x2a>
    12c6:	2601      	movs	r6, #1
    12c8:	00b7      	lsls	r7, r6, #2
    12ca:	e7cc      	b.n	1266 <__ARM_grp_.debug_frame$11+0xe>
    12cc:	ea4f 0983 	mov.w	r9, r3, lsl #2
    12d0:	4630      	mov	r0, r6
    12d2:	464a      	mov	r2, r9
    12d4:	f00c f8a1 	bl	d41a <memmove>
    12d8:	e7da      	b.n	1290 <__ARM_grp_.debug_frame$11+0x38>
    12da:	f06f 4640 	mvn.w	r6, #3221225472	; 0xc0000000
    12de:	42b3      	cmp	r3, r6
    12e0:	bf38      	it	cc
    12e2:	461e      	movcc	r6, r3
    12e4:	00b7      	lsls	r7, r6, #2
    12e6:	e7be      	b.n	1266 <__ARM_grp_.debug_frame$11+0xe>

000012e8 <_ZN6Kernel18register_for_eventEjP6Module>:
    12e8:	b570      	push	{r4, r5, r6, lr}
    12ea:	004c      	lsls	r4, r1, #1
    12ec:	1863      	adds	r3, r4, r1
    12ee:	009e      	lsls	r6, r3, #2
    12f0:	1985      	adds	r5, r0, r6
    12f2:	69eb      	ldr	r3, [r5, #28]
    12f4:	6a2d      	ldr	r5, [r5, #32]
    12f6:	b082      	sub	sp, #8
    12f8:	42ab      	cmp	r3, r5
    12fa:	9201      	str	r2, [sp, #4]
    12fc:	d008      	beq.n	1310 <_ZN6Kernel18register_for_eventEjP6Module+0x28>
    12fe:	b103      	cbz	r3, 1302 <_ZN6Kernel18register_for_eventEjP6Module+0x1a>
    1300:	601a      	str	r2, [r3, #0]
    1302:	1862      	adds	r2, r4, r1
    1304:	eb00 0082 	add.w	r0, r0, r2, lsl #2
    1308:	1d19      	adds	r1, r3, #4
    130a:	61c1      	str	r1, [r0, #28]
    130c:	b002      	add	sp, #8
    130e:	bd70      	pop	{r4, r5, r6, pc}
    1310:	3618      	adds	r6, #24
    1312:	1980      	adds	r0, r0, r6
    1314:	4619      	mov	r1, r3
    1316:	aa01      	add	r2, sp, #4
    1318:	f7ff ff7a 	bl	1210 <_ZNSt6vectorIP6ModuleSaIS1_EE13_M_insert_auxEN9__gnu_cxx17__normal_iteratorIPS1_S3_EERKS1_>
    131c:	e7f6      	b.n	130c <_ZN6Kernel18register_for_eventEjP6Module+0x24>
    131e:	bf00      	nop

00001320 <_ZN6Module16on_module_loadedEv>:
    1320:	4770      	bx	lr
    1322:	bf00      	nop

00001324 <_ZN6Module12on_main_loopEPv>:
    1324:	4770      	bx	lr
    1326:	bf00      	nop

00001328 <_ZN6Module24on_console_line_receivedEPv>:
    1328:	4770      	bx	lr
    132a:	bf00      	nop

0000132c <_ZN6Module17on_gcode_receivedEPv>:
    132c:	4770      	bx	lr
    132e:	bf00      	nop

00001330 <_ZN6Module18on_stepper_wake_upEPv>:
    1330:	4770      	bx	lr
    1332:	bf00      	nop

00001334 <_ZN6Module16on_gcode_executeEPv>:
    1334:	4770      	bx	lr
    1336:	bf00      	nop

00001338 <_ZN6Module15on_speed_changeEPv>:
    1338:	4770      	bx	lr
    133a:	bf00      	nop

0000133c <_ZN6Module14on_block_beginEPv>:
    133c:	4770      	bx	lr
    133e:	bf00      	nop

00001340 <_ZN6Module12on_block_endEPv>:
    1340:	4770      	bx	lr
    1342:	bf00      	nop

00001344 <_ZN6Module18register_for_eventEi>:
    1344:	4602      	mov	r2, r0
    1346:	6840      	ldr	r0, [r0, #4]
    1348:	f7ff bfce 	b.w	12e8 <_ZN6Kernel18register_for_eventEjP6Module>

0000134c <_ZN6ModuleC1Ev>:
    134c:	4b01      	ldr	r3, [pc, #4]	; (1354 <_ZN6ModuleC1Ev+0x8>)
    134e:	6003      	str	r3, [r0, #0]
    1350:	4770      	bx	lr
    1352:	bf00      	nop
    1354:	00014ef0 	.word	0x00014ef0

00001358 <_ZN4mbed14FileSystemLike6renameEPKcS2_>:
    1358:	f04f 30ff 	mov.w	r0, #4294967295
    135c:	4770      	bx	lr
    135e:	bf00      	nop

00001360 <_ZN12SDFileSystem11disk_statusEv>:
    1360:	2000      	movs	r0, #0
    1362:	4770      	bx	lr

00001364 <_ZN12SDFileSystem9disk_syncEv>:
    1364:	2000      	movs	r0, #0
    1366:	4770      	bx	lr

00001368 <_ZN12SDFileSystem12disk_sectorsEv>:
    1368:	f8d0 0240 	ldr.w	r0, [r0, #576]	; 0x240
    136c:	4770      	bx	lr
    136e:	bf00      	nop

00001370 <_ZL8ext_bitsPcii>:
    1370:	1c4b      	adds	r3, r1, #1
    1372:	1a9b      	subs	r3, r3, r2
    1374:	2b00      	cmp	r3, #0
    1376:	e92d 01f0 	stmdb	sp!, {r4, r5, r6, r7, r8}
    137a:	4607      	mov	r7, r0
    137c:	dd41      	ble.n	1402 <__ARM_grp_.debug_frame$29+0x12>
    137e:	eba0 0ce2 	sub.w	ip, r0, r2, asr #3
    1382:	f89c 000f 	ldrb.w	r0, [ip, #15]
    1386:	f002 0107 	and.w	r1, r2, #7
    138a:	4108      	asrs	r0, r1
    138c:	2101      	movs	r1, #1
    138e:	1e5c      	subs	r4, r3, #1
    1390:	4299      	cmp	r1, r3
    1392:	ea04 0401 	and.w	r4, r4, r1
    1396:	ea00 0001 	and.w	r0, r0, r1
    139a:	d02f      	beq.n	13fc <__ARM_grp_.debug_frame$29+0xc>
    139c:	b174      	cbz	r4, 13bc <__ARM_grp_.debug_frame$26+0x10>
    139e:	1c51      	adds	r1, r2, #1
    13a0:	eba7 0ce1 	sub.w	ip, r7, r1, asr #3
    13a4:	f89c 400f 	ldrb.w	r4, [ip, #15]
    13a8:	f001 0107 	and.w	r1, r1, #7
    13ac:	410c      	asrs	r4, r1
    13ae:	2102      	movs	r1, #2
    13b0:	f004 0401 	and.w	r4, r4, #1
    13b4:	4299      	cmp	r1, r3
    13b6:	ea40 0044 	orr.w	r0, r0, r4, lsl #1
    13ba:	d01f      	beq.n	13fc <__ARM_grp_.debug_frame$29+0xc>
    13bc:	188e      	adds	r6, r1, r2
    13be:	1c4c      	adds	r4, r1, #1
    13c0:	eba7 08e6 	sub.w	r8, r7, r6, asr #3
    13c4:	18a5      	adds	r5, r4, r2
    13c6:	f898 800f 	ldrb.w	r8, [r8, #15]
    13ca:	eba7 0ce5 	sub.w	ip, r7, r5, asr #3
    13ce:	f006 0607 	and.w	r6, r6, #7
    13d2:	f89c c00f 	ldrb.w	ip, [ip, #15]
    13d6:	fa48 f606 	asr.w	r6, r8, r6
    13da:	f005 0507 	and.w	r5, r5, #7
    13de:	fa4c fc05 	asr.w	ip, ip, r5
    13e2:	f006 0601 	and.w	r6, r6, #1
    13e6:	fa16 f101 	lsls.w	r1, r6, r1
    13ea:	f00c 0501 	and.w	r5, ip, #1
    13ee:	40a5      	lsls	r5, r4
    13f0:	4308      	orrs	r0, r1
    13f2:	1c61      	adds	r1, r4, #1
    13f4:	4299      	cmp	r1, r3
    13f6:	ea40 0005 	orr.w	r0, r0, r5
    13fa:	d1df      	bne.n	13bc <__ARM_grp_.debug_frame$26+0x10>
    13fc:	e8bd 01f0 	ldmia.w	sp!, {r4, r5, r6, r7, r8}
    1400:	4770      	bx	lr
    1402:	2000      	movs	r0, #0
    1404:	e7fa      	b.n	13fc <__ARM_grp_.debug_frame$29+0xc>
    1406:	bf00      	nop

00001408 <_ZN12SDFileSystemC1E7PinNameS0_S0_S0_PKc>:
    1408:	e92d 41f0 	stmdb	sp!, {r4, r5, r6, r7, r8, lr}
    140c:	b082      	sub	sp, #8
    140e:	460e      	mov	r6, r1
    1410:	9909      	ldr	r1, [sp, #36]	; 0x24
    1412:	4604      	mov	r4, r0
    1414:	4690      	mov	r8, r2
    1416:	461f      	mov	r7, r3
    1418:	f017 fd32 	bl	18e80 <_ZN4mbed13FATFileSystemC2EPKc>
    141c:	480c      	ldr	r0, [pc, #48]	; (1450 <__ARM_grp_.debug_frame$32+0x1c>)
    141e:	463b      	mov	r3, r7
    1420:	6020      	str	r0, [r4, #0]
    1422:	2500      	movs	r5, #0
    1424:	4631      	mov	r1, r6
    1426:	4642      	mov	r2, r8
    1428:	f504 7011 	add.w	r0, r4, #580	; 0x244
    142c:	9500      	str	r5, [sp, #0]
    142e:	f015 ffd3 	bl	173d8 <_ZN4mbed3SPIC1E7PinNameS1_S1_PKc>
    1432:	462a      	mov	r2, r5
    1434:	f504 7019 	add.w	r0, r4, #612	; 0x264
    1438:	9908      	ldr	r1, [sp, #32]
    143a:	f015 fb8f 	bl	16b5c <_ZN4mbed10DigitalOutC1E7PinNamePKc>
    143e:	f8d4 3278 	ldr.w	r3, [r4, #632]	; 0x278
    1442:	f8d4 227c 	ldr.w	r2, [r4, #636]	; 0x27c
    1446:	4620      	mov	r0, r4
    1448:	619a      	str	r2, [r3, #24]
    144a:	b002      	add	sp, #8
    144c:	e8bd 81f0 	ldmia.w	sp!, {r4, r5, r6, r7, r8, pc}
    1450:	00014f38 	.word	0x00014f38

00001454 <_ZN12SDFileSystem4_cmdEii>:
    1454:	b5f8      	push	{r3, r4, r5, r6, r7, lr}
    1456:	f8d0 3278 	ldr.w	r3, [r0, #632]	; 0x278
    145a:	4605      	mov	r5, r0
    145c:	f8d0 027c 	ldr.w	r0, [r0, #636]	; 0x27c
    1460:	f505 7411 	add.w	r4, r5, #580	; 0x244
    1464:	4616      	mov	r6, r2
    1466:	61d8      	str	r0, [r3, #28]
    1468:	f041 0140 	orr.w	r1, r1, #64	; 0x40
    146c:	4620      	mov	r0, r4
    146e:	f015 ff7f 	bl	17370 <_ZN4mbed3SPI5writeEi>
    1472:	1631      	asrs	r1, r6, #24
    1474:	4620      	mov	r0, r4
    1476:	f015 ff7b 	bl	17370 <_ZN4mbed3SPI5writeEi>
    147a:	1431      	asrs	r1, r6, #16
    147c:	4620      	mov	r0, r4
    147e:	f015 ff77 	bl	17370 <_ZN4mbed3SPI5writeEi>
    1482:	1231      	asrs	r1, r6, #8
    1484:	4620      	mov	r0, r4
    1486:	f015 ff73 	bl	17370 <_ZN4mbed3SPI5writeEi>
    148a:	4631      	mov	r1, r6
    148c:	4620      	mov	r0, r4
    148e:	f015 ff6f 	bl	17370 <_ZN4mbed3SPI5writeEi>
    1492:	4620      	mov	r0, r4
    1494:	2195      	movs	r1, #149	; 0x95
    1496:	f015 ff6b 	bl	17370 <_ZN4mbed3SPI5writeEi>
    149a:	f241 3788 	movw	r7, #5000	; 0x1388
    149e:	e007      	b.n	14b0 <__ARM_grp_.debug_frame$35+0x30>
    14a0:	f015 ff66 	bl	17370 <_ZN4mbed3SPI5writeEi>
    14a4:	f010 0f80 	tst.w	r0, #128	; 0x80
    14a8:	4606      	mov	r6, r0
    14aa:	d00d      	beq.n	14c8 <__ARM_grp_.debug_frame$35+0x48>
    14ac:	3f01      	subs	r7, #1
    14ae:	d016      	beq.n	14de <__ARM_grp_.debug_frame$38+0x12>
    14b0:	21ff      	movs	r1, #255	; 0xff
    14b2:	4620      	mov	r0, r4
    14b4:	f015 ff5c 	bl	17370 <_ZN4mbed3SPI5writeEi>
    14b8:	4606      	mov	r6, r0
    14ba:	21ff      	movs	r1, #255	; 0xff
    14bc:	f016 0f80 	tst.w	r6, #128	; 0x80
    14c0:	4620      	mov	r0, r4
    14c2:	f107 37ff 	add.w	r7, r7, #4294967295
    14c6:	d1eb      	bne.n	14a0 <__ARM_grp_.debug_frame$35+0x20>
    14c8:	f8d5 1278 	ldr.w	r1, [r5, #632]	; 0x278
    14cc:	f8d5 227c 	ldr.w	r2, [r5, #636]	; 0x27c
    14d0:	4620      	mov	r0, r4
    14d2:	618a      	str	r2, [r1, #24]
    14d4:	21ff      	movs	r1, #255	; 0xff
    14d6:	f015 ff4b 	bl	17370 <_ZN4mbed3SPI5writeEi>
    14da:	4630      	mov	r0, r6
    14dc:	bdf8      	pop	{r3, r4, r5, r6, r7, pc}
    14de:	f8d5 627c 	ldr.w	r6, [r5, #636]	; 0x27c
    14e2:	f8d5 3278 	ldr.w	r3, [r5, #632]	; 0x278
    14e6:	4620      	mov	r0, r4
    14e8:	619e      	str	r6, [r3, #24]
    14ea:	21ff      	movs	r1, #255	; 0xff
    14ec:	f04f 36ff 	mov.w	r6, #4294967295
    14f0:	f015 ff3e 	bl	17370 <_ZN4mbed3SPI5writeEi>
    14f4:	4630      	mov	r0, r6
    14f6:	bdf8      	pop	{r3, r4, r5, r6, r7, pc}

000014f8 <_ZN12SDFileSystem18initialise_card_v1Ev>:
    14f8:	b538      	push	{r3, r4, r5, lr}
    14fa:	4604      	mov	r4, r0
    14fc:	f241 3588 	movw	r5, #5000	; 0x1388
    1500:	e00a      	b.n	1518 <__ARM_grp_.debug_frame$41+0x8>
    1502:	4620      	mov	r0, r4
    1504:	f7ff ffa6 	bl	1454 <_ZN12SDFileSystem4_cmdEii>
    1508:	4620      	mov	r0, r4
    150a:	2129      	movs	r1, #41	; 0x29
    150c:	2200      	movs	r2, #0
    150e:	f7ff ffa1 	bl	1454 <_ZN12SDFileSystem4_cmdEii>
    1512:	b180      	cbz	r0, 1536 <__ARM_grp_.debug_frame$41+0x26>
    1514:	3d01      	subs	r5, #1
    1516:	d010      	beq.n	153a <__ARM_grp_.debug_frame$41+0x2a>
    1518:	2137      	movs	r1, #55	; 0x37
    151a:	2200      	movs	r2, #0
    151c:	4620      	mov	r0, r4
    151e:	f7ff ff99 	bl	1454 <_ZN12SDFileSystem4_cmdEii>
    1522:	2129      	movs	r1, #41	; 0x29
    1524:	2200      	movs	r2, #0
    1526:	4620      	mov	r0, r4
    1528:	f7ff ff94 	bl	1454 <_ZN12SDFileSystem4_cmdEii>
    152c:	3d01      	subs	r5, #1
    152e:	2137      	movs	r1, #55	; 0x37
    1530:	2200      	movs	r2, #0
    1532:	2800      	cmp	r0, #0
    1534:	d1e5      	bne.n	1502 <_ZN12SDFileSystem18initialise_card_v1Ev+0xa>
    1536:	2001      	movs	r0, #1
    1538:	bd38      	pop	{r3, r4, r5, pc}
    153a:	4628      	mov	r0, r5
    153c:	bd38      	pop	{r3, r4, r5, pc}
    153e:	bf00      	nop

00001540 <_ZN12SDFileSystem5_cmdxEii>:
    1540:	b570      	push	{r4, r5, r6, lr}
    1542:	f8d0 3278 	ldr.w	r3, [r0, #632]	; 0x278
    1546:	4605      	mov	r5, r0
    1548:	f8d0 027c 	ldr.w	r0, [r0, #636]	; 0x27c
    154c:	f505 7411 	add.w	r4, r5, #580	; 0x244
    1550:	4616      	mov	r6, r2
    1552:	61d8      	str	r0, [r3, #28]
    1554:	f041 0140 	orr.w	r1, r1, #64	; 0x40
    1558:	4620      	mov	r0, r4
    155a:	f015 ff09 	bl	17370 <_ZN4mbed3SPI5writeEi>
    155e:	1631      	asrs	r1, r6, #24
    1560:	4620      	mov	r0, r4
    1562:	f015 ff05 	bl	17370 <_ZN4mbed3SPI5writeEi>
    1566:	1431      	asrs	r1, r6, #16
    1568:	4620      	mov	r0, r4
    156a:	f015 ff01 	bl	17370 <_ZN4mbed3SPI5writeEi>
    156e:	1231      	asrs	r1, r6, #8
    1570:	4620      	mov	r0, r4
    1572:	f015 fefd 	bl	17370 <_ZN4mbed3SPI5writeEi>
    1576:	4631      	mov	r1, r6
    1578:	4620      	mov	r0, r4
    157a:	f015 fef9 	bl	17370 <_ZN4mbed3SPI5writeEi>
    157e:	4620      	mov	r0, r4
    1580:	2195      	movs	r1, #149	; 0x95
    1582:	f015 fef5 	bl	17370 <_ZN4mbed3SPI5writeEi>
    1586:	f241 3688 	movw	r6, #5000	; 0x1388
    158a:	e007      	b.n	159c <__ARM_grp_.debug_frame$i._ZN4mbed6PwmOutD1Ev+0x4>
    158c:	f015 fef0 	bl	17370 <_ZN4mbed3SPI5writeEi>
    1590:	f010 0f80 	tst.w	r0, #128	; 0x80
    1594:	4603      	mov	r3, r0
    1596:	d00d      	beq.n	15b4 <__ARM_grp_.debug_frame$i._ZN4mbed6PwmOutD1Ev+0x1c>
    1598:	3e01      	subs	r6, #1
    159a:	d00d      	beq.n	15b8 <__ARM_grp_.debug_frame$i._ZN4mbed6PwmOutD1Ev+0x20>
    159c:	21ff      	movs	r1, #255	; 0xff
    159e:	4620      	mov	r0, r4
    15a0:	f015 fee6 	bl	17370 <_ZN4mbed3SPI5writeEi>
    15a4:	4603      	mov	r3, r0
    15a6:	21ff      	movs	r1, #255	; 0xff
    15a8:	f013 0f80 	tst.w	r3, #128	; 0x80
    15ac:	4620      	mov	r0, r4
    15ae:	f106 36ff 	add.w	r6, r6, #4294967295
    15b2:	d1eb      	bne.n	158c <__ARM_grp_.debug_frame$44+0x38>
    15b4:	4618      	mov	r0, r3
    15b6:	bd70      	pop	{r4, r5, r6, pc}
    15b8:	f8d5 1278 	ldr.w	r1, [r5, #632]	; 0x278
    15bc:	f8d5 227c 	ldr.w	r2, [r5, #636]	; 0x27c
    15c0:	4620      	mov	r0, r4
    15c2:	618a      	str	r2, [r1, #24]
    15c4:	21ff      	movs	r1, #255	; 0xff
    15c6:	f015 fed3 	bl	17370 <_ZN4mbed3SPI5writeEi>
    15ca:	f04f 33ff 	mov.w	r3, #4294967295
    15ce:	4618      	mov	r0, r3
    15d0:	bd70      	pop	{r4, r5, r6, pc}
    15d2:	bf00      	nop

000015d4 <_ZN12SDFileSystem6_cmd58Ev>:
    15d4:	b5f8      	push	{r3, r4, r5, r6, r7, lr}
    15d6:	f8d0 227c 	ldr.w	r2, [r0, #636]	; 0x27c
    15da:	f8d0 3278 	ldr.w	r3, [r0, #632]	; 0x278
    15de:	f500 7511 	add.w	r5, r0, #580	; 0x244
    15e2:	61da      	str	r2, [r3, #28]
    15e4:	217a      	movs	r1, #122	; 0x7a
    15e6:	4607      	mov	r7, r0
    15e8:	4628      	mov	r0, r5
    15ea:	f015 fec1 	bl	17370 <_ZN4mbed3SPI5writeEi>
    15ee:	2100      	movs	r1, #0
    15f0:	4628      	mov	r0, r5
    15f2:	f015 febd 	bl	17370 <_ZN4mbed3SPI5writeEi>
    15f6:	2100      	movs	r1, #0
    15f8:	4628      	mov	r0, r5
    15fa:	f015 feb9 	bl	17370 <_ZN4mbed3SPI5writeEi>
    15fe:	2100      	movs	r1, #0
    1600:	4628      	mov	r0, r5
    1602:	f015 feb5 	bl	17370 <_ZN4mbed3SPI5writeEi>
    1606:	2100      	movs	r1, #0
    1608:	4628      	mov	r0, r5
    160a:	f015 feb1 	bl	17370 <_ZN4mbed3SPI5writeEi>
    160e:	4628      	mov	r0, r5
    1610:	2195      	movs	r1, #149	; 0x95
    1612:	f015 fead 	bl	17370 <_ZN4mbed3SPI5writeEi>
    1616:	f241 3688 	movw	r6, #5000	; 0x1388
    161a:	e007      	b.n	162c <__ARM_grp_.debug_frame$t._ZN4mbed17rpc_method_callerINS_6PwmOutEfXadL_ZNS1_5writeEfEEEEvPNS_4BaseEPKcPc>
    161c:	f015 fea8 	bl	17370 <_ZN4mbed3SPI5writeEi>
    1620:	f010 0f80 	tst.w	r0, #128	; 0x80
    1624:	4604      	mov	r4, r0
    1626:	d00d      	beq.n	1644 <__ARM_grp_.debug_frame$t._ZN4mbed17rpc_method_callerINS_6PwmOutEfXadL_ZNS1_5writeEfEEEEvPNS_4BaseEPKcPc+0x18>
    1628:	3e01      	subs	r6, #1
    162a:	d026      	beq.n	167a <__ARM_grp_.debug_frame$t._ZN4mbed17rpc_method_callerINS_6PwmOutEfXadL_ZNS1_5writeEfEEEEvPNS_4BaseEPKcPc+0x4e>
    162c:	21ff      	movs	r1, #255	; 0xff
    162e:	4628      	mov	r0, r5
    1630:	f015 fe9e 	bl	17370 <_ZN4mbed3SPI5writeEi>
    1634:	4604      	mov	r4, r0
    1636:	21ff      	movs	r1, #255	; 0xff
    1638:	f014 0f80 	tst.w	r4, #128	; 0x80
    163c:	4628      	mov	r0, r5
    163e:	f106 36ff 	add.w	r6, r6, #4294967295
    1642:	d1eb      	bne.n	161c <__ARM_grp_.debug_frame$t._ZN4mbed17rpc_method_callerIfNS_6PwmOutEXadL_ZNS1_4readEvEEEEvPNS_4BaseEPKcPc+0x40>
    1644:	21ff      	movs	r1, #255	; 0xff
    1646:	4628      	mov	r0, r5
    1648:	f015 fe92 	bl	17370 <_ZN4mbed3SPI5writeEi>
    164c:	21ff      	movs	r1, #255	; 0xff
    164e:	4628      	mov	r0, r5
    1650:	f015 fe8e 	bl	17370 <_ZN4mbed3SPI5writeEi>
    1654:	21ff      	movs	r1, #255	; 0xff
    1656:	4628      	mov	r0, r5
    1658:	f015 fe8a 	bl	17370 <_ZN4mbed3SPI5writeEi>
    165c:	21ff      	movs	r1, #255	; 0xff
    165e:	4628      	mov	r0, r5
    1660:	f015 fe86 	bl	17370 <_ZN4mbed3SPI5writeEi>
    1664:	f8d7 127c 	ldr.w	r1, [r7, #636]	; 0x27c
    1668:	f8d7 2278 	ldr.w	r2, [r7, #632]	; 0x278
    166c:	4628      	mov	r0, r5
    166e:	6191      	str	r1, [r2, #24]
    1670:	21ff      	movs	r1, #255	; 0xff
    1672:	f015 fe7d 	bl	17370 <_ZN4mbed3SPI5writeEi>
    1676:	4620      	mov	r0, r4
    1678:	bdf8      	pop	{r3, r4, r5, r6, r7, pc}
    167a:	f8d7 427c 	ldr.w	r4, [r7, #636]	; 0x27c
    167e:	f8d7 3278 	ldr.w	r3, [r7, #632]	; 0x278
    1682:	4628      	mov	r0, r5
    1684:	619c      	str	r4, [r3, #24]
    1686:	21ff      	movs	r1, #255	; 0xff
    1688:	f04f 34ff 	mov.w	r4, #4294967295
    168c:	f015 fe70 	bl	17370 <_ZN4mbed3SPI5writeEi>
    1690:	4620      	mov	r0, r4
    1692:	bdf8      	pop	{r3, r4, r5, r6, r7, pc}

00001694 <_ZN12SDFileSystem18initialise_card_v2Ev>:
    1694:	b538      	push	{r3, r4, r5, lr}
    1696:	4604      	mov	r4, r0
    1698:	f241 3588 	movw	r5, #5000	; 0x1388
    169c:	e00a      	b.n	16b4 <_ZN12SDFileSystem18initialise_card_v2Ev+0x20>
    169e:	4620      	mov	r0, r4
    16a0:	f7ff fed8 	bl	1454 <_ZN12SDFileSystem4_cmdEii>
    16a4:	4620      	mov	r0, r4
    16a6:	2129      	movs	r1, #41	; 0x29
    16a8:	2200      	movs	r2, #0
    16aa:	f7ff fed3 	bl	1454 <_ZN12SDFileSystem4_cmdEii>
    16ae:	b180      	cbz	r0, 16d2 <__ARM_grp_.debug_frame$t._ZN4mbed17rpc_method_callerINS_6PwmOutEiXadL_ZNS1_9period_msEiEEEEvPNS_4BaseEPKcPc+0x6>
    16b0:	3d01      	subs	r5, #1
    16b2:	d013      	beq.n	16dc <__ARM_grp_.debug_frame$t._ZN4mbed17rpc_method_callerINS_6PwmOutEiXadL_ZNS1_9period_msEiEEEEvPNS_4BaseEPKcPc+0x10>
    16b4:	2137      	movs	r1, #55	; 0x37
    16b6:	2200      	movs	r2, #0
    16b8:	4620      	mov	r0, r4
    16ba:	f7ff fecb 	bl	1454 <_ZN12SDFileSystem4_cmdEii>
    16be:	2129      	movs	r1, #41	; 0x29
    16c0:	2200      	movs	r2, #0
    16c2:	4620      	mov	r0, r4
    16c4:	f7ff fec6 	bl	1454 <_ZN12SDFileSystem4_cmdEii>
    16c8:	3d01      	subs	r5, #1
    16ca:	2137      	movs	r1, #55	; 0x37
    16cc:	2200      	movs	r2, #0
    16ce:	2800      	cmp	r0, #0
    16d0:	d1e5      	bne.n	169e <_ZN12SDFileSystem18initialise_card_v2Ev+0xa>
    16d2:	4620      	mov	r0, r4
    16d4:	f7ff ff7e 	bl	15d4 <_ZN12SDFileSystem6_cmd58Ev>
    16d8:	2002      	movs	r0, #2
    16da:	bd38      	pop	{r3, r4, r5, pc}
    16dc:	4628      	mov	r0, r5
    16de:	bd38      	pop	{r3, r4, r5, pc}

000016e0 <_ZN12SDFileSystem5_cmd8Ev>:
    16e0:	b5f0      	push	{r4, r5, r6, r7, lr}
    16e2:	f8d0 3278 	ldr.w	r3, [r0, #632]	; 0x278
    16e6:	f8d0 227c 	ldr.w	r2, [r0, #636]	; 0x27c
    16ea:	f500 7511 	add.w	r5, r0, #580	; 0x244
    16ee:	b083      	sub	sp, #12
    16f0:	61da      	str	r2, [r3, #28]
    16f2:	2148      	movs	r1, #72	; 0x48
    16f4:	4607      	mov	r7, r0
    16f6:	4628      	mov	r0, r5
    16f8:	f015 fe3a 	bl	17370 <_ZN4mbed3SPI5writeEi>
    16fc:	2100      	movs	r1, #0
    16fe:	4628      	mov	r0, r5
    1700:	f015 fe36 	bl	17370 <_ZN4mbed3SPI5writeEi>
    1704:	2100      	movs	r1, #0
    1706:	4628      	mov	r0, r5
    1708:	f015 fe32 	bl	17370 <_ZN4mbed3SPI5writeEi>
    170c:	2101      	movs	r1, #1
    170e:	4628      	mov	r0, r5
    1710:	f015 fe2e 	bl	17370 <_ZN4mbed3SPI5writeEi>
    1714:	21aa      	movs	r1, #170	; 0xaa
    1716:	4628      	mov	r0, r5
    1718:	f015 fe2a 	bl	17370 <_ZN4mbed3SPI5writeEi>
    171c:	4628      	mov	r0, r5
    171e:	2187      	movs	r1, #135	; 0x87
    1720:	f015 fe26 	bl	17370 <_ZN4mbed3SPI5writeEi>
    1724:	4e24      	ldr	r6, [pc, #144]	; (17b8 <__ARM_grp_.debug_frame$t._ZN4mbed17rpc_method_callerINS_6PwmOutEiXadL_ZNS1_13pulsewidth_msEiEEEEvPNS_4BaseEPKcPc+0x4c>)
    1726:	2400      	movs	r4, #0
    1728:	e00b      	b.n	1742 <__ARM_grp_.debug_frame$t._ZN4mbed17rpc_method_callerINS_6PwmOutEfXadL_ZNS1_10pulsewidthEfEEEEvPNS_4BaseEPKcPc+0x26>
    172a:	f015 fe21 	bl	17370 <_ZN4mbed3SPI5writeEi>
    172e:	b2c0      	uxtb	r0, r0
    1730:	3401      	adds	r4, #1
    1732:	f010 0f80 	tst.w	r0, #128	; 0x80
    1736:	f88d 0000 	strb.w	r0, [sp]
    173a:	d00f      	beq.n	175c <__ARM_grp_.debug_frame$t._ZN4mbed17rpc_method_callerINS_6PwmOutEfXadL_ZNS1_10pulsewidthEfEEEEvPNS_4BaseEPKcPc+0x40>
    173c:	3401      	adds	r4, #1
    173e:	42b4      	cmp	r4, r6
    1740:	d02d      	beq.n	179e <__ARM_grp_.debug_frame$t._ZN4mbed17rpc_method_callerINS_6PwmOutEiXadL_ZNS1_13pulsewidth_msEiEEEEvPNS_4BaseEPKcPc+0x32>
    1742:	21ff      	movs	r1, #255	; 0xff
    1744:	4628      	mov	r0, r5
    1746:	f015 fe13 	bl	17370 <_ZN4mbed3SPI5writeEi>
    174a:	fa5f fc80 	uxtb.w	ip, r0
    174e:	21ff      	movs	r1, #255	; 0xff
    1750:	f01c 0f80 	tst.w	ip, #128	; 0x80
    1754:	4628      	mov	r0, r5
    1756:	f88d c000 	strb.w	ip, [sp]
    175a:	d1e6      	bne.n	172a <__ARM_grp_.debug_frame$t._ZN4mbed17rpc_method_callerINS_6PwmOutEfXadL_ZNS1_10pulsewidthEfEEEEvPNS_4BaseEPKcPc+0xe>
    175c:	21ff      	movs	r1, #255	; 0xff
    175e:	4628      	mov	r0, r5
    1760:	f015 fe06 	bl	17370 <_ZN4mbed3SPI5writeEi>
    1764:	21ff      	movs	r1, #255	; 0xff
    1766:	4628      	mov	r0, r5
    1768:	f015 fe02 	bl	17370 <_ZN4mbed3SPI5writeEi>
    176c:	21ff      	movs	r1, #255	; 0xff
    176e:	4628      	mov	r0, r5
    1770:	f015 fdfe 	bl	17370 <_ZN4mbed3SPI5writeEi>
    1774:	21ff      	movs	r1, #255	; 0xff
    1776:	4628      	mov	r0, r5
    1778:	f015 fdfa 	bl	17370 <_ZN4mbed3SPI5writeEi>
    177c:	f8d7 3278 	ldr.w	r3, [r7, #632]	; 0x278
    1780:	f8d7 227c 	ldr.w	r2, [r7, #636]	; 0x27c
    1784:	a902      	add	r1, sp, #8
    1786:	190c      	adds	r4, r1, r4
    1788:	f804 0c08 	strb.w	r0, [r4, #-8]
    178c:	21ff      	movs	r1, #255	; 0xff
    178e:	619a      	str	r2, [r3, #24]
    1790:	4628      	mov	r0, r5
    1792:	f015 fded 	bl	17370 <_ZN4mbed3SPI5writeEi>
    1796:	f89d 0000 	ldrb.w	r0, [sp]
    179a:	b003      	add	sp, #12
    179c:	bdf0      	pop	{r4, r5, r6, r7, pc}
    179e:	f8d7 3278 	ldr.w	r3, [r7, #632]	; 0x278
    17a2:	f8d7 227c 	ldr.w	r2, [r7, #636]	; 0x27c
    17a6:	4628      	mov	r0, r5
    17a8:	619a      	str	r2, [r3, #24]
    17aa:	21ff      	movs	r1, #255	; 0xff
    17ac:	f015 fde0 	bl	17370 <_ZN4mbed3SPI5writeEi>
    17b0:	f04f 30ff 	mov.w	r0, #4294967295
    17b4:	e7f1      	b.n	179a <__ARM_grp_.debug_frame$t._ZN4mbed17rpc_method_callerINS_6PwmOutEiXadL_ZNS1_13pulsewidth_msEiEEEEvPNS_4BaseEPKcPc+0x2e>
    17b6:	bf00      	nop
    17b8:	004c4b40 	.word	0x004c4b40

000017bc <_ZN12SDFileSystem15initialise_cardEv>:
    17bc:	b570      	push	{r4, r5, r6, lr}
    17be:	f500 7511 	add.w	r5, r0, #580	; 0x244
    17c2:	4604      	mov	r4, r0
    17c4:	4931      	ldr	r1, [pc, #196]	; (188c <__ARM_grp_.debug_frame$i._ZN4mbed6PwmOutD0Ev+0x18>)
    17c6:	4628      	mov	r0, r5
    17c8:	f015 fdfe 	bl	173c8 <_ZN4mbed3SPI9frequencyEi>
    17cc:	f8d4 3278 	ldr.w	r3, [r4, #632]	; 0x278
    17d0:	f8d4 227c 	ldr.w	r2, [r4, #636]	; 0x27c
    17d4:	21ff      	movs	r1, #255	; 0xff
    17d6:	619a      	str	r2, [r3, #24]
    17d8:	4628      	mov	r0, r5
    17da:	f015 fdc9 	bl	17370 <_ZN4mbed3SPI5writeEi>
    17de:	21ff      	movs	r1, #255	; 0xff
    17e0:	4628      	mov	r0, r5
    17e2:	f015 fdc5 	bl	17370 <_ZN4mbed3SPI5writeEi>
    17e6:	21ff      	movs	r1, #255	; 0xff
    17e8:	4628      	mov	r0, r5
    17ea:	f015 fdc1 	bl	17370 <_ZN4mbed3SPI5writeEi>
    17ee:	21ff      	movs	r1, #255	; 0xff
    17f0:	4628      	mov	r0, r5
    17f2:	f015 fdbd 	bl	17370 <_ZN4mbed3SPI5writeEi>
    17f6:	21ff      	movs	r1, #255	; 0xff
    17f8:	4628      	mov	r0, r5
    17fa:	f015 fdb9 	bl	17370 <_ZN4mbed3SPI5writeEi>
    17fe:	21ff      	movs	r1, #255	; 0xff
    1800:	4628      	mov	r0, r5
    1802:	f015 fdb5 	bl	17370 <_ZN4mbed3SPI5writeEi>
    1806:	21ff      	movs	r1, #255	; 0xff
    1808:	4628      	mov	r0, r5
    180a:	f015 fdb1 	bl	17370 <_ZN4mbed3SPI5writeEi>
    180e:	21ff      	movs	r1, #255	; 0xff
    1810:	4628      	mov	r0, r5
    1812:	f015 fdad 	bl	17370 <_ZN4mbed3SPI5writeEi>
    1816:	21ff      	movs	r1, #255	; 0xff
    1818:	4628      	mov	r0, r5
    181a:	f015 fda9 	bl	17370 <_ZN4mbed3SPI5writeEi>
    181e:	21ff      	movs	r1, #255	; 0xff
    1820:	4628      	mov	r0, r5
    1822:	f015 fda5 	bl	17370 <_ZN4mbed3SPI5writeEi>
    1826:	21ff      	movs	r1, #255	; 0xff
    1828:	4628      	mov	r0, r5
    182a:	f015 fda1 	bl	17370 <_ZN4mbed3SPI5writeEi>
    182e:	21ff      	movs	r1, #255	; 0xff
    1830:	4628      	mov	r0, r5
    1832:	f015 fd9d 	bl	17370 <_ZN4mbed3SPI5writeEi>
    1836:	21ff      	movs	r1, #255	; 0xff
    1838:	4628      	mov	r0, r5
    183a:	f015 fd99 	bl	17370 <_ZN4mbed3SPI5writeEi>
    183e:	21ff      	movs	r1, #255	; 0xff
    1840:	4628      	mov	r0, r5
    1842:	f015 fd95 	bl	17370 <_ZN4mbed3SPI5writeEi>
    1846:	21ff      	movs	r1, #255	; 0xff
    1848:	4628      	mov	r0, r5
    184a:	f015 fd91 	bl	17370 <_ZN4mbed3SPI5writeEi>
    184e:	21ff      	movs	r1, #255	; 0xff
    1850:	4628      	mov	r0, r5
    1852:	f015 fd8d 	bl	17370 <_ZN4mbed3SPI5writeEi>
    1856:	2100      	movs	r1, #0
    1858:	4620      	mov	r0, r4
    185a:	460a      	mov	r2, r1
    185c:	f7ff fdfa 	bl	1454 <_ZN12SDFileSystem4_cmdEii>
    1860:	2801      	cmp	r0, #1
    1862:	d001      	beq.n	1868 <__ARM_grp_.debug_frame$t._ZN4mbed19rpc_function_callerIPKc7PinNameS2_XadL_ZNS_4Base9constructINS_6PwmOutES3_S2_EES2_T0_T1_EEEEvS2_Pc+0x68>
    1864:	2000      	movs	r0, #0
    1866:	bd70      	pop	{r4, r5, r6, pc}
    1868:	4620      	mov	r0, r4
    186a:	f7ff ff39 	bl	16e0 <_ZN12SDFileSystem5_cmd8Ev>
    186e:	2801      	cmp	r0, #1
    1870:	d006      	beq.n	1880 <__ARM_grp_.debug_frame$i._ZN4mbed6PwmOutD0Ev+0xc>
    1872:	2805      	cmp	r0, #5
    1874:	d1f6      	bne.n	1864 <__ARM_grp_.debug_frame$t._ZN4mbed19rpc_function_callerIPKc7PinNameS2_XadL_ZNS_4Base9constructINS_6PwmOutES3_S2_EES2_T0_T1_EEEEvS2_Pc+0x64>
    1876:	4620      	mov	r0, r4
    1878:	e8bd 4070 	ldmia.w	sp!, {r4, r5, r6, lr}
    187c:	f7ff be3c 	b.w	14f8 <_ZN12SDFileSystem18initialise_card_v1Ev>
    1880:	4620      	mov	r0, r4
    1882:	e8bd 4070 	ldmia.w	sp!, {r4, r5, r6, lr}
    1886:	f7ff bf05 	b.w	1694 <_ZN12SDFileSystem18initialise_card_v2Ev>
    188a:	bf00      	nop
    188c:	000186a0 	.word	0x000186a0

00001890 <_ZN12SDFileSystem5_readEPci>:
    1890:	e92d 43f8 	stmdb	sp!, {r3, r4, r5, r6, r7, r8, r9, lr}
    1894:	4605      	mov	r5, r0
    1896:	f8d0 3278 	ldr.w	r3, [r0, #632]	; 0x278
    189a:	f8d0 027c 	ldr.w	r0, [r0, #636]	; 0x27c
    189e:	460c      	mov	r4, r1
    18a0:	4690      	mov	r8, r2
    18a2:	61d8      	str	r0, [r3, #28]
    18a4:	f505 7611 	add.w	r6, r5, #580	; 0x244
    18a8:	21ff      	movs	r1, #255	; 0xff
    18aa:	4630      	mov	r0, r6
    18ac:	f015 fd60 	bl	17370 <_ZN4mbed3SPI5writeEi>
    18b0:	28fe      	cmp	r0, #254	; 0xfe
    18b2:	d1f9      	bne.n	18a8 <_ZN12SDFileSystem5_readEPci+0x18>
    18b4:	f1b8 0f00 	cmp.w	r8, #0
    18b8:	dd24      	ble.n	1904 <__ARM_grp_.debug_frame$i._ZN4mbed10parse_charEPKcPS1_+0x40>
    18ba:	21ff      	movs	r1, #255	; 0xff
    18bc:	4630      	mov	r0, r6
    18be:	f015 fd57 	bl	17370 <_ZN4mbed3SPI5writeEi>
    18c2:	2701      	movs	r7, #1
    18c4:	f108 39ff 	add.w	r9, r8, #4294967295
    18c8:	4547      	cmp	r7, r8
    18ca:	f009 0901 	and.w	r9, r9, #1
    18ce:	7020      	strb	r0, [r4, #0]
    18d0:	d018      	beq.n	1904 <__ARM_grp_.debug_frame$i._ZN4mbed10parse_charEPKcPS1_+0x40>
    18d2:	f1b9 0f00 	cmp.w	r9, #0
    18d6:	d007      	beq.n	18e8 <__ARM_grp_.debug_frame$i._ZN4mbed10parse_charEPKcPS1_+0x24>
    18d8:	21ff      	movs	r1, #255	; 0xff
    18da:	4630      	mov	r0, r6
    18dc:	f015 fd48 	bl	17370 <_ZN4mbed3SPI5writeEi>
    18e0:	2702      	movs	r7, #2
    18e2:	4547      	cmp	r7, r8
    18e4:	7060      	strb	r0, [r4, #1]
    18e6:	d00d      	beq.n	1904 <__ARM_grp_.debug_frame$i._ZN4mbed10parse_charEPKcPS1_+0x40>
    18e8:	21ff      	movs	r1, #255	; 0xff
    18ea:	4630      	mov	r0, r6
    18ec:	f015 fd40 	bl	17370 <_ZN4mbed3SPI5writeEi>
    18f0:	21ff      	movs	r1, #255	; 0xff
    18f2:	55e0      	strb	r0, [r4, r7]
    18f4:	4630      	mov	r0, r6
    18f6:	f015 fd3b 	bl	17370 <_ZN4mbed3SPI5writeEi>
    18fa:	1c79      	adds	r1, r7, #1
    18fc:	3702      	adds	r7, #2
    18fe:	4547      	cmp	r7, r8
    1900:	5460      	strb	r0, [r4, r1]
    1902:	d1f1      	bne.n	18e8 <__ARM_grp_.debug_frame$i._ZN4mbed10parse_charEPKcPS1_+0x24>
    1904:	21ff      	movs	r1, #255	; 0xff
    1906:	4630      	mov	r0, r6
    1908:	f015 fd32 	bl	17370 <_ZN4mbed3SPI5writeEi>
    190c:	21ff      	movs	r1, #255	; 0xff
    190e:	4630      	mov	r0, r6
    1910:	f015 fd2e 	bl	17370 <_ZN4mbed3SPI5writeEi>
    1914:	f8d5 3278 	ldr.w	r3, [r5, #632]	; 0x278
    1918:	f8d5 227c 	ldr.w	r2, [r5, #636]	; 0x27c
    191c:	4630      	mov	r0, r6
    191e:	619a      	str	r2, [r3, #24]
    1920:	21ff      	movs	r1, #255	; 0xff
    1922:	f015 fd25 	bl	17370 <_ZN4mbed3SPI5writeEi>
    1926:	2000      	movs	r0, #0
    1928:	e8bd 83f8 	ldmia.w	sp!, {r3, r4, r5, r6, r7, r8, r9, pc}

0000192c <_ZN12SDFileSystem9disk_readEPci>:
    192c:	b570      	push	{r4, r5, r6, lr}
    192e:	0252      	lsls	r2, r2, #9
    1930:	460d      	mov	r5, r1
    1932:	2111      	movs	r1, #17
    1934:	4606      	mov	r6, r0
    1936:	f7ff fd8d 	bl	1454 <_ZN12SDFileSystem4_cmdEii>
    193a:	4604      	mov	r4, r0
    193c:	b108      	cbz	r0, 1942 <_ZN12SDFileSystem9disk_readEPci+0x16>
    193e:	2001      	movs	r0, #1
    1940:	bd70      	pop	{r4, r5, r6, pc}
    1942:	4630      	mov	r0, r6
    1944:	4629      	mov	r1, r5
    1946:	f44f 7200 	mov.w	r2, #512	; 0x200
    194a:	f7ff ffa1 	bl	1890 <_ZN12SDFileSystem5_readEPci>
    194e:	4620      	mov	r0, r4
    1950:	bd70      	pop	{r4, r5, r6, pc}
    1952:	bf00      	nop

00001954 <_ZN12SDFileSystem6_writeEPKci>:
    1954:	e92d 43f8 	stmdb	sp!, {r3, r4, r5, r6, r7, r8, r9, lr}
    1958:	f8d0 3278 	ldr.w	r3, [r0, #632]	; 0x278
    195c:	4606      	mov	r6, r0
    195e:	f8d0 027c 	ldr.w	r0, [r0, #636]	; 0x27c
    1962:	f506 7411 	add.w	r4, r6, #580	; 0x244
    1966:	4691      	mov	r9, r2
    1968:	61d8      	str	r0, [r3, #28]
    196a:	460d      	mov	r5, r1
    196c:	4620      	mov	r0, r4
    196e:	21fe      	movs	r1, #254	; 0xfe
    1970:	f015 fcfe 	bl	17370 <_ZN4mbed3SPI5writeEi>
    1974:	f1b9 0f00 	cmp.w	r9, #0
    1978:	dd22      	ble.n	19c0 <__ARM_grp_.debug_frame$8+0x1c>
    197a:	2701      	movs	r7, #1
    197c:	4620      	mov	r0, r4
    197e:	7829      	ldrb	r1, [r5, #0]
    1980:	f109 38ff 	add.w	r8, r9, #4294967295
    1984:	f015 fcf4 	bl	17370 <_ZN4mbed3SPI5writeEi>
    1988:	454f      	cmp	r7, r9
    198a:	ea08 0807 	and.w	r8, r8, r7
    198e:	d017      	beq.n	19c0 <__ARM_grp_.debug_frame$8+0x1c>
    1990:	f1b8 0f00 	cmp.w	r8, #0
    1994:	d006      	beq.n	19a4 <__ARM_grp_.debug_frame$8>
    1996:	4620      	mov	r0, r4
    1998:	7869      	ldrb	r1, [r5, #1]
    199a:	2702      	movs	r7, #2
    199c:	f015 fce8 	bl	17370 <_ZN4mbed3SPI5writeEi>
    19a0:	454f      	cmp	r7, r9
    19a2:	d00d      	beq.n	19c0 <__ARM_grp_.debug_frame$8+0x1c>
    19a4:	5de9      	ldrb	r1, [r5, r7]
    19a6:	f107 0801 	add.w	r8, r7, #1
    19aa:	4620      	mov	r0, r4
    19ac:	f015 fce0 	bl	17370 <_ZN4mbed3SPI5writeEi>
    19b0:	3702      	adds	r7, #2
    19b2:	4620      	mov	r0, r4
    19b4:	f815 1008 	ldrb.w	r1, [r5, r8]
    19b8:	f015 fcda 	bl	17370 <_ZN4mbed3SPI5writeEi>
    19bc:	454f      	cmp	r7, r9
    19be:	d1f1      	bne.n	19a4 <__ARM_grp_.debug_frame$8>
    19c0:	21ff      	movs	r1, #255	; 0xff
    19c2:	4620      	mov	r0, r4
    19c4:	f015 fcd4 	bl	17370 <_ZN4mbed3SPI5writeEi>
    19c8:	21ff      	movs	r1, #255	; 0xff
    19ca:	4620      	mov	r0, r4
    19cc:	f015 fcd0 	bl	17370 <_ZN4mbed3SPI5writeEi>
    19d0:	21ff      	movs	r1, #255	; 0xff
    19d2:	4620      	mov	r0, r4
    19d4:	f015 fccc 	bl	17370 <_ZN4mbed3SPI5writeEi>
    19d8:	f000 011f 	and.w	r1, r0, #31
    19dc:	2905      	cmp	r1, #5
    19de:	d111      	bne.n	1a04 <__ARM_grp_.debug_frame$11+0x1c>
    19e0:	4620      	mov	r0, r4
    19e2:	21ff      	movs	r1, #255	; 0xff
    19e4:	f015 fcc4 	bl	17370 <_ZN4mbed3SPI5writeEi>
    19e8:	2800      	cmp	r0, #0
    19ea:	d0f9      	beq.n	19e0 <__ARM_grp_.debug_frame$8+0x3c>
    19ec:	f8d6 127c 	ldr.w	r1, [r6, #636]	; 0x27c
    19f0:	f8d6 2278 	ldr.w	r2, [r6, #632]	; 0x278
    19f4:	4620      	mov	r0, r4
    19f6:	6191      	str	r1, [r2, #24]
    19f8:	21ff      	movs	r1, #255	; 0xff
    19fa:	f015 fcb9 	bl	17370 <_ZN4mbed3SPI5writeEi>
    19fe:	2000      	movs	r0, #0
    1a00:	e8bd 83f8 	ldmia.w	sp!, {r3, r4, r5, r6, r7, r8, r9, pc}
    1a04:	f8d6 3278 	ldr.w	r3, [r6, #632]	; 0x278
    1a08:	f8d6 227c 	ldr.w	r2, [r6, #636]	; 0x27c
    1a0c:	4620      	mov	r0, r4
    1a0e:	619a      	str	r2, [r3, #24]
    1a10:	21ff      	movs	r1, #255	; 0xff
    1a12:	f015 fcad 	bl	17370 <_ZN4mbed3SPI5writeEi>
    1a16:	2001      	movs	r0, #1
    1a18:	e8bd 83f8 	ldmia.w	sp!, {r3, r4, r5, r6, r7, r8, r9, pc}

00001a1c <_ZN12SDFileSystem10disk_writeEPKci>:
    1a1c:	b570      	push	{r4, r5, r6, lr}
    1a1e:	0252      	lsls	r2, r2, #9
    1a20:	460d      	mov	r5, r1
    1a22:	2118      	movs	r1, #24
    1a24:	4606      	mov	r6, r0
    1a26:	f7ff fd15 	bl	1454 <_ZN12SDFileSystem4_cmdEii>
    1a2a:	4604      	mov	r4, r0
    1a2c:	b108      	cbz	r0, 1a32 <__ARM_grp_.debug_frame$i._ZN4mbed10DigitalOutD1Ev+0x6>
    1a2e:	2001      	movs	r0, #1
    1a30:	bd70      	pop	{r4, r5, r6, pc}
    1a32:	4630      	mov	r0, r6
    1a34:	4629      	mov	r1, r5
    1a36:	f44f 7200 	mov.w	r2, #512	; 0x200
    1a3a:	f7ff ff8b 	bl	1954 <_ZN12SDFileSystem6_writeEPKci>
    1a3e:	4620      	mov	r0, r4
    1a40:	bd70      	pop	{r4, r5, r6, pc}
    1a42:	bf00      	nop

00001a44 <_ZN12SDFileSystem11_sd_sectorsEv>:
    1a44:	b5f0      	push	{r4, r5, r6, r7, lr}
    1a46:	2109      	movs	r1, #9
    1a48:	b085      	sub	sp, #20
    1a4a:	2200      	movs	r2, #0
    1a4c:	4605      	mov	r5, r0
    1a4e:	f7ff fd77 	bl	1540 <_ZN12SDFileSystem5_cmdxEii>
    1a52:	4604      	mov	r4, r0
    1a54:	b110      	cbz	r0, 1a5c <_ZN12SDFileSystem11_sd_sectorsEv+0x18>
    1a56:	2000      	movs	r0, #0
    1a58:	b005      	add	sp, #20
    1a5a:	bdf0      	pop	{r4, r5, r6, r7, pc}
    1a5c:	4628      	mov	r0, r5
    1a5e:	4669      	mov	r1, sp
    1a60:	2210      	movs	r2, #16
    1a62:	f7ff ff15 	bl	1890 <_ZN12SDFileSystem5_readEPci>
    1a66:	4605      	mov	r5, r0
    1a68:	bb50      	cbnz	r0, 1ac0 <__ARM_grp_.debug_frame$t._ZN4mbed17rpc_method_callerIiNS_10DigitalOutEXadL_ZNS1_4readEvEEEEvPNS_4BaseEPKcPc>
    1a6a:	217f      	movs	r1, #127	; 0x7f
    1a6c:	227e      	movs	r2, #126	; 0x7e
    1a6e:	4668      	mov	r0, sp
    1a70:	f7ff fc7e 	bl	1370 <_ZL8ext_bitsPcii>
    1a74:	2149      	movs	r1, #73	; 0x49
    1a76:	4604      	mov	r4, r0
    1a78:	223e      	movs	r2, #62	; 0x3e
    1a7a:	4668      	mov	r0, sp
    1a7c:	f7ff fc78 	bl	1370 <_ZL8ext_bitsPcii>
    1a80:	2131      	movs	r1, #49	; 0x31
    1a82:	222f      	movs	r2, #47	; 0x2f
    1a84:	4606      	mov	r6, r0
    1a86:	4668      	mov	r0, sp
    1a88:	f7ff fc72 	bl	1370 <_ZL8ext_bitsPcii>
    1a8c:	2153      	movs	r1, #83	; 0x53
    1a8e:	4607      	mov	r7, r0
    1a90:	2250      	movs	r2, #80	; 0x50
    1a92:	4668      	mov	r0, sp
    1a94:	f7ff fc6c 	bl	1370 <_ZL8ext_bitsPcii>
    1a98:	b984      	cbnz	r4, 1abc <__ARM_grp_.debug_frame$t._ZN4mbed17rpc_method_callerINS_10DigitalOutEiXadL_ZNS1_5writeEiEEEEvPNS_4BaseEPKcPc+0x4c>
    1a9a:	2201      	movs	r2, #1
    1a9c:	fa12 f300 	lsls.w	r3, r2, r0
    1aa0:	1cb8      	adds	r0, r7, #2
    1aa2:	fa12 f100 	lsls.w	r1, r2, r0
    1aa6:	fb06 3303 	mla	r3, r6, r3, r3
    1aaa:	fb01 f003 	mul.w	r0, r1, r3
    1aae:	2800      	cmp	r0, #0
    1ab0:	bfbc      	itt	lt
    1ab2:	f500 70fe 	addlt.w	r0, r0, #508	; 0x1fc
    1ab6:	3003      	addlt	r0, #3
    1ab8:	1240      	asrs	r0, r0, #9
    1aba:	e7cd      	b.n	1a58 <_ZN12SDFileSystem11_sd_sectorsEv+0x14>
    1abc:	4628      	mov	r0, r5
    1abe:	e7cb      	b.n	1a58 <_ZN12SDFileSystem11_sd_sectorsEv+0x14>
    1ac0:	4620      	mov	r0, r4
    1ac2:	e7c9      	b.n	1a58 <_ZN12SDFileSystem11_sd_sectorsEv+0x14>

00001ac4 <_ZN12SDFileSystem15disk_initializeEv>:
    1ac4:	b538      	push	{r3, r4, r5, lr}
    1ac6:	4604      	mov	r4, r0
    1ac8:	f7ff fe78 	bl	17bc <_ZN12SDFileSystem15initialise_cardEv>
    1acc:	4620      	mov	r0, r4
    1ace:	f7ff ffb9 	bl	1a44 <_ZN12SDFileSystem11_sd_sectorsEv>
    1ad2:	2110      	movs	r1, #16
    1ad4:	f8c4 0240 	str.w	r0, [r4, #576]	; 0x240
    1ad8:	f44f 7200 	mov.w	r2, #512	; 0x200
    1adc:	4620      	mov	r0, r4
    1ade:	f7ff fcb9 	bl	1454 <_ZN12SDFileSystem4_cmdEii>
    1ae2:	4605      	mov	r5, r0
    1ae4:	b108      	cbz	r0, 1aea <_ZN12SDFileSystem15disk_initializeEv+0x26>
    1ae6:	2001      	movs	r0, #1
    1ae8:	bd38      	pop	{r3, r4, r5, pc}
    1aea:	f504 7011 	add.w	r0, r4, #580	; 0x244
    1aee:	4902      	ldr	r1, [pc, #8]	; (1af8 <_ZN12SDFileSystem15disk_initializeEv+0x34>)
    1af0:	f015 fc6a 	bl	173c8 <_ZN4mbed3SPI9frequencyEi>
    1af4:	4628      	mov	r0, r5
    1af6:	bd38      	pop	{r3, r4, r5, pc}
    1af8:	000f4240 	.word	0x000f4240

00001afc <_ZN13GcodeDispatch16on_module_loadedEv>:
    1afc:	6802      	ldr	r2, [r0, #0]
    1afe:	b508      	push	{r3, lr}
    1b00:	2101      	movs	r1, #1
    1b02:	6853      	ldr	r3, [r2, #4]
    1b04:	4798      	blx	r3
    1b06:	bd08      	pop	{r3, pc}

00001b08 <_ZN13GcodeDispatch24on_console_line_receivedEPv>:
    1b08:	b510      	push	{r4, lr}
    1b0a:	b084      	sub	sp, #16
    1b0c:	4604      	mov	r4, r0
    1b0e:	a801      	add	r0, sp, #4
    1b10:	f003 fb7f 	bl	5212 <_ZNSsC1ERKSs>
    1b14:	9b01      	ldr	r3, [sp, #4]
    1b16:	f853 2c04 	ldr.w	r2, [r3, #-4]
    1b1a:	2a00      	cmp	r2, #0
    1b1c:	db03      	blt.n	1b26 <__ARM_grp_.debug_frame$t._ZN4mbed19rpc_function_callerIPKc7PinNameS2_XadL_ZNS_4Base9constructINS_10DigitalOutES3_S2_EES2_T0_T1_EEEEvS2_Pc+0x16>
    1b1e:	a801      	add	r0, sp, #4
    1b20:	f003 fd1a 	bl	5558 <_ZNSs12_M_leak_hardEv>
    1b24:	9b01      	ldr	r3, [sp, #4]
    1b26:	781a      	ldrb	r2, [r3, #0]
    1b28:	3a47      	subs	r2, #71	; 0x47
    1b2a:	b2d1      	uxtb	r1, r2
    1b2c:	290d      	cmp	r1, #13
    1b2e:	d81e      	bhi.n	1b6e <__ARM_grp_.debug_frame$t._ZN4mbed19rpc_function_callerIPKc7PinNameS2_XadL_ZNS_4Base9constructINS_10DigitalOutES3_S2_EES2_T0_T1_EEEEvS2_Pc+0x5e>
    1b30:	481d      	ldr	r0, [pc, #116]	; (1ba8 <__ARM_grp_.debug_frame$i._ZN4mbed10DigitalOut5writeEi+0x24>)
    1b32:	fa4f fc82 	sxtb.w	ip, r2
    1b36:	fa10 f10c 	lsls.w	r1, r0, ip
    1b3a:	d518      	bpl.n	1b6e <__ARM_grp_.debug_frame$t._ZN4mbed19rpc_function_callerIPKc7PinNameS2_XadL_ZNS_4Base9constructINS_10DigitalOutES3_S2_EES2_T0_T1_EEEEvS2_Pc+0x5e>
    1b3c:	4668      	mov	r0, sp
    1b3e:	f003 f88d 	bl	4c5c <_ZN5GcodeC1Ev>
    1b42:	a901      	add	r1, sp, #4
    1b44:	4668      	mov	r0, sp
    1b46:	f003 fb91 	bl	526c <_ZNSs6assignERKSs>
    1b4a:	6860      	ldr	r0, [r4, #4]
    1b4c:	2102      	movs	r1, #2
    1b4e:	466a      	mov	r2, sp
    1b50:	f7ff fb22 	bl	1198 <_ZN6Kernel10call_eventEjPv>
    1b54:	6863      	ldr	r3, [r4, #4]
    1b56:	4915      	ldr	r1, [pc, #84]	; (1bac <__ARM_grp_.debug_frame$i._ZN4mbed10DigitalOut5writeEi+0x28>)
    1b58:	6818      	ldr	r0, [r3, #0]
    1b5a:	4c15      	ldr	r4, [pc, #84]	; (1bb0 <__ARM_grp_.debug_frame$i._ZN4mbed10DigitalOut5writeEi+0x2c>)
    1b5c:	3008      	adds	r0, #8
    1b5e:	f016 f8fd 	bl	17d5c <_ZN4mbed6Stream6printfEPKcz>
    1b62:	9a00      	ldr	r2, [sp, #0]
    1b64:	3a0c      	subs	r2, #12
    1b66:	42a2      	cmp	r2, r4
    1b68:	d111      	bne.n	1b8e <__ARM_grp_.debug_frame$i._ZN4mbed10DigitalOut5writeEi+0xa>
    1b6a:	9b01      	ldr	r3, [sp, #4]
    1b6c:	e000      	b.n	1b70 <__ARM_grp_.debug_frame$t._ZN4mbed19rpc_function_callerIPKc7PinNameS2_XadL_ZNS_4Base9constructINS_10DigitalOutES3_S2_EES2_T0_T1_EEEEvS2_Pc+0x60>
    1b6e:	4a10      	ldr	r2, [pc, #64]	; (1bb0 <__ARM_grp_.debug_frame$i._ZN4mbed10DigitalOut5writeEi+0x2c>)
    1b70:	3b0c      	subs	r3, #12
    1b72:	4293      	cmp	r3, r2
    1b74:	d101      	bne.n	1b7a <__ARM_grp_.debug_frame$t._ZN4mbed19rpc_function_callerIPKc7PinNameS2_XadL_ZNS_4Base9constructINS_10DigitalOutES3_S2_EES2_T0_T1_EEEEvS2_Pc+0x6a>
    1b76:	b004      	add	sp, #16
    1b78:	bd10      	pop	{r4, pc}
    1b7a:	689a      	ldr	r2, [r3, #8]
    1b7c:	1e50      	subs	r0, r2, #1
    1b7e:	2a00      	cmp	r2, #0
    1b80:	6098      	str	r0, [r3, #8]
    1b82:	dcf8      	bgt.n	1b76 <__ARM_grp_.debug_frame$t._ZN4mbed19rpc_function_callerIPKc7PinNameS2_XadL_ZNS_4Base9constructINS_10DigitalOutES3_S2_EES2_T0_T1_EEEEvS2_Pc+0x66>
    1b84:	4618      	mov	r0, r3
    1b86:	a902      	add	r1, sp, #8
    1b88:	f003 fb57 	bl	523a <_ZNSs4_Rep10_M_destroyERKSaIcE>
    1b8c:	e7f3      	b.n	1b76 <__ARM_grp_.debug_frame$t._ZN4mbed19rpc_function_callerIPKc7PinNameS2_XadL_ZNS_4Base9constructINS_10DigitalOutES3_S2_EES2_T0_T1_EEEEvS2_Pc+0x66>
    1b8e:	6890      	ldr	r0, [r2, #8]
    1b90:	1e41      	subs	r1, r0, #1
    1b92:	2800      	cmp	r0, #0
    1b94:	6091      	str	r1, [r2, #8]
    1b96:	dd02      	ble.n	1b9e <__ARM_grp_.debug_frame$i._ZN4mbed10DigitalOut5writeEi+0x1a>
    1b98:	9b01      	ldr	r3, [sp, #4]
    1b9a:	4622      	mov	r2, r4
    1b9c:	e7e8      	b.n	1b70 <__ARM_grp_.debug_frame$t._ZN4mbed19rpc_function_callerIPKc7PinNameS2_XadL_ZNS_4Base9constructINS_10DigitalOutES3_S2_EES2_T0_T1_EEEEvS2_Pc+0x60>
    1b9e:	4610      	mov	r0, r2
    1ba0:	a903      	add	r1, sp, #12
    1ba2:	f003 fb4a 	bl	523a <_ZNSs4_Rep10_M_destroyERKSaIcE>
    1ba6:	e7f7      	b.n	1b98 <__ARM_grp_.debug_frame$i._ZN4mbed10DigitalOut5writeEi+0x14>
    1ba8:	82040000 	.word	0x82040000
    1bac:	00014f90 	.word	0x00014f90
    1bb0:	100009f8 	.word	0x100009f8

00001bb4 <_ZN13GcodeDispatchC1Ev>:
    1bb4:	b510      	push	{r4, lr}
    1bb6:	4604      	mov	r4, r0
    1bb8:	f7ff fbc8 	bl	134c <_ZN6ModuleC1Ev>
    1bbc:	4b01      	ldr	r3, [pc, #4]	; (1bc4 <_ZN13GcodeDispatchC1Ev+0x10>)
    1bbe:	4620      	mov	r0, r4
    1bc0:	6023      	str	r3, [r4, #0]
    1bc2:	bd10      	pop	{r4, pc}
    1bc4:	00014fa0 	.word	0x00014fa0

00001bc8 <_ZN13SerialConsole16on_module_loadedEv>:
    1bc8:	b510      	push	{r4, lr}
    1bca:	4604      	mov	r4, r0
    1bcc:	b150      	cbz	r0, 1be4 <_ZN13SerialConsole16on_module_loadedEv+0x1c>
    1bce:	4a08      	ldr	r2, [pc, #32]	; (1bf0 <_ZN13SerialConsole16on_module_loadedEv+0x28>)
    1bd0:	4b08      	ldr	r3, [pc, #32]	; (1bf4 <_ZN13SerialConsole16on_module_loadedEv+0x2c>)
    1bd2:	2100      	movs	r1, #0
    1bd4:	62c2      	str	r2, [r0, #44]	; 0x2c
    1bd6:	6301      	str	r1, [r0, #48]	; 0x30
    1bd8:	6280      	str	r0, [r0, #40]	; 0x28
    1bda:	63e3      	str	r3, [r4, #60]	; 0x3c
    1bdc:	3008      	adds	r0, #8
    1bde:	6261      	str	r1, [r4, #36]	; 0x24
    1be0:	f015 fe38 	bl	17854 <_ZN4mbed6Serial15setup_interruptENS0_7IrqTypeE>
    1be4:	6821      	ldr	r1, [r4, #0]
    1be6:	4620      	mov	r0, r4
    1be8:	684b      	ldr	r3, [r1, #4]
    1bea:	2100      	movs	r1, #0
    1bec:	4798      	blx	r3
    1bee:	bd10      	pop	{r4, pc}
    1bf0:	00002139 	.word	0x00002139
    1bf4:	00001bf9 	.word	0x00001bf9

00001bf8 <_ZN4mbed15FunctionPointer12membercallerI13SerialConsoleEEvPvPc>:
    1bf8:	b500      	push	{lr}
    1bfa:	468c      	mov	ip, r1
    1bfc:	6849      	ldr	r1, [r1, #4]
    1bfe:	b083      	sub	sp, #12
    1c00:	4602      	mov	r2, r0
    1c02:	f8dc 0000 	ldr.w	r0, [ip]
    1c06:	466b      	mov	r3, sp
    1c08:	f011 0f01 	tst.w	r1, #1
    1c0c:	c303      	stmia	r3!, {r0, r1}
    1c0e:	d105      	bne.n	1c1c <__ARM_grp_.debug_frame$i._ZN4mbed10DigitalOutD0Ev+0x10>
    1c10:	9b00      	ldr	r3, [sp, #0]
    1c12:	eb02 0061 	add.w	r0, r2, r1, asr #1
    1c16:	4798      	blx	r3
    1c18:	b003      	add	sp, #12
    1c1a:	bd00      	pop	{pc}
    1c1c:	1048      	asrs	r0, r1, #1
    1c1e:	5811      	ldr	r1, [r2, r0]
    1c20:	1810      	adds	r0, r2, r0
    1c22:	9a00      	ldr	r2, [sp, #0]
    1c24:	588b      	ldr	r3, [r1, r2]
    1c26:	e7f6      	b.n	1c16 <__ARM_grp_.debug_frame$i._ZN4mbed10DigitalOutD0Ev+0xa>

00001c28 <_ZN13SerialConsole12on_main_loopEPv>:
    1c28:	b510      	push	{r4, lr}
    1c2a:	6e82      	ldr	r2, [r0, #104]	; 0x68
    1c2c:	6e41      	ldr	r1, [r0, #100]	; 0x64
    1c2e:	b082      	sub	sp, #8
    1c30:	1a53      	subs	r3, r2, r1
    1c32:	089b      	lsrs	r3, r3, #2
    1c34:	4604      	mov	r4, r0
    1c36:	d00d      	beq.n	1c54 <_ZN13SerialConsole12on_main_loopEPv+0x2c>
    1c38:	2101      	movs	r1, #1
    1c3a:	3a04      	subs	r2, #4
    1c3c:	6840      	ldr	r0, [r0, #4]
    1c3e:	f7ff faab 	bl	1198 <_ZN6Kernel10call_eventEjPv>
    1c42:	6ea1      	ldr	r1, [r4, #104]	; 0x68
    1c44:	4a09      	ldr	r2, [pc, #36]	; (1c6c <__ARM_grp_.debug_frame$5+0x10>)
    1c46:	f851 0c04 	ldr.w	r0, [r1, #-4]
    1c4a:	1f0b      	subs	r3, r1, #4
    1c4c:	380c      	subs	r0, #12
    1c4e:	4290      	cmp	r0, r2
    1c50:	66a3      	str	r3, [r4, #104]	; 0x68
    1c52:	d101      	bne.n	1c58 <_ZN13SerialConsole12on_main_loopEPv+0x30>
    1c54:	b002      	add	sp, #8
    1c56:	bd10      	pop	{r4, pc}
    1c58:	6883      	ldr	r3, [r0, #8]
    1c5a:	1e5a      	subs	r2, r3, #1
    1c5c:	2b00      	cmp	r3, #0
    1c5e:	6082      	str	r2, [r0, #8]
    1c60:	dcf8      	bgt.n	1c54 <_ZN13SerialConsole12on_main_loopEPv+0x2c>
    1c62:	a901      	add	r1, sp, #4
    1c64:	f003 fae9 	bl	523a <_ZNSs4_Rep10_M_destroyERKSaIcE>
    1c68:	e7f4      	b.n	1c54 <_ZN13SerialConsole12on_main_loopEPv+0x2c>
    1c6a:	bf00      	nop
    1c6c:	100009f8 	.word	0x100009f8

00001c70 <_ZN13SerialConsoleD0Ev>:
    1c70:	b5f0      	push	{r4, r5, r6, r7, lr}
    1c72:	4a33      	ldr	r2, [pc, #204]	; (1d40 <__ARM_grp_.debug_frame$5+0xc>)
    1c74:	6e43      	ldr	r3, [r0, #100]	; 0x64
    1c76:	6e87      	ldr	r7, [r0, #104]	; 0x68
    1c78:	4606      	mov	r6, r0
    1c7a:	f102 0174 	add.w	r1, r2, #116	; 0x74
    1c7e:	f102 0038 	add.w	r0, r2, #56	; 0x38
    1c82:	42bb      	cmp	r3, r7
    1c84:	b085      	sub	sp, #20
    1c86:	6032      	str	r2, [r6, #0]
    1c88:	60b0      	str	r0, [r6, #8]
    1c8a:	61b1      	str	r1, [r6, #24]
    1c8c:	d030      	beq.n	1cf0 <__ARM_grp_.debug_frame$i._ZN4mbed7TimeoutD0Ev+0xc>
    1c8e:	461c      	mov	r4, r3
    1c90:	f854 0b04 	ldr.w	r0, [r4], #4
    1c94:	4d2b      	ldr	r5, [pc, #172]	; (1d44 <__ARM_grp_.debug_frame$5+0x10>)
    1c96:	1af9      	subs	r1, r7, r3
    1c98:	380c      	subs	r0, #12
    1c9a:	1f0b      	subs	r3, r1, #4
    1c9c:	42a8      	cmp	r0, r5
    1c9e:	f3c3 0380 	ubfx	r3, r3, #2, #1
    1ca2:	d142      	bne.n	1d2a <__ARM_grp_.debug_frame$i._ZN4mbed7TimeoutD0Ev+0x46>
    1ca4:	42a7      	cmp	r7, r4
    1ca6:	d00c      	beq.n	1cc2 <__ARM_grp_.debug_frame$i._ZN4mbed7TimeoutD1Ev+0x22>
    1ca8:	b923      	cbnz	r3, 1cb4 <__ARM_grp_.debug_frame$i._ZN4mbed7TimeoutD1Ev+0x14>
    1caa:	f854 0b04 	ldr.w	r0, [r4], #4
    1cae:	380c      	subs	r0, #12
    1cb0:	42a8      	cmp	r0, r5
    1cb2:	d128      	bne.n	1d06 <__ARM_grp_.debug_frame$i._ZN4mbed7TimeoutD0Ev+0x22>
    1cb4:	f854 0b04 	ldr.w	r0, [r4], #4
    1cb8:	380c      	subs	r0, #12
    1cba:	42a8      	cmp	r0, r5
    1cbc:	d11a      	bne.n	1cf4 <__ARM_grp_.debug_frame$i._ZN4mbed7TimeoutD0Ev+0x10>
    1cbe:	42a7      	cmp	r7, r4
    1cc0:	d1f3      	bne.n	1caa <__ARM_grp_.debug_frame$i._ZN4mbed7TimeoutD1Ev+0xa>
    1cc2:	6e70      	ldr	r0, [r6, #100]	; 0x64
    1cc4:	b108      	cbz	r0, 1cca <__ARM_grp_.debug_frame$i._ZN4mbed7TimeoutD1Ev+0x2a>
    1cc6:	f003 fda7 	bl	5818 <_ZdlPv>
    1cca:	6e30      	ldr	r0, [r6, #96]	; 0x60
    1ccc:	380c      	subs	r0, #12
    1cce:	42a8      	cmp	r0, r5
    1cd0:	d122      	bne.n	1d18 <__ARM_grp_.debug_frame$i._ZN4mbed7TimeoutD0Ev+0x34>
    1cd2:	491d      	ldr	r1, [pc, #116]	; (1d48 <__ARM_grp_.debug_frame$5+0x14>)
    1cd4:	f106 0008 	add.w	r0, r6, #8
    1cd8:	f101 023c 	add.w	r2, r1, #60	; 0x3c
    1cdc:	60b1      	str	r1, [r6, #8]
    1cde:	6102      	str	r2, [r0, #16]
    1ce0:	f016 f87e 	bl	17de0 <_ZN4mbed6StreamD1Ev>
    1ce4:	4630      	mov	r0, r6
    1ce6:	f003 fd97 	bl	5818 <_ZdlPv>
    1cea:	4630      	mov	r0, r6
    1cec:	b005      	add	sp, #20
    1cee:	bdf0      	pop	{r4, r5, r6, r7, pc}
    1cf0:	4d14      	ldr	r5, [pc, #80]	; (1d44 <__ARM_grp_.debug_frame$5+0x10>)
    1cf2:	e7e6      	b.n	1cc2 <__ARM_grp_.debug_frame$i._ZN4mbed7TimeoutD1Ev+0x22>
    1cf4:	6883      	ldr	r3, [r0, #8]
    1cf6:	1e5a      	subs	r2, r3, #1
    1cf8:	2b00      	cmp	r3, #0
    1cfa:	6082      	str	r2, [r0, #8]
    1cfc:	dcdf      	bgt.n	1cbe <__ARM_grp_.debug_frame$i._ZN4mbed7TimeoutD1Ev+0x1e>
    1cfe:	a903      	add	r1, sp, #12
    1d00:	f003 fa9b 	bl	523a <_ZNSs4_Rep10_M_destroyERKSaIcE>
    1d04:	e7db      	b.n	1cbe <__ARM_grp_.debug_frame$i._ZN4mbed7TimeoutD1Ev+0x1e>
    1d06:	6883      	ldr	r3, [r0, #8]
    1d08:	1e5a      	subs	r2, r3, #1
    1d0a:	2b00      	cmp	r3, #0
    1d0c:	6082      	str	r2, [r0, #8]
    1d0e:	dcd1      	bgt.n	1cb4 <__ARM_grp_.debug_frame$i._ZN4mbed7TimeoutD1Ev+0x14>
    1d10:	a903      	add	r1, sp, #12
    1d12:	f003 fa92 	bl	523a <_ZNSs4_Rep10_M_destroyERKSaIcE>
    1d16:	e7cd      	b.n	1cb4 <__ARM_grp_.debug_frame$i._ZN4mbed7TimeoutD1Ev+0x14>
    1d18:	6881      	ldr	r1, [r0, #8]
    1d1a:	1e4b      	subs	r3, r1, #1
    1d1c:	2900      	cmp	r1, #0
    1d1e:	6083      	str	r3, [r0, #8]
    1d20:	dcd7      	bgt.n	1cd2 <__ARM_grp_.debug_frame$i._ZN4mbed7TimeoutD1Ev+0x32>
    1d22:	a902      	add	r1, sp, #8
    1d24:	f003 fa89 	bl	523a <_ZNSs4_Rep10_M_destroyERKSaIcE>
    1d28:	e7d3      	b.n	1cd2 <__ARM_grp_.debug_frame$i._ZN4mbed7TimeoutD1Ev+0x32>
    1d2a:	6882      	ldr	r2, [r0, #8]
    1d2c:	1e51      	subs	r1, r2, #1
    1d2e:	2a00      	cmp	r2, #0
    1d30:	6081      	str	r1, [r0, #8]
    1d32:	dcb7      	bgt.n	1ca4 <__ARM_grp_.debug_frame$i._ZN4mbed7TimeoutD1Ev+0x4>
    1d34:	a903      	add	r1, sp, #12
    1d36:	9301      	str	r3, [sp, #4]
    1d38:	f003 fa7f 	bl	523a <_ZNSs4_Rep10_M_destroyERKSaIcE>
    1d3c:	9b01      	ldr	r3, [sp, #4]
    1d3e:	e7b1      	b.n	1ca4 <__ARM_grp_.debug_frame$i._ZN4mbed7TimeoutD1Ev+0x4>
    1d40:	00014fe0 	.word	0x00014fe0
    1d44:	100009f8 	.word	0x100009f8
    1d48:	0001b2e8 	.word	0x0001b2e8

00001d4c <_ZThn8_N13SerialConsoleD0Ev>:
    1d4c:	f1a0 0008 	sub.w	r0, r0, #8
    1d50:	e78e      	b.n	1c70 <_ZN13SerialConsoleD0Ev>
    1d52:	bf00      	nop

00001d54 <_ZN13SerialConsoleD1Ev>:
    1d54:	b5f0      	push	{r4, r5, r6, r7, lr}
    1d56:	4a32      	ldr	r2, [pc, #200]	; (1e20 <__ARM_grp_.debug_frame$14+0x20>)
    1d58:	6e43      	ldr	r3, [r0, #100]	; 0x64
    1d5a:	6e87      	ldr	r7, [r0, #104]	; 0x68
    1d5c:	4606      	mov	r6, r0
    1d5e:	f102 0174 	add.w	r1, r2, #116	; 0x74
    1d62:	f102 0038 	add.w	r0, r2, #56	; 0x38
    1d66:	42bb      	cmp	r3, r7
    1d68:	b085      	sub	sp, #20
    1d6a:	6032      	str	r2, [r6, #0]
    1d6c:	60b0      	str	r0, [r6, #8]
    1d6e:	61b1      	str	r1, [r6, #24]
    1d70:	d02d      	beq.n	1dce <__ARM_grp_.debug_frame$11+0x12>
    1d72:	461c      	mov	r4, r3
    1d74:	f854 0b04 	ldr.w	r0, [r4], #4
    1d78:	4d2a      	ldr	r5, [pc, #168]	; (1e24 <__ARM_grp_.debug_frame$14+0x24>)
    1d7a:	1af9      	subs	r1, r7, r3
    1d7c:	380c      	subs	r0, #12
    1d7e:	1f0b      	subs	r3, r1, #4
    1d80:	42a8      	cmp	r0, r5
    1d82:	f3c3 0380 	ubfx	r3, r3, #2, #1
    1d86:	d13f      	bne.n	1e08 <__ARM_grp_.debug_frame$14+0x8>
    1d88:	42a7      	cmp	r7, r4
    1d8a:	d00c      	beq.n	1da6 <__ARM_grp_.debug_frame$8+0x2e>
    1d8c:	b923      	cbnz	r3, 1d98 <__ARM_grp_.debug_frame$8+0x20>
    1d8e:	f854 0b04 	ldr.w	r0, [r4], #4
    1d92:	380c      	subs	r0, #12
    1d94:	42a8      	cmp	r0, r5
    1d96:	d125      	bne.n	1de4 <__ARM_grp_.debug_frame$11+0x28>
    1d98:	f854 0b04 	ldr.w	r0, [r4], #4
    1d9c:	380c      	subs	r0, #12
    1d9e:	42a8      	cmp	r0, r5
    1da0:	d117      	bne.n	1dd2 <__ARM_grp_.debug_frame$11+0x16>
    1da2:	42a7      	cmp	r7, r4
    1da4:	d1f3      	bne.n	1d8e <__ARM_grp_.debug_frame$8+0x16>
    1da6:	6e70      	ldr	r0, [r6, #100]	; 0x64
    1da8:	b108      	cbz	r0, 1dae <__ARM_grp_.debug_frame$8+0x36>
    1daa:	f003 fd35 	bl	5818 <_ZdlPv>
    1dae:	6e30      	ldr	r0, [r6, #96]	; 0x60
    1db0:	380c      	subs	r0, #12
    1db2:	42a8      	cmp	r0, r5
    1db4:	d11f      	bne.n	1df6 <__ARM_grp_.debug_frame$11+0x3a>
    1db6:	491c      	ldr	r1, [pc, #112]	; (1e28 <__ARM_grp_.debug_frame$14+0x28>)
    1db8:	f106 0008 	add.w	r0, r6, #8
    1dbc:	f101 023c 	add.w	r2, r1, #60	; 0x3c
    1dc0:	60b1      	str	r1, [r6, #8]
    1dc2:	6102      	str	r2, [r0, #16]
    1dc4:	f016 f80c 	bl	17de0 <_ZN4mbed6StreamD1Ev>
    1dc8:	4630      	mov	r0, r6
    1dca:	b005      	add	sp, #20
    1dcc:	bdf0      	pop	{r4, r5, r6, r7, pc}
    1dce:	4d15      	ldr	r5, [pc, #84]	; (1e24 <__ARM_grp_.debug_frame$14+0x24>)
    1dd0:	e7e9      	b.n	1da6 <__ARM_grp_.debug_frame$8+0x2e>
    1dd2:	6883      	ldr	r3, [r0, #8]
    1dd4:	1e5a      	subs	r2, r3, #1
    1dd6:	2b00      	cmp	r3, #0
    1dd8:	6082      	str	r2, [r0, #8]
    1dda:	dce2      	bgt.n	1da2 <__ARM_grp_.debug_frame$8+0x2a>
    1ddc:	a903      	add	r1, sp, #12
    1dde:	f003 fa2c 	bl	523a <_ZNSs4_Rep10_M_destroyERKSaIcE>
    1de2:	e7de      	b.n	1da2 <__ARM_grp_.debug_frame$8+0x2a>
    1de4:	6883      	ldr	r3, [r0, #8]
    1de6:	1e5a      	subs	r2, r3, #1
    1de8:	2b00      	cmp	r3, #0
    1dea:	6082      	str	r2, [r0, #8]
    1dec:	dcd4      	bgt.n	1d98 <__ARM_grp_.debug_frame$8+0x20>
    1dee:	a903      	add	r1, sp, #12
    1df0:	f003 fa23 	bl	523a <_ZNSs4_Rep10_M_destroyERKSaIcE>
    1df4:	e7d0      	b.n	1d98 <__ARM_grp_.debug_frame$8+0x20>
    1df6:	6881      	ldr	r1, [r0, #8]
    1df8:	1e4b      	subs	r3, r1, #1
    1dfa:	2900      	cmp	r1, #0
    1dfc:	6083      	str	r3, [r0, #8]
    1dfe:	dcda      	bgt.n	1db6 <__ARM_grp_.debug_frame$8+0x3e>
    1e00:	a902      	add	r1, sp, #8
    1e02:	f003 fa1a 	bl	523a <_ZNSs4_Rep10_M_destroyERKSaIcE>
    1e06:	e7d6      	b.n	1db6 <__ARM_grp_.debug_frame$8+0x3e>
    1e08:	6882      	ldr	r2, [r0, #8]
    1e0a:	1e51      	subs	r1, r2, #1
    1e0c:	2a00      	cmp	r2, #0
    1e0e:	6081      	str	r1, [r0, #8]
    1e10:	dcba      	bgt.n	1d88 <__ARM_grp_.debug_frame$8+0x10>
    1e12:	a903      	add	r1, sp, #12
    1e14:	9301      	str	r3, [sp, #4]
    1e16:	f003 fa10 	bl	523a <_ZNSs4_Rep10_M_destroyERKSaIcE>
    1e1a:	9b01      	ldr	r3, [sp, #4]
    1e1c:	e7b4      	b.n	1d88 <__ARM_grp_.debug_frame$8+0x10>
    1e1e:	bf00      	nop
    1e20:	00014fe0 	.word	0x00014fe0
    1e24:	100009f8 	.word	0x100009f8
    1e28:	0001b2e8 	.word	0x0001b2e8

00001e2c <_ZThn8_N13SerialConsoleD1Ev>:
    1e2c:	f1a0 0008 	sub.w	r0, r0, #8
    1e30:	f7ff bf90 	b.w	1d54 <_ZN13SerialConsoleD1Ev>

00001e34 <_ZN13SerialConsoleC1E7PinNameS0_i>:
    1e34:	e92d 41f0 	stmdb	sp!, {r4, r5, r6, r7, r8, lr}
    1e38:	f100 0508 	add.w	r5, r0, #8
    1e3c:	4688      	mov	r8, r1
    1e3e:	4617      	mov	r7, r2
    1e40:	4604      	mov	r4, r0
    1e42:	461e      	mov	r6, r3
    1e44:	f7ff fa82 	bl	134c <_ZN6ModuleC1Ev>
    1e48:	4641      	mov	r1, r8
    1e4a:	463a      	mov	r2, r7
    1e4c:	2300      	movs	r3, #0
    1e4e:	4628      	mov	r0, r5
    1e50:	f015 fd62 	bl	17918 <_ZN4mbed6SerialC1E7PinNameS1_PKc>
    1e54:	4a0a      	ldr	r2, [pc, #40]	; (1e80 <__ARM_grp_.debug_frame$17+0x3c>)
    1e56:	2300      	movs	r3, #0
    1e58:	f102 0008 	add.w	r0, r2, #8
    1e5c:	f102 0140 	add.w	r1, r2, #64	; 0x40
    1e60:	327c      	adds	r2, #124	; 0x7c
    1e62:	61a2      	str	r2, [r4, #24]
    1e64:	4a07      	ldr	r2, [pc, #28]	; (1e84 <__ARM_grp_.debug_frame$17+0x40>)
    1e66:	6020      	str	r0, [r4, #0]
    1e68:	60a1      	str	r1, [r4, #8]
    1e6a:	4628      	mov	r0, r5
    1e6c:	6622      	str	r2, [r4, #96]	; 0x60
    1e6e:	6663      	str	r3, [r4, #100]	; 0x64
    1e70:	66a3      	str	r3, [r4, #104]	; 0x68
    1e72:	66e3      	str	r3, [r4, #108]	; 0x6c
    1e74:	4631      	mov	r1, r6
    1e76:	f015 fd3b 	bl	178f0 <_ZN4mbed6Serial4baudEi>
    1e7a:	4620      	mov	r0, r4
    1e7c:	e8bd 81f0 	ldmia.w	sp!, {r4, r5, r6, r7, r8, pc}
    1e80:	00014fd8 	.word	0x00014fd8
    1e84:	10000a04 	.word	0x10000a04

00001e88 <_ZNSt6vectorISsSaISsEE13_M_insert_auxEN9__gnu_cxx17__normal_iteratorIPSsS1_EERKSs>:
    1e88:	e92d 47f0 	stmdb	sp!, {r4, r5, r6, r7, r8, r9, sl, lr}
    1e8c:	4604      	mov	r4, r0
    1e8e:	68a3      	ldr	r3, [r4, #8]
    1e90:	6840      	ldr	r0, [r0, #4]
    1e92:	b086      	sub	sp, #24
    1e94:	4298      	cmp	r0, r3
    1e96:	460d      	mov	r5, r1
    1e98:	4617      	mov	r7, r2
    1e9a:	d03c      	beq.n	1f16 <__ARM_grp_.debug_frame$23+0x3a>
    1e9c:	b118      	cbz	r0, 1ea6 <_ZNSt6vectorISsSaISsEE13_M_insert_auxEN9__gnu_cxx17__normal_iteratorIPSsS1_EERKSs+0x1e>
    1e9e:	1f01      	subs	r1, r0, #4
    1ea0:	f003 f9b7 	bl	5212 <_ZNSsC1ERKSs>
    1ea4:	6860      	ldr	r0, [r4, #4]
    1ea6:	3004      	adds	r0, #4
    1ea8:	6060      	str	r0, [r4, #4]
    1eaa:	4639      	mov	r1, r7
    1eac:	a803      	add	r0, sp, #12
    1eae:	f003 f9b0 	bl	5212 <_ZNSsC1ERKSs>
    1eb2:	6864      	ldr	r4, [r4, #4]
    1eb4:	f1a4 0008 	sub.w	r0, r4, #8
    1eb8:	1b46      	subs	r6, r0, r5
    1eba:	10b6      	asrs	r6, r6, #2
    1ebc:	2e00      	cmp	r6, #0
    1ebe:	dd1d      	ble.n	1efc <__ARM_grp_.debug_frame$23+0x20>
    1ec0:	f106 38ff 	add.w	r8, r6, #4294967295
    1ec4:	f018 0f01 	tst.w	r8, #1
    1ec8:	d012      	beq.n	1ef0 <__ARM_grp_.debug_frame$23+0x14>
    1eca:	3c0c      	subs	r4, #12
    1ecc:	4621      	mov	r1, r4
    1ece:	f003 f9cd 	bl	526c <_ZNSs6assignERKSs>
    1ed2:	4620      	mov	r0, r4
    1ed4:	1f04      	subs	r4, r0, #4
    1ed6:	4646      	mov	r6, r8
    1ed8:	4621      	mov	r1, r4
    1eda:	f003 f9c7 	bl	526c <_ZNSs6assignERKSs>
    1ede:	3e01      	subs	r6, #1
    1ee0:	d00c      	beq.n	1efc <__ARM_grp_.debug_frame$23+0x20>
    1ee2:	1f27      	subs	r7, r4, #4
    1ee4:	4620      	mov	r0, r4
    1ee6:	4639      	mov	r1, r7
    1ee8:	f003 f9c0 	bl	526c <_ZNSs6assignERKSs>
    1eec:	3e01      	subs	r6, #1
    1eee:	4638      	mov	r0, r7
    1ef0:	1f04      	subs	r4, r0, #4
    1ef2:	4621      	mov	r1, r4
    1ef4:	f003 f9ba 	bl	526c <_ZNSs6assignERKSs>
    1ef8:	3e01      	subs	r6, #1
    1efa:	d1f2      	bne.n	1ee2 <__ARM_grp_.debug_frame$23+0x6>
    1efc:	a903      	add	r1, sp, #12
    1efe:	4628      	mov	r0, r5
    1f00:	f003 f9b4 	bl	526c <_ZNSs6assignERKSs>
    1f04:	9803      	ldr	r0, [sp, #12]
    1f06:	497c      	ldr	r1, [pc, #496]	; (20f8 <__ARM_grp_.debug_frame$41+0x1c>)
    1f08:	380c      	subs	r0, #12
    1f0a:	4288      	cmp	r0, r1
    1f0c:	f040 80e1 	bne.w	20d2 <__ARM_grp_.debug_frame$38+0x46>
    1f10:	b006      	add	sp, #24
    1f12:	e8bd 87f0 	ldmia.w	sp!, {r4, r5, r6, r7, r8, r9, sl, pc}
    1f16:	6823      	ldr	r3, [r4, #0]
    1f18:	ebc3 0800 	rsb	r8, r3, r0
    1f1c:	ea5f 00a8 	movs.w	r0, r8, asr #2
    1f20:	f000 80a5 	beq.w	206e <__ARM_grp_.debug_frame$35+0x32>
    1f24:	0042      	lsls	r2, r0, #1
    1f26:	4290      	cmp	r0, r2
    1f28:	f240 80dd 	bls.w	20e6 <__ARM_grp_.debug_frame$41+0xa>
    1f2c:	ebc3 0a05 	rsb	sl, r3, r5
    1f30:	f06f 4240 	mvn.w	r2, #3221225472	; 0xc0000000
    1f34:	f06f 0903 	mvn.w	r9, #3
    1f38:	ea4f 0aaa 	mov.w	sl, sl, asr #2
    1f3c:	2a00      	cmp	r2, #0
    1f3e:	f000 80a0 	beq.w	2082 <__ARM_grp_.debug_frame$35+0x46>
    1f42:	4648      	mov	r0, r9
    1f44:	f003 fce8 	bl	5918 <_Znwj>
    1f48:	4680      	mov	r8, r0
    1f4a:	1d06      	adds	r6, r0, #4
    1f4c:	eb18 008a 	adds.w	r0, r8, sl, lsl #2
    1f50:	d002      	beq.n	1f58 <__ARM_grp_.debug_frame$26+0x38>
    1f52:	4639      	mov	r1, r7
    1f54:	f003 f95d 	bl	5212 <_ZNSsC1ERKSs>
    1f58:	6827      	ldr	r7, [r4, #0]
    1f5a:	42af      	cmp	r7, r5
    1f5c:	d02f      	beq.n	1fbe <__ARM_grp_.debug_frame$29+0x4e>
    1f5e:	1bee      	subs	r6, r5, r7
    1f60:	f1a6 0c04 	sub.w	ip, r6, #4
    1f64:	f3cc 0a80 	ubfx	sl, ip, #2, #1
    1f68:	f1b8 0f00 	cmp.w	r8, #0
    1f6c:	d003      	beq.n	1f76 <__ARM_grp_.debug_frame$29+0x6>
    1f6e:	4640      	mov	r0, r8
    1f70:	4639      	mov	r1, r7
    1f72:	f003 f94e 	bl	5212 <_ZNSsC1ERKSs>
    1f76:	3704      	adds	r7, #4
    1f78:	42bd      	cmp	r5, r7
    1f7a:	f108 0604 	add.w	r6, r8, #4
    1f7e:	d01d      	beq.n	1fbc <__ARM_grp_.debug_frame$29+0x4c>
    1f80:	f1ba 0f00 	cmp.w	sl, #0
    1f84:	d008      	beq.n	1f98 <__ARM_grp_.debug_frame$29+0x28>
    1f86:	b11e      	cbz	r6, 1f90 <__ARM_grp_.debug_frame$29+0x20>
    1f88:	4630      	mov	r0, r6
    1f8a:	4639      	mov	r1, r7
    1f8c:	f003 f941 	bl	5212 <_ZNSsC1ERKSs>
    1f90:	3704      	adds	r7, #4
    1f92:	3604      	adds	r6, #4
    1f94:	42bd      	cmp	r5, r7
    1f96:	d011      	beq.n	1fbc <__ARM_grp_.debug_frame$29+0x4c>
    1f98:	f107 0a04 	add.w	sl, r7, #4
    1f9c:	4639      	mov	r1, r7
    1f9e:	4630      	mov	r0, r6
    1fa0:	b10e      	cbz	r6, 1fa6 <__ARM_grp_.debug_frame$29+0x36>
    1fa2:	f003 f936 	bl	5212 <_ZNSsC1ERKSs>
    1fa6:	3604      	adds	r6, #4
    1fa8:	4630      	mov	r0, r6
    1faa:	4651      	mov	r1, sl
    1fac:	d001      	beq.n	1fb2 <__ARM_grp_.debug_frame$29+0x42>
    1fae:	f003 f930 	bl	5212 <_ZNSsC1ERKSs>
    1fb2:	f10a 0704 	add.w	r7, sl, #4
    1fb6:	3604      	adds	r6, #4
    1fb8:	42bd      	cmp	r5, r7
    1fba:	d1ed      	bne.n	1f98 <__ARM_grp_.debug_frame$29+0x28>
    1fbc:	3604      	adds	r6, #4
    1fbe:	6867      	ldr	r7, [r4, #4]
    1fc0:	42af      	cmp	r7, r5
    1fc2:	d02b      	beq.n	201c <__ARM_grp_.debug_frame$32+0x2c>
    1fc4:	1b79      	subs	r1, r7, r5
    1fc6:	1f08      	subs	r0, r1, #4
    1fc8:	f3c0 0a80 	ubfx	sl, r0, #2, #1
    1fcc:	b11e      	cbz	r6, 1fd6 <__ARM_grp_.debug_frame$29+0x66>
    1fce:	4630      	mov	r0, r6
    1fd0:	4629      	mov	r1, r5
    1fd2:	f003 f91e 	bl	5212 <_ZNSsC1ERKSs>
    1fd6:	3504      	adds	r5, #4
    1fd8:	3604      	adds	r6, #4
    1fda:	42af      	cmp	r7, r5
    1fdc:	d01d      	beq.n	201a <__ARM_grp_.debug_frame$32+0x2a>
    1fde:	f1ba 0f00 	cmp.w	sl, #0
    1fe2:	d008      	beq.n	1ff6 <__ARM_grp_.debug_frame$32+0x6>
    1fe4:	b11e      	cbz	r6, 1fee <__ARM_grp_.debug_frame$29+0x7e>
    1fe6:	4630      	mov	r0, r6
    1fe8:	4629      	mov	r1, r5
    1fea:	f003 f912 	bl	5212 <_ZNSsC1ERKSs>
    1fee:	3504      	adds	r5, #4
    1ff0:	3604      	adds	r6, #4
    1ff2:	42af      	cmp	r7, r5
    1ff4:	d011      	beq.n	201a <__ARM_grp_.debug_frame$32+0x2a>
    1ff6:	f105 0a04 	add.w	sl, r5, #4
    1ffa:	4629      	mov	r1, r5
    1ffc:	4630      	mov	r0, r6
    1ffe:	b10e      	cbz	r6, 2004 <__ARM_grp_.debug_frame$32+0x14>
    2000:	f003 f907 	bl	5212 <_ZNSsC1ERKSs>
    2004:	3604      	adds	r6, #4
    2006:	4630      	mov	r0, r6
    2008:	4651      	mov	r1, sl
    200a:	d001      	beq.n	2010 <__ARM_grp_.debug_frame$32+0x20>
    200c:	f003 f901 	bl	5212 <_ZNSsC1ERKSs>
    2010:	f10a 0504 	add.w	r5, sl, #4
    2014:	3604      	adds	r6, #4
    2016:	42af      	cmp	r7, r5
    2018:	d1ed      	bne.n	1ff6 <__ARM_grp_.debug_frame$32+0x6>
    201a:	6867      	ldr	r7, [r4, #4]
    201c:	6820      	ldr	r0, [r4, #0]
    201e:	42b8      	cmp	r0, r7
    2020:	d01b      	beq.n	205a <__ARM_grp_.debug_frame$35+0x1e>
    2022:	4605      	mov	r5, r0
    2024:	f855 1b04 	ldr.w	r1, [r5], #4
    2028:	1a38      	subs	r0, r7, r0
    202a:	4b33      	ldr	r3, [pc, #204]	; (20f8 <__ARM_grp_.debug_frame$41+0x1c>)
    202c:	1f02      	subs	r2, r0, #4
    202e:	f1a1 000c 	sub.w	r0, r1, #12
    2032:	4283      	cmp	r3, r0
    2034:	f3c2 0280 	ubfx	r2, r2, #2, #1
    2038:	d13c      	bne.n	20b4 <__ARM_grp_.debug_frame$38+0x28>
    203a:	42af      	cmp	r7, r5
    203c:	d00c      	beq.n	2058 <__ARM_grp_.debug_frame$35+0x1c>
    203e:	b922      	cbnz	r2, 204a <__ARM_grp_.debug_frame$35+0xe>
    2040:	f855 0b04 	ldr.w	r0, [r5], #4
    2044:	380c      	subs	r0, #12
    2046:	4283      	cmp	r3, r0
    2048:	d11e      	bne.n	2088 <__ARM_grp_.debug_frame$35+0x4c>
    204a:	f855 0b04 	ldr.w	r0, [r5], #4
    204e:	380c      	subs	r0, #12
    2050:	4283      	cmp	r3, r0
    2052:	d124      	bne.n	209e <__ARM_grp_.debug_frame$38+0x12>
    2054:	42af      	cmp	r7, r5
    2056:	d1f3      	bne.n	2040 <__ARM_grp_.debug_frame$35+0x4>
    2058:	6820      	ldr	r0, [r4, #0]
    205a:	b108      	cbz	r0, 2060 <__ARM_grp_.debug_frame$35+0x24>
    205c:	f003 fbdc 	bl	5818 <_ZdlPv>
    2060:	eb08 0309 	add.w	r3, r8, r9
    2064:	f8c4 8000 	str.w	r8, [r4]
    2068:	6066      	str	r6, [r4, #4]
    206a:	60a3      	str	r3, [r4, #8]
    206c:	e750      	b.n	1f10 <__ARM_grp_.debug_frame$23+0x34>
    206e:	2201      	movs	r2, #1
    2070:	ea4f 0982 	mov.w	r9, r2, lsl #2
    2074:	ebc3 0a05 	rsb	sl, r3, r5
    2078:	ea4f 0aaa 	mov.w	sl, sl, asr #2
    207c:	2a00      	cmp	r2, #0
    207e:	f47f af60 	bne.w	1f42 <__ARM_grp_.debug_frame$26+0x22>
    2082:	2604      	movs	r6, #4
    2084:	4690      	mov	r8, r2
    2086:	e761      	b.n	1f4c <__ARM_grp_.debug_frame$26+0x2c>
    2088:	6882      	ldr	r2, [r0, #8]
    208a:	1e51      	subs	r1, r2, #1
    208c:	2a00      	cmp	r2, #0
    208e:	6081      	str	r1, [r0, #8]
    2090:	dcdb      	bgt.n	204a <__ARM_grp_.debug_frame$35+0xe>
    2092:	a904      	add	r1, sp, #16
    2094:	9300      	str	r3, [sp, #0]
    2096:	f003 f8d0 	bl	523a <_ZNSs4_Rep10_M_destroyERKSaIcE>
    209a:	9b00      	ldr	r3, [sp, #0]
    209c:	e7d5      	b.n	204a <__ARM_grp_.debug_frame$35+0xe>
    209e:	6882      	ldr	r2, [r0, #8]
    20a0:	1e51      	subs	r1, r2, #1
    20a2:	2a00      	cmp	r2, #0
    20a4:	6081      	str	r1, [r0, #8]
    20a6:	dcd5      	bgt.n	2054 <__ARM_grp_.debug_frame$35+0x18>
    20a8:	a904      	add	r1, sp, #16
    20aa:	9300      	str	r3, [sp, #0]
    20ac:	f003 f8c5 	bl	523a <_ZNSs4_Rep10_M_destroyERKSaIcE>
    20b0:	9b00      	ldr	r3, [sp, #0]
    20b2:	e7cf      	b.n	2054 <__ARM_grp_.debug_frame$35+0x18>
    20b4:	6881      	ldr	r1, [r0, #8]
    20b6:	f101 3cff 	add.w	ip, r1, #4294967295
    20ba:	2900      	cmp	r1, #0
    20bc:	f8c0 c008 	str.w	ip, [r0, #8]
    20c0:	dcbb      	bgt.n	203a <__ARM_grp_.debug_frame$32+0x4a>
    20c2:	a904      	add	r1, sp, #16
    20c4:	9201      	str	r2, [sp, #4]
    20c6:	9300      	str	r3, [sp, #0]
    20c8:	f003 f8b7 	bl	523a <_ZNSs4_Rep10_M_destroyERKSaIcE>
    20cc:	9b00      	ldr	r3, [sp, #0]
    20ce:	9a01      	ldr	r2, [sp, #4]
    20d0:	e7b3      	b.n	203a <__ARM_grp_.debug_frame$32+0x4a>
    20d2:	6883      	ldr	r3, [r0, #8]
    20d4:	1e5a      	subs	r2, r3, #1
    20d6:	2b00      	cmp	r3, #0
    20d8:	6082      	str	r2, [r0, #8]
    20da:	f73f af19 	bgt.w	1f10 <__ARM_grp_.debug_frame$23+0x34>
    20de:	a905      	add	r1, sp, #20
    20e0:	f003 f8ab 	bl	523a <_ZNSs4_Rep10_M_destroyERKSaIcE>
    20e4:	e714      	b.n	1f10 <__ARM_grp_.debug_frame$23+0x34>
    20e6:	f06f 4940 	mvn.w	r9, #3221225472	; 0xc0000000
    20ea:	454a      	cmp	r2, r9
    20ec:	bf28      	it	cs
    20ee:	464a      	movcs	r2, r9
    20f0:	ea4f 0982 	mov.w	r9, r2, lsl #2
    20f4:	e7be      	b.n	2074 <__ARM_grp_.debug_frame$35+0x38>
    20f6:	bf00      	nop
    20f8:	100009f8 	.word	0x100009f8

000020fc <_ZNSt6vectorISsSaISsEE6insertEN9__gnu_cxx17__normal_iteratorIPSsS1_EERKSs>:
    20fc:	b570      	push	{r4, r5, r6, lr}
    20fe:	6803      	ldr	r3, [r0, #0]
    2100:	4604      	mov	r4, r0
    2102:	68a6      	ldr	r6, [r4, #8]
    2104:	6840      	ldr	r0, [r0, #4]
    2106:	1acd      	subs	r5, r1, r3
    2108:	10ad      	asrs	r5, r5, #2
    210a:	42b0      	cmp	r0, r6
    210c:	d001      	beq.n	2112 <_ZNSt6vectorISsSaISsEE6insertEN9__gnu_cxx17__normal_iteratorIPSsS1_EERKSs+0x16>
    210e:	4288      	cmp	r0, r1
    2110:	d006      	beq.n	2120 <_ZNSt6vectorISsSaISsEE6insertEN9__gnu_cxx17__normal_iteratorIPSsS1_EERKSs+0x24>
    2112:	4620      	mov	r0, r4
    2114:	f7ff feb8 	bl	1e88 <_ZNSt6vectorISsSaISsEE13_M_insert_auxEN9__gnu_cxx17__normal_iteratorIPSsS1_EERKSs>
    2118:	6823      	ldr	r3, [r4, #0]
    211a:	eb03 0085 	add.w	r0, r3, r5, lsl #2
    211e:	bd70      	pop	{r4, r5, r6, pc}
    2120:	b120      	cbz	r0, 212c <__ARM_grp_.debug_frame$44>
    2122:	4611      	mov	r1, r2
    2124:	f003 f875 	bl	5212 <_ZNSsC1ERKSs>
    2128:	6860      	ldr	r0, [r4, #4]
    212a:	6823      	ldr	r3, [r4, #0]
    212c:	3004      	adds	r0, #4
    212e:	6060      	str	r0, [r4, #4]
    2130:	eb03 0085 	add.w	r0, r3, r5, lsl #2
    2134:	bd70      	pop	{r4, r5, r6, pc}
    2136:	bf00      	nop

00002138 <_ZN13SerialConsole23on_serial_char_receivedEv>:
    2138:	b570      	push	{r4, r5, r6, lr}
    213a:	4605      	mov	r5, r0
    213c:	b082      	sub	sp, #8
    213e:	3008      	adds	r0, #8
    2140:	f015 fbe3 	bl	1790a <_ZN4mbed6Serial8readableEv>
    2144:	b908      	cbnz	r0, 214a <_ZN13SerialConsole23on_serial_char_receivedEv+0x12>
    2146:	b002      	add	sp, #8
    2148:	bd70      	pop	{r4, r5, r6, pc}
    214a:	69e8      	ldr	r0, [r5, #28]
    214c:	f00a f86e 	bl	c22c <fflush>
    2150:	69e8      	ldr	r0, [r5, #28]
    2152:	f00a f8a9 	bl	c2a8 <fgetc>
    2156:	b2c4      	uxtb	r4, r0
    2158:	2c0d      	cmp	r4, #13
    215a:	d0f4      	beq.n	2146 <_ZN13SerialConsole23on_serial_char_receivedEv+0xe>
    215c:	2c0a      	cmp	r4, #10
    215e:	d024      	beq.n	21aa <__ARM_grp_.debug_frame$t._ZN4mbed17rpc_method_callerINS_4BaseEXadL_ZNS1_11delete_selfEvEEEEvPS1_PKcPc+0x2e>
    2160:	6e2b      	ldr	r3, [r5, #96]	; 0x60
    2162:	f853 2c0c 	ldr.w	r2, [r3, #-12]
    2166:	f853 0c08 	ldr.w	r0, [r3, #-8]
    216a:	1c56      	adds	r6, r2, #1
    216c:	4286      	cmp	r6, r0
    216e:	d803      	bhi.n	2178 <_ZN13SerialConsole23on_serial_char_receivedEv+0x40>
    2170:	f853 1c04 	ldr.w	r1, [r3, #-4]
    2174:	2900      	cmp	r1, #0
    2176:	dd07      	ble.n	2188 <__ARM_grp_.debug_frame$t._ZN4mbed17rpc_method_callerINS_4BaseEXadL_ZNS1_11delete_selfEvEEEEvPS1_PKcPc+0xc>
    2178:	f105 0060 	add.w	r0, r5, #96	; 0x60
    217c:	4631      	mov	r1, r6
    217e:	f003 f891 	bl	52a4 <_ZNSs7reserveEj>
    2182:	6e2b      	ldr	r3, [r5, #96]	; 0x60
    2184:	f853 2c0c 	ldr.w	r2, [r3, #-12]
    2188:	549c      	strb	r4, [r3, r2]
    218a:	6e2a      	ldr	r2, [r5, #96]	; 0x60
    218c:	4817      	ldr	r0, [pc, #92]	; (21ec <__ARM_grp_.debug_frame$i._ZN4mbed13BaseDirHandle8closedirEv+0x24>)
    218e:	f1a2 030c 	sub.w	r3, r2, #12
    2192:	4283      	cmp	r3, r0
    2194:	d0d7      	beq.n	2146 <_ZN13SerialConsole23on_serial_char_receivedEv+0xe>
    2196:	2100      	movs	r1, #0
    2198:	eb03 0c06 	add.w	ip, r3, r6
    219c:	f842 1c04 	str.w	r1, [r2, #-4]
    21a0:	f842 6c0c 	str.w	r6, [r2, #-12]
    21a4:	f88c 100c 	strb.w	r1, [ip, #12]
    21a8:	e7cd      	b.n	2146 <_ZN13SerialConsole23on_serial_char_receivedEv+0xe>
    21aa:	f105 0460 	add.w	r4, r5, #96	; 0x60
    21ae:	4621      	mov	r1, r4
    21b0:	4668      	mov	r0, sp
    21b2:	f003 f82e 	bl	5212 <_ZNSsC1ERKSs>
    21b6:	f105 0064 	add.w	r0, r5, #100	; 0x64
    21ba:	6e69      	ldr	r1, [r5, #100]	; 0x64
    21bc:	466a      	mov	r2, sp
    21be:	f7ff ff9d 	bl	20fc <_ZNSt6vectorISsSaISsEE6insertEN9__gnu_cxx17__normal_iteratorIPSsS1_EERKSs>
    21c2:	9800      	ldr	r0, [sp, #0]
    21c4:	4b09      	ldr	r3, [pc, #36]	; (21ec <__ARM_grp_.debug_frame$i._ZN4mbed13BaseDirHandle8closedirEv+0x24>)
    21c6:	380c      	subs	r0, #12
    21c8:	4298      	cmp	r0, r3
    21ca:	d105      	bne.n	21d8 <__ARM_grp_.debug_frame$i._ZN4mbed13BaseDirHandle8closedirEv+0x10>
    21cc:	4620      	mov	r0, r4
    21ce:	4908      	ldr	r1, [pc, #32]	; (21f0 <__ARM_grp_.debug_frame$i._ZN4mbed13BaseDirHandle8closedirEv+0x28>)
    21d0:	2200      	movs	r2, #0
    21d2:	f003 f983 	bl	54dc <_ZNSs6assignEPKcj>
    21d6:	e7b6      	b.n	2146 <_ZN13SerialConsole23on_serial_char_receivedEv+0xe>
    21d8:	6881      	ldr	r1, [r0, #8]
    21da:	1e4a      	subs	r2, r1, #1
    21dc:	2900      	cmp	r1, #0
    21de:	6082      	str	r2, [r0, #8]
    21e0:	dcf4      	bgt.n	21cc <__ARM_grp_.debug_frame$i._ZN4mbed13BaseDirHandle8closedirEv+0x4>
    21e2:	a901      	add	r1, sp, #4
    21e4:	f003 f829 	bl	523a <_ZNSs4_Rep10_M_destroyERKSaIcE>
    21e8:	e7f0      	b.n	21cc <__ARM_grp_.debug_frame$i._ZN4mbed13BaseDirHandle8closedirEv+0x4>
    21ea:	bf00      	nop
    21ec:	100009f8 	.word	0x100009f8
    21f0:	00014f94 	.word	0x00014f94

000021f4 <_ZN5BlockC1Ev>:
    21f4:	2200      	movs	r2, #0
    21f6:	2100      	movs	r1, #0
    21f8:	6002      	str	r2, [r0, #0]
    21fa:	6042      	str	r2, [r0, #4]
    21fc:	6082      	str	r2, [r0, #8]
    21fe:	60c2      	str	r2, [r0, #12]
    2200:	8201      	strh	r1, [r0, #16]
    2202:	6142      	str	r2, [r0, #20]
    2204:	6182      	str	r2, [r0, #24]
    2206:	61c2      	str	r2, [r0, #28]
    2208:	4770      	bx	lr
    220a:	bf00      	nop

0000220c <_ZN5Block29compute_factor_for_safe_speedEv>:
    220c:	b510      	push	{r4, lr}
    220e:	6c84      	ldr	r4, [r0, #72]	; 0x48
    2210:	6a80      	ldr	r0, [r0, #40]	; 0x28
    2212:	f008 fb5b 	bl	a8cc <__aeabi_f2d>
    2216:	f504 5418 	add.w	r4, r4, #9728	; 0x2600
    221a:	4602      	mov	r2, r0
    221c:	460b      	mov	r3, r1
    221e:	e9d4 011e 	ldrd	r0, r1, [r4, #120]	; 0x78
    2222:	f008 fcd1 	bl	abc8 <__aeabi_ddiv>
    2226:	bd10      	pop	{r4, pc}

00002228 <_ZN5Block19calculate_trapezoidEdd>:
    2228:	e92d 4ff0 	stmdb	sp!, {r4, r5, r6, r7, r8, r9, sl, fp, lr}
    222c:	4604      	mov	r4, r0
    222e:	b087      	sub	sp, #28
    2230:	6a40      	ldr	r0, [r0, #36]	; 0x24
    2232:	4616      	mov	r6, r2
    2234:	461f      	mov	r7, r3
    2236:	f008 fb27 	bl	a888 <__aeabi_ui2d>
    223a:	4632      	mov	r2, r6
    223c:	463b      	mov	r3, r7
    223e:	4682      	mov	sl, r0
    2240:	468b      	mov	fp, r1
    2242:	f008 fb97 	bl	a974 <__aeabi_dmul>
    2246:	f006 fc4f 	bl	8ae8 <ceil>
    224a:	f008 fe55 	bl	aef8 <__aeabi_d2uiz>
    224e:	e9dd 2310 	ldrd	r2, r3, [sp, #64]	; 0x40
    2252:	4607      	mov	r7, r0
    2254:	63a0      	str	r0, [r4, #56]	; 0x38
    2256:	4659      	mov	r1, fp
    2258:	4650      	mov	r0, sl
    225a:	f008 fb8b 	bl	a974 <__aeabi_dmul>
    225e:	f006 fc43 	bl	8ae8 <ceil>
    2262:	f008 fe49 	bl	aef8 <__aeabi_d2uiz>
    2266:	6ca3      	ldr	r3, [r4, #72]	; 0x48
    2268:	4680      	mov	r8, r0
    226a:	685b      	ldr	r3, [r3, #4]
    226c:	6b60      	ldr	r0, [r4, #52]	; 0x34
    226e:	68db      	ldr	r3, [r3, #12]
    2270:	f8c4 803c 	str.w	r8, [r4, #60]	; 0x3c
    2274:	f8d3 30b8 	ldr.w	r3, [r3, #184]	; 0xb8
    2278:	fb00 f003 	mul.w	r0, r0, r3
    227c:	f008 fb04 	bl	a888 <__aeabi_ui2d>
    2280:	2200      	movs	r2, #0
    2282:	4b45      	ldr	r3, [pc, #276]	; (2398 <__ARM_grp_.debug_frame$8+0x18>)
    2284:	f008 fb76 	bl	a974 <__aeabi_dmul>
    2288:	4605      	mov	r5, r0
    228a:	4638      	mov	r0, r7
    228c:	460e      	mov	r6, r1
    228e:	f008 fafb 	bl	a888 <__aeabi_ui2d>
    2292:	4652      	mov	r2, sl
    2294:	e9cd 0100 	strd	r0, r1, [sp]
    2298:	465b      	mov	r3, fp
    229a:	4650      	mov	r0, sl
    229c:	4659      	mov	r1, fp
    229e:	f008 fb69 	bl	a974 <__aeabi_dmul>
    22a2:	4682      	mov	sl, r0
    22a4:	468b      	mov	fp, r1
    22a6:	e9dd 0100 	ldrd	r0, r1, [sp]
    22aa:	4602      	mov	r2, r0
    22ac:	460b      	mov	r3, r1
    22ae:	f008 fb61 	bl	a974 <__aeabi_dmul>
    22b2:	462a      	mov	r2, r5
    22b4:	e9cd 0100 	strd	r0, r1, [sp]
    22b8:	4633      	mov	r3, r6
    22ba:	4628      	mov	r0, r5
    22bc:	4631      	mov	r1, r6
    22be:	f008 f9a7 	bl	a610 <__adddf3>
    22c2:	e9dd 2300 	ldrd	r2, r3, [sp]
    22c6:	e9cd 0102 	strd	r0, r1, [sp, #8]
    22ca:	4650      	mov	r0, sl
    22cc:	4659      	mov	r1, fp
    22ce:	f008 f99d 	bl	a60c <__aeabi_dsub>
    22d2:	e9dd 2302 	ldrd	r2, r3, [sp, #8]
    22d6:	f008 fc77 	bl	abc8 <__aeabi_ddiv>
    22da:	f006 fc05 	bl	8ae8 <ceil>
    22de:	f008 fde3 	bl	aea8 <__aeabi_d2iz>
    22e2:	4607      	mov	r7, r0
    22e4:	4640      	mov	r0, r8
    22e6:	f008 facf 	bl	a888 <__aeabi_ui2d>
    22ea:	4602      	mov	r2, r0
    22ec:	460b      	mov	r3, r1
    22ee:	f008 fb41 	bl	a974 <__aeabi_dmul>
    22f2:	4652      	mov	r2, sl
    22f4:	465b      	mov	r3, fp
    22f6:	e9cd 0104 	strd	r0, r1, [sp, #16]
    22fa:	f008 f987 	bl	a60c <__aeabi_dsub>
    22fe:	f106 4e00 	add.w	lr, r6, #2147483648	; 0x80000000
    2302:	4673      	mov	r3, lr
    2304:	4680      	mov	r8, r0
    2306:	4689      	mov	r9, r1
    2308:	462a      	mov	r2, r5
    230a:	4671      	mov	r1, lr
    230c:	4628      	mov	r0, r5
    230e:	f008 f97f 	bl	a610 <__adddf3>
    2312:	4602      	mov	r2, r0
    2314:	460b      	mov	r3, r1
    2316:	4640      	mov	r0, r8
    2318:	4649      	mov	r1, r9
    231a:	f008 fc55 	bl	abc8 <__aeabi_ddiv>
    231e:	f006 fbe3 	bl	8ae8 <ceil>
    2322:	f008 fdc1 	bl	aea8 <__aeabi_d2iz>
    2326:	f8b4 9020 	ldrh.w	r9, [r4, #32]
    232a:	ebc7 0809 	rsb	r8, r7, r9
    232e:	ebb8 0800 	subs.w	r8, r8, r0
    2332:	d40a      	bmi.n	234a <__ARM_grp_.debug_frame$5+0x1a>
    2334:	fa1f f888 	uxth.w	r8, r8
    2338:	b2bf      	uxth	r7, r7
    233a:	44b8      	add	r8, r7
    233c:	f8a4 7040 	strh.w	r7, [r4, #64]	; 0x40
    2340:	f8a4 8042 	strh.w	r8, [r4, #66]	; 0x42
    2344:	b007      	add	sp, #28
    2346:	e8bd 8ff0 	ldmia.w	sp!, {r4, r5, r6, r7, r8, r9, sl, fp, pc}
    234a:	4648      	mov	r0, r9
    234c:	f008 fa9c 	bl	a888 <__aeabi_ui2d>
    2350:	e9dd 2302 	ldrd	r2, r3, [sp, #8]
    2354:	f008 fb0e 	bl	a974 <__aeabi_dmul>
    2358:	e9dd 2300 	ldrd	r2, r3, [sp]
    235c:	f008 f956 	bl	a60c <__aeabi_dsub>
    2360:	4602      	mov	r2, r0
    2362:	460b      	mov	r3, r1
    2364:	e9dd 0104 	ldrd	r0, r1, [sp, #16]
    2368:	f008 f952 	bl	a610 <__adddf3>
    236c:	2200      	movs	r2, #0
    236e:	4680      	mov	r8, r0
    2370:	4689      	mov	r9, r1
    2372:	4b0a      	ldr	r3, [pc, #40]	; (239c <__ARM_grp_.debug_frame$8+0x1c>)
    2374:	4628      	mov	r0, r5
    2376:	4631      	mov	r1, r6
    2378:	f008 fafc 	bl	a974 <__aeabi_dmul>
    237c:	4602      	mov	r2, r0
    237e:	460b      	mov	r3, r1
    2380:	4640      	mov	r0, r8
    2382:	4649      	mov	r1, r9
    2384:	f008 fc20 	bl	abc8 <__aeabi_ddiv>
    2388:	f006 fbae 	bl	8ae8 <ceil>
    238c:	f008 fd8c 	bl	aea8 <__aeabi_d2iz>
    2390:	f04f 0800 	mov.w	r8, #0
    2394:	4607      	mov	r7, r0
    2396:	e7cf      	b.n	2338 <__ARM_grp_.debug_frame$5+0x8>
    2398:	404e0000 	.word	0x404e0000
    239c:	40100000 	.word	0x40100000

000023a0 <_ZN5Block12reverse_passEPS_S0_>:
    23a0:	e92d 4ff0 	stmdb	sp!, {r4, r5, r6, r7, r8, r9, sl, fp, lr}
    23a4:	4606      	mov	r6, r0
    23a6:	b083      	sub	sp, #12
    23a8:	4617      	mov	r7, r2
    23aa:	2900      	cmp	r1, #0
    23ac:	f000 80bf 	beq.w	252e <__ARM_grp_.debug_frame$8+0x22>
    23b0:	6b08      	ldr	r0, [r1, #48]	; 0x30
    23b2:	f008 fa8b 	bl	a8cc <__aeabi_f2d>
    23b6:	e9cd 0100 	strd	r0, r1, [sp]
    23ba:	2f00      	cmp	r7, #0
    23bc:	f000 80a8 	beq.w	2510 <__ARM_grp_.debug_frame$8+0x4>
    23c0:	6971      	ldr	r1, [r6, #20]
    23c2:	6978      	ldr	r0, [r7, #20]
    23c4:	f008 fe0c 	bl	afe0 <__aeabi_fsub>
    23c8:	f008 fa80 	bl	a8cc <__aeabi_f2d>
    23cc:	4602      	mov	r2, r0
    23ce:	460b      	mov	r3, r1
    23d0:	f008 fad0 	bl	a974 <__aeabi_dmul>
    23d4:	4604      	mov	r4, r0
    23d6:	460d      	mov	r5, r1
    23d8:	69b8      	ldr	r0, [r7, #24]
    23da:	69b1      	ldr	r1, [r6, #24]
    23dc:	f008 fe00 	bl	afe0 <__aeabi_fsub>
    23e0:	f008 fa74 	bl	a8cc <__aeabi_f2d>
    23e4:	4602      	mov	r2, r0
    23e6:	460b      	mov	r3, r1
    23e8:	f008 fac4 	bl	a974 <__aeabi_dmul>
    23ec:	4682      	mov	sl, r0
    23ee:	468b      	mov	fp, r1
    23f0:	69f8      	ldr	r0, [r7, #28]
    23f2:	69f1      	ldr	r1, [r6, #28]
    23f4:	f008 fdf4 	bl	afe0 <__aeabi_fsub>
    23f8:	f008 fa68 	bl	a8cc <__aeabi_f2d>
    23fc:	4602      	mov	r2, r0
    23fe:	460b      	mov	r3, r1
    2400:	f008 fab8 	bl	a974 <__aeabi_dmul>
    2404:	4652      	mov	r2, sl
    2406:	4680      	mov	r8, r0
    2408:	4689      	mov	r9, r1
    240a:	4620      	mov	r0, r4
    240c:	4629      	mov	r1, r5
    240e:	465b      	mov	r3, fp
    2410:	f008 f8fe 	bl	a610 <__adddf3>
    2414:	4642      	mov	r2, r8
    2416:	464b      	mov	r3, r9
    2418:	f008 f8fa 	bl	a610 <__adddf3>
    241c:	f006 fe16 	bl	904c <sqrt>
    2420:	6cb7      	ldr	r7, [r6, #72]	; 0x48
    2422:	4680      	mov	r8, r0
    2424:	f507 5718 	add.w	r7, r7, #9728	; 0x2600
    2428:	e9d7 451e 	ldrd	r4, r5, [r7, #120]	; 0x78
    242c:	4689      	mov	r9, r1
    242e:	4602      	mov	r2, r0
    2430:	460b      	mov	r3, r1
    2432:	4620      	mov	r0, r4
    2434:	4629      	mov	r1, r5
    2436:	f008 fd0f 	bl	ae58 <__aeabi_dcmplt>
    243a:	b980      	cbnz	r0, 245e <__ARM_grp_.debug_frame$i._ZN4mbed6TickerD1Ev+0x3a>
    243c:	4d43      	ldr	r5, [pc, #268]	; (254c <__ARM_grp_.debug_frame$8+0x40>)
    243e:	2400      	movs	r4, #0
    2440:	4620      	mov	r0, r4
    2442:	4629      	mov	r1, r5
    2444:	e9dd 2300 	ldrd	r2, r3, [sp]
    2448:	f008 fd24 	bl	ae94 <__aeabi_dcmpgt>
    244c:	b9b8      	cbnz	r0, 247e <__ARM_grp_.debug_frame$i._ZN4mbed6TickerD0Ev+0x16>
    244e:	4620      	mov	r0, r4
    2450:	4629      	mov	r1, r5
    2452:	f008 fd71 	bl	af38 <__aeabi_d2f>
    2456:	6330      	str	r0, [r6, #48]	; 0x30
    2458:	b003      	add	sp, #12
    245a:	e8bd 8ff0 	ldmia.w	sp!, {r4, r5, r6, r7, r8, r9, sl, fp, pc}
    245e:	4620      	mov	r0, r4
    2460:	4629      	mov	r1, r5
    2462:	4642      	mov	r2, r8
    2464:	464b      	mov	r3, r9
    2466:	f008 fbaf 	bl	abc8 <__aeabi_ddiv>
    246a:	e9dd 2300 	ldrd	r2, r3, [sp]
    246e:	4604      	mov	r4, r0
    2470:	460d      	mov	r5, r1
    2472:	4620      	mov	r0, r4
    2474:	4629      	mov	r1, r5
    2476:	f008 fd0d 	bl	ae94 <__aeabi_dcmpgt>
    247a:	2800      	cmp	r0, #0
    247c:	d0e7      	beq.n	244e <__ARM_grp_.debug_frame$i._ZN4mbed6TickerD1Ev+0x2a>
    247e:	6ab0      	ldr	r0, [r6, #40]	; 0x28
    2480:	f008 fa24 	bl	a8cc <__aeabi_f2d>
    2484:	e9dd 2300 	ldrd	r2, r3, [sp]
    2488:	f008 fa74 	bl	a974 <__aeabi_dmul>
    248c:	4602      	mov	r2, r0
    248e:	460b      	mov	r3, r1
    2490:	f008 fa70 	bl	a974 <__aeabi_dmul>
    2494:	4682      	mov	sl, r0
    2496:	6af0      	ldr	r0, [r6, #44]	; 0x2c
    2498:	468b      	mov	fp, r1
    249a:	f008 fa17 	bl	a8cc <__aeabi_f2d>
    249e:	f8d7 e070 	ldr.w	lr, [r7, #112]	; 0x70
    24a2:	6f7f      	ldr	r7, [r7, #116]	; 0x74
    24a4:	4672      	mov	r2, lr
    24a6:	f107 4700 	add.w	r7, r7, #2147483648	; 0x80000000
    24aa:	4680      	mov	r8, r0
    24ac:	4689      	mov	r9, r1
    24ae:	4670      	mov	r0, lr
    24b0:	463b      	mov	r3, r7
    24b2:	4639      	mov	r1, r7
    24b4:	f008 f8ac 	bl	a610 <__adddf3>
    24b8:	2200      	movs	r2, #0
    24ba:	4b25      	ldr	r3, [pc, #148]	; (2550 <__ARM_grp_.debug_frame$11>)
    24bc:	f008 fa5a 	bl	a974 <__aeabi_dmul>
    24c0:	2200      	movs	r2, #0
    24c2:	4b23      	ldr	r3, [pc, #140]	; (2550 <__ARM_grp_.debug_frame$11>)
    24c4:	f008 fa56 	bl	a974 <__aeabi_dmul>
    24c8:	4602      	mov	r2, r0
    24ca:	460b      	mov	r3, r1
    24cc:	4640      	mov	r0, r8
    24ce:	4649      	mov	r1, r9
    24d0:	f008 fa50 	bl	a974 <__aeabi_dmul>
    24d4:	4602      	mov	r2, r0
    24d6:	460b      	mov	r3, r1
    24d8:	4650      	mov	r0, sl
    24da:	4659      	mov	r1, fp
    24dc:	f008 f896 	bl	a60c <__aeabi_dsub>
    24e0:	f006 fdb4 	bl	904c <sqrt>
    24e4:	4680      	mov	r8, r0
    24e6:	6ab0      	ldr	r0, [r6, #40]	; 0x28
    24e8:	4689      	mov	r9, r1
    24ea:	f008 f9ef 	bl	a8cc <__aeabi_f2d>
    24ee:	4602      	mov	r2, r0
    24f0:	460b      	mov	r3, r1
    24f2:	4640      	mov	r0, r8
    24f4:	4649      	mov	r1, r9
    24f6:	f008 fb67 	bl	abc8 <__aeabi_ddiv>
    24fa:	4622      	mov	r2, r4
    24fc:	462b      	mov	r3, r5
    24fe:	4680      	mov	r8, r0
    2500:	4689      	mov	r9, r1
    2502:	f008 fca9 	bl	ae58 <__aeabi_dcmplt>
    2506:	2800      	cmp	r0, #0
    2508:	d0a1      	beq.n	244e <__ARM_grp_.debug_frame$i._ZN4mbed6TickerD1Ev+0x2a>
    250a:	4644      	mov	r4, r8
    250c:	464d      	mov	r5, r9
    250e:	e79e      	b.n	244e <__ARM_grp_.debug_frame$i._ZN4mbed6TickerD1Ev+0x2a>
    2510:	6cb2      	ldr	r2, [r6, #72]	; 0x48
    2512:	6ab0      	ldr	r0, [r6, #40]	; 0x28
    2514:	f502 5518 	add.w	r5, r2, #9728	; 0x2600
    2518:	f008 f9d8 	bl	a8cc <__aeabi_f2d>
    251c:	4602      	mov	r2, r0
    251e:	460b      	mov	r3, r1
    2520:	e9d5 011e 	ldrd	r0, r1, [r5, #120]	; 0x78
    2524:	f008 fb50 	bl	abc8 <__aeabi_ddiv>
    2528:	4604      	mov	r4, r0
    252a:	460d      	mov	r5, r1
    252c:	e78f      	b.n	244e <__ARM_grp_.debug_frame$i._ZN4mbed6TickerD1Ev+0x2a>
    252e:	6c81      	ldr	r1, [r0, #72]	; 0x48
    2530:	6a80      	ldr	r0, [r0, #40]	; 0x28
    2532:	f501 5418 	add.w	r4, r1, #9728	; 0x2600
    2536:	f008 f9c9 	bl	a8cc <__aeabi_f2d>
    253a:	4602      	mov	r2, r0
    253c:	460b      	mov	r3, r1
    253e:	e9d4 011e 	ldrd	r0, r1, [r4, #120]	; 0x78
    2542:	f008 fb41 	bl	abc8 <__aeabi_ddiv>
    2546:	e9cd 0100 	strd	r0, r1, [sp]
    254a:	e736      	b.n	23ba <_ZN5Block12reverse_passEPS_S0_+0x1a>
    254c:	3ff00000 	.word	0x3ff00000
    2550:	404e0000 	.word	0x404e0000

00002554 <_ZN5Block12forward_passEPS_S0_>:
    2554:	e92d 43f8 	stmdb	sp!, {r3, r4, r5, r6, r7, r8, r9, lr}
    2558:	460c      	mov	r4, r1
    255a:	4606      	mov	r6, r0
    255c:	b129      	cbz	r1, 256a <_ZN5Block12forward_passEPS_S0_+0x16>
    255e:	6b0d      	ldr	r5, [r1, #48]	; 0x30
    2560:	6b01      	ldr	r1, [r0, #48]	; 0x30
    2562:	4628      	mov	r0, r5
    2564:	f008 ffe4 	bl	b530 <__aeabi_fcmplt>
    2568:	b908      	cbnz	r0, 256e <_ZN5Block12forward_passEPS_S0_+0x1a>
    256a:	e8bd 83f8 	ldmia.w	sp!, {r3, r4, r5, r6, r7, r8, r9, pc}
    256e:	6ab1      	ldr	r1, [r6, #40]	; 0x28
    2570:	4628      	mov	r0, r5
    2572:	f008 fe3f 	bl	b1f4 <__aeabi_fmul>
    2576:	f008 f9a9 	bl	a8cc <__aeabi_f2d>
    257a:	4602      	mov	r2, r0
    257c:	460b      	mov	r3, r1
    257e:	f008 f9f9 	bl	a974 <__aeabi_dmul>
    2582:	4680      	mov	r8, r0
    2584:	6ae0      	ldr	r0, [r4, #44]	; 0x2c
    2586:	4689      	mov	r9, r1
    2588:	f008 f9a0 	bl	a8cc <__aeabi_f2d>
    258c:	460d      	mov	r5, r1
    258e:	6cb1      	ldr	r1, [r6, #72]	; 0x48
    2590:	4604      	mov	r4, r0
    2592:	f501 5018 	add.w	r0, r1, #9728	; 0x2600
    2596:	6f47      	ldr	r7, [r0, #116]	; 0x74
    2598:	f8d0 e070 	ldr.w	lr, [r0, #112]	; 0x70
    259c:	f107 4700 	add.w	r7, r7, #2147483648	; 0x80000000
    25a0:	4672      	mov	r2, lr
    25a2:	4670      	mov	r0, lr
    25a4:	463b      	mov	r3, r7
    25a6:	4639      	mov	r1, r7
    25a8:	f008 f832 	bl	a610 <__adddf3>
    25ac:	2200      	movs	r2, #0
    25ae:	4b19      	ldr	r3, [pc, #100]	; (2614 <__ARM_grp_.debug_frame$17+0x20>)
    25b0:	f008 f9e0 	bl	a974 <__aeabi_dmul>
    25b4:	2200      	movs	r2, #0
    25b6:	4b17      	ldr	r3, [pc, #92]	; (2614 <__ARM_grp_.debug_frame$17+0x20>)
    25b8:	f008 f9dc 	bl	a974 <__aeabi_dmul>
    25bc:	4602      	mov	r2, r0
    25be:	460b      	mov	r3, r1
    25c0:	4620      	mov	r0, r4
    25c2:	4629      	mov	r1, r5
    25c4:	f008 f9d6 	bl	a974 <__aeabi_dmul>
    25c8:	4602      	mov	r2, r0
    25ca:	460b      	mov	r3, r1
    25cc:	4640      	mov	r0, r8
    25ce:	4649      	mov	r1, r9
    25d0:	f008 f81c 	bl	a60c <__aeabi_dsub>
    25d4:	f006 fd3a 	bl	904c <sqrt>
    25d8:	4604      	mov	r4, r0
    25da:	6ab0      	ldr	r0, [r6, #40]	; 0x28
    25dc:	460d      	mov	r5, r1
    25de:	f008 f975 	bl	a8cc <__aeabi_f2d>
    25e2:	4602      	mov	r2, r0
    25e4:	460b      	mov	r3, r1
    25e6:	4620      	mov	r0, r4
    25e8:	4629      	mov	r1, r5
    25ea:	f008 faed 	bl	abc8 <__aeabi_ddiv>
    25ee:	4604      	mov	r4, r0
    25f0:	460d      	mov	r5, r1
    25f2:	6b30      	ldr	r0, [r6, #48]	; 0x30
    25f4:	f008 f96a 	bl	a8cc <__aeabi_f2d>
    25f8:	4622      	mov	r2, r4
    25fa:	462b      	mov	r3, r5
    25fc:	f008 fc4a 	bl	ae94 <__aeabi_dcmpgt>
    2600:	2800      	cmp	r0, #0
    2602:	d0b2      	beq.n	256a <_ZN5Block12forward_passEPS_S0_+0x16>
    2604:	4620      	mov	r0, r4
    2606:	4629      	mov	r1, r5
    2608:	f008 fc96 	bl	af38 <__aeabi_d2f>
    260c:	6330      	str	r0, [r6, #48]	; 0x30
    260e:	e8bd 83f8 	ldmia.w	sp!, {r3, r4, r5, r6, r7, r8, r9, pc}
    2612:	bf00      	nop
    2614:	404e0000 	.word	0x404e0000

00002618 <_ZN5Block21pop_and_execute_gcodeERP6Kernel>:
    2618:	b570      	push	{r4, r5, r6, lr}
    261a:	4604      	mov	r4, r0
    261c:	b086      	sub	sp, #24
    261e:	460e      	mov	r6, r1
    2620:	4d23      	ldr	r5, [pc, #140]	; (26b0 <__ARM_grp_.debug_frame$23+0x2c>)
    2622:	e01e      	b.n	2662 <__ARM_grp_.debug_frame$20+0x2a>
    2624:	f002 fdf5 	bl	5212 <_ZNSsC1ERKSs>
    2628:	a801      	add	r0, sp, #4
    262a:	f002 fb17 	bl	4c5c <_ZN5GcodeC1Ev>
    262e:	a902      	add	r1, sp, #8
    2630:	a801      	add	r0, sp, #4
    2632:	f002 fe1b 	bl	526c <_ZNSs6assignERKSs>
    2636:	2104      	movs	r1, #4
    2638:	6830      	ldr	r0, [r6, #0]
    263a:	eb0d 0201 	add.w	r2, sp, r1
    263e:	f7fe fdab 	bl	1198 <_ZN6Kernel10call_eventEjPv>
    2642:	6861      	ldr	r1, [r4, #4]
    2644:	f851 0c04 	ldr.w	r0, [r1, #-4]
    2648:	1f0b      	subs	r3, r1, #4
    264a:	380c      	subs	r0, #12
    264c:	42a8      	cmp	r0, r5
    264e:	6063      	str	r3, [r4, #4]
    2650:	d112      	bne.n	2678 <__ARM_grp_.debug_frame$20+0x40>
    2652:	9801      	ldr	r0, [sp, #4]
    2654:	380c      	subs	r0, #12
    2656:	4285      	cmp	r5, r0
    2658:	d120      	bne.n	269c <__ARM_grp_.debug_frame$23+0x18>
    265a:	9802      	ldr	r0, [sp, #8]
    265c:	380c      	subs	r0, #12
    265e:	4285      	cmp	r5, r0
    2660:	d113      	bne.n	268a <__ARM_grp_.debug_frame$23+0x6>
    2662:	6863      	ldr	r3, [r4, #4]
    2664:	6822      	ldr	r2, [r4, #0]
    2666:	1f19      	subs	r1, r3, #4
    2668:	ebc2 0c03 	rsb	ip, r2, r3
    266c:	ea5f 039c 	movs.w	r3, ip, lsr #2
    2670:	a802      	add	r0, sp, #8
    2672:	d1d7      	bne.n	2624 <_ZN5Block21pop_and_execute_gcodeERP6Kernel+0xc>
    2674:	b006      	add	sp, #24
    2676:	bd70      	pop	{r4, r5, r6, pc}
    2678:	6883      	ldr	r3, [r0, #8]
    267a:	1e5a      	subs	r2, r3, #1
    267c:	2b00      	cmp	r3, #0
    267e:	6082      	str	r2, [r0, #8]
    2680:	dce7      	bgt.n	2652 <__ARM_grp_.debug_frame$20+0x1a>
    2682:	a905      	add	r1, sp, #20
    2684:	f002 fdd9 	bl	523a <_ZNSs4_Rep10_M_destroyERKSaIcE>
    2688:	e7e3      	b.n	2652 <__ARM_grp_.debug_frame$20+0x1a>
    268a:	6881      	ldr	r1, [r0, #8]
    268c:	1e4a      	subs	r2, r1, #1
    268e:	2900      	cmp	r1, #0
    2690:	6082      	str	r2, [r0, #8]
    2692:	dce6      	bgt.n	2662 <__ARM_grp_.debug_frame$20+0x2a>
    2694:	a903      	add	r1, sp, #12
    2696:	f002 fdd0 	bl	523a <_ZNSs4_Rep10_M_destroyERKSaIcE>
    269a:	e7e2      	b.n	2662 <__ARM_grp_.debug_frame$20+0x2a>
    269c:	6881      	ldr	r1, [r0, #8]
    269e:	1e4b      	subs	r3, r1, #1
    26a0:	2900      	cmp	r1, #0
    26a2:	6083      	str	r3, [r0, #8]
    26a4:	dcd9      	bgt.n	265a <__ARM_grp_.debug_frame$20+0x22>
    26a6:	a904      	add	r1, sp, #16
    26a8:	f002 fdc7 	bl	523a <_ZNSs4_Rep10_M_destroyERKSaIcE>
    26ac:	e7d5      	b.n	265a <__ARM_grp_.debug_frame$20+0x22>
    26ae:	bf00      	nop
    26b0:	100009f8 	.word	0x100009f8

000026b4 <_ZN5Block12append_gcodeEP5Gcode>:
    26b4:	460a      	mov	r2, r1
    26b6:	b508      	push	{r3, lr}
    26b8:	6801      	ldr	r1, [r0, #0]
    26ba:	f7ff fd1f 	bl	20fc <_ZNSt6vectorISsSaISsEE6insertEN9__gnu_cxx17__normal_iteratorIPSsS1_EERKSs>
    26be:	bd08      	pop	{r3, pc}

000026c0 <_ZN7Planner16on_module_loadedEv>:
    26c0:	b510      	push	{r4, lr}
    26c2:	4604      	mov	r4, r0
    26c4:	6840      	ldr	r0, [r0, #4]
    26c6:	f246 21ee 	movw	r1, #25326	; 0x62ee
    26ca:	6940      	ldr	r0, [r0, #20]
    26cc:	f7fe fc80 	bl	fd0 <_ZN6Config3getEt>
    26d0:	6863      	ldr	r3, [r4, #4]
    26d2:	f504 5418 	add.w	r4, r4, #9728	; 0x2600
    26d6:	e9c4 011c 	strd	r0, r1, [r4, #112]	; 0x70
    26da:	6958      	ldr	r0, [r3, #20]
    26dc:	f64e 6154 	movw	r1, #61012	; 0xee54
    26e0:	f7fe fc76 	bl	fd0 <_ZN6Config3getEt>
    26e4:	e9c4 011e 	strd	r0, r1, [r4, #120]	; 0x78
    26e8:	bd10      	pop	{r4, pc}
    26ea:	bf00      	nop

000026ec <_ZN7Planner21attach_gcode_to_queueEP5Gcode>:
    26ec:	f500 5218 	add.w	r2, r0, #9728	; 0x2600
    26f0:	6953      	ldr	r3, [r2, #20]
    26f2:	b470      	push	{r4, r5, r6}
    26f4:	6994      	ldr	r4, [r2, #24]
    26f6:	460a      	mov	r2, r1
    26f8:	42a3      	cmp	r3, r4
    26fa:	bfcc      	ite	gt
    26fc:	f04f 0c80 	movgt.w	ip, #128	; 0x80
    2700:	f04f 0c00 	movle.w	ip, #0
    2704:	eb0c 0104 	add.w	r1, ip, r4
    2708:	428b      	cmp	r3, r1
    270a:	d038      	beq.n	277e <__ARM_grp_.debug_frame$32+0x22>
    270c:	42a3      	cmp	r3, r4
    270e:	dc2c      	bgt.n	276a <__ARM_grp_.debug_frame$32+0xe>
    2710:	d026      	beq.n	2760 <__ARM_grp_.debug_frame$32+0x4>
    2712:	1e66      	subs	r6, r4, #1
    2714:	1af6      	subs	r6, r6, r3
    2716:	2e00      	cmp	r6, #0
    2718:	d02c      	beq.n	2774 <__ARM_grp_.debug_frame$32+0x18>
    271a:	3301      	adds	r3, #1
    271c:	f003 037f 	and.w	r3, r3, #127	; 0x7f
    2720:	1e75      	subs	r5, r6, #1
    2722:	429c      	cmp	r4, r3
    2724:	f005 0501 	and.w	r5, r5, #1
    2728:	d01a      	beq.n	2760 <__ARM_grp_.debug_frame$32+0x4>
    272a:	2101      	movs	r1, #1
    272c:	42b1      	cmp	r1, r6
    272e:	d021      	beq.n	2774 <__ARM_grp_.debug_frame$32+0x18>
    2730:	b165      	cbz	r5, 274c <__ARM_grp_.debug_frame$29+0x40>
    2732:	185b      	adds	r3, r3, r1
    2734:	f003 037f 	and.w	r3, r3, #127	; 0x7f
    2738:	429c      	cmp	r4, r3
    273a:	d011      	beq.n	2760 <__ARM_grp_.debug_frame$32+0x4>
    273c:	2102      	movs	r1, #2
    273e:	42b1      	cmp	r1, r6
    2740:	d104      	bne.n	274c <__ARM_grp_.debug_frame$29+0x40>
    2742:	e017      	b.n	2774 <__ARM_grp_.debug_frame$32+0x18>
    2744:	429c      	cmp	r4, r3
    2746:	d00b      	beq.n	2760 <__ARM_grp_.debug_frame$32+0x4>
    2748:	42b1      	cmp	r1, r6
    274a:	d013      	beq.n	2774 <__ARM_grp_.debug_frame$32+0x18>
    274c:	1c5d      	adds	r5, r3, #1
    274e:	f005 057f 	and.w	r5, r5, #127	; 0x7f
    2752:	1c6b      	adds	r3, r5, #1
    2754:	42ac      	cmp	r4, r5
    2756:	f003 037f 	and.w	r3, r3, #127	; 0x7f
    275a:	f101 0102 	add.w	r1, r1, #2
    275e:	d1f1      	bne.n	2744 <__ARM_grp_.debug_frame$29+0x38>
    2760:	2000      	movs	r0, #0
    2762:	4611      	mov	r1, r2
    2764:	bc70      	pop	{r4, r5, r6}
    2766:	f7ff bfa5 	b.w	26b4 <_ZN5Block12append_gcodeEP5Gcode>
    276a:	f104 0c7f 	add.w	ip, r4, #127	; 0x7f
    276e:	ebc3 060c 	rsb	r6, r3, ip
    2772:	e7d0      	b.n	2716 <__ARM_grp_.debug_frame$29+0xa>
    2774:	214c      	movs	r1, #76	; 0x4c
    2776:	fb01 0003 	mla	r0, r1, r3, r0
    277a:	3014      	adds	r0, #20
    277c:	e7f1      	b.n	2762 <__ARM_grp_.debug_frame$32+0x6>
    277e:	6840      	ldr	r0, [r0, #4]
    2780:	2104      	movs	r1, #4
    2782:	bc70      	pop	{r4, r5, r6}
    2784:	f7fe bd08 	b.w	1198 <_ZN6Kernel10call_eventEjPv>

00002788 <_ZN7Planner12reverse_passEv>:
    2788:	e92d 47f0 	stmdb	sp!, {r4, r5, r6, r7, r8, r9, sl, lr}
    278c:	f500 5718 	add.w	r7, r0, #9728	; 0x2600
    2790:	69bb      	ldr	r3, [r7, #24]
    2792:	697a      	ldr	r2, [r7, #20]
    2794:	f103 3aff 	add.w	sl, r3, #4294967295
    2798:	429a      	cmp	r2, r3
    279a:	bfcc      	ite	gt
    279c:	2180      	movgt	r1, #128	; 0x80
    279e:	2100      	movle	r1, #0
    27a0:	ebc2 040a 	rsb	r4, r2, sl
    27a4:	1864      	adds	r4, r4, r1
    27a6:	4680      	mov	r8, r0
    27a8:	f100 80c8 	bmi.w	293c <__ARM_grp_.debug_frame$50+0x34>
    27ac:	1e66      	subs	r6, r4, #1
    27ae:	1c65      	adds	r5, r4, #1
    27b0:	429a      	cmp	r2, r3
    27b2:	f04f 094c 	mov.w	r9, #76	; 0x4c
    27b6:	f000 80ab 	beq.w	2910 <__ARM_grp_.debug_frame$50+0x8>
    27ba:	2c00      	cmp	r4, #0
    27bc:	f000 80ab 	beq.w	2916 <__ARM_grp_.debug_frame$50+0xe>
    27c0:	1c51      	adds	r1, r2, #1
    27c2:	f001 017f 	and.w	r1, r1, #127	; 0x7f
    27c6:	1e60      	subs	r0, r4, #1
    27c8:	4299      	cmp	r1, r3
    27ca:	f000 0c01 	and.w	ip, r0, #1
    27ce:	d01f      	beq.n	2810 <__ARM_grp_.debug_frame$38+0x2c>
    27d0:	2001      	movs	r0, #1
    27d2:	42a0      	cmp	r0, r4
    27d4:	f000 80a0 	beq.w	2918 <__ARM_grp_.debug_frame$50+0x10>
    27d8:	f1bc 0f00 	cmp.w	ip, #0
    27dc:	d00d      	beq.n	27fa <__ARM_grp_.debug_frame$38+0x16>
    27de:	1808      	adds	r0, r1, r0
    27e0:	f000 017f 	and.w	r1, r0, #127	; 0x7f
    27e4:	4299      	cmp	r1, r3
    27e6:	d013      	beq.n	2810 <__ARM_grp_.debug_frame$38+0x2c>
    27e8:	2002      	movs	r0, #2
    27ea:	42a0      	cmp	r0, r4
    27ec:	d105      	bne.n	27fa <__ARM_grp_.debug_frame$38+0x16>
    27ee:	e093      	b.n	2918 <__ARM_grp_.debug_frame$50+0x10>
    27f0:	4299      	cmp	r1, r3
    27f2:	d00d      	beq.n	2810 <__ARM_grp_.debug_frame$38+0x2c>
    27f4:	42a0      	cmp	r0, r4
    27f6:	f000 808f 	beq.w	2918 <__ARM_grp_.debug_frame$50+0x10>
    27fa:	3101      	adds	r1, #1
    27fc:	f001 0c7f 	and.w	ip, r1, #127	; 0x7f
    2800:	f10c 0101 	add.w	r1, ip, #1
    2804:	459c      	cmp	ip, r3
    2806:	f001 017f 	and.w	r1, r1, #127	; 0x7f
    280a:	f100 0002 	add.w	r0, r0, #2
    280e:	d1ef      	bne.n	27f0 <__ARM_grp_.debug_frame$38+0xc>
    2810:	2000      	movs	r0, #0
    2812:	429a      	cmp	r2, r3
    2814:	bfcc      	ite	gt
    2816:	2180      	movgt	r1, #128	; 0x80
    2818:	2100      	movle	r1, #0
    281a:	ebc2 0a0a 	rsb	sl, r2, sl
    281e:	448a      	add	sl, r1
    2820:	45a2      	cmp	sl, r4
    2822:	d02c      	beq.n	287e <__ARM_grp_.debug_frame$44+0x12>
    2824:	429a      	cmp	r2, r3
    2826:	d02a      	beq.n	287e <__ARM_grp_.debug_frame$44+0x12>
    2828:	2d00      	cmp	r5, #0
    282a:	d079      	beq.n	2920 <__ARM_grp_.debug_frame$50+0x18>
    282c:	1c51      	adds	r1, r2, #1
    282e:	f001 017f 	and.w	r1, r1, #127	; 0x7f
    2832:	f105 3cff 	add.w	ip, r5, #4294967295
    2836:	4299      	cmp	r1, r3
    2838:	f00c 0a01 	and.w	sl, ip, #1
    283c:	d01f      	beq.n	287e <__ARM_grp_.debug_frame$44+0x12>
    283e:	f04f 0c01 	mov.w	ip, #1
    2842:	45ac      	cmp	ip, r5
    2844:	d06d      	beq.n	2922 <__ARM_grp_.debug_frame$50+0x1a>
    2846:	f1ba 0f00 	cmp.w	sl, #0
    284a:	d00d      	beq.n	2868 <__ARM_grp_.debug_frame$41+0x40>
    284c:	4461      	add	r1, ip
    284e:	f001 017f 	and.w	r1, r1, #127	; 0x7f
    2852:	4299      	cmp	r1, r3
    2854:	d013      	beq.n	287e <__ARM_grp_.debug_frame$44+0x12>
    2856:	f04f 0c02 	mov.w	ip, #2
    285a:	45ac      	cmp	ip, r5
    285c:	d104      	bne.n	2868 <__ARM_grp_.debug_frame$41+0x40>
    285e:	e060      	b.n	2922 <__ARM_grp_.debug_frame$50+0x1a>
    2860:	4299      	cmp	r1, r3
    2862:	d00c      	beq.n	287e <__ARM_grp_.debug_frame$44+0x12>
    2864:	45ac      	cmp	ip, r5
    2866:	d05c      	beq.n	2922 <__ARM_grp_.debug_frame$50+0x1a>
    2868:	3101      	adds	r1, #1
    286a:	f001 0a7f 	and.w	sl, r1, #127	; 0x7f
    286e:	f10a 0101 	add.w	r1, sl, #1
    2872:	459a      	cmp	sl, r3
    2874:	f001 017f 	and.w	r1, r1, #127	; 0x7f
    2878:	f10c 0c02 	add.w	ip, ip, #2
    287c:	d1f0      	bne.n	2860 <__ARM_grp_.debug_frame$41+0x38>
    287e:	2100      	movs	r1, #0
    2880:	b94c      	cbnz	r4, 2896 <__ARM_grp_.debug_frame$44+0x2a>
    2882:	f897 306c 	ldrb.w	r3, [r7, #108]	; 0x6c
    2886:	2b00      	cmp	r3, #0
    2888:	d04f      	beq.n	292a <__ARM_grp_.debug_frame$50+0x22>
    288a:	f107 0220 	add.w	r2, r7, #32
    288e:	e8bd 47f0 	ldmia.w	sp!, {r4, r5, r6, r7, r8, r9, sl, lr}
    2892:	f7ff bd85 	b.w	23a0 <_ZN5Block12reverse_passEPS_S0_>
    2896:	429a      	cmp	r2, r3
    2898:	d02a      	beq.n	28f0 <__ARM_grp_.debug_frame$47+0x2c>
    289a:	2e00      	cmp	r6, #0
    289c:	d04a      	beq.n	2934 <__ARM_grp_.debug_frame$50+0x2c>
    289e:	3201      	adds	r2, #1
    28a0:	f002 027f 	and.w	r2, r2, #127	; 0x7f
    28a4:	f106 3eff 	add.w	lr, r6, #4294967295
    28a8:	429a      	cmp	r2, r3
    28aa:	f00e 0c01 	and.w	ip, lr, #1
    28ae:	d01f      	beq.n	28f0 <__ARM_grp_.debug_frame$47+0x2c>
    28b0:	f04f 0e01 	mov.w	lr, #1
    28b4:	45b6      	cmp	lr, r6
    28b6:	d03d      	beq.n	2934 <__ARM_grp_.debug_frame$50+0x2c>
    28b8:	f1bc 0f00 	cmp.w	ip, #0
    28bc:	d00d      	beq.n	28da <__ARM_grp_.debug_frame$47+0x16>
    28be:	4496      	add	lr, r2
    28c0:	f00e 027f 	and.w	r2, lr, #127	; 0x7f
    28c4:	429a      	cmp	r2, r3
    28c6:	d013      	beq.n	28f0 <__ARM_grp_.debug_frame$47+0x2c>
    28c8:	f04f 0e02 	mov.w	lr, #2
    28cc:	45b6      	cmp	lr, r6
    28ce:	d104      	bne.n	28da <__ARM_grp_.debug_frame$47+0x16>
    28d0:	e030      	b.n	2934 <__ARM_grp_.debug_frame$50+0x2c>
    28d2:	429a      	cmp	r2, r3
    28d4:	d00c      	beq.n	28f0 <__ARM_grp_.debug_frame$47+0x2c>
    28d6:	45b6      	cmp	lr, r6
    28d8:	d02c      	beq.n	2934 <__ARM_grp_.debug_frame$50+0x2c>
    28da:	3201      	adds	r2, #1
    28dc:	f002 0c7f 	and.w	ip, r2, #127	; 0x7f
    28e0:	f10c 0201 	add.w	r2, ip, #1
    28e4:	459c      	cmp	ip, r3
    28e6:	f002 027f 	and.w	r2, r2, #127	; 0x7f
    28ea:	f10e 0e02 	add.w	lr, lr, #2
    28ee:	d1f0      	bne.n	28d2 <__ARM_grp_.debug_frame$47+0xe>
    28f0:	2200      	movs	r2, #0
    28f2:	3c01      	subs	r4, #1
    28f4:	f7ff fd54 	bl	23a0 <_ZN5Block12reverse_passEPS_S0_>
    28f8:	3e01      	subs	r6, #1
    28fa:	3d01      	subs	r5, #1
    28fc:	f1b4 3fff 	cmp.w	r4, #4294967295
    2900:	d01c      	beq.n	293c <__ARM_grp_.debug_frame$50+0x34>
    2902:	69bb      	ldr	r3, [r7, #24]
    2904:	697a      	ldr	r2, [r7, #20]
    2906:	f103 3aff 	add.w	sl, r3, #4294967295
    290a:	429a      	cmp	r2, r3
    290c:	f47f af55 	bne.w	27ba <__ARM_grp_.debug_frame$35+0x1a>
    2910:	2000      	movs	r0, #0
    2912:	4601      	mov	r1, r0
    2914:	e781      	b.n	281a <__ARM_grp_.debug_frame$38+0x36>
    2916:	4611      	mov	r1, r2
    2918:	fb09 8001 	mla	r0, r9, r1, r8
    291c:	3014      	adds	r0, #20
    291e:	e778      	b.n	2812 <__ARM_grp_.debug_frame$38+0x2e>
    2920:	4611      	mov	r1, r2
    2922:	fb09 8101 	mla	r1, r9, r1, r8
    2926:	3114      	adds	r1, #20
    2928:	e7aa      	b.n	2880 <__ARM_grp_.debug_frame$44+0x14>
    292a:	4622      	mov	r2, r4
    292c:	e8bd 47f0 	ldmia.w	sp!, {r4, r5, r6, r7, r8, r9, sl, lr}
    2930:	f7ff bd36 	b.w	23a0 <_ZN5Block12reverse_passEPS_S0_>
    2934:	fb09 8202 	mla	r2, r9, r2, r8
    2938:	3214      	adds	r2, #20
    293a:	e7da      	b.n	28f2 <__ARM_grp_.debug_frame$47+0x2e>
    293c:	e8bd 87f0 	ldmia.w	sp!, {r4, r5, r6, r7, r8, r9, sl, pc}

00002940 <_ZN7Planner12forward_passEv>:
    2940:	e92d 47f0 	stmdb	sp!, {r4, r5, r6, r7, r8, r9, sl, lr}
    2944:	f500 5818 	add.w	r8, r0, #9728	; 0x2600
    2948:	4647      	mov	r7, r8
    294a:	4681      	mov	r9, r0
    294c:	f04f 36ff 	mov.w	r6, #4294967295
    2950:	2501      	movs	r5, #1
    2952:	2400      	movs	r4, #0
    2954:	f108 0814 	add.w	r8, r8, #20
    2958:	3718      	adds	r7, #24
    295a:	f04f 0a4c 	mov.w	sl, #76	; 0x4c
    295e:	f8d8 2000 	ldr.w	r2, [r8]
    2962:	683b      	ldr	r3, [r7, #0]
    2964:	429a      	cmp	r2, r3
    2966:	bfcc      	ite	gt
    2968:	2180      	movgt	r1, #128	; 0x80
    296a:	2100      	movle	r1, #0
    296c:	ebc2 0c03 	rsb	ip, r2, r3
    2970:	eb0c 0001 	add.w	r0, ip, r1
    2974:	42a0      	cmp	r0, r4
    2976:	f340 80ac 	ble.w	2ad2 <__ARM_grp_.debug_frame$68+0x16>
    297a:	429a      	cmp	r2, r3
    297c:	f000 80ab 	beq.w	2ad6 <__ARM_grp_.debug_frame$68+0x1a>
    2980:	2c00      	cmp	r4, #0
    2982:	f000 8096 	beq.w	2ab2 <__ARM_grp_.debug_frame$65+0x46>
    2986:	1c51      	adds	r1, r2, #1
    2988:	f001 017f 	and.w	r1, r1, #127	; 0x7f
    298c:	1e60      	subs	r0, r4, #1
    298e:	428b      	cmp	r3, r1
    2990:	f000 0e01 	and.w	lr, r0, #1
    2994:	d01e      	beq.n	29d4 <__ARM_grp_.debug_frame$59>
    2996:	2001      	movs	r0, #1
    2998:	42a0      	cmp	r0, r4
    299a:	f000 808b 	beq.w	2ab4 <__ARM_grp_.debug_frame$65+0x48>
    299e:	f1be 0f00 	cmp.w	lr, #0
    29a2:	d00c      	beq.n	29be <__ARM_grp_.debug_frame$56+0x2e>
    29a4:	1808      	adds	r0, r1, r0
    29a6:	f000 017f 	and.w	r1, r0, #127	; 0x7f
    29aa:	428b      	cmp	r3, r1
    29ac:	d012      	beq.n	29d4 <__ARM_grp_.debug_frame$59>
    29ae:	2002      	movs	r0, #2
    29b0:	42a0      	cmp	r0, r4
    29b2:	d104      	bne.n	29be <__ARM_grp_.debug_frame$56+0x2e>
    29b4:	e07e      	b.n	2ab4 <__ARM_grp_.debug_frame$65+0x48>
    29b6:	428b      	cmp	r3, r1
    29b8:	d00c      	beq.n	29d4 <__ARM_grp_.debug_frame$59>
    29ba:	42a0      	cmp	r0, r4
    29bc:	d07a      	beq.n	2ab4 <__ARM_grp_.debug_frame$65+0x48>
    29be:	3101      	adds	r1, #1
    29c0:	f001 0e7f 	and.w	lr, r1, #127	; 0x7f
    29c4:	f10e 0101 	add.w	r1, lr, #1
    29c8:	4573      	cmp	r3, lr
    29ca:	f001 017f 	and.w	r1, r1, #127	; 0x7f
    29ce:	f100 0002 	add.w	r0, r0, #2
    29d2:	d1f0      	bne.n	29b6 <__ARM_grp_.debug_frame$56+0x26>
    29d4:	2000      	movs	r0, #0
    29d6:	2e00      	cmp	r6, #0
    29d8:	d076      	beq.n	2ac8 <__ARM_grp_.debug_frame$68+0xc>
    29da:	1c51      	adds	r1, r2, #1
    29dc:	f001 017f 	and.w	r1, r1, #127	; 0x7f
    29e0:	f106 3cff 	add.w	ip, r6, #4294967295
    29e4:	428b      	cmp	r3, r1
    29e6:	f00c 0c01 	and.w	ip, ip, #1
    29ea:	d020      	beq.n	2a2e <__ARM_grp_.debug_frame$62+0x16>
    29ec:	f04f 0e01 	mov.w	lr, #1
    29f0:	45b6      	cmp	lr, r6
    29f2:	d06a      	beq.n	2aca <__ARM_grp_.debug_frame$68+0xe>
    29f4:	f1bc 0f00 	cmp.w	ip, #0
    29f8:	d00e      	beq.n	2a18 <__ARM_grp_.debug_frame$62>
    29fa:	eb01 0c0e 	add.w	ip, r1, lr
    29fe:	f00c 017f 	and.w	r1, ip, #127	; 0x7f
    2a02:	428b      	cmp	r3, r1
    2a04:	d013      	beq.n	2a2e <__ARM_grp_.debug_frame$62+0x16>
    2a06:	f04f 0e02 	mov.w	lr, #2
    2a0a:	45b6      	cmp	lr, r6
    2a0c:	d104      	bne.n	2a18 <__ARM_grp_.debug_frame$62>
    2a0e:	e05c      	b.n	2aca <__ARM_grp_.debug_frame$68+0xe>
    2a10:	428b      	cmp	r3, r1
    2a12:	d00c      	beq.n	2a2e <__ARM_grp_.debug_frame$62+0x16>
    2a14:	45b6      	cmp	lr, r6
    2a16:	d058      	beq.n	2aca <__ARM_grp_.debug_frame$68+0xe>
    2a18:	3101      	adds	r1, #1
    2a1a:	f001 0c7f 	and.w	ip, r1, #127	; 0x7f
    2a1e:	f10c 0101 	add.w	r1, ip, #1
    2a22:	4563      	cmp	r3, ip
    2a24:	f001 017f 	and.w	r1, r1, #127	; 0x7f
    2a28:	f10e 0e02 	add.w	lr, lr, #2
    2a2c:	d1f0      	bne.n	2a10 <__ARM_grp_.debug_frame$59+0x3c>
    2a2e:	2100      	movs	r1, #0
    2a30:	429a      	cmp	r2, r3
    2a32:	bfcc      	ite	gt
    2a34:	f04f 0c80 	movgt.w	ip, #128	; 0x80
    2a38:	f04f 0c00 	movle.w	ip, #0
    2a3c:	f103 3eff 	add.w	lr, r3, #4294967295
    2a40:	ebc2 0e0e 	rsb	lr, r2, lr
    2a44:	44e6      	add	lr, ip
    2a46:	45a6      	cmp	lr, r4
    2a48:	d02c      	beq.n	2aa4 <__ARM_grp_.debug_frame$65+0x38>
    2a4a:	429a      	cmp	r2, r3
    2a4c:	d02a      	beq.n	2aa4 <__ARM_grp_.debug_frame$65+0x38>
    2a4e:	2d00      	cmp	r5, #0
    2a50:	d036      	beq.n	2ac0 <__ARM_grp_.debug_frame$68+0x4>
    2a52:	3201      	adds	r2, #1
    2a54:	f002 027f 	and.w	r2, r2, #127	; 0x7f
    2a58:	f105 3cff 	add.w	ip, r5, #4294967295
    2a5c:	4293      	cmp	r3, r2
    2a5e:	f00c 0c01 	and.w	ip, ip, #1
    2a62:	d01f      	beq.n	2aa4 <__ARM_grp_.debug_frame$65+0x38>
    2a64:	f04f 0e01 	mov.w	lr, #1
    2a68:	45ae      	cmp	lr, r5
    2a6a:	d029      	beq.n	2ac0 <__ARM_grp_.debug_frame$68+0x4>
    2a6c:	f1bc 0f00 	cmp.w	ip, #0
    2a70:	d00d      	beq.n	2a8e <__ARM_grp_.debug_frame$65+0x22>
    2a72:	4496      	add	lr, r2
    2a74:	f00e 027f 	and.w	r2, lr, #127	; 0x7f
    2a78:	4293      	cmp	r3, r2
    2a7a:	d013      	beq.n	2aa4 <__ARM_grp_.debug_frame$65+0x38>
    2a7c:	f04f 0e02 	mov.w	lr, #2
    2a80:	45ae      	cmp	lr, r5
    2a82:	d104      	bne.n	2a8e <__ARM_grp_.debug_frame$65+0x22>
    2a84:	e01c      	b.n	2ac0 <__ARM_grp_.debug_frame$68+0x4>
    2a86:	4293      	cmp	r3, r2
    2a88:	d00c      	beq.n	2aa4 <__ARM_grp_.debug_frame$65+0x38>
    2a8a:	45ae      	cmp	lr, r5
    2a8c:	d018      	beq.n	2ac0 <__ARM_grp_.debug_frame$68+0x4>
    2a8e:	3201      	adds	r2, #1
    2a90:	f002 0c7f 	and.w	ip, r2, #127	; 0x7f
    2a94:	f10c 0201 	add.w	r2, ip, #1
    2a98:	4563      	cmp	r3, ip
    2a9a:	f002 027f 	and.w	r2, r2, #127	; 0x7f
    2a9e:	f10e 0e02 	add.w	lr, lr, #2
    2aa2:	d1f0      	bne.n	2a86 <__ARM_grp_.debug_frame$65+0x1a>
    2aa4:	2200      	movs	r2, #0
    2aa6:	f7ff fd55 	bl	2554 <_ZN5Block12forward_passEPS_S0_>
    2aaa:	3401      	adds	r4, #1
    2aac:	3501      	adds	r5, #1
    2aae:	3601      	adds	r6, #1
    2ab0:	e755      	b.n	295e <__ARM_grp_.debug_frame$53+0x12>
    2ab2:	4611      	mov	r1, r2
    2ab4:	fb0a 9001 	mla	r0, sl, r1, r9
    2ab8:	3014      	adds	r0, #20
    2aba:	b97c      	cbnz	r4, 2adc <__ARM_grp_.debug_frame$68+0x20>
    2abc:	4621      	mov	r1, r4
    2abe:	e7b7      	b.n	2a30 <__ARM_grp_.debug_frame$62+0x18>
    2ac0:	fb0a 9202 	mla	r2, sl, r2, r9
    2ac4:	3214      	adds	r2, #20
    2ac6:	e7ee      	b.n	2aa6 <__ARM_grp_.debug_frame$65+0x3a>
    2ac8:	4611      	mov	r1, r2
    2aca:	fb0a 9101 	mla	r1, sl, r1, r9
    2ace:	3114      	adds	r1, #20
    2ad0:	e7ae      	b.n	2a30 <__ARM_grp_.debug_frame$62+0x18>
    2ad2:	e8bd 87f0 	ldmia.w	sp!, {r4, r5, r6, r7, r8, r9, sl, pc}
    2ad6:	2000      	movs	r0, #0
    2ad8:	2c00      	cmp	r4, #0
    2ada:	d0ef      	beq.n	2abc <__ARM_grp_.debug_frame$68>
    2adc:	429a      	cmp	r2, r3
    2ade:	f47f af7a 	bne.w	29d6 <__ARM_grp_.debug_frame$59+0x2>
    2ae2:	2100      	movs	r1, #0
    2ae4:	468c      	mov	ip, r1
    2ae6:	e7a9      	b.n	2a3c <__ARM_grp_.debug_frame$62+0x24>

00002ae8 <_ZN7Planner22recalculate_trapezoidsEv>:
    2ae8:	e92d 4ff0 	stmdb	sp!, {r4, r5, r6, r7, r8, r9, sl, fp, lr}
    2aec:	f500 5818 	add.w	r8, r0, #9728	; 0x2600
    2af0:	46c1      	mov	r9, r8
    2af2:	b087      	sub	sp, #28
    2af4:	4606      	mov	r6, r0
    2af6:	2400      	movs	r4, #0
    2af8:	2501      	movs	r5, #1
    2afa:	f108 0814 	add.w	r8, r8, #20
    2afe:	f109 0918 	add.w	r9, r9, #24
    2b02:	f8d8 b000 	ldr.w	fp, [r8]
    2b06:	f8d9 a000 	ldr.w	sl, [r9]
    2b0a:	45d3      	cmp	fp, sl
    2b0c:	bfcc      	ite	gt
    2b0e:	f04f 0c80 	movgt.w	ip, #128	; 0x80
    2b12:	f04f 0c00 	movle.w	ip, #0
    2b16:	ebcb 020a 	rsb	r2, fp, sl
    2b1a:	eb02 030c 	add.w	r3, r2, ip
    2b1e:	42a3      	cmp	r3, r4
    2b20:	f340 815a 	ble.w	2dd8 <__ARM_grp_.debug_frame$i._ZN4mbed9parse_argI7PinNameEET_PKcPS4_+0x30>
    2b24:	f10a 30ff 	add.w	r0, sl, #4294967295
    2b28:	45d3      	cmp	fp, sl
    2b2a:	bfcc      	ite	gt
    2b2c:	2380      	movgt	r3, #128	; 0x80
    2b2e:	2300      	movle	r3, #0
    2b30:	ebcb 0700 	rsb	r7, fp, r0
    2b34:	18ff      	adds	r7, r7, r3
    2b36:	42a7      	cmp	r7, r4
    2b38:	f000 80a9 	beq.w	2c8e <__ARM_grp_.debug_frame$17+0x6>
    2b3c:	45d3      	cmp	fp, sl
    2b3e:	f000 814e 	beq.w	2dde <__ARM_grp_.debug_frame$i._ZN4mbed9parse_argI7PinNameEET_PKcPS4_+0x36>
    2b42:	2c00      	cmp	r4, #0
    2b44:	f000 8091 	beq.w	2c6a <__ARM_grp_.debug_frame$14+0x26>
    2b48:	f10b 0201 	add.w	r2, fp, #1
    2b4c:	f002 077f 	and.w	r7, r2, #127	; 0x7f
    2b50:	1e61      	subs	r1, r4, #1
    2b52:	45ba      	cmp	sl, r7
    2b54:	f001 0201 	and.w	r2, r1, #1
    2b58:	d01b      	beq.n	2b92 <__ARM_grp_.debug_frame$5+0x36>
    2b5a:	2301      	movs	r3, #1
    2b5c:	42a3      	cmp	r3, r4
    2b5e:	f000 8085 	beq.w	2c6c <__ARM_grp_.debug_frame$14+0x28>
    2b62:	b162      	cbz	r2, 2b7e <__ARM_grp_.debug_frame$5+0x22>
    2b64:	18fa      	adds	r2, r7, r3
    2b66:	f002 077f 	and.w	r7, r2, #127	; 0x7f
    2b6a:	45ba      	cmp	sl, r7
    2b6c:	d011      	beq.n	2b92 <__ARM_grp_.debug_frame$5+0x36>
    2b6e:	2302      	movs	r3, #2
    2b70:	42a3      	cmp	r3, r4
    2b72:	d104      	bne.n	2b7e <__ARM_grp_.debug_frame$5+0x22>
    2b74:	e07a      	b.n	2c6c <__ARM_grp_.debug_frame$14+0x28>
    2b76:	45ba      	cmp	sl, r7
    2b78:	d00b      	beq.n	2b92 <__ARM_grp_.debug_frame$5+0x36>
    2b7a:	42a3      	cmp	r3, r4
    2b7c:	d076      	beq.n	2c6c <__ARM_grp_.debug_frame$14+0x28>
    2b7e:	1c78      	adds	r0, r7, #1
    2b80:	f000 027f 	and.w	r2, r0, #127	; 0x7f
    2b84:	1c57      	adds	r7, r2, #1
    2b86:	4592      	cmp	sl, r2
    2b88:	f007 077f 	and.w	r7, r7, #127	; 0x7f
    2b8c:	f103 0302 	add.w	r3, r3, #2
    2b90:	d1f1      	bne.n	2b76 <__ARM_grp_.debug_frame$5+0x1a>
    2b92:	2700      	movs	r7, #0
    2b94:	f10b 0e01 	add.w	lr, fp, #1
    2b98:	f00e 037f 	and.w	r3, lr, #127	; 0x7f
    2b9c:	1e61      	subs	r1, r4, #1
    2b9e:	459a      	cmp	sl, r3
    2ba0:	f001 0101 	and.w	r1, r1, #1
    2ba4:	d01a      	beq.n	2bdc <__ARM_grp_.debug_frame$8+0x2c>
    2ba6:	2201      	movs	r2, #1
    2ba8:	42a2      	cmp	r2, r4
    2baa:	d066      	beq.n	2c7a <__ARM_grp_.debug_frame$14+0x36>
    2bac:	b161      	cbz	r1, 2bc8 <__ARM_grp_.debug_frame$8+0x18>
    2bae:	189b      	adds	r3, r3, r2
    2bb0:	f003 037f 	and.w	r3, r3, #127	; 0x7f
    2bb4:	459a      	cmp	sl, r3
    2bb6:	d011      	beq.n	2bdc <__ARM_grp_.debug_frame$8+0x2c>
    2bb8:	2202      	movs	r2, #2
    2bba:	42a2      	cmp	r2, r4
    2bbc:	d104      	bne.n	2bc8 <__ARM_grp_.debug_frame$8+0x18>
    2bbe:	e05c      	b.n	2c7a <__ARM_grp_.debug_frame$14+0x36>
    2bc0:	459a      	cmp	sl, r3
    2bc2:	d00b      	beq.n	2bdc <__ARM_grp_.debug_frame$8+0x2c>
    2bc4:	42a2      	cmp	r2, r4
    2bc6:	d058      	beq.n	2c7a <__ARM_grp_.debug_frame$14+0x36>
    2bc8:	1c59      	adds	r1, r3, #1
    2bca:	f001 007f 	and.w	r0, r1, #127	; 0x7f
    2bce:	1c43      	adds	r3, r0, #1
    2bd0:	4582      	cmp	sl, r0
    2bd2:	f003 037f 	and.w	r3, r3, #127	; 0x7f
    2bd6:	f102 0202 	add.w	r2, r2, #2
    2bda:	d1f1      	bne.n	2bc0 <__ARM_grp_.debug_frame$8+0x10>
    2bdc:	2000      	movs	r0, #0
    2bde:	6b00      	ldr	r0, [r0, #48]	; 0x30
    2be0:	f007 fe74 	bl	a8cc <__aeabi_f2d>
    2be4:	4602      	mov	r2, r0
    2be6:	460b      	mov	r3, r1
    2be8:	2d00      	cmp	r5, #0
    2bea:	d038      	beq.n	2c5e <__ARM_grp_.debug_frame$14+0x1a>
    2bec:	f10b 0b01 	add.w	fp, fp, #1
    2bf0:	f00b 0b7f 	and.w	fp, fp, #127	; 0x7f
    2bf4:	1e69      	subs	r1, r5, #1
    2bf6:	45da      	cmp	sl, fp
    2bf8:	f001 0001 	and.w	r0, r1, #1
    2bfc:	d01d      	beq.n	2c3a <__ARM_grp_.debug_frame$11+0x3a>
    2bfe:	2101      	movs	r1, #1
    2c00:	42a9      	cmp	r1, r5
    2c02:	d02c      	beq.n	2c5e <__ARM_grp_.debug_frame$14+0x1a>
    2c04:	b168      	cbz	r0, 2c22 <__ARM_grp_.debug_frame$11+0x22>
    2c06:	eb0b 0c01 	add.w	ip, fp, r1
    2c0a:	f00c 0b7f 	and.w	fp, ip, #127	; 0x7f
    2c0e:	45da      	cmp	sl, fp
    2c10:	d013      	beq.n	2c3a <__ARM_grp_.debug_frame$11+0x3a>
    2c12:	2102      	movs	r1, #2
    2c14:	42a9      	cmp	r1, r5
    2c16:	d104      	bne.n	2c22 <__ARM_grp_.debug_frame$11+0x22>
    2c18:	e021      	b.n	2c5e <__ARM_grp_.debug_frame$14+0x1a>
    2c1a:	45da      	cmp	sl, fp
    2c1c:	d00d      	beq.n	2c3a <__ARM_grp_.debug_frame$11+0x3a>
    2c1e:	42a9      	cmp	r1, r5
    2c20:	d01d      	beq.n	2c5e <__ARM_grp_.debug_frame$14+0x1a>
    2c22:	f10b 0001 	add.w	r0, fp, #1
    2c26:	f000 0e7f 	and.w	lr, r0, #127	; 0x7f
    2c2a:	f10e 0c01 	add.w	ip, lr, #1
    2c2e:	45f2      	cmp	sl, lr
    2c30:	f00c 0b7f 	and.w	fp, ip, #127	; 0x7f
    2c34:	f101 0102 	add.w	r1, r1, #2
    2c38:	d1ef      	bne.n	2c1a <__ARM_grp_.debug_frame$11+0x1a>
    2c3a:	2100      	movs	r1, #0
    2c3c:	f8d1 a030 	ldr.w	sl, [r1, #48]	; 0x30
    2c40:	4650      	mov	r0, sl
    2c42:	9204      	str	r2, [sp, #16]
    2c44:	9303      	str	r3, [sp, #12]
    2c46:	f007 fe41 	bl	a8cc <__aeabi_f2d>
    2c4a:	9a04      	ldr	r2, [sp, #16]
    2c4c:	e9cd 0100 	strd	r0, r1, [sp]
    2c50:	9b03      	ldr	r3, [sp, #12]
    2c52:	4638      	mov	r0, r7
    2c54:	f7ff fae8 	bl	2228 <_ZN5Block19calculate_trapezoidEdd>
    2c58:	3401      	adds	r4, #1
    2c5a:	3501      	adds	r5, #1
    2c5c:	e751      	b.n	2b02 <_ZN7Planner22recalculate_trapezoidsEv+0x1a>
    2c5e:	204c      	movs	r0, #76	; 0x4c
    2c60:	fb00 6a0b 	mla	sl, r0, fp, r6
    2c64:	f8da a044 	ldr.w	sl, [sl, #68]	; 0x44
    2c68:	e7ea      	b.n	2c40 <__ARM_grp_.debug_frame$11+0x40>
    2c6a:	465f      	mov	r7, fp
    2c6c:	234c      	movs	r3, #76	; 0x4c
    2c6e:	fb03 6707 	mla	r7, r3, r7, r6
    2c72:	3714      	adds	r7, #20
    2c74:	2c00      	cmp	r4, #0
    2c76:	d18d      	bne.n	2b94 <__ARM_grp_.debug_frame$5+0x38>
    2c78:	465b      	mov	r3, fp
    2c7a:	224c      	movs	r2, #76	; 0x4c
    2c7c:	fb02 6c03 	mla	ip, r2, r3, r6
    2c80:	f8dc 0044 	ldr.w	r0, [ip, #68]	; 0x44
    2c84:	f007 fe22 	bl	a8cc <__aeabi_f2d>
    2c88:	4602      	mov	r2, r0
    2c8a:	460b      	mov	r3, r1
    2c8c:	e7ac      	b.n	2be8 <__ARM_grp_.debug_frame$8+0x38>
    2c8e:	45d3      	cmp	fp, sl
    2c90:	f000 80ae 	beq.w	2df0 <__ARM_grp_.debug_frame$i._ZN4mbed9parse_argI7PinNameEET_PKcPS4_+0x48>
    2c94:	2c00      	cmp	r4, #0
    2c96:	f000 8086 	beq.w	2da6 <__ARM_grp_.debug_frame$i._ZN4mbed3SPID1Ev+0x42>
    2c9a:	f10b 0c01 	add.w	ip, fp, #1
    2c9e:	f00c 037f 	and.w	r3, ip, #127	; 0x7f
    2ca2:	1e60      	subs	r0, r4, #1
    2ca4:	459a      	cmp	sl, r3
    2ca6:	f000 0101 	and.w	r1, r0, #1
    2caa:	d01a      	beq.n	2ce2 <__ARM_grp_.debug_frame$20+0x6>
    2cac:	2201      	movs	r2, #1
    2cae:	42a2      	cmp	r2, r4
    2cb0:	d07a      	beq.n	2da8 <__ARM_grp_.debug_frame$i._ZN4mbed9parse_argI7PinNameEET_PKcPS4_>
    2cb2:	b161      	cbz	r1, 2cce <__ARM_grp_.debug_frame$17+0x46>
    2cb4:	1898      	adds	r0, r3, r2
    2cb6:	f000 037f 	and.w	r3, r0, #127	; 0x7f
    2cba:	459a      	cmp	sl, r3
    2cbc:	d011      	beq.n	2ce2 <__ARM_grp_.debug_frame$20+0x6>
    2cbe:	2202      	movs	r2, #2
    2cc0:	42a2      	cmp	r2, r4
    2cc2:	d104      	bne.n	2cce <__ARM_grp_.debug_frame$17+0x46>
    2cc4:	e070      	b.n	2da8 <__ARM_grp_.debug_frame$i._ZN4mbed9parse_argI7PinNameEET_PKcPS4_>
    2cc6:	459a      	cmp	sl, r3
    2cc8:	d00b      	beq.n	2ce2 <__ARM_grp_.debug_frame$20+0x6>
    2cca:	42a2      	cmp	r2, r4
    2ccc:	d06c      	beq.n	2da8 <__ARM_grp_.debug_frame$i._ZN4mbed9parse_argI7PinNameEET_PKcPS4_>
    2cce:	1c58      	adds	r0, r3, #1
    2cd0:	f000 017f 	and.w	r1, r0, #127	; 0x7f
    2cd4:	1c4b      	adds	r3, r1, #1
    2cd6:	458a      	cmp	sl, r1
    2cd8:	f003 037f 	and.w	r3, r3, #127	; 0x7f
    2cdc:	f102 0202 	add.w	r2, r2, #2
    2ce0:	d1f1      	bne.n	2cc6 <__ARM_grp_.debug_frame$17+0x3e>
    2ce2:	2200      	movs	r2, #0
    2ce4:	9205      	str	r2, [sp, #20]
    2ce6:	f10b 0e01 	add.w	lr, fp, #1
    2cea:	f00e 037f 	and.w	r3, lr, #127	; 0x7f
    2cee:	1e62      	subs	r2, r4, #1
    2cf0:	459a      	cmp	sl, r3
    2cf2:	f002 0101 	and.w	r1, r2, #1
    2cf6:	d01b      	beq.n	2d30 <__ARM_grp_.debug_frame$23+0x10>
    2cf8:	2201      	movs	r2, #1
    2cfa:	42a2      	cmp	r2, r4
    2cfc:	d05c      	beq.n	2db8 <__ARM_grp_.debug_frame$i._ZN4mbed9parse_argI7PinNameEET_PKcPS4_+0x10>
    2cfe:	b169      	cbz	r1, 2d1c <__ARM_grp_.debug_frame$20+0x40>
    2d00:	eb03 0e02 	add.w	lr, r3, r2
    2d04:	f00e 037f 	and.w	r3, lr, #127	; 0x7f
    2d08:	459a      	cmp	sl, r3
    2d0a:	d011      	beq.n	2d30 <__ARM_grp_.debug_frame$23+0x10>
    2d0c:	2202      	movs	r2, #2
    2d0e:	42a2      	cmp	r2, r4
    2d10:	d104      	bne.n	2d1c <__ARM_grp_.debug_frame$20+0x40>
    2d12:	e051      	b.n	2db8 <__ARM_grp_.debug_frame$i._ZN4mbed9parse_argI7PinNameEET_PKcPS4_+0x10>
    2d14:	459a      	cmp	sl, r3
    2d16:	d00b      	beq.n	2d30 <__ARM_grp_.debug_frame$23+0x10>
    2d18:	42a2      	cmp	r2, r4
    2d1a:	d04d      	beq.n	2db8 <__ARM_grp_.debug_frame$i._ZN4mbed9parse_argI7PinNameEET_PKcPS4_+0x10>
    2d1c:	1c58      	adds	r0, r3, #1
    2d1e:	f000 017f 	and.w	r1, r0, #127	; 0x7f
    2d22:	1c4b      	adds	r3, r1, #1
    2d24:	458a      	cmp	sl, r1
    2d26:	f003 037f 	and.w	r3, r3, #127	; 0x7f
    2d2a:	f102 0202 	add.w	r2, r2, #2
    2d2e:	d1f1      	bne.n	2d14 <__ARM_grp_.debug_frame$20+0x38>
    2d30:	2100      	movs	r1, #0
    2d32:	6b08      	ldr	r0, [r1, #48]	; 0x30
    2d34:	f007 fdca 	bl	a8cc <__aeabi_f2d>
    2d38:	4602      	mov	r2, r0
    2d3a:	460b      	mov	r3, r1
    2d3c:	f10b 0b01 	add.w	fp, fp, #1
    2d40:	f00b 0b7f 	and.w	fp, fp, #127	; 0x7f
    2d44:	1e60      	subs	r0, r4, #1
    2d46:	45da      	cmp	sl, fp
    2d48:	f000 0001 	and.w	r0, r0, #1
    2d4c:	d01c      	beq.n	2d88 <__ARM_grp_.debug_frame$i._ZN4mbed3SPID1Ev+0x24>
    2d4e:	2101      	movs	r1, #1
    2d50:	42a1      	cmp	r1, r4
    2d52:	d03c      	beq.n	2dce <__ARM_grp_.debug_frame$i._ZN4mbed9parse_argI7PinNameEET_PKcPS4_+0x26>
    2d54:	b160      	cbz	r0, 2d70 <__ARM_grp_.debug_frame$i._ZN4mbed3SPID1Ev+0xc>
    2d56:	448b      	add	fp, r1
    2d58:	f00b 0b7f 	and.w	fp, fp, #127	; 0x7f
    2d5c:	45da      	cmp	sl, fp
    2d5e:	d013      	beq.n	2d88 <__ARM_grp_.debug_frame$i._ZN4mbed3SPID1Ev+0x24>
    2d60:	2102      	movs	r1, #2
    2d62:	42a1      	cmp	r1, r4
    2d64:	d104      	bne.n	2d70 <__ARM_grp_.debug_frame$i._ZN4mbed3SPID1Ev+0xc>
    2d66:	e032      	b.n	2dce <__ARM_grp_.debug_frame$i._ZN4mbed9parse_argI7PinNameEET_PKcPS4_+0x26>
    2d68:	45da      	cmp	sl, fp
    2d6a:	d00d      	beq.n	2d88 <__ARM_grp_.debug_frame$i._ZN4mbed3SPID1Ev+0x24>
    2d6c:	42a1      	cmp	r1, r4
    2d6e:	d02e      	beq.n	2dce <__ARM_grp_.debug_frame$i._ZN4mbed9parse_argI7PinNameEET_PKcPS4_+0x26>
    2d70:	f10b 0001 	add.w	r0, fp, #1
    2d74:	f000 0e7f 	and.w	lr, r0, #127	; 0x7f
    2d78:	f10e 0c01 	add.w	ip, lr, #1
    2d7c:	45f2      	cmp	sl, lr
    2d7e:	f00c 0b7f 	and.w	fp, ip, #127	; 0x7f
    2d82:	f101 0102 	add.w	r1, r1, #2
    2d86:	d1ef      	bne.n	2d68 <__ARM_grp_.debug_frame$i._ZN4mbed3SPID1Ev+0x4>
    2d88:	2000      	movs	r0, #0
    2d8a:	9204      	str	r2, [sp, #16]
    2d8c:	9303      	str	r3, [sp, #12]
    2d8e:	f7ff fa3d 	bl	220c <_ZN5Block29compute_factor_for_safe_speedEv>
    2d92:	9a04      	ldr	r2, [sp, #16]
    2d94:	e9cd 0100 	strd	r0, r1, [sp]
    2d98:	9b03      	ldr	r3, [sp, #12]
    2d9a:	9805      	ldr	r0, [sp, #20]
    2d9c:	f7ff fa44 	bl	2228 <_ZN5Block19calculate_trapezoidEdd>
    2da0:	3401      	adds	r4, #1
    2da2:	3501      	adds	r5, #1
    2da4:	e6ad      	b.n	2b02 <_ZN7Planner22recalculate_trapezoidsEv+0x1a>
    2da6:	465b      	mov	r3, fp
    2da8:	204c      	movs	r0, #76	; 0x4c
    2daa:	fb00 6103 	mla	r1, r0, r3, r6
    2dae:	3114      	adds	r1, #20
    2db0:	9105      	str	r1, [sp, #20]
    2db2:	2f00      	cmp	r7, #0
    2db4:	d197      	bne.n	2ce6 <__ARM_grp_.debug_frame$20+0xa>
    2db6:	465b      	mov	r3, fp
    2db8:	224c      	movs	r2, #76	; 0x4c
    2dba:	fb02 6c03 	mla	ip, r2, r3, r6
    2dbe:	f8dc 0044 	ldr.w	r0, [ip, #68]	; 0x44
    2dc2:	f007 fd83 	bl	a8cc <__aeabi_f2d>
    2dc6:	4602      	mov	r2, r0
    2dc8:	460b      	mov	r3, r1
    2dca:	2f00      	cmp	r7, #0
    2dcc:	d1b6      	bne.n	2d3c <__ARM_grp_.debug_frame$23+0x1c>
    2dce:	214c      	movs	r1, #76	; 0x4c
    2dd0:	fb01 600b 	mla	r0, r1, fp, r6
    2dd4:	3014      	adds	r0, #20
    2dd6:	e7d8      	b.n	2d8a <__ARM_grp_.debug_frame$i._ZN4mbed3SPID1Ev+0x26>
    2dd8:	b007      	add	sp, #28
    2dda:	e8bd 8ff0 	ldmia.w	sp!, {r4, r5, r6, r7, r8, r9, sl, fp, pc}
    2dde:	2700      	movs	r7, #0
    2de0:	f8d7 a030 	ldr.w	sl, [r7, #48]	; 0x30
    2de4:	4650      	mov	r0, sl
    2de6:	f007 fd71 	bl	a8cc <__aeabi_f2d>
    2dea:	4602      	mov	r2, r0
    2dec:	460b      	mov	r3, r1
    2dee:	e727      	b.n	2c40 <__ARM_grp_.debug_frame$11+0x40>
    2df0:	2100      	movs	r1, #0
    2df2:	6b08      	ldr	r0, [r1, #48]	; 0x30
    2df4:	9105      	str	r1, [sp, #20]
    2df6:	f007 fd69 	bl	a8cc <__aeabi_f2d>
    2dfa:	4602      	mov	r2, r0
    2dfc:	460b      	mov	r3, r1
    2dfe:	9805      	ldr	r0, [sp, #20]
    2e00:	e7c3      	b.n	2d8a <__ARM_grp_.debug_frame$i._ZN4mbed3SPID1Ev+0x26>
    2e02:	bf00      	nop

00002e04 <_ZN7Planner11recalculateEv>:
    2e04:	b510      	push	{r4, lr}
    2e06:	4604      	mov	r4, r0
    2e08:	f7ff fcbe 	bl	2788 <_ZN7Planner12reverse_passEv>
    2e0c:	4620      	mov	r0, r4
    2e0e:	f7ff fd97 	bl	2940 <_ZN7Planner12forward_passEv>
    2e12:	4620      	mov	r0, r4
    2e14:	e8bd 4010 	ldmia.w	sp!, {r4, lr}
    2e18:	f7ff be66 	b.w	2ae8 <_ZN7Planner22recalculate_trapezoidsEv>

00002e1c <_ZN7Planner17get_current_blockEv>:
    2e1c:	f500 5318 	add.w	r3, r0, #9728	; 0x2600
    2e20:	699a      	ldr	r2, [r3, #24]
    2e22:	695b      	ldr	r3, [r3, #20]
    2e24:	4293      	cmp	r3, r2
    2e26:	bfcc      	ite	gt
    2e28:	f04f 0c80 	movgt.w	ip, #128	; 0x80
    2e2c:	f04f 0c00 	movle.w	ip, #0
    2e30:	eb0c 0102 	add.w	r1, ip, r2
    2e34:	428b      	cmp	r3, r1
    2e36:	d008      	beq.n	2e4a <_ZN7Planner17get_current_blockEv+0x2e>
    2e38:	4293      	cmp	r3, r2
    2e3a:	d004      	beq.n	2e46 <_ZN7Planner17get_current_blockEv+0x2a>
    2e3c:	224c      	movs	r2, #76	; 0x4c
    2e3e:	fb02 0003 	mla	r0, r2, r3, r0
    2e42:	3014      	adds	r0, #20
    2e44:	4770      	bx	lr
    2e46:	2000      	movs	r0, #0
    2e48:	4770      	bx	lr
    2e4a:	2000      	movs	r0, #0
    2e4c:	4770      	bx	lr
    2e4e:	bf00      	nop

00002e50 <_ZN10RingBufferI5BlockLi128EEC1Ev>:
    2e50:	b570      	push	{r4, r5, r6, lr}
    2e52:	4606      	mov	r6, r0
    2e54:	4604      	mov	r4, r0
    2e56:	f500 5518 	add.w	r5, r0, #9728	; 0x2600
    2e5a:	4620      	mov	r0, r4
    2e5c:	f7ff f9ca 	bl	21f4 <_ZN5BlockC1Ev>
    2e60:	f104 004c 	add.w	r0, r4, #76	; 0x4c
    2e64:	3498      	adds	r4, #152	; 0x98
    2e66:	f7ff f9c5 	bl	21f4 <_ZN5BlockC1Ev>
    2e6a:	42ac      	cmp	r4, r5
    2e6c:	d1f5      	bne.n	2e5a <__ARM_grp_.debug_frame$t._ZN4mbed17rpc_method_callerINS_3SPIEiXadL_ZNS1_9frequencyEiEEEEvPNS_4BaseEPKcPc+0x6>
    2e6e:	2300      	movs	r3, #0
    2e70:	6063      	str	r3, [r4, #4]
    2e72:	6023      	str	r3, [r4, #0]
    2e74:	4630      	mov	r0, r6
    2e76:	bd70      	pop	{r4, r5, r6, pc}

00002e78 <_ZN7PlannerC1Ev>:
    2e78:	b538      	push	{r3, r4, r5, lr}
    2e7a:	4604      	mov	r4, r0
    2e7c:	f7fe fa66 	bl	134c <_ZN6ModuleC1Ev>
    2e80:	4909      	ldr	r1, [pc, #36]	; (2ea8 <__ARM_grp_.debug_frame$t._ZN4mbed17rpc_method_callerIiNS_3SPIEiXadL_ZNS1_5writeEiEEEEvPNS_4BaseEPKcPc+0x4>)
    2e82:	4620      	mov	r0, r4
    2e84:	f840 1b14 	str.w	r1, [r0], #20
    2e88:	f504 5518 	add.w	r5, r4, #9728	; 0x2600
    2e8c:	f7ff ffe0 	bl	2e50 <_ZN10RingBufferI5BlockLi128EEC1Ev>
    2e90:	f105 0020 	add.w	r0, r5, #32
    2e94:	f7ff f9ae 	bl	21f4 <_ZN5BlockC1Ev>
    2e98:	2300      	movs	r3, #0
    2e9a:	60a3      	str	r3, [r4, #8]
    2e9c:	60e3      	str	r3, [r4, #12]
    2e9e:	6123      	str	r3, [r4, #16]
    2ea0:	f885 306c 	strb.w	r3, [r5, #108]	; 0x6c
    2ea4:	4620      	mov	r0, r4
    2ea6:	bd38      	pop	{r3, r4, r5, pc}
    2ea8:	000150a8 	.word	0x000150a8

00002eac <_ZNSt6vectorISsSaISsEEaSERKS1_>:
    2eac:	e92d 4ff0 	stmdb	sp!, {r4, r5, r6, r7, r8, r9, sl, fp, lr}
    2eb0:	4281      	cmp	r1, r0
    2eb2:	b085      	sub	sp, #20
    2eb4:	4606      	mov	r6, r0
    2eb6:	460c      	mov	r4, r1
    2eb8:	d066      	beq.n	2f88 <__ARM_grp_.debug_frame$i._ZN4mbed3SPID0Ev+0x24>
    2eba:	680d      	ldr	r5, [r1, #0]
    2ebc:	f8d1 9004 	ldr.w	r9, [r1, #4]
    2ec0:	f8d0 a000 	ldr.w	sl, [r0]
    2ec4:	6881      	ldr	r1, [r0, #8]
    2ec6:	ebc5 0809 	rsb	r8, r5, r9
    2eca:	ea4f 08a8 	mov.w	r8, r8, asr #2
    2ece:	ebca 0301 	rsb	r3, sl, r1
    2ed2:	ebb8 0fa3 	cmp.w	r8, r3, asr #2
    2ed6:	d95b      	bls.n	2f90 <__ARM_grp_.debug_frame$i._ZN4mbed3SPID0Ev+0x2c>
    2ed8:	f1b8 0f00 	cmp.w	r8, #0
    2edc:	f000 80f4 	beq.w	30c8 <__ARM_grp_.debug_frame$8+0x4>
    2ee0:	f1b8 4f80 	cmp.w	r8, #1073741824	; 0x40000000
    2ee4:	f080 8128 	bcs.w	3138 <__ARM_grp_.debug_frame$11+0x20>
    2ee8:	ea4f 0888 	mov.w	r8, r8, lsl #2
    2eec:	4640      	mov	r0, r8
    2eee:	f002 fd13 	bl	5918 <_Znwj>
    2ef2:	4607      	mov	r7, r0
    2ef4:	454d      	cmp	r5, r9
    2ef6:	d01d      	beq.n	2f34 <__ARM_grp_.debug_frame$t._ZN4mbed19rpc_function_callerIPKc7PinNameS3_S3_S2_XadL_ZNS_4Base9constructINS_3SPIES3_S3_S3_S2_EES2_T0_T1_T2_T3_EEEEvS2_Pc+0x3c>
    2ef8:	ebc5 0009 	rsb	r0, r5, r9
    2efc:	f010 0f04 	tst.w	r0, #4
    2f00:	463c      	mov	r4, r7
    2f02:	d106      	bne.n	2f12 <__ARM_grp_.debug_frame$t._ZN4mbed19rpc_function_callerIPKc7PinNameS3_S3_S2_XadL_ZNS_4Base9constructINS_3SPIES3_S3_S3_S2_EES2_T0_T1_T2_T3_EEEEvS2_Pc+0x1a>
    2f04:	b11f      	cbz	r7, 2f0e <__ARM_grp_.debug_frame$t._ZN4mbed19rpc_function_callerIPKc7PinNameS3_S3_S2_XadL_ZNS_4Base9constructINS_3SPIES3_S3_S3_S2_EES2_T0_T1_T2_T3_EEEEvS2_Pc+0x16>
    2f06:	4638      	mov	r0, r7
    2f08:	4629      	mov	r1, r5
    2f0a:	f002 f982 	bl	5212 <_ZNSsC1ERKSs>
    2f0e:	3504      	adds	r5, #4
    2f10:	1d3c      	adds	r4, r7, #4
    2f12:	b11c      	cbz	r4, 2f1c <__ARM_grp_.debug_frame$t._ZN4mbed19rpc_function_callerIPKc7PinNameS3_S3_S2_XadL_ZNS_4Base9constructINS_3SPIES3_S3_S3_S2_EES2_T0_T1_T2_T3_EEEEvS2_Pc+0x24>
    2f14:	4620      	mov	r0, r4
    2f16:	4629      	mov	r1, r5
    2f18:	f002 f97b 	bl	5212 <_ZNSsC1ERKSs>
    2f1c:	3504      	adds	r5, #4
    2f1e:	45a9      	cmp	r9, r5
    2f20:	d008      	beq.n	2f34 <__ARM_grp_.debug_frame$t._ZN4mbed19rpc_function_callerIPKc7PinNameS3_S3_S2_XadL_ZNS_4Base9constructINS_3SPIES3_S3_S3_S2_EES2_T0_T1_T2_T3_EEEEvS2_Pc+0x3c>
    2f22:	3404      	adds	r4, #4
    2f24:	d003      	beq.n	2f2e <__ARM_grp_.debug_frame$t._ZN4mbed19rpc_function_callerIPKc7PinNameS3_S3_S2_XadL_ZNS_4Base9constructINS_3SPIES3_S3_S3_S2_EES2_T0_T1_T2_T3_EEEEvS2_Pc+0x36>
    2f26:	4620      	mov	r0, r4
    2f28:	4629      	mov	r1, r5
    2f2a:	f002 f972 	bl	5212 <_ZNSsC1ERKSs>
    2f2e:	3504      	adds	r5, #4
    2f30:	3404      	adds	r4, #4
    2f32:	e7ee      	b.n	2f12 <__ARM_grp_.debug_frame$t._ZN4mbed19rpc_function_callerIPKc7PinNameS3_S3_S2_XadL_ZNS_4Base9constructINS_3SPIES3_S3_S3_S2_EES2_T0_T1_T2_T3_EEEEvS2_Pc+0x1a>
    2f34:	6830      	ldr	r0, [r6, #0]
    2f36:	6873      	ldr	r3, [r6, #4]
    2f38:	4298      	cmp	r0, r3
    2f3a:	d01d      	beq.n	2f78 <__ARM_grp_.debug_frame$i._ZN4mbed3SPID0Ev+0x14>
    2f3c:	4604      	mov	r4, r0
    2f3e:	f854 1b04 	ldr.w	r1, [r4], #4
    2f42:	4d8d      	ldr	r5, [pc, #564]	; (3178 <__ARM_grp_.debug_frame$14+0x1c>)
    2f44:	1a18      	subs	r0, r3, r0
    2f46:	390c      	subs	r1, #12
    2f48:	1f02      	subs	r2, r0, #4
    2f4a:	42a9      	cmp	r1, r5
    2f4c:	f3c2 0280 	ubfx	r2, r2, #2, #1
    2f50:	f040 8100 	bne.w	3154 <__ARM_grp_.debug_frame$11+0x3c>
    2f54:	42a3      	cmp	r3, r4
    2f56:	d00e      	beq.n	2f76 <__ARM_grp_.debug_frame$i._ZN4mbed3SPID0Ev+0x12>
    2f58:	b92a      	cbnz	r2, 2f66 <__ARM_grp_.debug_frame$i._ZN4mbed3SPID0Ev+0x2>
    2f5a:	f854 0b04 	ldr.w	r0, [r4], #4
    2f5e:	380c      	subs	r0, #12
    2f60:	42a8      	cmp	r0, r5
    2f62:	f040 80dd 	bne.w	3120 <__ARM_grp_.debug_frame$11+0x8>
    2f66:	f854 0b04 	ldr.w	r0, [r4], #4
    2f6a:	380c      	subs	r0, #12
    2f6c:	42a8      	cmp	r0, r5
    2f6e:	f040 80cb 	bne.w	3108 <__ARM_grp_.debug_frame$8+0x44>
    2f72:	42a3      	cmp	r3, r4
    2f74:	d1f1      	bne.n	2f5a <__ARM_grp_.debug_frame$t._ZN4mbed19rpc_function_callerIPKc7PinNameS3_S3_S2_XadL_ZNS_4Base9constructINS_3SPIES3_S3_S3_S2_EES2_T0_T1_T2_T3_EEEEvS2_Pc+0x62>
    2f76:	6830      	ldr	r0, [r6, #0]
    2f78:	b108      	cbz	r0, 2f7e <__ARM_grp_.debug_frame$i._ZN4mbed3SPID0Ev+0x1a>
    2f7a:	f002 fc4d 	bl	5818 <_ZdlPv>
    2f7e:	eb07 0308 	add.w	r3, r7, r8
    2f82:	6037      	str	r7, [r6, #0]
    2f84:	60b3      	str	r3, [r6, #8]
    2f86:	6073      	str	r3, [r6, #4]
    2f88:	4630      	mov	r0, r6
    2f8a:	b005      	add	sp, #20
    2f8c:	e8bd 8ff0 	ldmia.w	sp!, {r4, r5, r6, r7, r8, r9, sl, fp, pc}
    2f90:	6847      	ldr	r7, [r0, #4]
    2f92:	ebca 0307 	rsb	r3, sl, r7
    2f96:	109b      	asrs	r3, r3, #2
    2f98:	4598      	cmp	r8, r3
    2f9a:	d849      	bhi.n	3030 <__ARM_grp_.debug_frame$8+0x38>
    2f9c:	f1b8 0f00 	cmp.w	r8, #0
    2fa0:	f340 8099 	ble.w	30d6 <__ARM_grp_.debug_frame$8+0x12>
    2fa4:	f108 39ff 	add.w	r9, r8, #4294967295
    2fa8:	4629      	mov	r1, r5
    2faa:	4650      	mov	r0, sl
    2fac:	464f      	mov	r7, r9
    2fae:	f002 f95d 	bl	526c <_ZNSs6assignERKSs>
    2fb2:	f009 0901 	and.w	r9, r9, #1
    2fb6:	3504      	adds	r5, #4
    2fb8:	f10a 0404 	add.w	r4, sl, #4
    2fbc:	b18f      	cbz	r7, 2fe2 <__ARM_grp_.debug_frame$5+0x2e>
    2fbe:	f1b9 0f00 	cmp.w	r9, #0
    2fc2:	d106      	bne.n	2fd2 <__ARM_grp_.debug_frame$5+0x1e>
    2fc4:	4629      	mov	r1, r5
    2fc6:	4620      	mov	r0, r4
    2fc8:	f002 f950 	bl	526c <_ZNSs6assignERKSs>
    2fcc:	3504      	adds	r5, #4
    2fce:	3404      	adds	r4, #4
    2fd0:	3f01      	subs	r7, #1
    2fd2:	4620      	mov	r0, r4
    2fd4:	4629      	mov	r1, r5
    2fd6:	f002 f949 	bl	526c <_ZNSs6assignERKSs>
    2fda:	3504      	adds	r5, #4
    2fdc:	3404      	adds	r4, #4
    2fde:	3f01      	subs	r7, #1
    2fe0:	d1f0      	bne.n	2fc4 <__ARM_grp_.debug_frame$5+0x10>
    2fe2:	ea4f 0888 	mov.w	r8, r8, lsl #2
    2fe6:	6877      	ldr	r7, [r6, #4]
    2fe8:	44c2      	add	sl, r8
    2fea:	4557      	cmp	r7, sl
    2fec:	d01b      	beq.n	3026 <__ARM_grp_.debug_frame$8+0x2e>
    2fee:	4654      	mov	r4, sl
    2ff0:	f854 0b04 	ldr.w	r0, [r4], #4
    2ff4:	4d60      	ldr	r5, [pc, #384]	; (3178 <__ARM_grp_.debug_frame$14+0x1c>)
    2ff6:	ebca 0107 	rsb	r1, sl, r7
    2ffa:	380c      	subs	r0, #12
    2ffc:	1f0a      	subs	r2, r1, #4
    2ffe:	42a8      	cmp	r0, r5
    3000:	f3c2 0380 	ubfx	r3, r2, #2, #1
    3004:	f040 809a 	bne.w	313c <__ARM_grp_.debug_frame$11+0x24>
    3008:	42a7      	cmp	r7, r4
    300a:	d00c      	beq.n	3026 <__ARM_grp_.debug_frame$8+0x2e>
    300c:	b923      	cbnz	r3, 3018 <__ARM_grp_.debug_frame$8+0x20>
    300e:	f854 0b04 	ldr.w	r0, [r4], #4
    3012:	380c      	subs	r0, #12
    3014:	42a8      	cmp	r0, r5
    3016:	d16e      	bne.n	30f6 <__ARM_grp_.debug_frame$8+0x32>
    3018:	f854 0b04 	ldr.w	r0, [r4], #4
    301c:	380c      	subs	r0, #12
    301e:	42a8      	cmp	r0, r5
    3020:	d160      	bne.n	30e4 <__ARM_grp_.debug_frame$8+0x20>
    3022:	42a7      	cmp	r7, r4
    3024:	d1f3      	bne.n	300e <__ARM_grp_.debug_frame$8+0x16>
    3026:	6830      	ldr	r0, [r6, #0]
    3028:	eb00 0308 	add.w	r3, r0, r8
    302c:	6073      	str	r3, [r6, #4]
    302e:	e7ab      	b.n	2f88 <__ARM_grp_.debug_frame$i._ZN4mbed3SPID0Ev+0x24>
    3030:	eb05 0b83 	add.w	fp, r5, r3, lsl #2
    3034:	2b00      	cmp	r3, #0
    3036:	dd2c      	ble.n	3092 <__ARM_grp_.debug_frame$5+0x12>
    3038:	f103 3bff 	add.w	fp, r3, #4294967295
    303c:	4650      	mov	r0, sl
    303e:	4629      	mov	r1, r5
    3040:	465f      	mov	r7, fp
    3042:	f00b 0901 	and.w	r9, fp, #1
    3046:	f002 f911 	bl	526c <_ZNSs6assignERKSs>
    304a:	3504      	adds	r5, #4
    304c:	f10a 0a04 	add.w	sl, sl, #4
    3050:	b19f      	cbz	r7, 307a <__ARM_grp_.debug_frame$11+0x3e>
    3052:	f1b9 0f00 	cmp.w	r9, #0
    3056:	d107      	bne.n	3068 <__ARM_grp_.debug_frame$11+0x2c>
    3058:	4629      	mov	r1, r5
    305a:	4650      	mov	r0, sl
    305c:	f002 f906 	bl	526c <_ZNSs6assignERKSs>
    3060:	3504      	adds	r5, #4
    3062:	f10a 0a04 	add.w	sl, sl, #4
    3066:	3f01      	subs	r7, #1
    3068:	4650      	mov	r0, sl
    306a:	4629      	mov	r1, r5
    306c:	f002 f8fe 	bl	526c <_ZNSs6assignERKSs>
    3070:	3504      	adds	r5, #4
    3072:	3f01      	subs	r7, #1
    3074:	f10a 0a04 	add.w	sl, sl, #4
    3078:	d1ee      	bne.n	3058 <__ARM_grp_.debug_frame$11+0x1c>
    307a:	f8d6 a000 	ldr.w	sl, [r6]
    307e:	6877      	ldr	r7, [r6, #4]
    3080:	6821      	ldr	r1, [r4, #0]
    3082:	ebca 0e07 	rsb	lr, sl, r7
    3086:	f02e 0c03 	bic.w	ip, lr, #3
    308a:	f8d4 9004 	ldr.w	r9, [r4, #4]
    308e:	eb01 0b0c 	add.w	fp, r1, ip
    3092:	45d9      	cmp	r9, fp
    3094:	d022      	beq.n	30dc <__ARM_grp_.debug_frame$8+0x18>
    3096:	ebcb 0309 	rsb	r3, fp, r9
    309a:	f013 0f04 	tst.w	r3, #4
    309e:	d107      	bne.n	30b0 <__ARM_grp_.debug_frame$5+0x30>
    30a0:	b11f      	cbz	r7, 30aa <__ARM_grp_.debug_frame$5+0x2a>
    30a2:	4638      	mov	r0, r7
    30a4:	4659      	mov	r1, fp
    30a6:	f002 f8b4 	bl	5212 <_ZNSsC1ERKSs>
    30aa:	f10b 0b04 	add.w	fp, fp, #4
    30ae:	3704      	adds	r7, #4
    30b0:	b11f      	cbz	r7, 30ba <__ARM_grp_.debug_frame$5+0x3a>
    30b2:	4638      	mov	r0, r7
    30b4:	4659      	mov	r1, fp
    30b6:	f002 f8ac 	bl	5212 <_ZNSsC1ERKSs>
    30ba:	f10b 0b04 	add.w	fp, fp, #4
    30be:	45d9      	cmp	r9, fp
    30c0:	d004      	beq.n	30cc <__ARM_grp_.debug_frame$8+0x8>
    30c2:	3704      	adds	r7, #4
    30c4:	d1ed      	bne.n	30a2 <__ARM_grp_.debug_frame$5+0x22>
    30c6:	e7f0      	b.n	30aa <__ARM_grp_.debug_frame$5+0x2a>
    30c8:	4647      	mov	r7, r8
    30ca:	e713      	b.n	2ef4 <_ZNSt6vectorISsSaISsEEaSERKS1_+0x48>
    30cc:	6832      	ldr	r2, [r6, #0]
    30ce:	eb02 0388 	add.w	r3, r2, r8, lsl #2
    30d2:	6073      	str	r3, [r6, #4]
    30d4:	e758      	b.n	2f88 <__ARM_grp_.debug_frame$i._ZN4mbed3SPID0Ev+0x24>
    30d6:	ea4f 0888 	mov.w	r8, r8, lsl #2
    30da:	e786      	b.n	2fea <__ARM_grp_.debug_frame$5+0x36>
    30dc:	eb0a 0388 	add.w	r3, sl, r8, lsl #2
    30e0:	6073      	str	r3, [r6, #4]
    30e2:	e751      	b.n	2f88 <__ARM_grp_.debug_frame$i._ZN4mbed3SPID0Ev+0x24>
    30e4:	6883      	ldr	r3, [r0, #8]
    30e6:	1e5a      	subs	r2, r3, #1
    30e8:	2b00      	cmp	r3, #0
    30ea:	6082      	str	r2, [r0, #8]
    30ec:	dc99      	bgt.n	3022 <__ARM_grp_.debug_frame$8+0x2a>
    30ee:	a902      	add	r1, sp, #8
    30f0:	f002 f8a3 	bl	523a <_ZNSs4_Rep10_M_destroyERKSaIcE>
    30f4:	e795      	b.n	3022 <__ARM_grp_.debug_frame$8+0x2a>
    30f6:	6883      	ldr	r3, [r0, #8]
    30f8:	1e5a      	subs	r2, r3, #1
    30fa:	2b00      	cmp	r3, #0
    30fc:	6082      	str	r2, [r0, #8]
    30fe:	dc8b      	bgt.n	3018 <__ARM_grp_.debug_frame$8+0x20>
    3100:	a902      	add	r1, sp, #8
    3102:	f002 f89a 	bl	523a <_ZNSs4_Rep10_M_destroyERKSaIcE>
    3106:	e787      	b.n	3018 <__ARM_grp_.debug_frame$8+0x20>
    3108:	6882      	ldr	r2, [r0, #8]
    310a:	1e51      	subs	r1, r2, #1
    310c:	2a00      	cmp	r2, #0
    310e:	6081      	str	r1, [r0, #8]
    3110:	f73f af2f 	bgt.w	2f72 <__ARM_grp_.debug_frame$i._ZN4mbed3SPID0Ev+0xe>
    3114:	a903      	add	r1, sp, #12
    3116:	9300      	str	r3, [sp, #0]
    3118:	f002 f88f 	bl	523a <_ZNSs4_Rep10_M_destroyERKSaIcE>
    311c:	9b00      	ldr	r3, [sp, #0]
    311e:	e728      	b.n	2f72 <__ARM_grp_.debug_frame$i._ZN4mbed3SPID0Ev+0xe>
    3120:	6882      	ldr	r2, [r0, #8]
    3122:	1e51      	subs	r1, r2, #1
    3124:	2a00      	cmp	r2, #0
    3126:	6081      	str	r1, [r0, #8]
    3128:	f73f af1d 	bgt.w	2f66 <__ARM_grp_.debug_frame$i._ZN4mbed3SPID0Ev+0x2>
    312c:	a903      	add	r1, sp, #12
    312e:	9300      	str	r3, [sp, #0]
    3130:	f002 f883 	bl	523a <_ZNSs4_Rep10_M_destroyERKSaIcE>
    3134:	9b00      	ldr	r3, [sp, #0]
    3136:	e716      	b.n	2f66 <__ARM_grp_.debug_frame$i._ZN4mbed3SPID0Ev+0x2>
    3138:	f001 fec2 	bl	4ec0 <_ZSt17__throw_bad_allocv>
    313c:	6882      	ldr	r2, [r0, #8]
    313e:	1e51      	subs	r1, r2, #1
    3140:	2a00      	cmp	r2, #0
    3142:	6081      	str	r1, [r0, #8]
    3144:	f73f af60 	bgt.w	3008 <__ARM_grp_.debug_frame$8+0x10>
    3148:	a902      	add	r1, sp, #8
    314a:	9300      	str	r3, [sp, #0]
    314c:	f002 f875 	bl	523a <_ZNSs4_Rep10_M_destroyERKSaIcE>
    3150:	9b00      	ldr	r3, [sp, #0]
    3152:	e759      	b.n	3008 <__ARM_grp_.debug_frame$8+0x10>
    3154:	6888      	ldr	r0, [r1, #8]
    3156:	f100 3cff 	add.w	ip, r0, #4294967295
    315a:	2800      	cmp	r0, #0
    315c:	f8c1 c008 	str.w	ip, [r1, #8]
    3160:	f73f aef8 	bgt.w	2f54 <__ARM_grp_.debug_frame$t._ZN4mbed19rpc_function_callerIPKc7PinNameS3_S3_S2_XadL_ZNS_4Base9constructINS_3SPIES3_S3_S3_S2_EES2_T0_T1_T2_T3_EEEEvS2_Pc+0x5c>
    3164:	4608      	mov	r0, r1
    3166:	a903      	add	r1, sp, #12
    3168:	9201      	str	r2, [sp, #4]
    316a:	9300      	str	r3, [sp, #0]
    316c:	f002 f865 	bl	523a <_ZNSs4_Rep10_M_destroyERKSaIcE>
    3170:	9b00      	ldr	r3, [sp, #0]
    3172:	9a01      	ldr	r2, [sp, #4]
    3174:	e6ee      	b.n	2f54 <__ARM_grp_.debug_frame$t._ZN4mbed19rpc_function_callerIPKc7PinNameS3_S3_S2_XadL_ZNS_4Base9constructINS_3SPIES3_S3_S3_S2_EES2_T0_T1_T2_T3_EEEEvS2_Pc+0x5c>
    3176:	bf00      	nop
    3178:	100009f8 	.word	0x100009f8

0000317c <_ZN10RingBufferI5BlockLi128EE3getEiRS0_>:
    317c:	e92d 4ff8 	stmdb	sp!, {r3, r4, r5, r6, r7, r8, r9, sl, fp, lr}
    3180:	f500 5418 	add.w	r4, r0, #9728	; 0x2600
    3184:	6823      	ldr	r3, [r4, #0]
    3186:	6866      	ldr	r6, [r4, #4]
    3188:	4614      	mov	r4, r2
    318a:	42b3      	cmp	r3, r6
    318c:	d023      	beq.n	31d6 <__ARM_grp_.debug_frame$17+0x36>
    318e:	b311      	cbz	r1, 31d6 <__ARM_grp_.debug_frame$17+0x36>
    3190:	3301      	adds	r3, #1
    3192:	f003 037f 	and.w	r3, r3, #127	; 0x7f
    3196:	1e4a      	subs	r2, r1, #1
    3198:	42b3      	cmp	r3, r6
    319a:	f002 0501 	and.w	r5, r2, #1
    319e:	d01a      	beq.n	31d6 <__ARM_grp_.debug_frame$17+0x36>
    31a0:	2201      	movs	r2, #1
    31a2:	428a      	cmp	r2, r1
    31a4:	d017      	beq.n	31d6 <__ARM_grp_.debug_frame$17+0x36>
    31a6:	b175      	cbz	r5, 31c6 <__ARM_grp_.debug_frame$17+0x26>
    31a8:	189f      	adds	r7, r3, r2
    31aa:	f007 037f 	and.w	r3, r7, #127	; 0x7f
    31ae:	42b3      	cmp	r3, r6
    31b0:	d011      	beq.n	31d6 <__ARM_grp_.debug_frame$17+0x36>
    31b2:	2202      	movs	r2, #2
    31b4:	428a      	cmp	r2, r1
    31b6:	d106      	bne.n	31c6 <__ARM_grp_.debug_frame$17+0x26>
    31b8:	e00d      	b.n	31d6 <__ARM_grp_.debug_frame$17+0x36>
    31ba:	f005 037f 	and.w	r3, r5, #127	; 0x7f
    31be:	42b3      	cmp	r3, r6
    31c0:	d009      	beq.n	31d6 <__ARM_grp_.debug_frame$17+0x36>
    31c2:	428a      	cmp	r2, r1
    31c4:	d007      	beq.n	31d6 <__ARM_grp_.debug_frame$17+0x36>
    31c6:	1c5d      	adds	r5, r3, #1
    31c8:	f005 037f 	and.w	r3, r5, #127	; 0x7f
    31cc:	1c5d      	adds	r5, r3, #1
    31ce:	42b3      	cmp	r3, r6
    31d0:	f102 0202 	add.w	r2, r2, #2
    31d4:	d1f1      	bne.n	31ba <__ARM_grp_.debug_frame$17+0x1a>
    31d6:	264c      	movs	r6, #76	; 0x4c
    31d8:	fb06 0503 	mla	r5, r6, r3, r0
    31dc:	4620      	mov	r0, r4
    31de:	4629      	mov	r1, r5
    31e0:	f7ff fe64 	bl	2eac <_ZNSt6vectorISsSaISsEEaSERKS1_>
    31e4:	6c6b      	ldr	r3, [r5, #68]	; 0x44
    31e6:	6ca8      	ldr	r0, [r5, #72]	; 0x48
    31e8:	f8b5 c020 	ldrh.w	ip, [r5, #32]
    31ec:	6463      	str	r3, [r4, #68]	; 0x44
    31ee:	f105 010c 	add.w	r1, r5, #12
    31f2:	f105 0214 	add.w	r2, r5, #20
    31f6:	f104 0314 	add.w	r3, r4, #20
    31fa:	f8d5 8024 	ldr.w	r8, [r5, #36]	; 0x24
    31fe:	6aef      	ldr	r7, [r5, #44]	; 0x2c
    3200:	6b2e      	ldr	r6, [r5, #48]	; 0x30
    3202:	f8d5 9034 	ldr.w	r9, [r5, #52]	; 0x34
    3206:	f8d5 a038 	ldr.w	sl, [r5, #56]	; 0x38
    320a:	f8d5 b03c 	ldr.w	fp, [r5, #60]	; 0x3c
    320e:	64a0      	str	r0, [r4, #72]	; 0x48
    3210:	f8a4 c020 	strh.w	ip, [r4, #32]
    3214:	c903      	ldmia	r1, {r0, r1}
    3216:	f8d5 c028 	ldr.w	ip, [r5, #40]	; 0x28
    321a:	60e0      	str	r0, [r4, #12]
    321c:	8221      	strh	r1, [r4, #16]
    321e:	ca07      	ldmia	r2, {r0, r1, r2}
    3220:	e883 0007 	stmia.w	r3, {r0, r1, r2}
    3224:	f8b5 0040 	ldrh.w	r0, [r5, #64]	; 0x40
    3228:	f8b5 5042 	ldrh.w	r5, [r5, #66]	; 0x42
    322c:	f8c4 8024 	str.w	r8, [r4, #36]	; 0x24
    3230:	f8c4 c028 	str.w	ip, [r4, #40]	; 0x28
    3234:	62e7      	str	r7, [r4, #44]	; 0x2c
    3236:	6326      	str	r6, [r4, #48]	; 0x30
    3238:	f8c4 9034 	str.w	r9, [r4, #52]	; 0x34
    323c:	f8c4 a038 	str.w	sl, [r4, #56]	; 0x38
    3240:	f8c4 b03c 	str.w	fp, [r4, #60]	; 0x3c
    3244:	f8a4 0040 	strh.w	r0, [r4, #64]	; 0x40
    3248:	f8a4 5042 	strh.w	r5, [r4, #66]	; 0x42
    324c:	e8bd 8ff8 	ldmia.w	sp!, {r3, r4, r5, r6, r7, r8, r9, sl, fp, pc}

00003250 <_ZN10RingBufferI5BlockLi128EE9push_backES0_>:
    3250:	e92d 4ff8 	stmdb	sp!, {r3, r4, r5, r6, r7, r8, r9, sl, fp, lr}
    3254:	f500 5618 	add.w	r6, r0, #9728	; 0x2600
    3258:	6875      	ldr	r5, [r6, #4]
    325a:	244c      	movs	r4, #76	; 0x4c
    325c:	fb04 0405 	mla	r4, r4, r5, r0
    3260:	460d      	mov	r5, r1
    3262:	4620      	mov	r0, r4
    3264:	f7ff fe22 	bl	2eac <_ZNSt6vectorISsSaISsEEaSERKS1_>
    3268:	8c2f      	ldrh	r7, [r5, #32]
    326a:	6c6b      	ldr	r3, [r5, #68]	; 0x44
    326c:	6ca9      	ldr	r1, [r5, #72]	; 0x48
    326e:	8427      	strh	r7, [r4, #32]
    3270:	6aef      	ldr	r7, [r5, #44]	; 0x2c
    3272:	6463      	str	r3, [r4, #68]	; 0x44
    3274:	f105 000c 	add.w	r0, r5, #12
    3278:	f104 0314 	add.w	r3, r4, #20
    327c:	f105 0214 	add.w	r2, r5, #20
    3280:	f8d5 8024 	ldr.w	r8, [r5, #36]	; 0x24
    3284:	f8d5 c028 	ldr.w	ip, [r5, #40]	; 0x28
    3288:	f8d5 9030 	ldr.w	r9, [r5, #48]	; 0x30
    328c:	f8d5 a034 	ldr.w	sl, [r5, #52]	; 0x34
    3290:	f8d5 b038 	ldr.w	fp, [r5, #56]	; 0x38
    3294:	64a1      	str	r1, [r4, #72]	; 0x48
    3296:	62e7      	str	r7, [r4, #44]	; 0x2c
    3298:	c803      	ldmia	r0, {r0, r1}
    329a:	6bef      	ldr	r7, [r5, #60]	; 0x3c
    329c:	60e0      	str	r0, [r4, #12]
    329e:	8221      	strh	r1, [r4, #16]
    32a0:	ca07      	ldmia	r2, {r0, r1, r2}
    32a2:	e883 0007 	stmia.w	r3, {r0, r1, r2}
    32a6:	f8b5 2040 	ldrh.w	r2, [r5, #64]	; 0x40
    32aa:	f8b5 5042 	ldrh.w	r5, [r5, #66]	; 0x42
    32ae:	f8c4 8024 	str.w	r8, [r4, #36]	; 0x24
    32b2:	f8c4 c028 	str.w	ip, [r4, #40]	; 0x28
    32b6:	f8c4 9030 	str.w	r9, [r4, #48]	; 0x30
    32ba:	f8c4 a034 	str.w	sl, [r4, #52]	; 0x34
    32be:	f8c4 b038 	str.w	fp, [r4, #56]	; 0x38
    32c2:	63e7      	str	r7, [r4, #60]	; 0x3c
    32c4:	f8a4 2040 	strh.w	r2, [r4, #64]	; 0x40
    32c8:	f8a4 5042 	strh.w	r5, [r4, #66]	; 0x42
    32cc:	6871      	ldr	r1, [r6, #4]
    32ce:	1c48      	adds	r0, r1, #1
    32d0:	f000 037f 	and.w	r3, r0, #127	; 0x7f
    32d4:	6073      	str	r3, [r6, #4]
    32d6:	e8bd 8ff8 	ldmia.w	sp!, {r3, r4, r5, r6, r7, r8, r9, sl, fp, pc}
    32da:	bf00      	nop
    32dc:	0000      	movs	r0, r0
	...

000032e0 <_ZN7Planner12append_blockEPiddPd>:
    32e0:	e92d 4ff0 	stmdb	sp!, {r4, r5, r6, r7, r8, r9, sl, fp, lr}
    32e4:	4605      	mov	r5, r0
    32e6:	460e      	mov	r6, r1
    32e8:	6808      	ldr	r0, [r1, #0]
    32ea:	68a9      	ldr	r1, [r5, #8]
    32ec:	2401      	movs	r4, #1
    32ee:	b09d      	sub	sp, #116	; 0x74
    32f0:	f505 5718 	add.w	r7, r5, #9728	; 0x2600
    32f4:	4288      	cmp	r0, r1
    32f6:	773c      	strb	r4, [r7, #28]
    32f8:	4692      	mov	sl, r2
    32fa:	469b      	mov	fp, r3
    32fc:	f8dd 90a0 	ldr.w	r9, [sp, #160]	; 0xa0
    3300:	f000 817f 	beq.w	3602 <__ARM_grp_.debug_frame$t._ZN4mbed17rpc_method_callerIiNS_6SerialEXadL_ZNS1_8readableEvEEEEvPNS_4BaseEPKcPc+0x2e>
    3304:	f107 0814 	add.w	r8, r7, #20
    3308:	f107 0418 	add.w	r4, r7, #24
    330c:	e001      	b.n	3312 <__ARM_grp_.debug_frame$32+0x1e>
    330e:	f015 fc61 	bl	18bd4 <wait_us>
    3312:	f8d8 1000 	ldr.w	r1, [r8]
    3316:	6822      	ldr	r2, [r4, #0]
    3318:	2064      	movs	r0, #100	; 0x64
    331a:	4291      	cmp	r1, r2
    331c:	bfcc      	ite	gt
    331e:	f04f 0e80 	movgt.w	lr, #128	; 0x80
    3322:	f04f 0e00 	movle.w	lr, #0
    3326:	1a53      	subs	r3, r2, r1
    3328:	eb03 0c0e 	add.w	ip, r3, lr
    332c:	f1bc 0f7e 	cmp.w	ip, #126	; 0x7e
    3330:	dced      	bgt.n	330e <__ARM_grp_.debug_frame$32+0x1a>
    3332:	a807      	add	r0, sp, #28
    3334:	f7fe ff5e 	bl	21f4 <_ZN5BlockC1Ev>
    3338:	f105 0014 	add.w	r0, r5, #20
    333c:	a907      	add	r1, sp, #28
    333e:	f7ff ff87 	bl	3250 <_ZN10RingBufferI5BlockLi128EE9push_backES0_>
    3342:	9807      	ldr	r0, [sp, #28]
    3344:	9a08      	ldr	r2, [sp, #32]
    3346:	4290      	cmp	r0, r2
    3348:	d021      	beq.n	338e <__ARM_grp_.debug_frame$38+0x12>
    334a:	4604      	mov	r4, r0
    334c:	f854 1b04 	ldr.w	r1, [r4], #4
    3350:	1a10      	subs	r0, r2, r0
    3352:	4ba7      	ldr	r3, [pc, #668]	; (35f0 <__ARM_grp_.debug_frame$t._ZN4mbed17rpc_method_callerIiNS_6SerialEXadL_ZNS1_8readableEvEEEEvPNS_4BaseEPKcPc+0x1c>)
    3354:	f1a0 0804 	sub.w	r8, r0, #4
    3358:	f1a1 000c 	sub.w	r0, r1, #12
    335c:	4283      	cmp	r3, r0
    335e:	f3c8 0880 	ubfx	r8, r8, #2, #1
    3362:	f040 8180 	bne.w	3666 <__ARM_grp_.debug_frame$t._ZN4mbed17rpc_method_callerIiNS_6SerialEXadL_ZNS1_9writeableEvEEEEvPNS_4BaseEPKcPc+0x42>
    3366:	42a2      	cmp	r2, r4
    3368:	d010      	beq.n	338c <__ARM_grp_.debug_frame$38+0x10>
    336a:	f1b8 0f00 	cmp.w	r8, #0
    336e:	d105      	bne.n	337c <__ARM_grp_.debug_frame$38>
    3370:	f854 0b04 	ldr.w	r0, [r4], #4
    3374:	380c      	subs	r0, #12
    3376:	4283      	cmp	r3, r0
    3378:	f040 8155 	bne.w	3626 <__ARM_grp_.debug_frame$t._ZN4mbed17rpc_method_callerIiNS_6SerialEXadL_ZNS1_9writeableEvEEEEvPNS_4BaseEPKcPc+0x2>
    337c:	f854 0b04 	ldr.w	r0, [r4], #4
    3380:	380c      	subs	r0, #12
    3382:	4283      	cmp	r3, r0
    3384:	f040 815f 	bne.w	3646 <__ARM_grp_.debug_frame$t._ZN4mbed17rpc_method_callerIiNS_6SerialEXadL_ZNS1_9writeableEvEEEEvPNS_4BaseEPKcPc+0x22>
    3388:	42a2      	cmp	r2, r4
    338a:	d1f1      	bne.n	3370 <__ARM_grp_.debug_frame$35+0x38>
    338c:	9807      	ldr	r0, [sp, #28]
    338e:	b108      	cbz	r0, 3394 <__ARM_grp_.debug_frame$38+0x18>
    3390:	f002 fa42 	bl	5818 <_ZdlPv>
    3394:	697c      	ldr	r4, [r7, #20]
    3396:	69ba      	ldr	r2, [r7, #24]
    3398:	4294      	cmp	r4, r2
    339a:	f300 811a 	bgt.w	35d2 <__ARM_grp_.debug_frame$t._ZN4mbed17rpc_method_callerINS_6SerialEiXadL_ZNS1_4baudEiEEEEvPNS_4BaseEPKcPc+0x4e>
    339e:	d02a      	beq.n	33f6 <__ARM_grp_.debug_frame$41+0x2e>
    33a0:	1e53      	subs	r3, r2, #1
    33a2:	1b18      	subs	r0, r3, r4
    33a4:	2800      	cmp	r0, #0
    33a6:	f000 8127 	beq.w	35f8 <__ARM_grp_.debug_frame$t._ZN4mbed17rpc_method_callerIiNS_6SerialEXadL_ZNS1_8readableEvEEEEvPNS_4BaseEPKcPc+0x24>
    33aa:	3401      	adds	r4, #1
    33ac:	f004 047f 	and.w	r4, r4, #127	; 0x7f
    33b0:	1e41      	subs	r1, r0, #1
    33b2:	42a2      	cmp	r2, r4
    33b4:	f001 0101 	and.w	r1, r1, #1
    33b8:	d01d      	beq.n	33f6 <__ARM_grp_.debug_frame$41+0x2e>
    33ba:	2301      	movs	r3, #1
    33bc:	4283      	cmp	r3, r0
    33be:	f000 811b 	beq.w	35f8 <__ARM_grp_.debug_frame$t._ZN4mbed17rpc_method_callerIiNS_6SerialEXadL_ZNS1_8readableEvEEEEvPNS_4BaseEPKcPc+0x24>
    33c2:	b171      	cbz	r1, 33e2 <__ARM_grp_.debug_frame$41+0x1a>
    33c4:	eb04 0c03 	add.w	ip, r4, r3
    33c8:	f00c 047f 	and.w	r4, ip, #127	; 0x7f
    33cc:	42a2      	cmp	r2, r4
    33ce:	d012      	beq.n	33f6 <__ARM_grp_.debug_frame$41+0x2e>
    33d0:	2302      	movs	r3, #2
    33d2:	4283      	cmp	r3, r0
    33d4:	d105      	bne.n	33e2 <__ARM_grp_.debug_frame$41+0x1a>
    33d6:	e10f      	b.n	35f8 <__ARM_grp_.debug_frame$t._ZN4mbed17rpc_method_callerIiNS_6SerialEXadL_ZNS1_8readableEvEEEEvPNS_4BaseEPKcPc+0x24>
    33d8:	42a2      	cmp	r2, r4
    33da:	d00c      	beq.n	33f6 <__ARM_grp_.debug_frame$41+0x2e>
    33dc:	4283      	cmp	r3, r0
    33de:	f000 810b 	beq.w	35f8 <__ARM_grp_.debug_frame$t._ZN4mbed17rpc_method_callerIiNS_6SerialEXadL_ZNS1_8readableEvEEEEvPNS_4BaseEPKcPc+0x24>
    33e2:	1c61      	adds	r1, r4, #1
    33e4:	f001 017f 	and.w	r1, r1, #127	; 0x7f
    33e8:	1c4c      	adds	r4, r1, #1
    33ea:	428a      	cmp	r2, r1
    33ec:	f004 047f 	and.w	r4, r4, #127	; 0x7f
    33f0:	f103 0302 	add.w	r3, r3, #2
    33f4:	d1f0      	bne.n	33d8 <__ARM_grp_.debug_frame$41+0x10>
    33f6:	2400      	movs	r4, #0
    33f8:	f8d6 c004 	ldr.w	ip, [r6, #4]
    33fc:	68b2      	ldr	r2, [r6, #8]
    33fe:	f8d5 e00c 	ldr.w	lr, [r5, #12]
    3402:	692b      	ldr	r3, [r5, #16]
    3404:	6830      	ldr	r0, [r6, #0]
    3406:	68a9      	ldr	r1, [r5, #8]
    3408:	ebce 0e0c 	rsb	lr, lr, ip
    340c:	1ad3      	subs	r3, r2, r3
    340e:	1a41      	subs	r1, r0, r1
    3410:	ea8e 72ee 	eor.w	r2, lr, lr, asr #31
    3414:	eba2 72ee 	sub.w	r2, r2, lr, asr #31
    3418:	2b00      	cmp	r3, #0
    341a:	bfb8      	it	lt
    341c:	425b      	neglt	r3, r3
    341e:	b29b      	uxth	r3, r3
    3420:	b290      	uxth	r0, r2
    3422:	2900      	cmp	r1, #0
    3424:	bfb8      	it	lt
    3426:	4249      	neglt	r1, r1
    3428:	4298      	cmp	r0, r3
    342a:	bf2c      	ite	cs
    342c:	4686      	movcs	lr, r0
    342e:	469e      	movcc	lr, r3
    3430:	fa1f f881 	uxth.w	r8, r1
    3434:	45c6      	cmp	lr, r8
    3436:	bfa8      	it	ge
    3438:	46f0      	movge	r8, lr
    343a:	81e2      	strh	r2, [r4, #14]
    343c:	8223      	strh	r3, [r4, #16]
    343e:	81a1      	strh	r1, [r4, #12]
    3440:	64a5      	str	r5, [r4, #72]	; 0x48
    3442:	e9d9 0100 	ldrd	r0, r1, [r9]
    3446:	f8a4 8020 	strh.w	r8, [r4, #32]
    344a:	f007 fd75 	bl	af38 <__aeabi_d2f>
    344e:	6160      	str	r0, [r4, #20]
    3450:	e9d9 0102 	ldrd	r0, r1, [r9, #8]
    3454:	f007 fd70 	bl	af38 <__aeabi_d2f>
    3458:	61a0      	str	r0, [r4, #24]
    345a:	e9d9 0104 	ldrd	r0, r1, [r9, #16]
    345e:	f007 fd6b 	bl	af38 <__aeabi_d2f>
    3462:	4652      	mov	r2, sl
    3464:	465b      	mov	r3, fp
    3466:	61e0      	str	r0, [r4, #28]
    3468:	e9dd 0126 	ldrd	r0, r1, [sp, #152]	; 0x98
    346c:	f007 fbac 	bl	abc8 <__aeabi_ddiv>
    3470:	a35b      	add	r3, pc, #364	; (adr r3, 35e0 <__ARM_grp_.debug_frame$t._ZN4mbed17rpc_method_callerIiNS_6SerialEXadL_ZNS1_8readableEvEEEEvPNS_4BaseEPKcPc+0xc>)
    3472:	e9d3 2300 	ldrd	r2, r3, [r3]
    3476:	f007 fa7d 	bl	a974 <__aeabi_dmul>
    347a:	4602      	mov	r2, r0
    347c:	460b      	mov	r3, r1
    347e:	a15a      	add	r1, pc, #360	; (adr r1, 35e8 <__ARM_grp_.debug_frame$t._ZN4mbed17rpc_method_callerIiNS_6SerialEXadL_ZNS1_8readableEvEEEEvPNS_4BaseEPKcPc+0x14>)
    3480:	e9d1 0100 	ldrd	r0, r1, [r1]
    3484:	f007 fba0 	bl	abc8 <__aeabi_ddiv>
    3488:	4682      	mov	sl, r0
    348a:	468b      	mov	fp, r1
    348c:	4640      	mov	r0, r8
    348e:	f007 fa0b 	bl	a8a8 <__aeabi_i2d>
    3492:	4652      	mov	r2, sl
    3494:	465b      	mov	r3, fp
    3496:	f007 fa6d 	bl	a974 <__aeabi_dmul>
    349a:	f007 fd2d 	bl	aef8 <__aeabi_d2uiz>
    349e:	4652      	mov	r2, sl
    34a0:	465b      	mov	r3, fp
    34a2:	6260      	str	r0, [r4, #36]	; 0x24
    34a4:	e9dd 0126 	ldrd	r0, r1, [sp, #152]	; 0x98
    34a8:	f007 fa64 	bl	a974 <__aeabi_dmul>
    34ac:	f007 fd44 	bl	af38 <__aeabi_d2f>
    34b0:	62a0      	str	r0, [r4, #40]	; 0x28
    34b2:	e9dd 0126 	ldrd	r0, r1, [sp, #152]	; 0x98
    34b6:	f007 fd3f 	bl	af38 <__aeabi_d2f>
    34ba:	f04f 0e00 	mov.w	lr, #0
    34be:	4681      	mov	r9, r0
    34c0:	2200      	movs	r2, #0
    34c2:	e9d7 011c 	ldrd	r0, r1, [r7, #112]	; 0x70
    34c6:	4b4b      	ldr	r3, [pc, #300]	; (35f4 <__ARM_grp_.debug_frame$t._ZN4mbed17rpc_method_callerIiNS_6SerialEXadL_ZNS1_8readableEvEEEEvPNS_4BaseEPKcPc+0x20>)
    34c8:	f8c4 e030 	str.w	lr, [r4, #48]	; 0x30
    34cc:	f8c4 902c 	str.w	r9, [r4, #44]	; 0x2c
    34d0:	f007 fa50 	bl	a974 <__aeabi_dmul>
    34d4:	686b      	ldr	r3, [r5, #4]
    34d6:	4682      	mov	sl, r0
    34d8:	68db      	ldr	r3, [r3, #12]
    34da:	468b      	mov	fp, r1
    34dc:	f8d3 00b8 	ldr.w	r0, [r3, #184]	; 0xb8
    34e0:	f007 f9e2 	bl	a8a8 <__aeabi_i2d>
    34e4:	4602      	mov	r2, r0
    34e6:	460b      	mov	r3, r1
    34e8:	4650      	mov	r0, sl
    34ea:	4659      	mov	r1, fp
    34ec:	f007 fb6c 	bl	abc8 <__aeabi_ddiv>
    34f0:	e9cd 0104 	strd	r0, r1, [sp, #16]
    34f4:	4648      	mov	r0, r9
    34f6:	f007 f9e9 	bl	a8cc <__aeabi_f2d>
    34fa:	4682      	mov	sl, r0
    34fc:	4640      	mov	r0, r8
    34fe:	468b      	mov	fp, r1
    3500:	f007 f9c2 	bl	a888 <__aeabi_ui2d>
    3504:	4602      	mov	r2, r0
    3506:	460b      	mov	r3, r1
    3508:	4650      	mov	r0, sl
    350a:	4659      	mov	r1, fp
    350c:	f007 fb5c 	bl	abc8 <__aeabi_ddiv>
    3510:	4602      	mov	r2, r0
    3512:	460b      	mov	r3, r1
    3514:	e9dd 0104 	ldrd	r0, r1, [sp, #16]
    3518:	f007 fb56 	bl	abc8 <__aeabi_ddiv>
    351c:	f005 fae4 	bl	8ae8 <ceil>
    3520:	f007 fcea 	bl	aef8 <__aeabi_d2uiz>
    3524:	6360      	str	r0, [r4, #52]	; 0x34
    3526:	4620      	mov	r0, r4
    3528:	f7fe fe70 	bl	220c <_ZN5Block29compute_factor_for_safe_speedEv>
    352c:	4689      	mov	r9, r1
    352e:	4602      	mov	r2, r0
    3530:	460b      	mov	r3, r1
    3532:	4680      	mov	r8, r0
    3534:	4620      	mov	r0, r4
    3536:	e9cd 8900 	strd	r8, r9, [sp]
    353a:	f7fe fe75 	bl	2228 <_ZN5Block19calculate_trapezoidEdd>
    353e:	686b      	ldr	r3, [r5, #4]
    3540:	2200      	movs	r2, #0
    3542:	68db      	ldr	r3, [r3, #12]
    3544:	6462      	str	r2, [r4, #68]	; 0x44
    3546:	f8b3 20d6 	ldrh.w	r2, [r3, #214]	; 0xd6
    354a:	6831      	ldr	r1, [r6, #0]
    354c:	f88d 2068 	strb.w	r2, [sp, #104]	; 0x68
    3550:	f8b3 00d8 	ldrh.w	r0, [r3, #216]	; 0xd8
    3554:	68aa      	ldr	r2, [r5, #8]
    3556:	f88d 0069 	strb.w	r0, [sp, #105]	; 0x69
    355a:	f8b3 30da 	ldrh.w	r3, [r3, #218]	; 0xda
    355e:	4291      	cmp	r1, r2
    3560:	f88d 306a 	strb.w	r3, [sp, #106]	; 0x6a
    3564:	da08      	bge.n	3578 <__ARM_grp_.debug_frame$i._ZN4mbed6SerialD1Ev+0x38>
    3566:	f89d 0068 	ldrb.w	r0, [sp, #104]	; 0x68
    356a:	2201      	movs	r2, #1
    356c:	fa12 f300 	lsls.w	r3, r2, r0
    3570:	6c61      	ldr	r1, [r4, #68]	; 0x44
    3572:	ea41 0003 	orr.w	r0, r1, r3
    3576:	6460      	str	r0, [r4, #68]	; 0x44
    3578:	6871      	ldr	r1, [r6, #4]
    357a:	68eb      	ldr	r3, [r5, #12]
    357c:	4299      	cmp	r1, r3
    357e:	da08      	bge.n	3592 <__ARM_grp_.debug_frame$t._ZN4mbed17rpc_method_callerINS_6SerialEiXadL_ZNS1_4baudEiEEEEvPNS_4BaseEPKcPc+0xe>
    3580:	f89d 3069 	ldrb.w	r3, [sp, #105]	; 0x69
    3584:	2001      	movs	r0, #1
    3586:	fa10 f103 	lsls.w	r1, r0, r3
    358a:	6c62      	ldr	r2, [r4, #68]	; 0x44
    358c:	ea42 0001 	orr.w	r0, r2, r1
    3590:	6460      	str	r0, [r4, #68]	; 0x44
    3592:	68b1      	ldr	r1, [r6, #8]
    3594:	692a      	ldr	r2, [r5, #16]
    3596:	4291      	cmp	r1, r2
    3598:	da08      	bge.n	35ac <__ARM_grp_.debug_frame$t._ZN4mbed17rpc_method_callerINS_6SerialEiXadL_ZNS1_4baudEiEEEEvPNS_4BaseEPKcPc+0x28>
    359a:	f89d 306a 	ldrb.w	r3, [sp, #106]	; 0x6a
    359e:	2201      	movs	r2, #1
    35a0:	fa12 f003 	lsls.w	r0, r2, r3
    35a4:	6c61      	ldr	r1, [r4, #68]	; 0x44
    35a6:	ea41 0300 	orr.w	r3, r1, r0
    35aa:	6463      	str	r3, [r4, #68]	; 0x44
    35ac:	f105 0e08 	add.w	lr, r5, #8
    35b0:	e896 0007 	ldmia.w	r6, {r0, r1, r2}
    35b4:	e88e 0007 	stmia.w	lr, {r0, r1, r2}
    35b8:	4628      	mov	r0, r5
    35ba:	f7ff fc23 	bl	2e04 <_ZN7Planner11recalculateEv>
    35be:	2000      	movs	r0, #0
    35c0:	7738      	strb	r0, [r7, #28]
    35c2:	2103      	movs	r1, #3
    35c4:	6868      	ldr	r0, [r5, #4]
    35c6:	462a      	mov	r2, r5
    35c8:	f7fd fde6 	bl	1198 <_ZN6Kernel10call_eventEjPv>
    35cc:	b01d      	add	sp, #116	; 0x74
    35ce:	e8bd 8ff0 	ldmia.w	sp!, {r4, r5, r6, r7, r8, r9, sl, fp, pc}
    35d2:	f102 087f 	add.w	r8, r2, #127	; 0x7f
    35d6:	ebc4 0008 	rsb	r0, r4, r8
    35da:	e6e3      	b.n	33a4 <__ARM_grp_.debug_frame$38+0x28>
    35dc:	f3af 8000 	nop.w
    35e0:	00000000 	.word	0x00000000
    35e4:	412e8480 	.word	0x412e8480
    35e8:	00000000 	.word	0x00000000
    35ec:	418c9c38 	.word	0x418c9c38
    35f0:	100009f8 	.word	0x100009f8
    35f4:	404e0000 	.word	0x404e0000
    35f8:	224c      	movs	r2, #76	; 0x4c
    35fa:	fb02 5404 	mla	r4, r2, r4, r5
    35fe:	3414      	adds	r4, #20
    3600:	e6fa      	b.n	33f8 <__ARM_grp_.debug_frame$41+0x30>
    3602:	6872      	ldr	r2, [r6, #4]
    3604:	68eb      	ldr	r3, [r5, #12]
    3606:	429a      	cmp	r2, r3
    3608:	d006      	beq.n	3618 <__ARM_grp_.debug_frame$t._ZN4mbed17rpc_method_callerIiNS_6SerialEXadL_ZNS1_8readableEvEEEEvPNS_4BaseEPKcPc+0x44>
    360a:	f505 5818 	add.w	r8, r5, #9728	; 0x2600
    360e:	4644      	mov	r4, r8
    3610:	3418      	adds	r4, #24
    3612:	f108 0814 	add.w	r8, r8, #20
    3616:	e67c      	b.n	3312 <__ARM_grp_.debug_frame$32+0x1e>
    3618:	68b0      	ldr	r0, [r6, #8]
    361a:	6929      	ldr	r1, [r5, #16]
    361c:	4288      	cmp	r0, r1
    361e:	d1f4      	bne.n	360a <__ARM_grp_.debug_frame$t._ZN4mbed17rpc_method_callerIiNS_6SerialEXadL_ZNS1_8readableEvEEEEvPNS_4BaseEPKcPc+0x36>
    3620:	2200      	movs	r2, #0
    3622:	773a      	strb	r2, [r7, #28]
    3624:	e7d2      	b.n	35cc <__ARM_grp_.debug_frame$t._ZN4mbed17rpc_method_callerINS_6SerialEiXadL_ZNS1_4baudEiEEEEvPNS_4BaseEPKcPc+0x48>
    3626:	6881      	ldr	r1, [r0, #8]
    3628:	f101 3cff 	add.w	ip, r1, #4294967295
    362c:	2900      	cmp	r1, #0
    362e:	f8c0 c008 	str.w	ip, [r0, #8]
    3632:	f73f aea3 	bgt.w	337c <__ARM_grp_.debug_frame$38>
    3636:	a91b      	add	r1, sp, #108	; 0x6c
    3638:	9202      	str	r2, [sp, #8]
    363a:	9303      	str	r3, [sp, #12]
    363c:	f001 fdfd 	bl	523a <_ZNSs4_Rep10_M_destroyERKSaIcE>
    3640:	9b03      	ldr	r3, [sp, #12]
    3642:	9a02      	ldr	r2, [sp, #8]
    3644:	e69a      	b.n	337c <__ARM_grp_.debug_frame$38>
    3646:	6881      	ldr	r1, [r0, #8]
    3648:	f101 38ff 	add.w	r8, r1, #4294967295
    364c:	2900      	cmp	r1, #0
    364e:	f8c0 8008 	str.w	r8, [r0, #8]
    3652:	f73f ae99 	bgt.w	3388 <__ARM_grp_.debug_frame$38+0xc>
    3656:	a91b      	add	r1, sp, #108	; 0x6c
    3658:	9202      	str	r2, [sp, #8]
    365a:	9303      	str	r3, [sp, #12]
    365c:	f001 fded 	bl	523a <_ZNSs4_Rep10_M_destroyERKSaIcE>
    3660:	9b03      	ldr	r3, [sp, #12]
    3662:	9a02      	ldr	r2, [sp, #8]
    3664:	e690      	b.n	3388 <__ARM_grp_.debug_frame$38+0xc>
    3666:	f8d0 e008 	ldr.w	lr, [r0, #8]
    366a:	f10e 31ff 	add.w	r1, lr, #4294967295
    366e:	f1be 0f00 	cmp.w	lr, #0
    3672:	6081      	str	r1, [r0, #8]
    3674:	f73f ae77 	bgt.w	3366 <__ARM_grp_.debug_frame$35+0x2e>
    3678:	a91b      	add	r1, sp, #108	; 0x6c
    367a:	9202      	str	r2, [sp, #8]
    367c:	9303      	str	r3, [sp, #12]
    367e:	f001 fddc 	bl	523a <_ZNSs4_Rep10_M_destroyERKSaIcE>
    3682:	9b03      	ldr	r3, [sp, #12]
    3684:	9a02      	ldr	r2, [sp, #8]
    3686:	e66e      	b.n	3366 <__ARM_grp_.debug_frame$35+0x2e>

00003688 <_ZN10RingBufferI5BlockLi128EE9pop_frontERS0_>:
    3688:	e92d 4ff8 	stmdb	sp!, {r3, r4, r5, r6, r7, r8, r9, sl, fp, lr}
    368c:	f500 5618 	add.w	r6, r0, #9728	; 0x2600
    3690:	6835      	ldr	r5, [r6, #0]
    3692:	244c      	movs	r4, #76	; 0x4c
    3694:	fb04 0505 	mla	r5, r4, r5, r0
    3698:	460c      	mov	r4, r1
    369a:	4608      	mov	r0, r1
    369c:	4629      	mov	r1, r5
    369e:	f7ff fc05 	bl	2eac <_ZNSt6vectorISsSaISsEEaSERKS1_>
    36a2:	8c2f      	ldrh	r7, [r5, #32]
    36a4:	6c6b      	ldr	r3, [r5, #68]	; 0x44
    36a6:	6ca9      	ldr	r1, [r5, #72]	; 0x48
    36a8:	8427      	strh	r7, [r4, #32]
    36aa:	6aef      	ldr	r7, [r5, #44]	; 0x2c
    36ac:	6463      	str	r3, [r4, #68]	; 0x44
    36ae:	f105 000c 	add.w	r0, r5, #12
    36b2:	f104 0314 	add.w	r3, r4, #20
    36b6:	f105 0214 	add.w	r2, r5, #20
    36ba:	f8d5 8024 	ldr.w	r8, [r5, #36]	; 0x24
    36be:	f8d5 c028 	ldr.w	ip, [r5, #40]	; 0x28
    36c2:	f8d5 9030 	ldr.w	r9, [r5, #48]	; 0x30
    36c6:	f8d5 a034 	ldr.w	sl, [r5, #52]	; 0x34
    36ca:	f8d5 b038 	ldr.w	fp, [r5, #56]	; 0x38
    36ce:	64a1      	str	r1, [r4, #72]	; 0x48
    36d0:	62e7      	str	r7, [r4, #44]	; 0x2c
    36d2:	c803      	ldmia	r0, {r0, r1}
    36d4:	6bef      	ldr	r7, [r5, #60]	; 0x3c
    36d6:	60e0      	str	r0, [r4, #12]
    36d8:	8221      	strh	r1, [r4, #16]
    36da:	ca07      	ldmia	r2, {r0, r1, r2}
    36dc:	e883 0007 	stmia.w	r3, {r0, r1, r2}
    36e0:	f8b5 2040 	ldrh.w	r2, [r5, #64]	; 0x40
    36e4:	f8b5 5042 	ldrh.w	r5, [r5, #66]	; 0x42
    36e8:	f8c4 8024 	str.w	r8, [r4, #36]	; 0x24
    36ec:	f8c4 c028 	str.w	ip, [r4, #40]	; 0x28
    36f0:	f8c4 9030 	str.w	r9, [r4, #48]	; 0x30
    36f4:	f8c4 a034 	str.w	sl, [r4, #52]	; 0x34
    36f8:	f8c4 b038 	str.w	fp, [r4, #56]	; 0x38
    36fc:	63e7      	str	r7, [r4, #60]	; 0x3c
    36fe:	f8a4 2040 	strh.w	r2, [r4, #64]	; 0x40
    3702:	f8a4 5042 	strh.w	r5, [r4, #66]	; 0x42
    3706:	6831      	ldr	r1, [r6, #0]
    3708:	1c48      	adds	r0, r1, #1
    370a:	f000 037f 	and.w	r3, r0, #127	; 0x7f
    370e:	6033      	str	r3, [r6, #0]
    3710:	e8bd 8ff8 	ldmia.w	sp!, {r3, r4, r5, r6, r7, r8, r9, sl, fp, pc}

00003714 <_ZN10RingBufferI5BlockLi128EE12delete_firstEv>:
    3714:	b5f0      	push	{r4, r5, r6, r7, lr}
    3716:	b095      	sub	sp, #84	; 0x54
    3718:	4604      	mov	r4, r0
    371a:	4668      	mov	r0, sp
    371c:	f7fe fd6a 	bl	21f4 <_ZN5BlockC1Ev>
    3720:	4620      	mov	r0, r4
    3722:	4669      	mov	r1, sp
    3724:	f7ff ffb0 	bl	3688 <_ZN10RingBufferI5BlockLi128EE9pop_frontERS0_>
    3728:	9800      	ldr	r0, [sp, #0]
    372a:	9e01      	ldr	r6, [sp, #4]
    372c:	42b0      	cmp	r0, r6
    372e:	d01a      	beq.n	3766 <__ARM_grp_.debug_frame$i._ZN4mbed6SerialD0Ev+0x42>
    3730:	4604      	mov	r4, r0
    3732:	f854 3b04 	ldr.w	r3, [r4], #4
    3736:	4d1c      	ldr	r5, [pc, #112]	; (37a8 <__ARM_grp_.debug_frame$5+0x34>)
    3738:	1a30      	subs	r0, r6, r0
    373a:	3b0c      	subs	r3, #12
    373c:	1f07      	subs	r7, r0, #4
    373e:	42ab      	cmp	r3, r5
    3740:	f3c7 0780 	ubfx	r7, r7, #2, #1
    3744:	d126      	bne.n	3794 <__ARM_grp_.debug_frame$5+0x20>
    3746:	42a6      	cmp	r6, r4
    3748:	d00c      	beq.n	3764 <__ARM_grp_.debug_frame$i._ZN4mbed6SerialD0Ev+0x40>
    374a:	b927      	cbnz	r7, 3756 <__ARM_grp_.debug_frame$i._ZN4mbed6SerialD0Ev+0x32>
    374c:	f854 0b04 	ldr.w	r0, [r4], #4
    3750:	380c      	subs	r0, #12
    3752:	42a8      	cmp	r0, r5
    3754:	d115      	bne.n	3782 <__ARM_grp_.debug_frame$5+0xe>
    3756:	f854 0b04 	ldr.w	r0, [r4], #4
    375a:	380c      	subs	r0, #12
    375c:	42a8      	cmp	r0, r5
    375e:	d107      	bne.n	3770 <__ARM_grp_.debug_frame$i._ZN4mbed6SerialD0Ev+0x4c>
    3760:	42a6      	cmp	r6, r4
    3762:	d1f3      	bne.n	374c <__ARM_grp_.debug_frame$i._ZN4mbed6SerialD0Ev+0x28>
    3764:	9800      	ldr	r0, [sp, #0]
    3766:	b108      	cbz	r0, 376c <__ARM_grp_.debug_frame$i._ZN4mbed6SerialD0Ev+0x48>
    3768:	f002 f856 	bl	5818 <_ZdlPv>
    376c:	b015      	add	sp, #84	; 0x54
    376e:	bdf0      	pop	{r4, r5, r6, r7, pc}
    3770:	6883      	ldr	r3, [r0, #8]
    3772:	1e5a      	subs	r2, r3, #1
    3774:	2b00      	cmp	r3, #0
    3776:	6082      	str	r2, [r0, #8]
    3778:	dcf2      	bgt.n	3760 <__ARM_grp_.debug_frame$i._ZN4mbed6SerialD0Ev+0x3c>
    377a:	a913      	add	r1, sp, #76	; 0x4c
    377c:	f001 fd5d 	bl	523a <_ZNSs4_Rep10_M_destroyERKSaIcE>
    3780:	e7ee      	b.n	3760 <__ARM_grp_.debug_frame$i._ZN4mbed6SerialD0Ev+0x3c>
    3782:	6883      	ldr	r3, [r0, #8]
    3784:	1e5a      	subs	r2, r3, #1
    3786:	2b00      	cmp	r3, #0
    3788:	6082      	str	r2, [r0, #8]
    378a:	dce4      	bgt.n	3756 <__ARM_grp_.debug_frame$i._ZN4mbed6SerialD0Ev+0x32>
    378c:	a913      	add	r1, sp, #76	; 0x4c
    378e:	f001 fd54 	bl	523a <_ZNSs4_Rep10_M_destroyERKSaIcE>
    3792:	e7e0      	b.n	3756 <__ARM_grp_.debug_frame$i._ZN4mbed6SerialD0Ev+0x32>
    3794:	6898      	ldr	r0, [r3, #8]
    3796:	1e41      	subs	r1, r0, #1
    3798:	2800      	cmp	r0, #0
    379a:	6099      	str	r1, [r3, #8]
    379c:	dcd3      	bgt.n	3746 <__ARM_grp_.debug_frame$i._ZN4mbed6SerialD0Ev+0x22>
    379e:	4618      	mov	r0, r3
    37a0:	a913      	add	r1, sp, #76	; 0x4c
    37a2:	f001 fd4a 	bl	523a <_ZNSs4_Rep10_M_destroyERKSaIcE>
    37a6:	e7ce      	b.n	3746 <__ARM_grp_.debug_frame$i._ZN4mbed6SerialD0Ev+0x22>
    37a8:	100009f8 	.word	0x100009f8

000037ac <_ZN7Planner21discard_current_blockEv>:
    37ac:	b510      	push	{r4, lr}
    37ae:	f500 5218 	add.w	r2, r0, #9728	; 0x2600
    37b2:	f100 0414 	add.w	r4, r0, #20
    37b6:	2301      	movs	r3, #1
    37b8:	f882 306c 	strb.w	r3, [r2, #108]	; 0x6c
    37bc:	4620      	mov	r0, r4
    37be:	2100      	movs	r1, #0
    37c0:	3220      	adds	r2, #32
    37c2:	f7ff fcdb 	bl	317c <_ZN10RingBufferI5BlockLi128EE3getEiRS0_>
    37c6:	4620      	mov	r0, r4
    37c8:	e8bd 4010 	ldmia.w	sp!, {r4, lr}
    37cc:	f7ff bfa2 	b.w	3714 <_ZN10RingBufferI5BlockLi128EE12delete_firstEv>

000037d0 <_ZN5Robot16on_module_loadedEv>:
    37d0:	b538      	push	{r3, r4, r5, lr}
    37d2:	4604      	mov	r4, r0
    37d4:	2020      	movs	r0, #32
    37d6:	f002 f89f 	bl	5918 <_Znwj>
    37da:	6861      	ldr	r1, [r4, #4]
    37dc:	4605      	mov	r5, r0
    37de:	6949      	ldr	r1, [r1, #20]
    37e0:	f001 fab6 	bl	4d50 <_ZN17CartesianSolutionC1EP6Config>
    37e4:	6823      	ldr	r3, [r4, #0]
    37e6:	4620      	mov	r0, r4
    37e8:	685a      	ldr	r2, [r3, #4]
    37ea:	2102      	movs	r1, #2
    37ec:	6565      	str	r5, [r4, #84]	; 0x54
    37ee:	4790      	blx	r2
    37f0:	6860      	ldr	r0, [r4, #4]
    37f2:	f64b 01fd 	movw	r1, #47357	; 0xb8fd
    37f6:	6940      	ldr	r0, [r0, #20]
    37f8:	f7fd fbea 	bl	fd0 <_ZN6Config3getEt>
    37fc:	2200      	movs	r2, #0
    37fe:	4b11      	ldr	r3, [pc, #68]	; (3844 <__ARM_grp_.debug_frame$11+0x38>)
    3800:	f007 f9e2 	bl	abc8 <__aeabi_ddiv>
    3804:	6863      	ldr	r3, [r4, #4]
    3806:	e9c4 0112 	strd	r0, r1, [r4, #72]	; 0x48
    380a:	6958      	ldr	r0, [r3, #20]
    380c:	f641 11e9 	movw	r1, #6633	; 0x19e9
    3810:	f7fd fbde 	bl	fd0 <_ZN6Config3getEt>
    3814:	2200      	movs	r2, #0
    3816:	4b0b      	ldr	r3, [pc, #44]	; (3844 <__ARM_grp_.debug_frame$11+0x38>)
    3818:	f007 f9d6 	bl	abc8 <__aeabi_ddiv>
    381c:	6863      	ldr	r3, [r4, #4]
    381e:	e9c4 0110 	strd	r0, r1, [r4, #64]	; 0x40
    3822:	6958      	ldr	r0, [r3, #20]
    3824:	f247 51e0 	movw	r1, #30176	; 0x75e0
    3828:	f7fd fbd2 	bl	fd0 <_ZN6Config3getEt>
    382c:	6863      	ldr	r3, [r4, #4]
    382e:	e9c4 0116 	strd	r0, r1, [r4, #88]	; 0x58
    3832:	6958      	ldr	r0, [r3, #20]
    3834:	f643 416e 	movw	r1, #15470	; 0x3c6e
    3838:	f7fd fbca 	bl	fd0 <_ZN6Config3getEt>
    383c:	e9c4 0118 	strd	r0, r1, [r4, #96]	; 0x60
    3840:	bd38      	pop	{r3, r4, r5, pc}
    3842:	bf00      	nop
    3844:	404e0000 	.word	0x404e0000

00003848 <_ZN5RobotC1Ev>:
    3848:	b510      	push	{r4, lr}
    384a:	4604      	mov	r4, r0
    384c:	f7fd fd7e 	bl	134c <_ZN6ModuleC1Ev>
    3850:	490f      	ldr	r1, [pc, #60]	; (3890 <__ARM_grp_.debug_frame$14+0x38>)
    3852:	2300      	movs	r3, #0
    3854:	2001      	movs	r0, #1
    3856:	2202      	movs	r2, #2
    3858:	f884 0038 	strb.w	r0, [r4, #56]	; 0x38
    385c:	f884 0039 	strb.w	r0, [r4, #57]	; 0x39
    3860:	f884 0051 	strb.w	r0, [r4, #81]	; 0x51
    3864:	6021      	str	r1, [r4, #0]
    3866:	f884 303a 	strb.w	r3, [r4, #58]	; 0x3a
    386a:	f884 3050 	strb.w	r3, [r4, #80]	; 0x50
    386e:	f884 2052 	strb.w	r2, [r4, #82]	; 0x52
    3872:	60a3      	str	r3, [r4, #8]
    3874:	60e3      	str	r3, [r4, #12]
    3876:	6123      	str	r3, [r4, #16]
