
HelloWorld.elf:     file format elf32-littlearm


Disassembly of section .text:

00000000 <__Vectors>:
       0:	00 80 00 10 9d 02 00 00 a5 02 00 00 a7 02 00 00     ................
      10:	a9 02 00 00 ab 02 00 00 ad 02 00 00 00 00 00 00     ................
	...
      2c:	af 02 00 00 b1 02 00 00 00 00 00 00 b3 02 00 00     ................
      3c:	b5 02 00 00 b7 02 00 00 b7 02 00 00 b7 02 00 00     ................
      4c:	b7 02 00 00 b7 02 00 00 b7 02 00 00 b7 02 00 00     ................
      5c:	b7 02 00 00 b7 02 00 00 b7 02 00 00 b7 02 00 00     ................
      6c:	b7 02 00 00 b7 02 00 00 b7 02 00 00 b7 02 00 00     ................
      7c:	b7 02 00 00 b7 02 00 00 b7 02 00 00 b7 02 00 00     ................
      8c:	b7 02 00 00 b7 02 00 00 b7 02 00 00 b7 02 00 00     ................
      9c:	b7 02 00 00 b7 02 00 00 b7 02 00 00 b7 02 00 00     ................
      ac:	b7 02 00 00 b7 02 00 00 b7 02 00 00 b7 02 00 00     ................
      bc:	b7 02 00 00 b7 02 00 00                             ........

000000c4 <__do_global_dtors_aux>:
      c4:	f240 5360 	movw	r3, #1376	; 0x560
      c8:	f2c1 0300 	movt	r3, #4096	; 0x1000
      cc:	781a      	ldrb	r2, [r3, #0]
      ce:	b90a      	cbnz	r2, d4 <__do_global_dtors_aux+0x10>
      d0:	2001      	movs	r0, #1
      d2:	7018      	strb	r0, [r3, #0]
      d4:	4770      	bx	lr
      d6:	bf00      	nop

000000d8 <frame_dummy>:
      d8:	f240 5060 	movw	r0, #1376	; 0x560
      dc:	f2c1 0000 	movt	r0, #4096	; 0x1000
      e0:	b508      	push	{r3, lr}
      e2:	6803      	ldr	r3, [r0, #0]
      e4:	b12b      	cbz	r3, f2 <frame_dummy+0x1a>
      e6:	f240 0300 	movw	r3, #0
      ea:	f2c0 0300 	movt	r3, #0
      ee:	b103      	cbz	r3, f2 <frame_dummy+0x1a>
      f0:	4798      	blx	r3
      f2:	bd08      	pop	{r3, pc}

000000f4 <__main>:
      f4:	4839      	ldr	r0, [pc, #228]	; (1dc <__ARM_grp_.debug_frame$5+0x14>)
      f6:	493a      	ldr	r1, [pc, #232]	; (1e0 <__ARM_grp_.debug_frame$5+0x18>)
      f8:	b570      	push	{r4, r5, r6, lr}
      fa:	4288      	cmp	r0, r1
      fc:	d023      	beq.n	146 <__main+0x52>
      fe:	4c39      	ldr	r4, [pc, #228]	; (1e4 <__ARM_grp_.debug_frame$5+0x1c>)
     100:	42a1      	cmp	r1, r4
     102:	d220      	bcs.n	146 <__main+0x52>
     104:	4602      	mov	r2, r0
     106:	f852 6b04 	ldr.w	r6, [r2], #4
     10a:	460b      	mov	r3, r1
     10c:	43cd      	mvns	r5, r1
     10e:	f843 6b04 	str.w	r6, [r3], #4
     112:	1965      	adds	r5, r4, r5
     114:	42a3      	cmp	r3, r4
     116:	f3c5 0580 	ubfx	r5, r5, #2, #1
     11a:	d214      	bcs.n	146 <__main+0x52>
     11c:	b13d      	cbz	r5, 12e <__main+0x3a>
     11e:	6816      	ldr	r6, [r2, #0]
     120:	f100 0208 	add.w	r2, r0, #8
     124:	601e      	str	r6, [r3, #0]
     126:	f101 0308 	add.w	r3, r1, #8
     12a:	42a3      	cmp	r3, r4
     12c:	d20b      	bcs.n	146 <__main+0x52>
     12e:	4610      	mov	r0, r2
     130:	f850 5b04 	ldr.w	r5, [r0], #4
     134:	4619      	mov	r1, r3
     136:	f841 5b04 	str.w	r5, [r1], #4
     13a:	6856      	ldr	r6, [r2, #4]
     13c:	1d02      	adds	r2, r0, #4
     13e:	605e      	str	r6, [r3, #4]
     140:	1d0b      	adds	r3, r1, #4
     142:	42a3      	cmp	r3, r4
     144:	d3f3      	bcc.n	12e <__main+0x3a>
     146:	4828      	ldr	r0, [pc, #160]	; (1e8 <__ARM_grp_.debug_frame$5+0x20>)
     148:	4928      	ldr	r1, [pc, #160]	; (1ec <__ARM_grp_.debug_frame$5+0x24>)
     14a:	4288      	cmp	r0, r1
     14c:	d024      	beq.n	198 <__main+0xa4>
     14e:	4c28      	ldr	r4, [pc, #160]	; (1f0 <__ARM_grp_.debug_frame$5+0x28>)
     150:	42a1      	cmp	r1, r4
     152:	d221      	bcs.n	198 <__main+0xa4>
     154:	4602      	mov	r2, r0
     156:	f852 6b04 	ldr.w	r6, [r2], #4
     15a:	460b      	mov	r3, r1
     15c:	43cd      	mvns	r5, r1
     15e:	f843 6b04 	str.w	r6, [r3], #4
     162:	eb04 0c05 	add.w	ip, r4, r5
     166:	42a3      	cmp	r3, r4
     168:	f3cc 0580 	ubfx	r5, ip, #2, #1
     16c:	d214      	bcs.n	198 <__main+0xa4>
     16e:	b13d      	cbz	r5, 180 <__main+0x8c>
     170:	6815      	ldr	r5, [r2, #0]
     172:	f100 0208 	add.w	r2, r0, #8
     176:	601d      	str	r5, [r3, #0]
     178:	f101 0308 	add.w	r3, r1, #8
     17c:	42a3      	cmp	r3, r4
     17e:	d20b      	bcs.n	198 <__main+0xa4>
     180:	4610      	mov	r0, r2
     182:	f850 5b04 	ldr.w	r5, [r0], #4
     186:	4619      	mov	r1, r3
     188:	f841 5b04 	str.w	r5, [r1], #4
     18c:	6856      	ldr	r6, [r2, #4]
     18e:	1d02      	adds	r2, r0, #4
     190:	605e      	str	r6, [r3, #4]
     192:	1d0b      	adds	r3, r1, #4
     194:	42a3      	cmp	r3, r4
     196:	d3f3      	bcc.n	180 <__main+0x8c>
     198:	4a16      	ldr	r2, [pc, #88]	; (1f4 <__ARM_grp_.debug_frame$5+0x2c>)
     19a:	4817      	ldr	r0, [pc, #92]	; (1f8 <__ARM_grp_.debug_frame$5+0x30>)
     19c:	4282      	cmp	r2, r0
     19e:	d216      	bcs.n	1ce <__ARM_grp_.debug_frame$5+0x6>
     1a0:	2100      	movs	r1, #0
     1a2:	4613      	mov	r3, r2
     1a4:	43d6      	mvns	r6, r2
     1a6:	f843 1b04 	str.w	r1, [r3], #4
     1aa:	1984      	adds	r4, r0, r6
     1ac:	4283      	cmp	r3, r0
     1ae:	f3c4 0480 	ubfx	r4, r4, #2, #1
     1b2:	d20c      	bcs.n	1ce <__ARM_grp_.debug_frame$5+0x6>
     1b4:	b124      	cbz	r4, 1c0 <__main+0xcc>
     1b6:	6019      	str	r1, [r3, #0]
     1b8:	f102 0308 	add.w	r3, r2, #8
     1bc:	4283      	cmp	r3, r0
     1be:	d206      	bcs.n	1ce <__ARM_grp_.debug_frame$5+0x6>
     1c0:	461a      	mov	r2, r3
     1c2:	f842 1b04 	str.w	r1, [r2], #4
     1c6:	6059      	str	r1, [r3, #4]
     1c8:	1d13      	adds	r3, r2, #4
     1ca:	4283      	cmp	r3, r0
     1cc:	d3f8      	bcc.n	1c0 <__main+0xcc>
     1ce:	f000 fdd9 	bl	d84 <__libc_init_array>
     1d2:	f000 f839 	bl	248 <main>
     1d6:	f005 f9ff 	bl	55d8 <exit>
     1da:	bf00      	nop
     1dc:	00005970 	.word	0x00005970
     1e0:	10000000 	.word	0x10000000
     1e4:	10000560 	.word	0x10000560
     1e8:	00005190 	.word	0x00005190
     1ec:	10000000 	.word	0x10000000
     1f0:	10000000 	.word	0x10000000
     1f4:	10000560 	.word	0x10000560
     1f8:	100005c8 	.word	0x100005c8

000001fc <_kill>:
     1fc:	4b02      	ldr	r3, [pc, #8]	; (208 <_kill+0xc>)
     1fe:	2216      	movs	r2, #22
     200:	601a      	str	r2, [r3, #0]
     202:	f04f 30ff 	mov.w	r0, #4294967295
     206:	4770      	bx	lr
     208:	100005c4 	.word	0x100005c4

0000020c <_exit>:
     20c:	b508      	push	{r3, lr}
     20e:	f005 f9e3 	bl	55d8 <exit>
     212:	bf00      	nop

00000214 <_getpid>:
     214:	2001      	movs	r0, #1
     216:	4770      	bx	lr

00000218 <_sbrk>:
     218:	b570      	push	{r4, r5, r6, lr}
     21a:	4d09      	ldr	r5, [pc, #36]	; (240 <_sbrk+0x28>)
     21c:	4606      	mov	r6, r0
     21e:	682c      	ldr	r4, [r5, #0]
     220:	b14c      	cbz	r4, 236 <_sbrk+0x1e>
     222:	f005 f9cf 	bl	55c4 <__get_MSP>
     226:	19a3      	adds	r3, r4, r6
     228:	4283      	cmp	r3, r0
     22a:	d807      	bhi.n	23c <_sbrk+0x24>
     22c:	6829      	ldr	r1, [r5, #0]
     22e:	4620      	mov	r0, r4
     230:	198e      	adds	r6, r1, r6
     232:	602e      	str	r6, [r5, #0]
     234:	bd70      	pop	{r4, r5, r6, pc}
     236:	4c03      	ldr	r4, [pc, #12]	; (244 <_sbrk+0x2c>)
     238:	602c      	str	r4, [r5, #0]
     23a:	e7f2      	b.n	222 <_sbrk+0xa>
     23c:	f000 fd7a 	bl	d34 <abort>
     240:	10000564 	.word	0x10000564
     244:	100005c8 	.word	0x100005c8

00000248 <main>:
     248:	b570      	push	{r4, r5, r6, lr}
     24a:	4c08      	ldr	r4, [pc, #32]	; (26c <__ARM_grp_.debug_frame$11+0x10>)
     24c:	f44f 2380 	mov.w	r3, #262144	; 0x40000
     250:	461d      	mov	r5, r3
     252:	6023      	str	r3, [r4, #0]
     254:	461e      	mov	r6, r3
     256:	f04f 507c 	mov.w	r0, #1056964608	; 0x3f000000
     25a:	61a6      	str	r6, [r4, #24]
     25c:	f005 fa18 	bl	5690 <wait>
     260:	f04f 507c 	mov.w	r0, #1056964608	; 0x3f000000
     264:	61e5      	str	r5, [r4, #28]
     266:	f005 fa13 	bl	5690 <wait>
     26a:	e7f4      	b.n	256 <main+0xe>
     26c:	2009c020 	.word	0x2009c020

00000270 <_GLOBAL__I_myled>:
     270:	b510      	push	{r4, lr}
     272:	4c06      	ldr	r4, [pc, #24]	; (28c <_GLOBAL__I_myled+0x1c>)
     274:	2200      	movs	r2, #0
     276:	4906      	ldr	r1, [pc, #24]	; (290 <_GLOBAL__I_myled+0x20>)
     278:	4620      	mov	r0, r4
     27a:	f004 ff8d 	bl	5198 <_ZN4mbed10DigitalOutC1E7PinNamePKc>
     27e:	4905      	ldr	r1, [pc, #20]	; (294 <_GLOBAL__I_myled+0x24>)
     280:	4a05      	ldr	r2, [pc, #20]	; (298 <_GLOBAL__I_myled+0x28>)
     282:	4620      	mov	r0, r4
     284:	e8bd 4010 	ldmia.w	sp!, {r4, lr}
     288:	f000 b81a 	b.w	2c0 <__aeabi_atexit>
     28c:	10000568 	.word	0x10000568
     290:	2009c032 	.word	0x2009c032
     294:	000051d5 	.word	0x000051d5
     298:	10000000 	.word	0x10000000

0000029c <Reset_Handler>:
     29c:	4806      	ldr	r0, [pc, #24]	; (2b8 <ADC_IRQHandler+0x2>)
     29e:	4780      	blx	r0
     2a0:	4806      	ldr	r0, [pc, #24]	; (2bc <ADC_IRQHandler+0x6>)
     2a2:	4700      	bx	r0

000002a4 <NMI_Handler>:
     2a4:	e7fe      	b.n	2a4 <NMI_Handler>

000002a6 <HardFault_Handler>:
     2a6:	e7fe      	b.n	2a6 <HardFault_Handler>

000002a8 <MemManage_Handler>:
     2a8:	e7fe      	b.n	2a8 <MemManage_Handler>

000002aa <BusFault_Handler>:
     2aa:	e7fe      	b.n	2aa <BusFault_Handler>

000002ac <UsageFault_Handler>:
     2ac:	e7fe      	b.n	2ac <UsageFault_Handler>

000002ae <SVC_Handler>:
     2ae:	e7fe      	b.n	2ae <SVC_Handler>

000002b0 <DebugMon_Handler>:
     2b0:	e7fe      	b.n	2b0 <DebugMon_Handler>

000002b2 <PendSV_Handler>:
     2b2:	e7fe      	b.n	2b2 <PendSV_Handler>

000002b4 <SysTick_Handler>:
     2b4:	e7fe      	b.n	2b4 <SysTick_Handler>

000002b6 <ADC_IRQHandler>:
     2b6:	e7fe      	b.n	2b6 <ADC_IRQHandler>
     2b8:	00005541 	.word	0x00005541
     2bc:	000000f5 	.word	0x000000f5

000002c0 <__aeabi_atexit>:
     2c0:	4603      	mov	r3, r0
     2c2:	4608      	mov	r0, r1
     2c4:	4619      	mov	r1, r3
     2c6:	f000 bd51 	b.w	d6c <__cxa_atexit>

000002ca <_ZNK10__cxxabiv117__class_type_info20__do_find_public_srcEiPKvPKS0_S2_>:
     2ca:	9800      	ldr	r0, [sp, #0]
     2cc:	4290      	cmp	r0, r2
     2ce:	bf14      	ite	ne
     2d0:	2001      	movne	r0, #1
     2d2:	2006      	moveq	r0, #6
     2d4:	4770      	bx	lr

000002d6 <_ZNK10__cxxabiv117__class_type_info11__do_upcastEPKS0_PKvRNS0_15__upcast_resultE>:
     2d6:	b538      	push	{r3, r4, r5, lr}
     2d8:	4614      	mov	r4, r2
     2da:	461d      	mov	r5, r3
     2dc:	f000 f91b 	bl	516 <_ZNKSt9type_infoeqERKS_>
     2e0:	b128      	cbz	r0, 2ee <__ARM_grp_.debug_frame$t._ZN4mbed17rpc_method_callerINS_10DigitalOutEiXadL_ZNS1_5writeEiEEEEvPNS_4BaseEPKcPc+0xa>
     2e2:	2001      	movs	r0, #1
     2e4:	2308      	movs	r3, #8
     2e6:	602c      	str	r4, [r5, #0]
     2e8:	60eb      	str	r3, [r5, #12]
     2ea:	3b02      	subs	r3, #2
     2ec:	712b      	strb	r3, [r5, #4]
     2ee:	bd38      	pop	{r3, r4, r5, pc}

000002f0 <_ZNK10__cxxabiv117__class_type_info12__do_dyncastEiNS0_10__sub_kindEPKS0_PKvS3_S5_RNS0_16__dyncast_resultE>:
     2f0:	e92d 41f0 	stmdb	sp!, {r4, r5, r6, r7, r8, lr}
     2f4:	4698      	mov	r8, r3
     2f6:	9f06      	ldr	r7, [sp, #24]
     2f8:	4604      	mov	r4, r0
     2fa:	9b08      	ldr	r3, [sp, #32]
     2fc:	4615      	mov	r5, r2
     2fe:	9e09      	ldr	r6, [sp, #36]	; 0x24
     300:	429f      	cmp	r7, r3
     302:	d10c      	bne.n	31e <_ZNK10__cxxabiv117__class_type_info12__do_dyncastEiNS0_10__sub_kindEPKS0_PKvS3_S5_RNS0_16__dyncast_resultE+0x2e>
     304:	9907      	ldr	r1, [sp, #28]
     306:	f000 f906 	bl	516 <_ZNKSt9type_infoeqERKS_>
     30a:	b140      	cbz	r0, 31e <_ZNK10__cxxabiv117__class_type_info12__do_dyncastEiNS0_10__sub_kindEPKS0_PKvS3_S5_RNS0_16__dyncast_resultE+0x2e>
     30c:	7175      	strb	r5, [r6, #5]
     30e:	e003      	b.n	318 <_ZNK10__cxxabiv117__class_type_info12__do_dyncastEiNS0_10__sub_kindEPKS0_PKvS3_S5_RNS0_16__dyncast_resultE+0x28>
     310:	2301      	movs	r3, #1
     312:	6037      	str	r7, [r6, #0]
     314:	7135      	strb	r5, [r6, #4]
     316:	71b3      	strb	r3, [r6, #6]
     318:	2000      	movs	r0, #0
     31a:	e8bd 81f0 	ldmia.w	sp!, {r4, r5, r6, r7, r8, pc}
     31e:	4620      	mov	r0, r4
     320:	4641      	mov	r1, r8
     322:	f000 f8f8 	bl	516 <_ZNKSt9type_infoeqERKS_>
     326:	2800      	cmp	r0, #0
     328:	d1f2      	bne.n	310 <_ZNK10__cxxabiv117__class_type_info12__do_dyncastEiNS0_10__sub_kindEPKS0_PKvS3_S5_RNS0_16__dyncast_resultE+0x20>
     32a:	e7f5      	b.n	318 <_ZNK10__cxxabiv117__class_type_info12__do_dyncastEiNS0_10__sub_kindEPKS0_PKvS3_S5_RNS0_16__dyncast_resultE+0x28>

0000032c <_ZNK10__cxxabiv117__class_type_info10__do_catchEPKSt9type_infoPPvj>:
     32c:	b5f8      	push	{r3, r4, r5, r6, r7, lr}
     32e:	4605      	mov	r5, r0
     330:	460c      	mov	r4, r1
     332:	4616      	mov	r6, r2
     334:	461f      	mov	r7, r3
     336:	f000 f8ee 	bl	516 <_ZNKSt9type_infoeqERKS_>
     33a:	b940      	cbnz	r0, 34e <__ARM_grp_.debug_frame$t._ZN4mbed17rpc_method_callerIiNS_10DigitalOutEXadL_ZNS1_4readEvEEEEvPNS_4BaseEPKcPc+0x1a>
     33c:	2f03      	cmp	r7, #3
     33e:	d807      	bhi.n	350 <__ARM_grp_.debug_frame$t._ZN4mbed17rpc_method_callerIiNS_10DigitalOutEXadL_ZNS1_4readEvEEEEvPNS_4BaseEPKcPc+0x1c>
     340:	6823      	ldr	r3, [r4, #0]
     342:	4620      	mov	r0, r4
     344:	4629      	mov	r1, r5
     346:	4632      	mov	r2, r6
     348:	695b      	ldr	r3, [r3, #20]
     34a:	4798      	blx	r3
     34c:	bdf8      	pop	{r3, r4, r5, r6, r7, pc}
     34e:	2001      	movs	r0, #1
     350:	bdf8      	pop	{r3, r4, r5, r6, r7, pc}
	...

00000354 <_ZN10__cxxabiv117__class_type_infoD1Ev>:
     354:	4b03      	ldr	r3, [pc, #12]	; (364 <_ZN10__cxxabiv117__class_type_infoD1Ev+0x10>)
     356:	b510      	push	{r4, lr}
     358:	4604      	mov	r4, r0
     35a:	6003      	str	r3, [r0, #0]
     35c:	f000 f8c0 	bl	4e0 <_ZNSt9type_infoD1Ev>
     360:	4620      	mov	r0, r4
     362:	bd10      	pop	{r4, pc}
     364:	00004da0 	.word	0x00004da0

00000368 <_ZN10__cxxabiv117__class_type_infoD0Ev>:
     368:	b510      	push	{r4, lr}
     36a:	4604      	mov	r4, r0
     36c:	f7ff fff2 	bl	354 <_ZN10__cxxabiv117__class_type_infoD1Ev>
     370:	4620      	mov	r0, r4
     372:	f000 f825 	bl	3c0 <_ZdlPv>
     376:	4620      	mov	r0, r4
     378:	bd10      	pop	{r4, pc}

0000037a <_ZN10__cxxabiv117__class_type_info15__upcast_resultC1Ei>:
     37a:	2200      	movs	r2, #0
     37c:	6081      	str	r1, [r0, #8]
     37e:	6002      	str	r2, [r0, #0]
     380:	7102      	strb	r2, [r0, #4]
     382:	60c2      	str	r2, [r0, #12]
     384:	4770      	bx	lr

00000386 <_ZNK10__cxxabiv117__class_type_info11__do_upcastEPKS0_PPv>:
     386:	b5f0      	push	{r4, r5, r6, r7, lr}
     388:	4606      	mov	r6, r0
     38a:	b085      	sub	sp, #20
     38c:	460f      	mov	r7, r1
     38e:	4668      	mov	r0, sp
     390:	2110      	movs	r1, #16
     392:	4614      	mov	r4, r2
     394:	f7ff fff1 	bl	37a <_ZN10__cxxabiv117__class_type_info15__upcast_resultC1Ei>
     398:	6833      	ldr	r3, [r6, #0]
     39a:	4630      	mov	r0, r6
     39c:	4639      	mov	r1, r7
     39e:	6822      	ldr	r2, [r4, #0]
     3a0:	699d      	ldr	r5, [r3, #24]
     3a2:	466b      	mov	r3, sp
     3a4:	47a8      	blx	r5
     3a6:	f89d 3004 	ldrb.w	r3, [sp, #4]
     3aa:	f003 0306 	and.w	r3, r3, #6
     3ae:	2b06      	cmp	r3, #6
     3b0:	d103      	bne.n	3ba <_ZNK10__cxxabiv117__class_type_info11__do_upcastEPKS0_PPv+0x34>
     3b2:	9b00      	ldr	r3, [sp, #0]
     3b4:	2001      	movs	r0, #1
     3b6:	6023      	str	r3, [r4, #0]
     3b8:	e000      	b.n	3bc <_ZNK10__cxxabiv117__class_type_info11__do_upcastEPKS0_PPv+0x36>
     3ba:	2000      	movs	r0, #0
     3bc:	b005      	add	sp, #20
     3be:	bdf0      	pop	{r4, r5, r6, r7, pc}

000003c0 <_ZdlPv>:
     3c0:	b108      	cbz	r0, 3c6 <_ZdlPv+0x6>
     3c2:	f000 bd0b 	b.w	ddc <free>
     3c6:	4770      	bx	lr

000003c8 <_ZdaPv>:
     3c8:	f7ff bffa 	b.w	3c0 <_ZdlPv>

000003cc <_ZNK10__cxxabiv120__si_class_type_info11__do_upcastEPKNS_17__class_type_infoEPKvRNS1_15__upcast_resultE>:
     3cc:	b5f8      	push	{r3, r4, r5, r6, r7, lr}
     3ce:	4604      	mov	r4, r0
     3d0:	460f      	mov	r7, r1
     3d2:	4616      	mov	r6, r2
     3d4:	461d      	mov	r5, r3
     3d6:	f7ff ff7e 	bl	2d6 <_ZNK10__cxxabiv117__class_type_info11__do_upcastEPKS0_PKvRNS0_15__upcast_resultE>
     3da:	b938      	cbnz	r0, 3ec <_ZNK10__cxxabiv120__si_class_type_info11__do_upcastEPKNS_17__class_type_infoEPKvRNS1_15__upcast_resultE+0x20>
     3dc:	68a0      	ldr	r0, [r4, #8]
     3de:	4639      	mov	r1, r7
     3e0:	4632      	mov	r2, r6
     3e2:	6803      	ldr	r3, [r0, #0]
     3e4:	699c      	ldr	r4, [r3, #24]
     3e6:	462b      	mov	r3, r5
     3e8:	47a0      	blx	r4
     3ea:	bdf8      	pop	{r3, r4, r5, r6, r7, pc}
     3ec:	2001      	movs	r0, #1
     3ee:	bdf8      	pop	{r3, r4, r5, r6, r7, pc}

000003f0 <_ZNK10__cxxabiv120__si_class_type_info12__do_dyncastEiNS_17__class_type_info10__sub_kindEPKS1_PKvS4_S6_RNS1_16__dyncast_resultE>:
     3f0:	e92d 4ff0 	stmdb	sp!, {r4, r5, r6, r7, r8, r9, sl, fp, lr}
     3f4:	b085      	sub	sp, #20
     3f6:	460c      	mov	r4, r1
     3f8:	4619      	mov	r1, r3
     3fa:	4605      	mov	r5, r0
     3fc:	4616      	mov	r6, r2
     3fe:	461f      	mov	r7, r3
     400:	f8dd 9038 	ldr.w	r9, [sp, #56]	; 0x38
     404:	f8dd a040 	ldr.w	sl, [sp, #64]	; 0x40
     408:	f8dd 8044 	ldr.w	r8, [sp, #68]	; 0x44
     40c:	f000 f883 	bl	516 <_ZNKSt9type_infoeqERKS_>
     410:	4683      	mov	fp, r0
     412:	b1b0      	cbz	r0, 442 <__ARM_grp_.debug_frame$i._ZN4mbed10DigitalOut5writeEi+0x6>
     414:	2c00      	cmp	r4, #0
     416:	f8c8 9000 	str.w	r9, [r8]
     41a:	f888 6004 	strb.w	r6, [r8, #4]
     41e:	db09      	blt.n	434 <_ZNK10__cxxabiv120__si_class_type_info12__do_dyncastEiNS_17__class_type_info10__sub_kindEPKS1_PKvS4_S6_RNS1_16__dyncast_resultE+0x44>
     420:	444c      	add	r4, r9
     422:	45a2      	cmp	sl, r4
     424:	bf14      	ite	ne
     426:	f04f 0a01 	movne.w	sl, #1
     42a:	f04f 0a06 	moveq.w	sl, #6
     42e:	f888 a006 	strb.w	sl, [r8, #6]
     432:	e011      	b.n	458 <__ARM_grp_.debug_frame$i._ZN4mbed10DigitalOut5writeEi+0x1c>
     434:	f114 0f02 	cmn.w	r4, #2
     438:	d10e      	bne.n	458 <__ARM_grp_.debug_frame$i._ZN4mbed10DigitalOut5writeEi+0x1c>
     43a:	2301      	movs	r3, #1
     43c:	f888 3006 	strb.w	r3, [r8, #6]
     440:	e00a      	b.n	458 <__ARM_grp_.debug_frame$i._ZN4mbed10DigitalOut5writeEi+0x1c>
     442:	45d1      	cmp	r9, sl
     444:	d10c      	bne.n	460 <__ARM_grp_.debug_frame$i._ZN4mbed10DigitalOut5writeEi+0x24>
     446:	4628      	mov	r0, r5
     448:	990f      	ldr	r1, [sp, #60]	; 0x3c
     44a:	f000 f864 	bl	516 <_ZNKSt9type_infoeqERKS_>
     44e:	b138      	cbz	r0, 460 <__ARM_grp_.debug_frame$i._ZN4mbed10DigitalOut5writeEi+0x24>
     450:	f888 6005 	strb.w	r6, [r8, #5]
     454:	4658      	mov	r0, fp
     456:	e000      	b.n	45a <__ARM_grp_.debug_frame$i._ZN4mbed10DigitalOut5writeEi+0x1e>
     458:	2000      	movs	r0, #0
     45a:	b005      	add	sp, #20
     45c:	e8bd 8ff0 	ldmia.w	sp!, {r4, r5, r6, r7, r8, r9, sl, fp, pc}
     460:	68a8      	ldr	r0, [r5, #8]
     462:	4621      	mov	r1, r4
     464:	9a0f      	ldr	r2, [sp, #60]	; 0x3c
     466:	6803      	ldr	r3, [r0, #0]
     468:	9201      	str	r2, [sp, #4]
     46a:	4632      	mov	r2, r6
     46c:	f8cd 9000 	str.w	r9, [sp]
     470:	f8cd a008 	str.w	sl, [sp, #8]
     474:	f8cd 800c 	str.w	r8, [sp, #12]
     478:	69dd      	ldr	r5, [r3, #28]
     47a:	463b      	mov	r3, r7
     47c:	47a8      	blx	r5
     47e:	e7ec      	b.n	45a <__ARM_grp_.debug_frame$i._ZN4mbed10DigitalOut5writeEi+0x1e>

00000480 <_ZNK10__cxxabiv120__si_class_type_info20__do_find_public_srcEiPKvPKNS_17__class_type_infoES2_>:
     480:	e92d 41f3 	stmdb	sp!, {r0, r1, r4, r5, r6, r7, r8, lr}
     484:	4604      	mov	r4, r0
     486:	f8dd 8020 	ldr.w	r8, [sp, #32]
     48a:	460d      	mov	r5, r1
     48c:	4617      	mov	r7, r2
     48e:	461e      	mov	r6, r3
     490:	4590      	cmp	r8, r2
     492:	d106      	bne.n	4a2 <_ZNK10__cxxabiv120__si_class_type_info20__do_find_public_srcEiPKvPKNS_17__class_type_infoES2_+0x22>
     494:	4619      	mov	r1, r3
     496:	f000 f83e 	bl	516 <_ZNKSt9type_infoeqERKS_>
     49a:	b110      	cbz	r0, 4a2 <_ZNK10__cxxabiv120__si_class_type_info20__do_find_public_srcEiPKvPKNS_17__class_type_infoES2_+0x22>
     49c:	2006      	movs	r0, #6
     49e:	e8bd 81fc 	ldmia.w	sp!, {r2, r3, r4, r5, r6, r7, r8, pc}
     4a2:	68a0      	ldr	r0, [r4, #8]
     4a4:	4629      	mov	r1, r5
     4a6:	463a      	mov	r2, r7
     4a8:	6803      	ldr	r3, [r0, #0]
     4aa:	f8cd 8000 	str.w	r8, [sp]
     4ae:	6a1c      	ldr	r4, [r3, #32]
     4b0:	4633      	mov	r3, r6
     4b2:	47a0      	blx	r4
     4b4:	e7f3      	b.n	49e <_ZNK10__cxxabiv120__si_class_type_info20__do_find_public_srcEiPKvPKNS_17__class_type_infoES2_+0x1e>
	...

000004b8 <_ZN10__cxxabiv120__si_class_type_infoD1Ev>:
     4b8:	4b03      	ldr	r3, [pc, #12]	; (4c8 <__ARM_grp_.debug_frame$i._ZN4mbed10DigitalOutD0Ev+0x4>)
     4ba:	b510      	push	{r4, lr}
     4bc:	4604      	mov	r4, r0
     4be:	6003      	str	r3, [r0, #0]
     4c0:	f7ff ff48 	bl	354 <_ZN10__cxxabiv117__class_type_infoD1Ev>
     4c4:	4620      	mov	r0, r4
     4c6:	bd10      	pop	{r4, pc}
     4c8:	00004e00 	.word	0x00004e00

000004cc <_ZN10__cxxabiv120__si_class_type_infoD0Ev>:
     4cc:	b510      	push	{r4, lr}
     4ce:	4604      	mov	r4, r0
     4d0:	f7ff fff2 	bl	4b8 <_ZN10__cxxabiv120__si_class_type_infoD1Ev>
     4d4:	4620      	mov	r0, r4
     4d6:	f7ff ff73 	bl	3c0 <_ZdlPv>
     4da:	4620      	mov	r0, r4
     4dc:	bd10      	pop	{r4, pc}
	...

000004e0 <_ZNSt9type_infoD1Ev>:
     4e0:	4b01      	ldr	r3, [pc, #4]	; (4e8 <_ZNSt9type_infoD1Ev+0x8>)
     4e2:	6003      	str	r3, [r0, #0]
     4e4:	4770      	bx	lr
     4e6:	bf00      	nop
     4e8:	00004e80 	.word	0x00004e80

000004ec <_ZNKSt9type_info14__is_pointer_pEv>:
     4ec:	2000      	movs	r0, #0
     4ee:	4770      	bx	lr

000004f0 <_ZNKSt9type_info15__is_function_pEv>:
     4f0:	2000      	movs	r0, #0
     4f2:	4770      	bx	lr

000004f4 <_ZNKSt9type_info11__do_upcastEPKN10__cxxabiv117__class_type_infoEPPv>:
     4f4:	2000      	movs	r0, #0
     4f6:	4770      	bx	lr

000004f8 <_ZNSt9type_infoD0Ev>:
     4f8:	b510      	push	{r4, lr}
     4fa:	4604      	mov	r4, r0
     4fc:	f7ff fff0 	bl	4e0 <_ZNSt9type_infoD1Ev>
     500:	4620      	mov	r0, r4
     502:	f7ff ff5d 	bl	3c0 <_ZdlPv>
     506:	4620      	mov	r0, r4
     508:	bd10      	pop	{r4, pc}

0000050a <_ZNKSt9type_info4nameEv>:
     50a:	6840      	ldr	r0, [r0, #4]
     50c:	7803      	ldrb	r3, [r0, #0]
     50e:	2b2a      	cmp	r3, #42	; 0x2a
     510:	bf08      	it	eq
     512:	3001      	addeq	r0, #1
     514:	4770      	bx	lr

00000516 <_ZNKSt9type_infoeqERKS_>:
     516:	4281      	cmp	r1, r0
     518:	b538      	push	{r3, r4, r5, lr}
     51a:	460d      	mov	r5, r1
     51c:	d011      	beq.n	542 <_ZNKSt9type_infoeqERKS_+0x2c>
     51e:	f7ff fff4 	bl	50a <_ZNKSt9type_info4nameEv>
     522:	7803      	ldrb	r3, [r0, #0]
     524:	4604      	mov	r4, r0
     526:	2b2a      	cmp	r3, #42	; 0x2a
     528:	d00d      	beq.n	546 <_ZNKSt9type_infoeqERKS_+0x30>
     52a:	4628      	mov	r0, r5
     52c:	f7ff ffed 	bl	50a <_ZNKSt9type_info4nameEv>
     530:	4601      	mov	r1, r0
     532:	4620      	mov	r0, r4
     534:	f001 f88c 	bl	1650 <strcmp>
     538:	f1d0 0001 	rsbs	r0, r0, #1
     53c:	bf38      	it	cc
     53e:	2000      	movcc	r0, #0
     540:	bd38      	pop	{r3, r4, r5, pc}
     542:	2001      	movs	r0, #1
     544:	bd38      	pop	{r3, r4, r5, pc}
     546:	2000      	movs	r0, #0
     548:	bd38      	pop	{r3, r4, r5, pc}

0000054a <_ZNKSt9type_info10__do_catchEPKS_PPvj>:
     54a:	f7ff bfe4 	b.w	516 <_ZNKSt9type_infoeqERKS_>
	...

00000550 <__aeabi_drsub>:
     550:	f081 4100 	eor.w	r1, r1, #2147483648	; 0x80000000
     554:	e002      	b.n	55c <__adddf3>
     556:	bf00      	nop

00000558 <__aeabi_dsub>:
     558:	f083 4300 	eor.w	r3, r3, #2147483648	; 0x80000000

0000055c <__adddf3>:
     55c:	b530      	push	{r4, r5, lr}
     55e:	ea4f 0441 	mov.w	r4, r1, lsl #1
     562:	ea4f 0543 	mov.w	r5, r3, lsl #1
     566:	ea94 0f05 	teq	r4, r5
     56a:	bf08      	it	eq
     56c:	ea90 0f02 	teqeq	r0, r2
     570:	bf1f      	itttt	ne
     572:	ea54 0c00 	orrsne.w	ip, r4, r0
     576:	ea55 0c02 	orrsne.w	ip, r5, r2
     57a:	ea7f 5c64 	mvnsne.w	ip, r4, asr #21
     57e:	ea7f 5c65 	mvnsne.w	ip, r5, asr #21
     582:	f000 80e2 	beq.w	74a <__ARM_grp_.debug_frame$23+0x42>
     586:	ea4f 5454 	mov.w	r4, r4, lsr #21
     58a:	ebd4 5555 	rsbs	r5, r4, r5, lsr #21
     58e:	bfb8      	it	lt
     590:	426d      	neglt	r5, r5
     592:	dd0c      	ble.n	5ae <__ARM_grp_.debug_frame$8+0xa>
     594:	442c      	add	r4, r5
     596:	ea80 0202 	eor.w	r2, r0, r2
     59a:	ea81 0303 	eor.w	r3, r1, r3
     59e:	ea82 0000 	eor.w	r0, r2, r0
     5a2:	ea83 0101 	eor.w	r1, r3, r1
     5a6:	ea80 0202 	eor.w	r2, r0, r2
     5aa:	ea81 0303 	eor.w	r3, r1, r3
     5ae:	2d36      	cmp	r5, #54	; 0x36
     5b0:	bf88      	it	hi
     5b2:	bd30      	pophi	{r4, r5, pc}
     5b4:	f011 4f00 	tst.w	r1, #2147483648	; 0x80000000
     5b8:	ea4f 3101 	mov.w	r1, r1, lsl #12
     5bc:	f44f 1c80 	mov.w	ip, #1048576	; 0x100000
     5c0:	ea4c 3111 	orr.w	r1, ip, r1, lsr #12
     5c4:	d002      	beq.n	5cc <__ARM_grp_.debug_frame$8+0x28>
     5c6:	4240      	negs	r0, r0
     5c8:	eb61 0141 	sbc.w	r1, r1, r1, lsl #1
     5cc:	f013 4f00 	tst.w	r3, #2147483648	; 0x80000000
     5d0:	ea4f 3303 	mov.w	r3, r3, lsl #12
     5d4:	ea4c 3313 	orr.w	r3, ip, r3, lsr #12
     5d8:	d002      	beq.n	5e0 <__ARM_grp_.debug_frame$8+0x3c>
     5da:	4252      	negs	r2, r2
     5dc:	eb63 0343 	sbc.w	r3, r3, r3, lsl #1
     5e0:	ea94 0f05 	teq	r4, r5
     5e4:	f000 80a7 	beq.w	736 <__ARM_grp_.debug_frame$23+0x2e>
     5e8:	f1a4 0401 	sub.w	r4, r4, #1
     5ec:	f1d5 0e20 	rsbs	lr, r5, #32
     5f0:	db0d      	blt.n	60e <__ARM_grp_.debug_frame$11+0x26>
     5f2:	fa02 fc0e 	lsl.w	ip, r2, lr
     5f6:	fa22 f205 	lsr.w	r2, r2, r5
     5fa:	1880      	adds	r0, r0, r2
     5fc:	f141 0100 	adc.w	r1, r1, #0
     600:	fa03 f20e 	lsl.w	r2, r3, lr
     604:	1880      	adds	r0, r0, r2
     606:	fa43 f305 	asr.w	r3, r3, r5
     60a:	4159      	adcs	r1, r3
     60c:	e00e      	b.n	62c <__ARM_grp_.debug_frame$14>
     60e:	f1a5 0520 	sub.w	r5, r5, #32
     612:	f10e 0e20 	add.w	lr, lr, #32
     616:	2a01      	cmp	r2, #1
     618:	fa03 fc0e 	lsl.w	ip, r3, lr
     61c:	bf28      	it	cs
     61e:	f04c 0c02 	orrcs.w	ip, ip, #2
     622:	fa43 f305 	asr.w	r3, r3, r5
     626:	18c0      	adds	r0, r0, r3
     628:	eb51 71e3 	adcs.w	r1, r1, r3, asr #31
     62c:	f001 4500 	and.w	r5, r1, #2147483648	; 0x80000000
     630:	d507      	bpl.n	642 <__ARM_grp_.debug_frame$14+0x16>
     632:	f04f 0e00 	mov.w	lr, #0
     636:	f1dc 0c00 	rsbs	ip, ip, #0
     63a:	eb7e 0000 	sbcs.w	r0, lr, r0
     63e:	eb6e 0101 	sbc.w	r1, lr, r1
     642:	f5b1 1f80 	cmp.w	r1, #1048576	; 0x100000
     646:	d31b      	bcc.n	680 <__ARM_grp_.debug_frame$17+0x10>
     648:	f5b1 1f00 	cmp.w	r1, #2097152	; 0x200000
     64c:	d30c      	bcc.n	668 <__ARM_grp_.debug_frame$14+0x3c>
     64e:	0849      	lsrs	r1, r1, #1
     650:	ea5f 0030 	movs.w	r0, r0, rrx
     654:	ea4f 0c3c 	mov.w	ip, ip, rrx
     658:	f104 0401 	add.w	r4, r4, #1
     65c:	ea4f 5244 	mov.w	r2, r4, lsl #21
     660:	f512 0f80 	cmn.w	r2, #4194304	; 0x400000
     664:	f080 809a 	bcs.w	79c <__ARM_grp_.debug_frame$29>
     668:	f1bc 4f00 	cmp.w	ip, #2147483648	; 0x80000000
     66c:	bf08      	it	eq
     66e:	ea5f 0c50 	movseq.w	ip, r0, lsr #1
     672:	f150 0000 	adcs.w	r0, r0, #0
     676:	eb41 5104 	adc.w	r1, r1, r4, lsl #20
     67a:	ea41 0105 	orr.w	r1, r1, r5
     67e:	bd30      	pop	{r4, r5, pc}
     680:	ea5f 0c4c 	movs.w	ip, ip, lsl #1
     684:	4140      	adcs	r0, r0
     686:	eb41 0101 	adc.w	r1, r1, r1
     68a:	f411 1f80 	tst.w	r1, #1048576	; 0x100000
     68e:	f1a4 0401 	sub.w	r4, r4, #1
     692:	d1e9      	bne.n	668 <__ARM_grp_.debug_frame$14+0x3c>
     694:	f091 0f00 	teq	r1, #0
     698:	bf04      	itt	eq
     69a:	4601      	moveq	r1, r0
     69c:	2000      	moveq	r0, #0
     69e:	fab1 f381 	clz	r3, r1
     6a2:	bf08      	it	eq
     6a4:	3320      	addeq	r3, #32
     6a6:	f1a3 030b 	sub.w	r3, r3, #11
     6aa:	f1b3 0220 	subs.w	r2, r3, #32
     6ae:	da0c      	bge.n	6ca <__ARM_grp_.debug_frame$20+0x16>
     6b0:	320c      	adds	r2, #12
     6b2:	dd08      	ble.n	6c6 <__ARM_grp_.debug_frame$20+0x12>
     6b4:	f102 0c14 	add.w	ip, r2, #20
     6b8:	f1c2 020c 	rsb	r2, r2, #12
     6bc:	fa01 f00c 	lsl.w	r0, r1, ip
     6c0:	fa21 f102 	lsr.w	r1, r1, r2
     6c4:	e00c      	b.n	6e0 <__ARM_grp_.debug_frame$20+0x2c>
     6c6:	f102 0214 	add.w	r2, r2, #20
     6ca:	bfd8      	it	le
     6cc:	f1c2 0c20 	rsble	ip, r2, #32
     6d0:	fa01 f102 	lsl.w	r1, r1, r2
     6d4:	fa20 fc0c 	lsr.w	ip, r0, ip
     6d8:	bfdc      	itt	le
     6da:	ea41 010c 	orrle.w	r1, r1, ip
     6de:	4090      	lslle	r0, r2
     6e0:	1ae4      	subs	r4, r4, r3
     6e2:	bfa2      	ittt	ge
     6e4:	eb01 5104 	addge.w	r1, r1, r4, lsl #20
     6e8:	4329      	orrge	r1, r5
     6ea:	bd30      	popge	{r4, r5, pc}
     6ec:	ea6f 0404 	mvn.w	r4, r4
     6f0:	3c1f      	subs	r4, #31
     6f2:	da1c      	bge.n	72e <__ARM_grp_.debug_frame$23+0x26>
     6f4:	340c      	adds	r4, #12
     6f6:	dc0e      	bgt.n	716 <__ARM_grp_.debug_frame$23+0xe>
     6f8:	f104 0414 	add.w	r4, r4, #20
     6fc:	f1c4 0220 	rsb	r2, r4, #32
     700:	fa20 f004 	lsr.w	r0, r0, r4
     704:	fa01 f302 	lsl.w	r3, r1, r2
     708:	ea40 0003 	orr.w	r0, r0, r3
     70c:	fa21 f304 	lsr.w	r3, r1, r4
     710:	ea45 0103 	orr.w	r1, r5, r3
     714:	bd30      	pop	{r4, r5, pc}
     716:	f1c4 040c 	rsb	r4, r4, #12
     71a:	f1c4 0220 	rsb	r2, r4, #32
     71e:	fa20 f002 	lsr.w	r0, r0, r2
     722:	fa01 f304 	lsl.w	r3, r1, r4
     726:	ea40 0003 	orr.w	r0, r0, r3
     72a:	4629      	mov	r1, r5
     72c:	bd30      	pop	{r4, r5, pc}
     72e:	fa21 f004 	lsr.w	r0, r1, r4
     732:	4629      	mov	r1, r5
     734:	bd30      	pop	{r4, r5, pc}
     736:	f094 0f00 	teq	r4, #0
     73a:	f483 1380 	eor.w	r3, r3, #1048576	; 0x100000
     73e:	bf06      	itte	eq
     740:	f481 1180 	eoreq.w	r1, r1, #1048576	; 0x100000
     744:	3401      	addeq	r4, #1
     746:	3d01      	subne	r5, #1
     748:	e74e      	b.n	5e8 <__ARM_grp_.debug_frame$11>
     74a:	ea7f 5c64 	mvns.w	ip, r4, asr #21
     74e:	bf18      	it	ne
     750:	ea7f 5c65 	mvnsne.w	ip, r5, asr #21
     754:	d029      	beq.n	7aa <__ARM_grp_.debug_frame$29+0xe>
     756:	ea94 0f05 	teq	r4, r5
     75a:	bf08      	it	eq
     75c:	ea90 0f02 	teqeq	r0, r2
     760:	d005      	beq.n	76e <__ARM_grp_.debug_frame$26+0x22>
     762:	ea54 0c00 	orrs.w	ip, r4, r0
     766:	bf04      	itt	eq
     768:	4619      	moveq	r1, r3
     76a:	4610      	moveq	r0, r2
     76c:	bd30      	pop	{r4, r5, pc}
     76e:	ea91 0f03 	teq	r1, r3
     772:	bf1e      	ittt	ne
     774:	2100      	movne	r1, #0
     776:	2000      	movne	r0, #0
     778:	bd30      	popne	{r4, r5, pc}
     77a:	ea5f 5c54 	movs.w	ip, r4, lsr #21
     77e:	d105      	bne.n	78c <__ARM_grp_.debug_frame$26+0x40>
     780:	0040      	lsls	r0, r0, #1
     782:	4149      	adcs	r1, r1
     784:	bf28      	it	cs
     786:	f041 4100 	orrcs.w	r1, r1, #2147483648	; 0x80000000
     78a:	bd30      	pop	{r4, r5, pc}
     78c:	f514 0480 	adds.w	r4, r4, #4194304	; 0x400000
     790:	bf3c      	itt	cc
     792:	f501 1180 	addcc.w	r1, r1, #1048576	; 0x100000
     796:	bd30      	popcc	{r4, r5, pc}
     798:	f001 4500 	and.w	r5, r1, #2147483648	; 0x80000000
     79c:	f045 41fe 	orr.w	r1, r5, #2130706432	; 0x7f000000
     7a0:	f441 0170 	orr.w	r1, r1, #15728640	; 0xf00000
     7a4:	f04f 0000 	mov.w	r0, #0
     7a8:	bd30      	pop	{r4, r5, pc}
     7aa:	ea7f 5c64 	mvns.w	ip, r4, asr #21
     7ae:	bf1a      	itte	ne
     7b0:	4619      	movne	r1, r3
     7b2:	4610      	movne	r0, r2
     7b4:	ea7f 5c65 	mvnseq.w	ip, r5, asr #21
     7b8:	bf1c      	itt	ne
     7ba:	460b      	movne	r3, r1
     7bc:	4602      	movne	r2, r0
     7be:	ea50 3401 	orrs.w	r4, r0, r1, lsl #12
     7c2:	bf06      	itte	eq
     7c4:	ea52 3503 	orrseq.w	r5, r2, r3, lsl #12
     7c8:	ea91 0f03 	teqeq	r1, r3
     7cc:	f441 2100 	orrne.w	r1, r1, #524288	; 0x80000
     7d0:	bd30      	pop	{r4, r5, pc}
     7d2:	bf00      	nop

000007d4 <__aeabi_ui2d>:
     7d4:	f090 0f00 	teq	r0, #0
     7d8:	bf04      	itt	eq
     7da:	2100      	moveq	r1, #0
     7dc:	4770      	bxeq	lr
     7de:	b530      	push	{r4, r5, lr}
     7e0:	f44f 6480 	mov.w	r4, #1024	; 0x400
     7e4:	f104 0432 	add.w	r4, r4, #50	; 0x32
     7e8:	f04f 0500 	mov.w	r5, #0
     7ec:	f04f 0100 	mov.w	r1, #0
     7f0:	e750      	b.n	694 <__ARM_grp_.debug_frame$17+0x24>
     7f2:	bf00      	nop

000007f4 <__aeabi_i2d>:
     7f4:	f090 0f00 	teq	r0, #0
     7f8:	bf04      	itt	eq
     7fa:	2100      	moveq	r1, #0
     7fc:	4770      	bxeq	lr
     7fe:	b530      	push	{r4, r5, lr}
     800:	f44f 6480 	mov.w	r4, #1024	; 0x400
     804:	f104 0432 	add.w	r4, r4, #50	; 0x32
     808:	f010 4500 	ands.w	r5, r0, #2147483648	; 0x80000000
     80c:	bf48      	it	mi
     80e:	4240      	negmi	r0, r0
     810:	f04f 0100 	mov.w	r1, #0
     814:	e73e      	b.n	694 <__ARM_grp_.debug_frame$17+0x24>
     816:	bf00      	nop

00000818 <__aeabi_f2d>:
     818:	0042      	lsls	r2, r0, #1
     81a:	ea4f 01e2 	mov.w	r1, r2, asr #3
     81e:	ea4f 0131 	mov.w	r1, r1, rrx
     822:	ea4f 7002 	mov.w	r0, r2, lsl #28
     826:	bf1f      	itttt	ne
     828:	f012 437f 	andsne.w	r3, r2, #4278190080	; 0xff000000
     82c:	f093 4f7f 	teqne	r3, #4278190080	; 0xff000000
     830:	f081 5160 	eorne.w	r1, r1, #939524096	; 0x38000000
     834:	4770      	bxne	lr
     836:	f092 0f00 	teq	r2, #0
     83a:	bf14      	ite	ne
     83c:	f093 4f7f 	teqne	r3, #4278190080	; 0xff000000
     840:	4770      	bxeq	lr
     842:	b530      	push	{r4, r5, lr}
     844:	f44f 7460 	mov.w	r4, #896	; 0x380
     848:	f001 4500 	and.w	r5, r1, #2147483648	; 0x80000000
     84c:	f021 4100 	bic.w	r1, r1, #2147483648	; 0x80000000
     850:	e720      	b.n	694 <__ARM_grp_.debug_frame$17+0x24>
     852:	bf00      	nop

00000854 <__aeabi_ul2d>:
     854:	ea50 0201 	orrs.w	r2, r0, r1
     858:	bf08      	it	eq
     85a:	4770      	bxeq	lr
     85c:	b530      	push	{r4, r5, lr}
     85e:	f04f 0500 	mov.w	r5, #0
     862:	e00a      	b.n	87a <__ARM_grp_.debug_frame$35+0x12>

00000864 <__aeabi_l2d>:
     864:	ea50 0201 	orrs.w	r2, r0, r1
     868:	bf08      	it	eq
     86a:	4770      	bxeq	lr
     86c:	b530      	push	{r4, r5, lr}
     86e:	f011 4500 	ands.w	r5, r1, #2147483648	; 0x80000000
     872:	d502      	bpl.n	87a <__ARM_grp_.debug_frame$35+0x12>
     874:	4240      	negs	r0, r0
     876:	eb61 0141 	sbc.w	r1, r1, r1, lsl #1
     87a:	f44f 6480 	mov.w	r4, #1024	; 0x400
     87e:	f104 0432 	add.w	r4, r4, #50	; 0x32
     882:	ea5f 5c91 	movs.w	ip, r1, lsr #22
     886:	f43f aedc 	beq.w	642 <__ARM_grp_.debug_frame$14+0x16>
     88a:	f04f 0203 	mov.w	r2, #3
     88e:	ea5f 0cdc 	movs.w	ip, ip, lsr #3
     892:	bf18      	it	ne
     894:	3203      	addne	r2, #3
     896:	ea5f 0cdc 	movs.w	ip, ip, lsr #3
     89a:	bf18      	it	ne
     89c:	3203      	addne	r2, #3
     89e:	eb02 02dc 	add.w	r2, r2, ip, lsr #3
     8a2:	f1c2 0320 	rsb	r3, r2, #32
     8a6:	fa00 fc03 	lsl.w	ip, r0, r3
     8aa:	fa20 f002 	lsr.w	r0, r0, r2
     8ae:	fa01 fe03 	lsl.w	lr, r1, r3
     8b2:	ea40 000e 	orr.w	r0, r0, lr
     8b6:	fa21 f102 	lsr.w	r1, r1, r2
     8ba:	4414      	add	r4, r2
     8bc:	e6c1      	b.n	642 <__ARM_grp_.debug_frame$14+0x16>
     8be:	bf00      	nop

000008c0 <__aeabi_dmul>:
     8c0:	b570      	push	{r4, r5, r6, lr}
     8c2:	f04f 0cff 	mov.w	ip, #255	; 0xff
     8c6:	f44c 6ce0 	orr.w	ip, ip, #1792	; 0x700
     8ca:	ea1c 5411 	ands.w	r4, ip, r1, lsr #20
     8ce:	bf1d      	ittte	ne
     8d0:	ea1c 5513 	andsne.w	r5, ip, r3, lsr #20
     8d4:	ea94 0f0c 	teqne	r4, ip
     8d8:	ea95 0f0c 	teqne	r5, ip
     8dc:	f000 f8de 	bleq	a9c <__ARM_grp_.debug_frame$i._ZN4mbed13BaseDirHandle7telldirEv+0xc>
     8e0:	442c      	add	r4, r5
     8e2:	ea81 0603 	eor.w	r6, r1, r3
     8e6:	ea21 514c 	bic.w	r1, r1, ip, lsl #21
     8ea:	ea23 534c 	bic.w	r3, r3, ip, lsl #21
     8ee:	ea50 3501 	orrs.w	r5, r0, r1, lsl #12
     8f2:	bf18      	it	ne
     8f4:	ea52 3503 	orrsne.w	r5, r2, r3, lsl #12
     8f8:	f441 1180 	orr.w	r1, r1, #1048576	; 0x100000
     8fc:	f443 1380 	orr.w	r3, r3, #1048576	; 0x100000
     900:	d038      	beq.n	974 <__ARM_grp_.debug_frame$44+0x1c>
     902:	fba0 ce02 	umull	ip, lr, r0, r2
     906:	f04f 0500 	mov.w	r5, #0
     90a:	fbe1 e502 	umlal	lr, r5, r1, r2
     90e:	f006 4200 	and.w	r2, r6, #2147483648	; 0x80000000
     912:	fbe0 e503 	umlal	lr, r5, r0, r3
     916:	f04f 0600 	mov.w	r6, #0
     91a:	fbe1 5603 	umlal	r5, r6, r1, r3
     91e:	f09c 0f00 	teq	ip, #0
     922:	bf18      	it	ne
     924:	f04e 0e01 	orrne.w	lr, lr, #1
     928:	f1a4 04ff 	sub.w	r4, r4, #255	; 0xff
     92c:	f5b6 7f00 	cmp.w	r6, #512	; 0x200
     930:	f564 7440 	sbc.w	r4, r4, #768	; 0x300
     934:	d204      	bcs.n	940 <__ARM_grp_.debug_frame$41+0x38>
     936:	ea5f 0e4e 	movs.w	lr, lr, lsl #1
     93a:	416d      	adcs	r5, r5
     93c:	eb46 0606 	adc.w	r6, r6, r6
     940:	ea42 21c6 	orr.w	r1, r2, r6, lsl #11
     944:	ea41 5155 	orr.w	r1, r1, r5, lsr #21
     948:	ea4f 20c5 	mov.w	r0, r5, lsl #11
     94c:	ea40 505e 	orr.w	r0, r0, lr, lsr #21
     950:	ea4f 2ece 	mov.w	lr, lr, lsl #11
     954:	f1b4 0cfd 	subs.w	ip, r4, #253	; 0xfd
     958:	bf88      	it	hi
     95a:	f5bc 6fe0 	cmphi.w	ip, #1792	; 0x700
     95e:	d81e      	bhi.n	99e <__ARM_grp_.debug_frame$44+0x46>
     960:	f1be 4f00 	cmp.w	lr, #2147483648	; 0x80000000
     964:	bf08      	it	eq
     966:	ea5f 0e50 	movseq.w	lr, r0, lsr #1
     96a:	f150 0000 	adcs.w	r0, r0, #0
     96e:	eb41 5104 	adc.w	r1, r1, r4, lsl #20
     972:	bd70      	pop	{r4, r5, r6, pc}
     974:	f006 4600 	and.w	r6, r6, #2147483648	; 0x80000000
     978:	ea46 0101 	orr.w	r1, r6, r1
     97c:	ea40 0002 	orr.w	r0, r0, r2
     980:	ea81 0103 	eor.w	r1, r1, r3
     984:	ebb4 045c 	subs.w	r4, r4, ip, lsr #1
     988:	bfc2      	ittt	gt
     98a:	ebd4 050c 	rsbsgt	r5, r4, ip
     98e:	ea41 5104 	orrgt.w	r1, r1, r4, lsl #20
     992:	bd70      	popgt	{r4, r5, r6, pc}
     994:	f441 1180 	orr.w	r1, r1, #1048576	; 0x100000
     998:	f04f 0e00 	mov.w	lr, #0
     99c:	3c01      	subs	r4, #1
     99e:	f300 80ab 	bgt.w	af8 <__ARM_grp_.debug_frame$i._ZN4mbed13BaseDirHandle7seekdirEl+0x24>
     9a2:	f114 0f36 	cmn.w	r4, #54	; 0x36
     9a6:	bfde      	ittt	le
     9a8:	2000      	movle	r0, #0
     9aa:	f001 4100 	andle.w	r1, r1, #2147483648	; 0x80000000
     9ae:	bd70      	pople	{r4, r5, r6, pc}
     9b0:	f1c4 0400 	rsb	r4, r4, #0
     9b4:	3c20      	subs	r4, #32
     9b6:	da35      	bge.n	a24 <__ARM_grp_.debug_frame$i._ZN4mbed13BaseDirHandle8closedirEv+0x30>
     9b8:	340c      	adds	r4, #12
     9ba:	dc1b      	bgt.n	9f4 <__ARM_grp_.debug_frame$i._ZN4mbed13BaseDirHandle8closedirEv>
     9bc:	f104 0414 	add.w	r4, r4, #20
     9c0:	f1c4 0520 	rsb	r5, r4, #32
     9c4:	fa00 f305 	lsl.w	r3, r0, r5
     9c8:	fa20 f004 	lsr.w	r0, r0, r4
     9cc:	fa01 f205 	lsl.w	r2, r1, r5
     9d0:	ea40 0002 	orr.w	r0, r0, r2
     9d4:	f001 4200 	and.w	r2, r1, #2147483648	; 0x80000000
     9d8:	f021 4100 	bic.w	r1, r1, #2147483648	; 0x80000000
     9dc:	eb10 70d3 	adds.w	r0, r0, r3, lsr #31
     9e0:	fa21 f604 	lsr.w	r6, r1, r4
     9e4:	eb42 0106 	adc.w	r1, r2, r6
     9e8:	ea5e 0e43 	orrs.w	lr, lr, r3, lsl #1
     9ec:	bf08      	it	eq
     9ee:	ea20 70d3 	biceq.w	r0, r0, r3, lsr #31
     9f2:	bd70      	pop	{r4, r5, r6, pc}
     9f4:	f1c4 040c 	rsb	r4, r4, #12
     9f8:	f1c4 0520 	rsb	r5, r4, #32
     9fc:	fa00 f304 	lsl.w	r3, r0, r4
     a00:	fa20 f005 	lsr.w	r0, r0, r5
     a04:	fa01 f204 	lsl.w	r2, r1, r4
     a08:	ea40 0002 	orr.w	r0, r0, r2
     a0c:	f001 4100 	and.w	r1, r1, #2147483648	; 0x80000000
     a10:	eb10 70d3 	adds.w	r0, r0, r3, lsr #31
     a14:	f141 0100 	adc.w	r1, r1, #0
     a18:	ea5e 0e43 	orrs.w	lr, lr, r3, lsl #1
     a1c:	bf08      	it	eq
     a1e:	ea20 70d3 	biceq.w	r0, r0, r3, lsr #31
     a22:	bd70      	pop	{r4, r5, r6, pc}
     a24:	f1c4 0520 	rsb	r5, r4, #32
     a28:	fa00 f205 	lsl.w	r2, r0, r5
     a2c:	ea4e 0e02 	orr.w	lr, lr, r2
     a30:	fa20 f304 	lsr.w	r3, r0, r4
     a34:	fa01 f205 	lsl.w	r2, r1, r5
     a38:	ea43 0302 	orr.w	r3, r3, r2
     a3c:	fa21 f004 	lsr.w	r0, r1, r4
     a40:	f001 4100 	and.w	r1, r1, #2147483648	; 0x80000000
     a44:	fa21 f204 	lsr.w	r2, r1, r4
     a48:	ea20 0002 	bic.w	r0, r0, r2
     a4c:	eb00 70d3 	add.w	r0, r0, r3, lsr #31
     a50:	ea5e 0e43 	orrs.w	lr, lr, r3, lsl #1
     a54:	bf08      	it	eq
     a56:	ea20 70d3 	biceq.w	r0, r0, r3, lsr #31
     a5a:	bd70      	pop	{r4, r5, r6, pc}
     a5c:	f094 0f00 	teq	r4, #0
     a60:	d10f      	bne.n	a82 <__ARM_grp_.debug_frame$i._ZN4mbed13BaseDirHandle7readdirEv+0x42>
     a62:	f001 4600 	and.w	r6, r1, #2147483648	; 0x80000000
     a66:	0040      	lsls	r0, r0, #1
     a68:	eb41 0101 	adc.w	r1, r1, r1
     a6c:	f411 1f80 	tst.w	r1, #1048576	; 0x100000
     a70:	bf08      	it	eq
     a72:	3c01      	subeq	r4, #1
     a74:	d0f7      	beq.n	a66 <__ARM_grp_.debug_frame$i._ZN4mbed13BaseDirHandle7readdirEv+0x26>
     a76:	ea41 0106 	orr.w	r1, r1, r6
     a7a:	f095 0f00 	teq	r5, #0
     a7e:	bf18      	it	ne
     a80:	4770      	bxne	lr
     a82:	f003 4600 	and.w	r6, r3, #2147483648	; 0x80000000
     a86:	0052      	lsls	r2, r2, #1
     a88:	eb43 0303 	adc.w	r3, r3, r3
     a8c:	f413 1f80 	tst.w	r3, #1048576	; 0x100000
     a90:	bf08      	it	eq
     a92:	3d01      	subeq	r5, #1
     a94:	d0f7      	beq.n	a86 <__ARM_grp_.debug_frame$i._ZN4mbed13BaseDirHandle7readdirEv+0x46>
     a96:	ea43 0306 	orr.w	r3, r3, r6
     a9a:	4770      	bx	lr
     a9c:	ea94 0f0c 	teq	r4, ip
     aa0:	ea0c 5513 	and.w	r5, ip, r3, lsr #20
     aa4:	bf18      	it	ne
     aa6:	ea95 0f0c 	teqne	r5, ip
     aaa:	d00c      	beq.n	ac6 <__ARM_grp_.debug_frame$i._ZN4mbed13BaseDirHandle7telldirEv+0x36>
     aac:	ea50 0641 	orrs.w	r6, r0, r1, lsl #1
     ab0:	bf18      	it	ne
     ab2:	ea52 0643 	orrsne.w	r6, r2, r3, lsl #1
     ab6:	d1d1      	bne.n	a5c <__ARM_grp_.debug_frame$i._ZN4mbed13BaseDirHandle7readdirEv+0x1c>
     ab8:	ea81 0103 	eor.w	r1, r1, r3
     abc:	f001 4100 	and.w	r1, r1, #2147483648	; 0x80000000
     ac0:	f04f 0000 	mov.w	r0, #0
     ac4:	bd70      	pop	{r4, r5, r6, pc}
     ac6:	ea50 0641 	orrs.w	r6, r0, r1, lsl #1
     aca:	bf06      	itte	eq
     acc:	4610      	moveq	r0, r2
     ace:	4619      	moveq	r1, r3
     ad0:	ea52 0643 	orrsne.w	r6, r2, r3, lsl #1
     ad4:	d019      	beq.n	b0a <__ARM_grp_.debug_frame$i._ZN4mbed13BaseDirHandle7seekdirEl+0x36>
     ad6:	ea94 0f0c 	teq	r4, ip
     ada:	d102      	bne.n	ae2 <__ARM_grp_.debug_frame$i._ZN4mbed13BaseDirHandle7seekdirEl+0xe>
     adc:	ea50 3601 	orrs.w	r6, r0, r1, lsl #12
     ae0:	d113      	bne.n	b0a <__ARM_grp_.debug_frame$i._ZN4mbed13BaseDirHandle7seekdirEl+0x36>
     ae2:	ea95 0f0c 	teq	r5, ip
     ae6:	d105      	bne.n	af4 <__ARM_grp_.debug_frame$i._ZN4mbed13BaseDirHandle7seekdirEl+0x20>
     ae8:	ea52 3603 	orrs.w	r6, r2, r3, lsl #12
     aec:	bf1c      	itt	ne
     aee:	4610      	movne	r0, r2
     af0:	4619      	movne	r1, r3
     af2:	d10a      	bne.n	b0a <__ARM_grp_.debug_frame$i._ZN4mbed13BaseDirHandle7seekdirEl+0x36>
     af4:	ea81 0103 	eor.w	r1, r1, r3
     af8:	f001 4100 	and.w	r1, r1, #2147483648	; 0x80000000
     afc:	f041 41fe 	orr.w	r1, r1, #2130706432	; 0x7f000000
     b00:	f441 0170 	orr.w	r1, r1, #15728640	; 0xf00000
     b04:	f04f 0000 	mov.w	r0, #0
     b08:	bd70      	pop	{r4, r5, r6, pc}
     b0a:	f041 41fe 	orr.w	r1, r1, #2130706432	; 0x7f000000
     b0e:	f441 0178 	orr.w	r1, r1, #16252928	; 0xf80000
     b12:	bd70      	pop	{r4, r5, r6, pc}

00000b14 <__aeabi_ddiv>:
     b14:	b570      	push	{r4, r5, r6, lr}
     b16:	f04f 0cff 	mov.w	ip, #255	; 0xff
     b1a:	f44c 6ce0 	orr.w	ip, ip, #1792	; 0x700
     b1e:	ea1c 5411 	ands.w	r4, ip, r1, lsr #20
     b22:	bf1d      	ittte	ne
     b24:	ea1c 5513 	andsne.w	r5, ip, r3, lsr #20
     b28:	ea94 0f0c 	teqne	r4, ip
     b2c:	ea95 0f0c 	teqne	r5, ip
     b30:	f000 f8a7 	bleq	c82 <__ARM_grp_.debug_frame$14+0x3a>
     b34:	eba4 0405 	sub.w	r4, r4, r5
     b38:	ea81 0e03 	eor.w	lr, r1, r3
     b3c:	ea52 3503 	orrs.w	r5, r2, r3, lsl #12
     b40:	ea4f 3101 	mov.w	r1, r1, lsl #12
     b44:	f000 8088 	beq.w	c58 <__ARM_grp_.debug_frame$14+0x10>
     b48:	ea4f 3303 	mov.w	r3, r3, lsl #12
     b4c:	f04f 5580 	mov.w	r5, #268435456	; 0x10000000
     b50:	ea45 1313 	orr.w	r3, r5, r3, lsr #4
     b54:	ea43 6312 	orr.w	r3, r3, r2, lsr #24
     b58:	ea4f 2202 	mov.w	r2, r2, lsl #8
     b5c:	ea45 1511 	orr.w	r5, r5, r1, lsr #4
     b60:	ea45 6510 	orr.w	r5, r5, r0, lsr #24
     b64:	ea4f 2600 	mov.w	r6, r0, lsl #8
     b68:	f00e 4100 	and.w	r1, lr, #2147483648	; 0x80000000
     b6c:	429d      	cmp	r5, r3
     b6e:	bf08      	it	eq
     b70:	4296      	cmpeq	r6, r2
     b72:	f144 04fd 	adc.w	r4, r4, #253	; 0xfd
     b76:	f504 7440 	add.w	r4, r4, #768	; 0x300
     b7a:	d202      	bcs.n	b82 <__ARM_grp_.debug_frame$5+0x26>
     b7c:	085b      	lsrs	r3, r3, #1
     b7e:	ea4f 0232 	mov.w	r2, r2, rrx
     b82:	1ab6      	subs	r6, r6, r2
     b84:	eb65 0503 	sbc.w	r5, r5, r3
     b88:	085b      	lsrs	r3, r3, #1
     b8a:	ea4f 0232 	mov.w	r2, r2, rrx
     b8e:	f44f 1080 	mov.w	r0, #1048576	; 0x100000
     b92:	f44f 2c00 	mov.w	ip, #524288	; 0x80000
     b96:	ebb6 0e02 	subs.w	lr, r6, r2
     b9a:	eb75 0e03 	sbcs.w	lr, r5, r3
     b9e:	bf22      	ittt	cs
     ba0:	1ab6      	subcs	r6, r6, r2
     ba2:	4675      	movcs	r5, lr
     ba4:	ea40 000c 	orrcs.w	r0, r0, ip
     ba8:	085b      	lsrs	r3, r3, #1
     baa:	ea4f 0232 	mov.w	r2, r2, rrx
     bae:	ebb6 0e02 	subs.w	lr, r6, r2
     bb2:	eb75 0e03 	sbcs.w	lr, r5, r3
     bb6:	bf22      	ittt	cs
     bb8:	1ab6      	subcs	r6, r6, r2
     bba:	4675      	movcs	r5, lr
     bbc:	ea40 005c 	orrcs.w	r0, r0, ip, lsr #1
     bc0:	085b      	lsrs	r3, r3, #1
     bc2:	ea4f 0232 	mov.w	r2, r2, rrx
     bc6:	ebb6 0e02 	subs.w	lr, r6, r2
     bca:	eb75 0e03 	sbcs.w	lr, r5, r3
     bce:	bf22      	ittt	cs
     bd0:	1ab6      	subcs	r6, r6, r2
     bd2:	4675      	movcs	r5, lr
     bd4:	ea40 009c 	orrcs.w	r0, r0, ip, lsr #2
     bd8:	085b      	lsrs	r3, r3, #1
     bda:	ea4f 0232 	mov.w	r2, r2, rrx
     bde:	ebb6 0e02 	subs.w	lr, r6, r2
     be2:	eb75 0e03 	sbcs.w	lr, r5, r3
     be6:	bf22      	ittt	cs
     be8:	1ab6      	subcs	r6, r6, r2
     bea:	4675      	movcs	r5, lr
     bec:	ea40 00dc 	orrcs.w	r0, r0, ip, lsr #3
     bf0:	ea55 0e06 	orrs.w	lr, r5, r6
     bf4:	d018      	beq.n	c28 <__ARM_grp_.debug_frame$11+0x34>
     bf6:	ea4f 1505 	mov.w	r5, r5, lsl #4
     bfa:	ea45 7516 	orr.w	r5, r5, r6, lsr #28
     bfe:	ea4f 1606 	mov.w	r6, r6, lsl #4
     c02:	ea4f 03c3 	mov.w	r3, r3, lsl #3
     c06:	ea43 7352 	orr.w	r3, r3, r2, lsr #29
     c0a:	ea4f 02c2 	mov.w	r2, r2, lsl #3
     c0e:	ea5f 1c1c 	movs.w	ip, ip, lsr #4
     c12:	d1c0      	bne.n	b96 <__ARM_grp_.debug_frame$5+0x3a>
     c14:	f411 1f80 	tst.w	r1, #1048576	; 0x100000
     c18:	d10b      	bne.n	c32 <__ARM_grp_.debug_frame$11+0x3e>
     c1a:	ea41 0100 	orr.w	r1, r1, r0
     c1e:	f04f 0000 	mov.w	r0, #0
     c22:	f04f 4c00 	mov.w	ip, #2147483648	; 0x80000000
     c26:	e7b6      	b.n	b96 <__ARM_grp_.debug_frame$5+0x3a>
     c28:	f411 1f80 	tst.w	r1, #1048576	; 0x100000
     c2c:	bf04      	itt	eq
     c2e:	4301      	orreq	r1, r0
     c30:	2000      	moveq	r0, #0
     c32:	f1b4 0cfd 	subs.w	ip, r4, #253	; 0xfd
     c36:	bf88      	it	hi
     c38:	f5bc 6fe0 	cmphi.w	ip, #1792	; 0x700
     c3c:	f63f aeaf 	bhi.w	99e <__ARM_grp_.debug_frame$44+0x46>
     c40:	ebb5 0c03 	subs.w	ip, r5, r3
     c44:	bf04      	itt	eq
     c46:	ebb6 0c02 	subseq.w	ip, r6, r2
     c4a:	ea5f 0c50 	movseq.w	ip, r0, lsr #1
     c4e:	f150 0000 	adcs.w	r0, r0, #0
     c52:	eb41 5104 	adc.w	r1, r1, r4, lsl #20
     c56:	bd70      	pop	{r4, r5, r6, pc}
     c58:	f00e 4e00 	and.w	lr, lr, #2147483648	; 0x80000000
     c5c:	ea4e 3111 	orr.w	r1, lr, r1, lsr #12
     c60:	eb14 045c 	adds.w	r4, r4, ip, lsr #1
     c64:	bfc2      	ittt	gt
     c66:	ebd4 050c 	rsbsgt	r5, r4, ip
     c6a:	ea41 5104 	orrgt.w	r1, r1, r4, lsl #20
     c6e:	bd70      	popgt	{r4, r5, r6, pc}
     c70:	f441 1180 	orr.w	r1, r1, #1048576	; 0x100000
     c74:	f04f 0e00 	mov.w	lr, #0
     c78:	3c01      	subs	r4, #1
     c7a:	e690      	b.n	99e <__ARM_grp_.debug_frame$44+0x46>
     c7c:	ea45 0e06 	orr.w	lr, r5, r6
     c80:	e68d      	b.n	99e <__ARM_grp_.debug_frame$44+0x46>
     c82:	ea0c 5513 	and.w	r5, ip, r3, lsr #20
     c86:	ea94 0f0c 	teq	r4, ip
     c8a:	bf08      	it	eq
     c8c:	ea95 0f0c 	teqeq	r5, ip
     c90:	f43f af3b 	beq.w	b0a <__ARM_grp_.debug_frame$i._ZN4mbed13BaseDirHandle7seekdirEl+0x36>
     c94:	ea94 0f0c 	teq	r4, ip
     c98:	d10a      	bne.n	cb0 <__ARM_grp_.debug_frame$17+0x18>
     c9a:	ea50 3401 	orrs.w	r4, r0, r1, lsl #12
     c9e:	f47f af34 	bne.w	b0a <__ARM_grp_.debug_frame$i._ZN4mbed13BaseDirHandle7seekdirEl+0x36>
     ca2:	ea95 0f0c 	teq	r5, ip
     ca6:	f47f af25 	bne.w	af4 <__ARM_grp_.debug_frame$i._ZN4mbed13BaseDirHandle7seekdirEl+0x20>
     caa:	4610      	mov	r0, r2
     cac:	4619      	mov	r1, r3
     cae:	e72c      	b.n	b0a <__ARM_grp_.debug_frame$i._ZN4mbed13BaseDirHandle7seekdirEl+0x36>
     cb0:	ea95 0f0c 	teq	r5, ip
     cb4:	d106      	bne.n	cc4 <__ARM_grp_.debug_frame$17+0x2c>
     cb6:	ea52 3503 	orrs.w	r5, r2, r3, lsl #12
     cba:	f43f aefd 	beq.w	ab8 <__ARM_grp_.debug_frame$i._ZN4mbed13BaseDirHandle7telldirEv+0x28>
     cbe:	4610      	mov	r0, r2
     cc0:	4619      	mov	r1, r3
     cc2:	e722      	b.n	b0a <__ARM_grp_.debug_frame$i._ZN4mbed13BaseDirHandle7seekdirEl+0x36>
     cc4:	ea50 0641 	orrs.w	r6, r0, r1, lsl #1
     cc8:	bf18      	it	ne
     cca:	ea52 0643 	orrsne.w	r6, r2, r3, lsl #1
     cce:	f47f aec5 	bne.w	a5c <__ARM_grp_.debug_frame$i._ZN4mbed13BaseDirHandle7readdirEv+0x1c>
     cd2:	ea50 0441 	orrs.w	r4, r0, r1, lsl #1
     cd6:	f47f af0d 	bne.w	af4 <__ARM_grp_.debug_frame$i._ZN4mbed13BaseDirHandle7seekdirEl+0x20>
     cda:	ea52 0543 	orrs.w	r5, r2, r3, lsl #1
     cde:	f47f aeeb 	bne.w	ab8 <__ARM_grp_.debug_frame$i._ZN4mbed13BaseDirHandle7telldirEv+0x28>
     ce2:	e712      	b.n	b0a <__ARM_grp_.debug_frame$i._ZN4mbed13BaseDirHandle7seekdirEl+0x36>

00000ce4 <__aeabi_d2iz>:
     ce4:	ea4f 0241 	mov.w	r2, r1, lsl #1
     ce8:	f512 1200 	adds.w	r2, r2, #2097152	; 0x200000
     cec:	d215      	bcs.n	d1a <__aeabi_d2iz+0x36>
     cee:	d511      	bpl.n	d14 <__aeabi_d2iz+0x30>
     cf0:	f46f 7378 	mvn.w	r3, #992	; 0x3e0
     cf4:	ebb3 5262 	subs.w	r2, r3, r2, asr #21
     cf8:	d912      	bls.n	d20 <__aeabi_d2iz+0x3c>
     cfa:	ea4f 23c1 	mov.w	r3, r1, lsl #11
     cfe:	f043 4300 	orr.w	r3, r3, #2147483648	; 0x80000000
     d02:	ea43 5350 	orr.w	r3, r3, r0, lsr #21
     d06:	f011 4f00 	tst.w	r1, #2147483648	; 0x80000000
     d0a:	fa23 f002 	lsr.w	r0, r3, r2
     d0e:	bf18      	it	ne
     d10:	4240      	negne	r0, r0
     d12:	4770      	bx	lr
     d14:	f04f 0000 	mov.w	r0, #0
     d18:	4770      	bx	lr
     d1a:	ea50 3001 	orrs.w	r0, r0, r1, lsl #12
     d1e:	d105      	bne.n	d2c <__ARM_grp_.debug_frame$23+0x4>
     d20:	f011 4000 	ands.w	r0, r1, #2147483648	; 0x80000000
     d24:	bf08      	it	eq
     d26:	f06f 4000 	mvneq.w	r0, #2147483648	; 0x80000000
     d2a:	4770      	bx	lr
     d2c:	f04f 0000 	mov.w	r0, #0
     d30:	4770      	bx	lr
     d32:	bf00      	nop

00000d34 <abort>:
     d34:	b508      	push	{r3, lr}
     d36:	2006      	movs	r0, #6
     d38:	f000 fc4a 	bl	15d0 <raise>
     d3c:	2001      	movs	r0, #1
     d3e:	f7ff fa65 	bl	20c <_exit>
	...

00000d44 <setup_aeabi_stdio>:
     d44:	4b05      	ldr	r3, [pc, #20]	; (d5c <setup_aeabi_stdio+0x18>)
     d46:	4a06      	ldr	r2, [pc, #24]	; (d60 <setup_aeabi_stdio+0x1c>)
     d48:	681b      	ldr	r3, [r3, #0]
     d4a:	6859      	ldr	r1, [r3, #4]
     d4c:	6011      	str	r1, [r2, #0]
     d4e:	6899      	ldr	r1, [r3, #8]
     d50:	4a04      	ldr	r2, [pc, #16]	; (d64 <setup_aeabi_stdio+0x20>)
     d52:	6011      	str	r1, [r2, #0]
     d54:	68da      	ldr	r2, [r3, #12]
     d56:	4b04      	ldr	r3, [pc, #16]	; (d68 <setup_aeabi_stdio+0x24>)
     d58:	601a      	str	r2, [r3, #0]
     d5a:	4770      	bx	lr
     d5c:	10000110 	.word	0x10000110
     d60:	100005b8 	.word	0x100005b8
     d64:	100005bc 	.word	0x100005bc
     d68:	100005c0 	.word	0x100005c0

00000d6c <__cxa_atexit>:
     d6c:	b530      	push	{r4, r5, lr}
     d6e:	4605      	mov	r5, r0
     d70:	460c      	mov	r4, r1
     d72:	4613      	mov	r3, r2
     d74:	2002      	movs	r0, #2
     d76:	4629      	mov	r1, r5
     d78:	4622      	mov	r2, r4
     d7a:	e8bd 4030 	ldmia.w	sp!, {r4, r5, lr}
     d7e:	f001 bd9b 	b.w	28b8 <__register_exitproc>
	...

00000d84 <__libc_init_array>:
     d84:	b570      	push	{r4, r5, r6, lr}
     d86:	2400      	movs	r4, #0
     d88:	4d0c      	ldr	r5, [pc, #48]	; (dbc <__ARM_grp_.debug_frame$29+0xc>)
     d8a:	4e0d      	ldr	r6, [pc, #52]	; (dc0 <__ARM_grp_.debug_frame$29+0x10>)
     d8c:	1b76      	subs	r6, r6, r5
     d8e:	10b6      	asrs	r6, r6, #2
     d90:	e003      	b.n	d9a <__libc_init_array+0x16>
     d92:	f855 3b04 	ldr.w	r3, [r5], #4
     d96:	3401      	adds	r4, #1
     d98:	4798      	blx	r3
     d9a:	42b4      	cmp	r4, r6
     d9c:	d1f9      	bne.n	d92 <__libc_init_array+0xe>
     d9e:	4d09      	ldr	r5, [pc, #36]	; (dc4 <__ARM_grp_.debug_frame$29+0x14>)
     da0:	f004 f9e2 	bl	5168 <_init>
     da4:	4e08      	ldr	r6, [pc, #32]	; (dc8 <__ARM_grp_.debug_frame$29+0x18>)
     da6:	2400      	movs	r4, #0
     da8:	1b76      	subs	r6, r6, r5
     daa:	10b6      	asrs	r6, r6, #2
     dac:	e003      	b.n	db6 <__ARM_grp_.debug_frame$29+0x6>
     dae:	f855 3b04 	ldr.w	r3, [r5], #4
     db2:	3401      	adds	r4, #1
     db4:	4798      	blx	r3
     db6:	42b4      	cmp	r4, r6
     db8:	d1f9      	bne.n	dae <__libc_init_array+0x2a>
     dba:	bd70      	pop	{r4, r5, r6, pc}
     dbc:	00005174 	.word	0x00005174
     dc0:	00005178 	.word	0x00005178
     dc4:	00005178 	.word	0x00005178
     dc8:	00005180 	.word	0x00005180

00000dcc <malloc>:
     dcc:	4b02      	ldr	r3, [pc, #8]	; (dd8 <malloc+0xc>)
     dce:	4601      	mov	r1, r0
     dd0:	6818      	ldr	r0, [r3, #0]
     dd2:	f000 b80b 	b.w	dec <_malloc_r>
     dd6:	bf00      	nop
     dd8:	10000110 	.word	0x10000110

00000ddc <free>:
     ddc:	4b02      	ldr	r3, [pc, #8]	; (de8 <free+0xc>)
     dde:	4601      	mov	r1, r0
     de0:	6818      	ldr	r0, [r3, #0]
     de2:	f002 bcab 	b.w	373c <_free_r>
     de6:	bf00      	nop
     de8:	10000110 	.word	0x10000110

00000dec <_malloc_r>:
     dec:	e92d 4ff7 	stmdb	sp!, {r0, r1, r2, r4, r5, r6, r7, r8, r9, sl, fp, lr}
     df0:	f101 040b 	add.w	r4, r1, #11
     df4:	2c16      	cmp	r4, #22
     df6:	4607      	mov	r7, r0
     df8:	d903      	bls.n	e02 <__ARM_grp_.debug_frame$32+0x2>
     dfa:	f034 0407 	bics.w	r4, r4, #7
     dfe:	d501      	bpl.n	e04 <__ARM_grp_.debug_frame$32+0x4>
     e00:	e002      	b.n	e08 <__ARM_grp_.debug_frame$32+0x8>
     e02:	2410      	movs	r4, #16
     e04:	428c      	cmp	r4, r1
     e06:	d202      	bcs.n	e0e <__ARM_grp_.debug_frame$32+0xe>
     e08:	230c      	movs	r3, #12
     e0a:	603b      	str	r3, [r7, #0]
     e0c:	e1d6      	b.n	11bc <__ARM_grp_.debug_frame$i._ZN4mbed10FileHandle4flenEv+0xc>
     e0e:	4638      	mov	r0, r7
     e10:	f000 fa21 	bl	1256 <__malloc_lock>
     e14:	f5b4 7ffc 	cmp.w	r4, #504	; 0x1f8
     e18:	4a97      	ldr	r2, [pc, #604]	; (1078 <__ARM_grp_.debug_frame$59>)
     e1a:	d210      	bcs.n	e3e <__ARM_grp_.debug_frame$32+0x3e>
     e1c:	08e1      	lsrs	r1, r4, #3
     e1e:	eb02 02c1 	add.w	r2, r2, r1, lsl #3
     e22:	68d6      	ldr	r6, [r2, #12]
     e24:	4296      	cmp	r6, r2
     e26:	d104      	bne.n	e32 <__ARM_grp_.debug_frame$32+0x32>
     e28:	f106 0308 	add.w	r3, r6, #8
     e2c:	6976      	ldr	r6, [r6, #20]
     e2e:	429e      	cmp	r6, r3
     e30:	d003      	beq.n	e3a <__ARM_grp_.debug_frame$32+0x3a>
     e32:	6873      	ldr	r3, [r6, #4]
     e34:	f023 0303 	bic.w	r3, r3, #3
     e38:	e02f      	b.n	e9a <__ARM_grp_.debug_frame$38+0x12>
     e3a:	3102      	adds	r1, #2
     e3c:	e036      	b.n	eac <__ARM_grp_.debug_frame$38+0x24>
     e3e:	0a61      	lsrs	r1, r4, #9
     e40:	d101      	bne.n	e46 <__ARM_grp_.debug_frame$35+0x2>
     e42:	08e1      	lsrs	r1, r4, #3
     e44:	e01b      	b.n	e7e <__ARM_grp_.debug_frame$35+0x3a>
     e46:	2904      	cmp	r1, #4
     e48:	d802      	bhi.n	e50 <__ARM_grp_.debug_frame$35+0xc>
     e4a:	09a1      	lsrs	r1, r4, #6
     e4c:	3138      	adds	r1, #56	; 0x38
     e4e:	e016      	b.n	e7e <__ARM_grp_.debug_frame$35+0x3a>
     e50:	2914      	cmp	r1, #20
     e52:	d801      	bhi.n	e58 <__ARM_grp_.debug_frame$35+0x14>
     e54:	315b      	adds	r1, #91	; 0x5b
     e56:	e012      	b.n	e7e <__ARM_grp_.debug_frame$35+0x3a>
     e58:	2954      	cmp	r1, #84	; 0x54
     e5a:	d802      	bhi.n	e62 <__ARM_grp_.debug_frame$35+0x1e>
     e5c:	0b21      	lsrs	r1, r4, #12
     e5e:	316e      	adds	r1, #110	; 0x6e
     e60:	e00d      	b.n	e7e <__ARM_grp_.debug_frame$35+0x3a>
     e62:	f5b1 7faa 	cmp.w	r1, #340	; 0x154
     e66:	d802      	bhi.n	e6e <__ARM_grp_.debug_frame$35+0x2a>
     e68:	0be1      	lsrs	r1, r4, #15
     e6a:	3177      	adds	r1, #119	; 0x77
     e6c:	e007      	b.n	e7e <__ARM_grp_.debug_frame$35+0x3a>
     e6e:	f240 5354 	movw	r3, #1364	; 0x554
     e72:	4299      	cmp	r1, r3
     e74:	d802      	bhi.n	e7c <__ARM_grp_.debug_frame$35+0x38>
     e76:	0ca1      	lsrs	r1, r4, #18
     e78:	317c      	adds	r1, #124	; 0x7c
     e7a:	e000      	b.n	e7e <__ARM_grp_.debug_frame$35+0x3a>
     e7c:	217e      	movs	r1, #126	; 0x7e
     e7e:	eb02 02c1 	add.w	r2, r2, r1, lsl #3
     e82:	68d6      	ldr	r6, [r2, #12]
     e84:	e00f      	b.n	ea6 <__ARM_grp_.debug_frame$38+0x1e>
     e86:	6873      	ldr	r3, [r6, #4]
     e88:	f023 0303 	bic.w	r3, r3, #3
     e8c:	1b18      	subs	r0, r3, r4
     e8e:	280f      	cmp	r0, #15
     e90:	dd01      	ble.n	e96 <__ARM_grp_.debug_frame$38+0xe>
     e92:	3901      	subs	r1, #1
     e94:	e009      	b.n	eaa <__ARM_grp_.debug_frame$38+0x22>
     e96:	2800      	cmp	r0, #0
     e98:	db04      	blt.n	ea4 <__ARM_grp_.debug_frame$38+0x1c>
     e9a:	68f2      	ldr	r2, [r6, #12]
     e9c:	68b1      	ldr	r1, [r6, #8]
     e9e:	60ca      	str	r2, [r1, #12]
     ea0:	6091      	str	r1, [r2, #8]
     ea2:	e020      	b.n	ee6 <__ARM_grp_.debug_frame$41+0x1a>
     ea4:	68f6      	ldr	r6, [r6, #12]
     ea6:	4296      	cmp	r6, r2
     ea8:	d1ed      	bne.n	e86 <__ARM_grp_.debug_frame$35+0x42>
     eaa:	3101      	adds	r1, #1
     eac:	4d72      	ldr	r5, [pc, #456]	; (1078 <__ARM_grp_.debug_frame$59>)
     eae:	f105 0208 	add.w	r2, r5, #8
     eb2:	6896      	ldr	r6, [r2, #8]
     eb4:	4296      	cmp	r6, r2
     eb6:	d077      	beq.n	fa8 <__ARM_grp_.debug_frame$47+0x40>
     eb8:	6873      	ldr	r3, [r6, #4]
     eba:	f023 0303 	bic.w	r3, r3, #3
     ebe:	1b18      	subs	r0, r3, r4
     ec0:	280f      	cmp	r0, #15
     ec2:	dd0c      	ble.n	ede <__ARM_grp_.debug_frame$41+0x12>
     ec4:	1933      	adds	r3, r6, r4
     ec6:	f044 0401 	orr.w	r4, r4, #1
     eca:	60d3      	str	r3, [r2, #12]
     ecc:	6093      	str	r3, [r2, #8]
     ece:	6074      	str	r4, [r6, #4]
     ed0:	60da      	str	r2, [r3, #12]
     ed2:	609a      	str	r2, [r3, #8]
     ed4:	f040 0201 	orr.w	r2, r0, #1
     ed8:	5018      	str	r0, [r3, r0]
     eda:	605a      	str	r2, [r3, #4]
     edc:	e179      	b.n	11d2 <__ARM_grp_.debug_frame$i._ZN4mbed10FileHandle4flenEv+0x22>
     ede:	2800      	cmp	r0, #0
     ee0:	60d2      	str	r2, [r2, #12]
     ee2:	6092      	str	r2, [r2, #8]
     ee4:	db05      	blt.n	ef2 <__ARM_grp_.debug_frame$41+0x26>
     ee6:	18f3      	adds	r3, r6, r3
     ee8:	685a      	ldr	r2, [r3, #4]
     eea:	f042 0201 	orr.w	r2, r2, #1
     eee:	605a      	str	r2, [r3, #4]
     ef0:	e16f      	b.n	11d2 <__ARM_grp_.debug_frame$i._ZN4mbed10FileHandle4flenEv+0x22>
     ef2:	f5b3 7f00 	cmp.w	r3, #512	; 0x200
     ef6:	d20e      	bcs.n	f16 <__ARM_grp_.debug_frame$44+0x6>
     ef8:	08db      	lsrs	r3, r3, #3
     efa:	f04f 0e01 	mov.w	lr, #1
     efe:	1098      	asrs	r0, r3, #2
     f00:	eb05 03c3 	add.w	r3, r5, r3, lsl #3
     f04:	fa0e f000 	lsl.w	r0, lr, r0
     f08:	f8d5 e004 	ldr.w	lr, [r5, #4]
     f0c:	ea4e 0000 	orr.w	r0, lr, r0
     f10:	6068      	str	r0, [r5, #4]
     f12:	6898      	ldr	r0, [r3, #8]
     f14:	e044      	b.n	fa0 <__ARM_grp_.debug_frame$47+0x38>
     f16:	ea4f 2e53 	mov.w	lr, r3, lsr #9
     f1a:	f1be 0f04 	cmp.w	lr, #4
     f1e:	d804      	bhi.n	f2a <__ARM_grp_.debug_frame$44+0x1a>
     f20:	ea4f 1e93 	mov.w	lr, r3, lsr #6
     f24:	f10e 0e38 	add.w	lr, lr, #56	; 0x38
     f28:	e01f      	b.n	f6a <__ARM_grp_.debug_frame$47+0x2>
     f2a:	f1be 0f14 	cmp.w	lr, #20
     f2e:	d802      	bhi.n	f36 <__ARM_grp_.debug_frame$44+0x26>
     f30:	f10e 0e5b 	add.w	lr, lr, #91	; 0x5b
     f34:	e019      	b.n	f6a <__ARM_grp_.debug_frame$47+0x2>
     f36:	f1be 0f54 	cmp.w	lr, #84	; 0x54
     f3a:	d804      	bhi.n	f46 <__ARM_grp_.debug_frame$44+0x36>
     f3c:	ea4f 3e13 	mov.w	lr, r3, lsr #12
     f40:	f10e 0e6e 	add.w	lr, lr, #110	; 0x6e
     f44:	e011      	b.n	f6a <__ARM_grp_.debug_frame$47+0x2>
     f46:	f5be 7faa 	cmp.w	lr, #340	; 0x154
     f4a:	d804      	bhi.n	f56 <__ARM_grp_.debug_frame$44+0x46>
     f4c:	ea4f 3ed3 	mov.w	lr, r3, lsr #15
     f50:	f10e 0e77 	add.w	lr, lr, #119	; 0x77
     f54:	e009      	b.n	f6a <__ARM_grp_.debug_frame$47+0x2>
     f56:	f240 5054 	movw	r0, #1364	; 0x554
     f5a:	4586      	cmp	lr, r0
     f5c:	bf96      	itet	ls
     f5e:	ea4f 4e93 	movls.w	lr, r3, lsr #18
     f62:	f04f 0e7e 	movhi.w	lr, #126	; 0x7e
     f66:	f10e 0e7c 	addls.w	lr, lr, #124	; 0x7c
     f6a:	eb05 0cce 	add.w	ip, r5, lr, lsl #3
     f6e:	f8dc 0008 	ldr.w	r0, [ip, #8]
     f72:	4560      	cmp	r0, ip
     f74:	d10d      	bne.n	f92 <__ARM_grp_.debug_frame$47+0x2a>
     f76:	2301      	movs	r3, #1
     f78:	ea4f 0eae 	mov.w	lr, lr, asr #2
     f7c:	fa03 fe0e 	lsl.w	lr, r3, lr
     f80:	686b      	ldr	r3, [r5, #4]
     f82:	ea43 030e 	orr.w	r3, r3, lr
     f86:	606b      	str	r3, [r5, #4]
     f88:	4603      	mov	r3, r0
     f8a:	e009      	b.n	fa0 <__ARM_grp_.debug_frame$47+0x38>
     f8c:	6880      	ldr	r0, [r0, #8]
     f8e:	4560      	cmp	r0, ip
     f90:	d005      	beq.n	f9e <__ARM_grp_.debug_frame$47+0x36>
     f92:	f8d0 e004 	ldr.w	lr, [r0, #4]
     f96:	f02e 0e03 	bic.w	lr, lr, #3
     f9a:	4573      	cmp	r3, lr
     f9c:	d3f6      	bcc.n	f8c <__ARM_grp_.debug_frame$47+0x24>
     f9e:	68c3      	ldr	r3, [r0, #12]
     fa0:	60f3      	str	r3, [r6, #12]
     fa2:	60b0      	str	r0, [r6, #8]
     fa4:	609e      	str	r6, [r3, #8]
     fa6:	60c6      	str	r6, [r0, #12]
     fa8:	2001      	movs	r0, #1
     faa:	108b      	asrs	r3, r1, #2
     fac:	fa10 f303 	lsls.w	r3, r0, r3
     fb0:	6868      	ldr	r0, [r5, #4]
     fb2:	4283      	cmp	r3, r0
     fb4:	d862      	bhi.n	107c <__ARM_grp_.debug_frame$59+0x4>
     fb6:	4203      	tst	r3, r0
     fb8:	d105      	bne.n	fc6 <__ARM_grp_.debug_frame$50+0x1a>
     fba:	f021 0103 	bic.w	r1, r1, #3
     fbe:	005b      	lsls	r3, r3, #1
     fc0:	3104      	adds	r1, #4
     fc2:	4203      	tst	r3, r0
     fc4:	d0fb      	beq.n	fbe <__ARM_grp_.debug_frame$50+0x12>
     fc6:	eb05 09c1 	add.w	r9, r5, r1, lsl #3
     fca:	468e      	mov	lr, r1
     fcc:	46cc      	mov	ip, r9
     fce:	f8dc 600c 	ldr.w	r6, [ip, #12]
     fd2:	e02a      	b.n	102a <__ARM_grp_.debug_frame$53+0x3a>
     fd4:	6870      	ldr	r0, [r6, #4]
     fd6:	f020 0803 	bic.w	r8, r0, #3
     fda:	ebc4 0008 	rsb	r0, r4, r8
     fde:	280f      	cmp	r0, #15
     fe0:	dd11      	ble.n	1006 <__ARM_grp_.debug_frame$53+0x16>
     fe2:	1933      	adds	r3, r6, r4
     fe4:	68f1      	ldr	r1, [r6, #12]
     fe6:	f044 0401 	orr.w	r4, r4, #1
     fea:	6074      	str	r4, [r6, #4]
     fec:	f856 4f08 	ldr.w	r4, [r6, #8]!
     ff0:	5018      	str	r0, [r3, r0]
     ff2:	60e1      	str	r1, [r4, #12]
     ff4:	608c      	str	r4, [r1, #8]
     ff6:	60d3      	str	r3, [r2, #12]
     ff8:	6093      	str	r3, [r2, #8]
     ffa:	60da      	str	r2, [r3, #12]
     ffc:	609a      	str	r2, [r3, #8]
     ffe:	f040 0201 	orr.w	r2, r0, #1
    1002:	605a      	str	r2, [r3, #4]
    1004:	e00c      	b.n	1020 <__ARM_grp_.debug_frame$53+0x30>
    1006:	2800      	cmp	r0, #0
    1008:	db0e      	blt.n	1028 <__ARM_grp_.debug_frame$53+0x38>
    100a:	eb06 0308 	add.w	r3, r6, r8
    100e:	685a      	ldr	r2, [r3, #4]
    1010:	f042 0201 	orr.w	r2, r2, #1
    1014:	605a      	str	r2, [r3, #4]
    1016:	68f3      	ldr	r3, [r6, #12]
    1018:	f856 2f08 	ldr.w	r2, [r6, #8]!
    101c:	60d3      	str	r3, [r2, #12]
    101e:	609a      	str	r2, [r3, #8]
    1020:	4638      	mov	r0, r7
    1022:	f000 f919 	bl	1258 <__malloc_unlock>
    1026:	e0d8      	b.n	11da <__ARM_grp_.debug_frame$i._ZN4mbed10FileHandle4flenEv+0x2a>
    1028:	68f6      	ldr	r6, [r6, #12]
    102a:	4566      	cmp	r6, ip
    102c:	d1d2      	bne.n	fd4 <__ARM_grp_.debug_frame$50+0x28>
    102e:	f10e 0e01 	add.w	lr, lr, #1
    1032:	f01e 0f03 	tst.w	lr, #3
    1036:	d101      	bne.n	103c <__ARM_grp_.debug_frame$56+0x8>
    1038:	4648      	mov	r0, r9
    103a:	e002      	b.n	1042 <__ARM_grp_.debug_frame$56+0xe>
    103c:	f10c 0c08 	add.w	ip, ip, #8
    1040:	e7c5      	b.n	fce <__ARM_grp_.debug_frame$50+0x22>
    1042:	f011 0f03 	tst.w	r1, #3
    1046:	d104      	bne.n	1052 <__ARM_grp_.debug_frame$56+0x1e>
    1048:	6869      	ldr	r1, [r5, #4]
    104a:	ea21 0103 	bic.w	r1, r1, r3
    104e:	6069      	str	r1, [r5, #4]
    1050:	e006      	b.n	1060 <__ARM_grp_.debug_frame$56+0x2c>
    1052:	4606      	mov	r6, r0
    1054:	f856 0908 	ldr.w	r0, [r6], #-8
    1058:	42b0      	cmp	r0, r6
    105a:	d101      	bne.n	1060 <__ARM_grp_.debug_frame$56+0x2c>
    105c:	3901      	subs	r1, #1
    105e:	e7f0      	b.n	1042 <__ARM_grp_.debug_frame$56+0xe>
    1060:	6868      	ldr	r0, [r5, #4]
    1062:	005b      	lsls	r3, r3, #1
    1064:	4283      	cmp	r3, r0
    1066:	d809      	bhi.n	107c <__ARM_grp_.debug_frame$59+0x4>
    1068:	b143      	cbz	r3, 107c <__ARM_grp_.debug_frame$59+0x4>
    106a:	4671      	mov	r1, lr
    106c:	e001      	b.n	1072 <__ARM_grp_.debug_frame$56+0x3e>
    106e:	3104      	adds	r1, #4
    1070:	005b      	lsls	r3, r3, #1
    1072:	4203      	tst	r3, r0
    1074:	d1a7      	bne.n	fc6 <__ARM_grp_.debug_frame$50+0x1a>
    1076:	e7fa      	b.n	106e <__ARM_grp_.debug_frame$56+0x3a>
    1078:	10000114 	.word	0x10000114
    107c:	f8d5 8008 	ldr.w	r8, [r5, #8]
    1080:	f8d8 3004 	ldr.w	r3, [r8, #4]
    1084:	f023 0903 	bic.w	r9, r3, #3
    1088:	45a1      	cmp	r9, r4
    108a:	d304      	bcc.n	1096 <__ARM_grp_.debug_frame$59+0x1e>
    108c:	ebc4 0309 	rsb	r3, r4, r9
    1090:	2b0f      	cmp	r3, #15
    1092:	f300 8095 	bgt.w	11c0 <__ARM_grp_.debug_frame$i._ZN4mbed10FileHandle4flenEv+0x10>
    1096:	4b52      	ldr	r3, [pc, #328]	; (11e0 <__ARM_grp_.debug_frame$i._ZN4mbed10FileHandle4flenEv+0x30>)
    1098:	4638      	mov	r0, r7
    109a:	681b      	ldr	r3, [r3, #0]
    109c:	f103 0a10 	add.w	sl, r3, #16
    10a0:	4b50      	ldr	r3, [pc, #320]	; (11e4 <__ARM_grp_.debug_frame$i._ZN4mbed10FileHandle4flenEv+0x34>)
    10a2:	44a2      	add	sl, r4
    10a4:	681a      	ldr	r2, [r3, #0]
    10a6:	9301      	str	r3, [sp, #4]
    10a8:	f1b2 3fff 	cmp.w	r2, #4294967295
    10ac:	bf1c      	itt	ne
    10ae:	f10a 0a7f 	addne.w	sl, sl, #127	; 0x7f
    10b2:	f02a 0a7f 	bicne.w	sl, sl, #127	; 0x7f
    10b6:	4651      	mov	r1, sl
    10b8:	f000 fa4c 	bl	1554 <_sbrk_r>
    10bc:	9b01      	ldr	r3, [sp, #4]
    10be:	f1b0 3fff 	cmp.w	r0, #4294967295
    10c2:	4606      	mov	r6, r0
    10c4:	d06e      	beq.n	11a4 <__ARM_grp_.debug_frame$68+0x44>
    10c6:	eb08 0209 	add.w	r2, r8, r9
    10ca:	4290      	cmp	r0, r2
    10cc:	d201      	bcs.n	10d2 <__ARM_grp_.debug_frame$62+0x16>
    10ce:	45a8      	cmp	r8, r5
    10d0:	d168      	bne.n	11a4 <__ARM_grp_.debug_frame$68+0x44>
    10d2:	4945      	ldr	r1, [pc, #276]	; (11e8 <__ARM_grp_.debug_frame$i._ZN4mbed10FileHandle4flenEv+0x38>)
    10d4:	4296      	cmp	r6, r2
    10d6:	468b      	mov	fp, r1
    10d8:	6808      	ldr	r0, [r1, #0]
    10da:	4450      	add	r0, sl
    10dc:	6008      	str	r0, [r1, #0]
    10de:	d108      	bne.n	10f2 <__ARM_grp_.debug_frame$62+0x36>
    10e0:	f016 0f7f 	tst.w	r6, #127	; 0x7f
    10e4:	d105      	bne.n	10f2 <__ARM_grp_.debug_frame$62+0x36>
    10e6:	68ab      	ldr	r3, [r5, #8]
    10e8:	44d1      	add	r9, sl
    10ea:	f049 0201 	orr.w	r2, r9, #1
    10ee:	605a      	str	r2, [r3, #4]
    10f0:	e04c      	b.n	118c <__ARM_grp_.debug_frame$68+0x2c>
    10f2:	681b      	ldr	r3, [r3, #0]
    10f4:	f1b3 3fff 	cmp.w	r3, #4294967295
    10f8:	d102      	bne.n	1100 <__ARM_grp_.debug_frame$62+0x44>
    10fa:	4b3a      	ldr	r3, [pc, #232]	; (11e4 <__ARM_grp_.debug_frame$i._ZN4mbed10FileHandle4flenEv+0x34>)
    10fc:	601e      	str	r6, [r3, #0]
    10fe:	e003      	b.n	1108 <__ARM_grp_.debug_frame$62+0x4c>
    1100:	1830      	adds	r0, r6, r0
    1102:	1a82      	subs	r2, r0, r2
    1104:	f8cb 2000 	str.w	r2, [fp]
    1108:	f016 0307 	ands.w	r3, r6, #7
    110c:	4638      	mov	r0, r7
    110e:	bf1c      	itt	ne
    1110:	f1c3 0308 	rsbne	r3, r3, #8
    1114:	18f6      	addne	r6, r6, r3
    1116:	3380      	adds	r3, #128	; 0x80
    1118:	44b2      	add	sl, r6
    111a:	f00a 0a7f 	and.w	sl, sl, #127	; 0x7f
    111e:	ebca 0a03 	rsb	sl, sl, r3
    1122:	4651      	mov	r1, sl
    1124:	f000 fa16 	bl	1554 <_sbrk_r>
    1128:	f8db 3000 	ldr.w	r3, [fp]
    112c:	60ae      	str	r6, [r5, #8]
    112e:	f1b0 3fff 	cmp.w	r0, #4294967295
    1132:	bf04      	itt	eq
    1134:	4630      	moveq	r0, r6
    1136:	f04f 0a00 	moveq.w	sl, #0
    113a:	1b80      	subs	r0, r0, r6
    113c:	45a8      	cmp	r8, r5
    113e:	4450      	add	r0, sl
    1140:	4453      	add	r3, sl
    1142:	f040 0001 	orr.w	r0, r0, #1
    1146:	f8cb 3000 	str.w	r3, [fp]
    114a:	6070      	str	r0, [r6, #4]
    114c:	d01e      	beq.n	118c <__ARM_grp_.debug_frame$68+0x2c>
    114e:	f1b9 0f0f 	cmp.w	r9, #15
    1152:	d802      	bhi.n	115a <__ARM_grp_.debug_frame$65+0x4a>
    1154:	2301      	movs	r3, #1
    1156:	6073      	str	r3, [r6, #4]
    1158:	e024      	b.n	11a4 <__ARM_grp_.debug_frame$68+0x44>
    115a:	f8d8 3004 	ldr.w	r3, [r8, #4]
    115e:	f1a9 090c 	sub.w	r9, r9, #12
    1162:	f029 0907 	bic.w	r9, r9, #7
    1166:	2205      	movs	r2, #5
    1168:	f003 0301 	and.w	r3, r3, #1
    116c:	f1b9 0f0f 	cmp.w	r9, #15
    1170:	ea49 0303 	orr.w	r3, r9, r3
    1174:	f8c8 3004 	str.w	r3, [r8, #4]
    1178:	eb08 0309 	add.w	r3, r8, r9
    117c:	605a      	str	r2, [r3, #4]
    117e:	609a      	str	r2, [r3, #8]
    1180:	d904      	bls.n	118c <__ARM_grp_.debug_frame$68+0x2c>
    1182:	4638      	mov	r0, r7
    1184:	f108 0108 	add.w	r1, r8, #8
    1188:	f002 fad8 	bl	373c <_free_r>
    118c:	4a17      	ldr	r2, [pc, #92]	; (11ec <__ARM_grp_.debug_frame$i._ZN4mbed10FileHandle4flenEv+0x3c>)
    118e:	f8db 3000 	ldr.w	r3, [fp]
    1192:	6811      	ldr	r1, [r2, #0]
    1194:	428b      	cmp	r3, r1
    1196:	bf88      	it	hi
    1198:	6013      	strhi	r3, [r2, #0]
    119a:	4a15      	ldr	r2, [pc, #84]	; (11f0 <__ARM_grp_.debug_frame$i._ZN4mbed10FileHandle4flenEv+0x40>)
    119c:	6811      	ldr	r1, [r2, #0]
    119e:	428b      	cmp	r3, r1
    11a0:	bf88      	it	hi
    11a2:	6013      	strhi	r3, [r2, #0]
    11a4:	68ab      	ldr	r3, [r5, #8]
    11a6:	685b      	ldr	r3, [r3, #4]
    11a8:	f023 0303 	bic.w	r3, r3, #3
    11ac:	42a3      	cmp	r3, r4
    11ae:	d302      	bcc.n	11b6 <__ARM_grp_.debug_frame$i._ZN4mbed10FileHandle4flenEv+0x6>
    11b0:	1b1b      	subs	r3, r3, r4
    11b2:	2b0f      	cmp	r3, #15
    11b4:	dc04      	bgt.n	11c0 <__ARM_grp_.debug_frame$i._ZN4mbed10FileHandle4flenEv+0x10>
    11b6:	4638      	mov	r0, r7
    11b8:	f000 f84e 	bl	1258 <__malloc_unlock>
    11bc:	2600      	movs	r6, #0
    11be:	e00c      	b.n	11da <__ARM_grp_.debug_frame$i._ZN4mbed10FileHandle4flenEv+0x2a>
    11c0:	68ae      	ldr	r6, [r5, #8]
    11c2:	f044 0201 	orr.w	r2, r4, #1
    11c6:	f043 0301 	orr.w	r3, r3, #1
    11ca:	1934      	adds	r4, r6, r4
    11cc:	60ac      	str	r4, [r5, #8]
    11ce:	6072      	str	r2, [r6, #4]
    11d0:	6063      	str	r3, [r4, #4]
    11d2:	4638      	mov	r0, r7
    11d4:	3608      	adds	r6, #8
    11d6:	f000 f83f 	bl	1258 <__malloc_unlock>
    11da:	4630      	mov	r0, r6
    11dc:	e8bd 8ffe 	ldmia.w	sp!, {r1, r2, r3, r4, r5, r6, r7, r8, r9, sl, fp, pc}
    11e0:	1000058c 	.word	0x1000058c
    11e4:	10000520 	.word	0x10000520
    11e8:	10000590 	.word	0x10000590
    11ec:	10000588 	.word	0x10000588
    11f0:	10000584 	.word	0x10000584

000011f4 <memchr>:
    11f4:	b510      	push	{r4, lr}
    11f6:	b2c9      	uxtb	r1, r1
    11f8:	e003      	b.n	1202 <memchr+0xe>
    11fa:	f810 4b01 	ldrb.w	r4, [r0], #1
    11fe:	428c      	cmp	r4, r1
    1200:	d004      	beq.n	120c <memchr+0x18>
    1202:	3a01      	subs	r2, #1
    1204:	4603      	mov	r3, r0
    1206:	d2f8      	bcs.n	11fa <memchr+0x6>
    1208:	2000      	movs	r0, #0
    120a:	bd10      	pop	{r4, pc}
    120c:	4618      	mov	r0, r3
    120e:	bd10      	pop	{r4, pc}

00001210 <memcpy>:
    1210:	b510      	push	{r4, lr}
    1212:	1882      	adds	r2, r0, r2
    1214:	4603      	mov	r3, r0
    1216:	e003      	b.n	1220 <memcpy+0x10>
    1218:	f811 4b01 	ldrb.w	r4, [r1], #1
    121c:	f803 4b01 	strb.w	r4, [r3], #1
    1220:	4293      	cmp	r3, r2
    1222:	d3f9      	bcc.n	1218 <memcpy+0x8>
    1224:	bd10      	pop	{r4, pc}

00001226 <memmove>:
    1226:	4281      	cmp	r1, r0
    1228:	b510      	push	{r4, lr}
    122a:	4604      	mov	r4, r0
    122c:	d210      	bcs.n	1250 <memmove+0x2a>
    122e:	188b      	adds	r3, r1, r2
    1230:	4298      	cmp	r0, r3
    1232:	d20d      	bcs.n	1250 <memmove+0x2a>
    1234:	4619      	mov	r1, r3
    1236:	1883      	adds	r3, r0, r2
    1238:	e003      	b.n	1242 <memmove+0x1c>
    123a:	f811 4d01 	ldrb.w	r4, [r1, #-1]!
    123e:	f803 4d01 	strb.w	r4, [r3, #-1]!
    1242:	3a01      	subs	r2, #1
    1244:	d2f9      	bcs.n	123a <memmove+0x14>
    1246:	bd10      	pop	{r4, pc}
    1248:	f811 3b01 	ldrb.w	r3, [r1], #1
    124c:	f804 3b01 	strb.w	r3, [r4], #1
    1250:	3a01      	subs	r2, #1
    1252:	d2f9      	bcs.n	1248 <memmove+0x22>
    1254:	bd10      	pop	{r4, pc}

00001256 <__malloc_lock>:
    1256:	4770      	bx	lr

00001258 <__malloc_unlock>:
    1258:	4770      	bx	lr
	...

0000125c <_realloc_r>:
    125c:	e92d 4ff7 	stmdb	sp!, {r0, r1, r2, r4, r5, r6, r7, r8, r9, sl, fp, lr}
    1260:	4681      	mov	r9, r0
    1262:	4617      	mov	r7, r2
    1264:	460e      	mov	r6, r1
    1266:	b929      	cbnz	r1, 1274 <_realloc_r+0x18>
    1268:	4611      	mov	r1, r2
    126a:	b003      	add	sp, #12
    126c:	e8bd 4ff0 	ldmia.w	sp!, {r4, r5, r6, r7, r8, r9, sl, fp, lr}
    1270:	f7ff bdbc 	b.w	dec <_malloc_r>
    1274:	f107 050b 	add.w	r5, r7, #11
    1278:	f7ff ffed 	bl	1256 <__malloc_lock>
    127c:	f1a6 0a08 	sub.w	sl, r6, #8
    1280:	2d16      	cmp	r5, #22
    1282:	f8da 2004 	ldr.w	r2, [sl, #4]
    1286:	d903      	bls.n	1290 <_realloc_r+0x34>
    1288:	f035 0507 	bics.w	r5, r5, #7
    128c:	d501      	bpl.n	1292 <_realloc_r+0x36>
    128e:	e002      	b.n	1296 <_realloc_r+0x3a>
    1290:	2510      	movs	r5, #16
    1292:	42bd      	cmp	r5, r7
    1294:	d204      	bcs.n	12a0 <_realloc_r+0x44>
    1296:	230c      	movs	r3, #12
    1298:	2700      	movs	r7, #0
    129a:	f8c9 3000 	str.w	r3, [r9]
    129e:	e155      	b.n	154c <__ARM_grp_.debug_frame$17+0x8>
    12a0:	f022 0b03 	bic.w	fp, r2, #3
    12a4:	45ab      	cmp	fp, r5
    12a6:	f280 8126 	bge.w	14f6 <__ARM_grp_.debug_frame$11+0x46>
    12aa:	4b9f      	ldr	r3, [pc, #636]	; (1528 <__ARM_grp_.debug_frame$14+0x28>)
    12ac:	eb0a 010b 	add.w	r1, sl, fp
    12b0:	f8d3 e008 	ldr.w	lr, [r3, #8]
    12b4:	4571      	cmp	r1, lr
    12b6:	d007      	beq.n	12c8 <_realloc_r+0x6c>
    12b8:	6848      	ldr	r0, [r1, #4]
    12ba:	f020 0001 	bic.w	r0, r0, #1
    12be:	1808      	adds	r0, r1, r0
    12c0:	6840      	ldr	r0, [r0, #4]
    12c2:	f010 0f01 	tst.w	r0, #1
    12c6:	d125      	bne.n	1314 <__ARM_grp_.debug_frame$5+0x30>
    12c8:	6848      	ldr	r0, [r1, #4]
    12ca:	4571      	cmp	r1, lr
    12cc:	f020 0003 	bic.w	r0, r0, #3
    12d0:	eb00 080b 	add.w	r8, r0, fp
    12d4:	d117      	bne.n	1306 <__ARM_grp_.debug_frame$5+0x22>
    12d6:	f105 0410 	add.w	r4, r5, #16
    12da:	45a0      	cmp	r8, r4
    12dc:	db1c      	blt.n	1318 <__ARM_grp_.debug_frame$5+0x34>
    12de:	eb0a 0205 	add.w	r2, sl, r5
    12e2:	ebc5 0808 	rsb	r8, r5, r8
    12e6:	609a      	str	r2, [r3, #8]
    12e8:	f048 0301 	orr.w	r3, r8, #1
    12ec:	6053      	str	r3, [r2, #4]
    12ee:	4648      	mov	r0, r9
    12f0:	f8da 3004 	ldr.w	r3, [sl, #4]
    12f4:	4637      	mov	r7, r6
    12f6:	f003 0301 	and.w	r3, r3, #1
    12fa:	431d      	orrs	r5, r3
    12fc:	f8ca 5004 	str.w	r5, [sl, #4]
    1300:	f7ff ffaa 	bl	1258 <__malloc_unlock>
    1304:	e122      	b.n	154c <__ARM_grp_.debug_frame$17+0x8>
    1306:	45a8      	cmp	r8, r5
    1308:	db06      	blt.n	1318 <__ARM_grp_.debug_frame$5+0x34>
    130a:	68cb      	ldr	r3, [r1, #12]
    130c:	688a      	ldr	r2, [r1, #8]
    130e:	60d3      	str	r3, [r2, #12]
    1310:	609a      	str	r2, [r3, #8]
    1312:	e0f1      	b.n	14f8 <__ARM_grp_.debug_frame$11+0x48>
    1314:	2000      	movs	r0, #0
    1316:	4601      	mov	r1, r0
    1318:	f012 0f01 	tst.w	r2, #1
    131c:	f040 809c 	bne.w	1458 <__ARM_grp_.debug_frame$8+0x8>
    1320:	f856 4c08 	ldr.w	r4, [r6, #-8]
    1324:	ebc4 040a 	rsb	r4, r4, sl
    1328:	6862      	ldr	r2, [r4, #4]
    132a:	f022 0203 	bic.w	r2, r2, #3
    132e:	2900      	cmp	r1, #0
    1330:	d057      	beq.n	13e2 <__ARM_grp_.debug_frame$8+0xba>
    1332:	4571      	cmp	r1, lr
    1334:	eb02 080b 	add.w	r8, r2, fp
    1338:	d14b      	bne.n	13d2 <__ARM_grp_.debug_frame$8+0xaa>
    133a:	4480      	add	r8, r0
    133c:	f105 0110 	add.w	r1, r5, #16
    1340:	4588      	cmp	r8, r1
    1342:	db4e      	blt.n	13e2 <__ARM_grp_.debug_frame$8+0xba>
    1344:	4627      	mov	r7, r4
    1346:	68e2      	ldr	r2, [r4, #12]
    1348:	f857 1f08 	ldr.w	r1, [r7, #8]!
    134c:	60ca      	str	r2, [r1, #12]
    134e:	6091      	str	r1, [r2, #8]
    1350:	f1ab 0204 	sub.w	r2, fp, #4
    1354:	2a24      	cmp	r2, #36	; 0x24
    1356:	d829      	bhi.n	13ac <__ARM_grp_.debug_frame$8+0x84>
    1358:	2a13      	cmp	r2, #19
    135a:	4639      	mov	r1, r7
    135c:	d91b      	bls.n	1396 <__ARM_grp_.debug_frame$8+0x6e>
    135e:	4630      	mov	r0, r6
    1360:	f850 1b04 	ldr.w	r1, [r0], #4
    1364:	60a1      	str	r1, [r4, #8]
    1366:	6871      	ldr	r1, [r6, #4]
    1368:	1d06      	adds	r6, r0, #4
    136a:	2a1b      	cmp	r2, #27
    136c:	60e1      	str	r1, [r4, #12]
    136e:	f104 0110 	add.w	r1, r4, #16
    1372:	d910      	bls.n	1396 <__ARM_grp_.debug_frame$8+0x6e>
    1374:	6841      	ldr	r1, [r0, #4]
    1376:	1d30      	adds	r0, r6, #4
    1378:	6121      	str	r1, [r4, #16]
    137a:	6871      	ldr	r1, [r6, #4]
    137c:	3608      	adds	r6, #8
    137e:	2a24      	cmp	r2, #36	; 0x24
    1380:	6161      	str	r1, [r4, #20]
    1382:	f104 0118 	add.w	r1, r4, #24
    1386:	d106      	bne.n	1396 <__ARM_grp_.debug_frame$8+0x6e>
    1388:	6842      	ldr	r2, [r0, #4]
    138a:	f104 0120 	add.w	r1, r4, #32
    138e:	61a2      	str	r2, [r4, #24]
    1390:	6872      	ldr	r2, [r6, #4]
    1392:	3608      	adds	r6, #8
    1394:	61e2      	str	r2, [r4, #28]
    1396:	4630      	mov	r0, r6
    1398:	460a      	mov	r2, r1
    139a:	f850 eb04 	ldr.w	lr, [r0], #4
    139e:	f842 eb04 	str.w	lr, [r2], #4
    13a2:	6876      	ldr	r6, [r6, #4]
    13a4:	604e      	str	r6, [r1, #4]
    13a6:	6841      	ldr	r1, [r0, #4]
    13a8:	6051      	str	r1, [r2, #4]
    13aa:	e005      	b.n	13b8 <__ARM_grp_.debug_frame$8+0x90>
    13ac:	4638      	mov	r0, r7
    13ae:	4631      	mov	r1, r6
    13b0:	9301      	str	r3, [sp, #4]
    13b2:	f7ff ff38 	bl	1226 <memmove>
    13b6:	9b01      	ldr	r3, [sp, #4]
    13b8:	1962      	adds	r2, r4, r5
    13ba:	ebc5 0808 	rsb	r8, r5, r8
    13be:	609a      	str	r2, [r3, #8]
    13c0:	f048 0301 	orr.w	r3, r8, #1
    13c4:	6053      	str	r3, [r2, #4]
    13c6:	6863      	ldr	r3, [r4, #4]
    13c8:	f003 0301 	and.w	r3, r3, #1
    13cc:	431d      	orrs	r5, r3
    13ce:	6065      	str	r5, [r4, #4]
    13d0:	e08d      	b.n	14ee <__ARM_grp_.debug_frame$11+0x3e>
    13d2:	4480      	add	r8, r0
    13d4:	45a8      	cmp	r8, r5
    13d6:	db04      	blt.n	13e2 <__ARM_grp_.debug_frame$8+0xba>
    13d8:	68cb      	ldr	r3, [r1, #12]
    13da:	688a      	ldr	r2, [r1, #8]
    13dc:	60d3      	str	r3, [r2, #12]
    13de:	609a      	str	r2, [r3, #8]
    13e0:	e003      	b.n	13ea <__ARM_grp_.debug_frame$8+0xc2>
    13e2:	eb02 080b 	add.w	r8, r2, fp
    13e6:	45a8      	cmp	r8, r5
    13e8:	db36      	blt.n	1458 <__ARM_grp_.debug_frame$8+0x8>
    13ea:	4620      	mov	r0, r4
    13ec:	68e3      	ldr	r3, [r4, #12]
    13ee:	f850 2f08 	ldr.w	r2, [r0, #8]!
    13f2:	60d3      	str	r3, [r2, #12]
    13f4:	609a      	str	r2, [r3, #8]
    13f6:	f1ab 0204 	sub.w	r2, fp, #4
    13fa:	2a24      	cmp	r2, #36	; 0x24
    13fc:	d828      	bhi.n	1450 <__ARM_grp_.debug_frame$8>
    13fe:	2a13      	cmp	r2, #19
    1400:	d91b      	bls.n	143a <__ARM_grp_.debug_frame$5+0x3a>
    1402:	4633      	mov	r3, r6
    1404:	f104 0010 	add.w	r0, r4, #16
    1408:	f853 1b04 	ldr.w	r1, [r3], #4
    140c:	60a1      	str	r1, [r4, #8]
    140e:	6871      	ldr	r1, [r6, #4]
    1410:	1d1e      	adds	r6, r3, #4
    1412:	2a1b      	cmp	r2, #27
    1414:	60e1      	str	r1, [r4, #12]
    1416:	d910      	bls.n	143a <__ARM_grp_.debug_frame$5+0x3a>
    1418:	685b      	ldr	r3, [r3, #4]
    141a:	f104 0018 	add.w	r0, r4, #24
    141e:	6123      	str	r3, [r4, #16]
    1420:	1d33      	adds	r3, r6, #4
    1422:	6871      	ldr	r1, [r6, #4]
    1424:	3608      	adds	r6, #8
    1426:	2a24      	cmp	r2, #36	; 0x24
    1428:	6161      	str	r1, [r4, #20]
    142a:	d106      	bne.n	143a <__ARM_grp_.debug_frame$5+0x3a>
    142c:	685b      	ldr	r3, [r3, #4]
    142e:	f104 0020 	add.w	r0, r4, #32
    1432:	61a3      	str	r3, [r4, #24]
    1434:	6873      	ldr	r3, [r6, #4]
    1436:	3608      	adds	r6, #8
    1438:	61e3      	str	r3, [r4, #28]
    143a:	4632      	mov	r2, r6
    143c:	4603      	mov	r3, r0
    143e:	f852 1b04 	ldr.w	r1, [r2], #4
    1442:	f843 1b04 	str.w	r1, [r3], #4
    1446:	6871      	ldr	r1, [r6, #4]
    1448:	6041      	str	r1, [r0, #4]
    144a:	6852      	ldr	r2, [r2, #4]
    144c:	605a      	str	r2, [r3, #4]
    144e:	e054      	b.n	14fa <__ARM_grp_.debug_frame$11+0x4a>
    1450:	4631      	mov	r1, r6
    1452:	f7ff fee8 	bl	1226 <memmove>
    1456:	e050      	b.n	14fa <__ARM_grp_.debug_frame$11+0x4a>
    1458:	4639      	mov	r1, r7
    145a:	4648      	mov	r0, r9
    145c:	f7ff fcc6 	bl	dec <_malloc_r>
    1460:	4607      	mov	r7, r0
    1462:	2800      	cmp	r0, #0
    1464:	d043      	beq.n	14ee <__ARM_grp_.debug_frame$11+0x3e>
    1466:	f8da 2004 	ldr.w	r2, [sl, #4]
    146a:	f1a0 0308 	sub.w	r3, r0, #8
    146e:	f022 0201 	bic.w	r2, r2, #1
    1472:	4452      	add	r2, sl
    1474:	4293      	cmp	r3, r2
    1476:	d105      	bne.n	1484 <__ARM_grp_.debug_frame$8+0x34>
    1478:	f850 3c04 	ldr.w	r3, [r0, #-4]
    147c:	f023 0803 	bic.w	r8, r3, #3
    1480:	44d8      	add	r8, fp
    1482:	e039      	b.n	14f8 <__ARM_grp_.debug_frame$11+0x48>
    1484:	f1ab 0204 	sub.w	r2, fp, #4
    1488:	2a24      	cmp	r2, #36	; 0x24
    148a:	d829      	bhi.n	14e0 <__ARM_grp_.debug_frame$11+0x30>
    148c:	2a13      	cmp	r2, #19
    148e:	4631      	mov	r1, r6
    1490:	4603      	mov	r3, r0
    1492:	d91a      	bls.n	14ca <__ARM_grp_.debug_frame$11+0x1a>
    1494:	4634      	mov	r4, r6
    1496:	f854 3b04 	ldr.w	r3, [r4], #4
    149a:	1d21      	adds	r1, r4, #4
    149c:	f840 3b04 	str.w	r3, [r0], #4
    14a0:	6873      	ldr	r3, [r6, #4]
    14a2:	607b      	str	r3, [r7, #4]
    14a4:	1d03      	adds	r3, r0, #4
    14a6:	2a1b      	cmp	r2, #27
    14a8:	d90f      	bls.n	14ca <__ARM_grp_.debug_frame$11+0x1a>
    14aa:	6864      	ldr	r4, [r4, #4]
    14ac:	6044      	str	r4, [r0, #4]
    14ae:	1d0c      	adds	r4, r1, #4
    14b0:	6849      	ldr	r1, [r1, #4]
    14b2:	1d18      	adds	r0, r3, #4
    14b4:	6059      	str	r1, [r3, #4]
    14b6:	3308      	adds	r3, #8
    14b8:	1d21      	adds	r1, r4, #4
    14ba:	2a24      	cmp	r2, #36	; 0x24
    14bc:	d105      	bne.n	14ca <__ARM_grp_.debug_frame$11+0x1a>
    14be:	6862      	ldr	r2, [r4, #4]
    14c0:	6042      	str	r2, [r0, #4]
    14c2:	684a      	ldr	r2, [r1, #4]
    14c4:	3108      	adds	r1, #8
    14c6:	605a      	str	r2, [r3, #4]
    14c8:	3308      	adds	r3, #8
    14ca:	4608      	mov	r0, r1
    14cc:	461a      	mov	r2, r3
    14ce:	f850 4b04 	ldr.w	r4, [r0], #4
    14d2:	f842 4b04 	str.w	r4, [r2], #4
    14d6:	6849      	ldr	r1, [r1, #4]
    14d8:	6059      	str	r1, [r3, #4]
    14da:	6843      	ldr	r3, [r0, #4]
    14dc:	6053      	str	r3, [r2, #4]
    14de:	e002      	b.n	14e6 <__ARM_grp_.debug_frame$11+0x36>
    14e0:	4631      	mov	r1, r6
    14e2:	f7ff fea0 	bl	1226 <memmove>
    14e6:	4648      	mov	r0, r9
    14e8:	4631      	mov	r1, r6
    14ea:	f002 f927 	bl	373c <_free_r>
    14ee:	4648      	mov	r0, r9
    14f0:	f7ff feb2 	bl	1258 <__malloc_unlock>
    14f4:	e02a      	b.n	154c <__ARM_grp_.debug_frame$17+0x8>
    14f6:	46d8      	mov	r8, fp
    14f8:	4654      	mov	r4, sl
    14fa:	ebc5 0308 	rsb	r3, r5, r8
    14fe:	6862      	ldr	r2, [r4, #4]
    1500:	2b0f      	cmp	r3, #15
    1502:	d913      	bls.n	152c <__ARM_grp_.debug_frame$14+0x2c>
    1504:	1961      	adds	r1, r4, r5
    1506:	f002 0201 	and.w	r2, r2, #1
    150a:	4315      	orrs	r5, r2
    150c:	f043 0201 	orr.w	r2, r3, #1
    1510:	18cb      	adds	r3, r1, r3
    1512:	6065      	str	r5, [r4, #4]
    1514:	604a      	str	r2, [r1, #4]
    1516:	4648      	mov	r0, r9
    1518:	685a      	ldr	r2, [r3, #4]
    151a:	3108      	adds	r1, #8
    151c:	f042 0201 	orr.w	r2, r2, #1
    1520:	605a      	str	r2, [r3, #4]
    1522:	f002 f90b 	bl	373c <_free_r>
    1526:	e00c      	b.n	1542 <__ARM_grp_.debug_frame$14+0x42>
    1528:	10000114 	.word	0x10000114
    152c:	eb04 0308 	add.w	r3, r4, r8
    1530:	f002 0201 	and.w	r2, r2, #1
    1534:	ea48 0202 	orr.w	r2, r8, r2
    1538:	6062      	str	r2, [r4, #4]
    153a:	685a      	ldr	r2, [r3, #4]
    153c:	f042 0201 	orr.w	r2, r2, #1
    1540:	605a      	str	r2, [r3, #4]
    1542:	4648      	mov	r0, r9
    1544:	f104 0708 	add.w	r7, r4, #8
    1548:	f7ff fe86 	bl	1258 <__malloc_unlock>
    154c:	4638      	mov	r0, r7
    154e:	b003      	add	sp, #12
    1550:	e8bd 8ff0 	ldmia.w	sp!, {r4, r5, r6, r7, r8, r9, sl, fp, pc}

00001554 <_sbrk_r>:
    1554:	b538      	push	{r3, r4, r5, lr}
    1556:	4605      	mov	r5, r0
    1558:	4c06      	ldr	r4, [pc, #24]	; (1574 <_sbrk_r+0x20>)
    155a:	4608      	mov	r0, r1
    155c:	2300      	movs	r3, #0
    155e:	6023      	str	r3, [r4, #0]
    1560:	f7fe fe5a 	bl	218 <_sbrk>
    1564:	f1b0 3fff 	cmp.w	r0, #4294967295
    1568:	d102      	bne.n	1570 <_sbrk_r+0x1c>
    156a:	6823      	ldr	r3, [r4, #0]
    156c:	b103      	cbz	r3, 1570 <_sbrk_r+0x1c>
    156e:	602b      	str	r3, [r5, #0]
    1570:	bd38      	pop	{r3, r4, r5, pc}
    1572:	bf00      	nop
    1574:	100005c4 	.word	0x100005c4

00001578 <_raise_r>:
    1578:	291f      	cmp	r1, #31
    157a:	b570      	push	{r4, r5, r6, lr}
    157c:	4605      	mov	r5, r0
    157e:	460c      	mov	r4, r1
    1580:	d904      	bls.n	158c <__ARM_grp_.debug_frame$20+0x4>
    1582:	2316      	movs	r3, #22
    1584:	6003      	str	r3, [r0, #0]
    1586:	f04f 30ff 	mov.w	r0, #4294967295
    158a:	bd70      	pop	{r4, r5, r6, pc}
    158c:	6c42      	ldr	r2, [r0, #68]	; 0x44
    158e:	b112      	cbz	r2, 1596 <__ARM_grp_.debug_frame$20+0xe>
    1590:	f852 3021 	ldr.w	r3, [r2, r1, lsl #2]
    1594:	b94b      	cbnz	r3, 15aa <__ARM_grp_.debug_frame$20+0x22>
    1596:	4628      	mov	r0, r5
    1598:	f000 f834 	bl	1604 <_getpid_r>
    159c:	4622      	mov	r2, r4
    159e:	4601      	mov	r1, r0
    15a0:	4628      	mov	r0, r5
    15a2:	e8bd 4070 	ldmia.w	sp!, {r4, r5, r6, lr}
    15a6:	f000 b81b 	b.w	15e0 <_kill_r>
    15aa:	2b01      	cmp	r3, #1
    15ac:	d00d      	beq.n	15ca <__ARM_grp_.debug_frame$20+0x42>
    15ae:	f1b3 3fff 	cmp.w	r3, #4294967295
    15b2:	d103      	bne.n	15bc <__ARM_grp_.debug_frame$20+0x34>
    15b4:	3317      	adds	r3, #23
    15b6:	6003      	str	r3, [r0, #0]
    15b8:	2001      	movs	r0, #1
    15ba:	bd70      	pop	{r4, r5, r6, pc}
    15bc:	2500      	movs	r5, #0
    15be:	4608      	mov	r0, r1
    15c0:	f842 5021 	str.w	r5, [r2, r1, lsl #2]
    15c4:	4798      	blx	r3
    15c6:	4628      	mov	r0, r5
    15c8:	bd70      	pop	{r4, r5, r6, pc}
    15ca:	2000      	movs	r0, #0
    15cc:	bd70      	pop	{r4, r5, r6, pc}
	...

000015d0 <raise>:
    15d0:	4b02      	ldr	r3, [pc, #8]	; (15dc <raise+0xc>)
    15d2:	4601      	mov	r1, r0
    15d4:	6818      	ldr	r0, [r3, #0]
    15d6:	f7ff bfcf 	b.w	1578 <_raise_r>
    15da:	bf00      	nop
    15dc:	10000110 	.word	0x10000110

000015e0 <_kill_r>:
    15e0:	b538      	push	{r3, r4, r5, lr}
    15e2:	4605      	mov	r5, r0
    15e4:	4c06      	ldr	r4, [pc, #24]	; (1600 <_kill_r+0x20>)
    15e6:	4608      	mov	r0, r1
    15e8:	4611      	mov	r1, r2
    15ea:	2300      	movs	r3, #0
    15ec:	6023      	str	r3, [r4, #0]
    15ee:	f7fe fe05 	bl	1fc <_kill>
    15f2:	f1b0 3fff 	cmp.w	r0, #4294967295
    15f6:	d102      	bne.n	15fe <_kill_r+0x1e>
    15f8:	6823      	ldr	r3, [r4, #0]
    15fa:	b103      	cbz	r3, 15fe <_kill_r+0x1e>
    15fc:	602b      	str	r3, [r5, #0]
    15fe:	bd38      	pop	{r3, r4, r5, pc}
    1600:	100005c4 	.word	0x100005c4

00001604 <_getpid_r>:
    1604:	f7fe be06 	b.w	214 <_getpid>

00001608 <sprintf>:
    1608:	b40e      	push	{r1, r2, r3}
    160a:	f44f 7102 	mov.w	r1, #520	; 0x208
    160e:	b500      	push	{lr}
    1610:	b09c      	sub	sp, #112	; 0x70
    1612:	ab1d      	add	r3, sp, #116	; 0x74
    1614:	f8ad 1010 	strh.w	r1, [sp, #16]
    1618:	f06f 4100 	mvn.w	r1, #2147483648	; 0x80000000
    161c:	9103      	str	r1, [sp, #12]
    161e:	9106      	str	r1, [sp, #24]
    1620:	f04f 31ff 	mov.w	r1, #4294967295
    1624:	f8ad 1012 	strh.w	r1, [sp, #18]
    1628:	4908      	ldr	r1, [pc, #32]	; (164c <__ARM_grp_.debug_frame$26+0x3c>)
    162a:	f853 2b04 	ldr.w	r2, [r3], #4
    162e:	9001      	str	r0, [sp, #4]
    1630:	9005      	str	r0, [sp, #20]
    1632:	6808      	ldr	r0, [r1, #0]
    1634:	a901      	add	r1, sp, #4
    1636:	931b      	str	r3, [sp, #108]	; 0x6c
    1638:	f000 f8be 	bl	17b8 <_svfprintf_r>
    163c:	9b01      	ldr	r3, [sp, #4]
    163e:	2200      	movs	r2, #0
    1640:	701a      	strb	r2, [r3, #0]
    1642:	b01c      	add	sp, #112	; 0x70
    1644:	f85d eb04 	ldr.w	lr, [sp], #4
    1648:	b003      	add	sp, #12
    164a:	4770      	bx	lr
    164c:	10000110 	.word	0x10000110

00001650 <strcmp>:
    1650:	f810 2b01 	ldrb.w	r2, [r0], #1
    1654:	f811 3b01 	ldrb.w	r3, [r1], #1
    1658:	2a01      	cmp	r2, #1
    165a:	bf28      	it	cs
    165c:	429a      	cmpcs	r2, r3
    165e:	d0f7      	beq.n	1650 <strcmp>
    1660:	eba2 0003 	sub.w	r0, r2, r3
    1664:	4770      	bx	lr

00001666 <strlen>:
    1666:	4603      	mov	r3, r0
    1668:	43c0      	mvns	r0, r0
    166a:	f813 2b01 	ldrb.w	r2, [r3], #1
    166e:	2a00      	cmp	r2, #0
    1670:	d1fb      	bne.n	166a <strlen+0x4>
    1672:	1818      	adds	r0, r3, r0
    1674:	4770      	bx	lr
	...

00001678 <_strtol_r>:
    1678:	e92d 4ff7 	stmdb	sp!, {r0, r1, r2, r4, r5, r6, r7, r8, r9, sl, fp, lr}
    167c:	4698      	mov	r8, r3
    167e:	4b46      	ldr	r3, [pc, #280]	; (1798 <__ARM_grp_.debug_frame$8+0x24>)
    1680:	460c      	mov	r4, r1
    1682:	4615      	mov	r5, r2
    1684:	9001      	str	r0, [sp, #4]
    1686:	f8d3 b000 	ldr.w	fp, [r3]
    168a:	460b      	mov	r3, r1
    168c:	f813 6b01 	ldrb.w	r6, [r3], #1
    1690:	eb0b 0206 	add.w	r2, fp, r6
    1694:	461f      	mov	r7, r3
    1696:	f892 9001 	ldrb.w	r9, [r2, #1]
    169a:	f019 0908 	ands.w	r9, r9, #8
    169e:	d1f5      	bne.n	168c <_strtol_r+0x14>
    16a0:	2e2d      	cmp	r6, #45	; 0x2d
    16a2:	d104      	bne.n	16ae <__ARM_grp_.debug_frame$32+0x16>
    16a4:	f817 6b01 	ldrb.w	r6, [r7], #1
    16a8:	f04f 0901 	mov.w	r9, #1
    16ac:	e003      	b.n	16b6 <__ARM_grp_.debug_frame$32+0x1e>
    16ae:	2e2b      	cmp	r6, #43	; 0x2b
    16b0:	bf08      	it	eq
    16b2:	f817 6b01 	ldrbeq.w	r6, [r7], #1
    16b6:	f1b8 0f00 	cmp.w	r8, #0
    16ba:	d002      	beq.n	16c2 <__ARM_grp_.debug_frame$32+0x2a>
    16bc:	f1b8 0f10 	cmp.w	r8, #16
    16c0:	d114      	bne.n	16ec <__ARM_grp_.debug_frame$5+0x10>
    16c2:	2e30      	cmp	r6, #48	; 0x30
    16c4:	d109      	bne.n	16da <__ARM_grp_.debug_frame$32+0x42>
    16c6:	783b      	ldrb	r3, [r7, #0]
    16c8:	2b78      	cmp	r3, #120	; 0x78
    16ca:	d001      	beq.n	16d0 <__ARM_grp_.debug_frame$32+0x38>
    16cc:	2b58      	cmp	r3, #88	; 0x58
    16ce:	d104      	bne.n	16da <__ARM_grp_.debug_frame$32+0x42>
    16d0:	787e      	ldrb	r6, [r7, #1]
    16d2:	f04f 0810 	mov.w	r8, #16
    16d6:	3702      	adds	r7, #2
    16d8:	e008      	b.n	16ec <__ARM_grp_.debug_frame$5+0x10>
    16da:	f1b8 0f00 	cmp.w	r8, #0
    16de:	d105      	bne.n	16ec <__ARM_grp_.debug_frame$5+0x10>
    16e0:	2e30      	cmp	r6, #48	; 0x30
    16e2:	bf14      	ite	ne
    16e4:	f04f 080a 	movne.w	r8, #10
    16e8:	f04f 0808 	moveq.w	r8, #8
    16ec:	f1b9 0f00 	cmp.w	r9, #0
    16f0:	4641      	mov	r1, r8
    16f2:	bf0c      	ite	eq
    16f4:	f06f 4a00 	mvneq.w	sl, #2147483648	; 0x80000000
    16f8:	f04f 4a00 	movne.w	sl, #2147483648	; 0x80000000
    16fc:	4650      	mov	r0, sl
    16fe:	f002 fde1 	bl	42c4 <__aeabi_uidivmod>
    1702:	4650      	mov	r0, sl
    1704:	460b      	mov	r3, r1
    1706:	4641      	mov	r1, r8
    1708:	9300      	str	r3, [sp, #0]
    170a:	f002 fcad 	bl	4068 <__aeabi_uidiv>
    170e:	2100      	movs	r1, #0
    1710:	9b00      	ldr	r3, [sp, #0]
    1712:	460a      	mov	r2, r1
    1714:	eb0b 0c06 	add.w	ip, fp, r6
    1718:	f89c c001 	ldrb.w	ip, [ip, #1]
    171c:	f01c 0f04 	tst.w	ip, #4
    1720:	d001      	beq.n	1726 <__ARM_grp_.debug_frame$5+0x4a>
    1722:	3e30      	subs	r6, #48	; 0x30
    1724:	e00b      	b.n	173e <__ARM_grp_.debug_frame$5+0xe>
    1726:	f01c 0c03 	ands.w	ip, ip, #3
    172a:	d01b      	beq.n	1764 <__ARM_grp_.debug_frame$5+0x34>
    172c:	f1bc 0f01 	cmp.w	ip, #1
    1730:	bf14      	ite	ne
    1732:	f04f 0c57 	movne.w	ip, #87	; 0x57
    1736:	f04f 0c37 	moveq.w	ip, #55	; 0x37
    173a:	ebcc 0606 	rsb	r6, ip, r6
    173e:	4546      	cmp	r6, r8
    1740:	da10      	bge.n	1764 <__ARM_grp_.debug_frame$5+0x34>
    1742:	f1b1 3fff 	cmp.w	r1, #4294967295
    1746:	d00a      	beq.n	175e <__ARM_grp_.debug_frame$5+0x2e>
    1748:	4282      	cmp	r2, r0
    174a:	d806      	bhi.n	175a <__ARM_grp_.debug_frame$5+0x2a>
    174c:	d101      	bne.n	1752 <__ARM_grp_.debug_frame$5+0x22>
    174e:	429e      	cmp	r6, r3
    1750:	dc03      	bgt.n	175a <__ARM_grp_.debug_frame$5+0x2a>
    1752:	fb08 6202 	mla	r2, r8, r2, r6
    1756:	2101      	movs	r1, #1
    1758:	e001      	b.n	175e <__ARM_grp_.debug_frame$5+0x2e>
    175a:	f04f 31ff 	mov.w	r1, #4294967295
    175e:	f817 6b01 	ldrb.w	r6, [r7], #1
    1762:	e7d7      	b.n	1714 <__ARM_grp_.debug_frame$5+0x38>
    1764:	f1b1 3fff 	cmp.w	r1, #4294967295
    1768:	d10a      	bne.n	1780 <__ARM_grp_.debug_frame$8+0xc>
    176a:	9801      	ldr	r0, [sp, #4]
    176c:	f1b9 0f00 	cmp.w	r9, #0
    1770:	bf0c      	ite	eq
    1772:	f06f 4200 	mvneq.w	r2, #2147483648	; 0x80000000
    1776:	f04f 4200 	movne.w	r2, #2147483648	; 0x80000000
    177a:	2322      	movs	r3, #34	; 0x22
    177c:	6003      	str	r3, [r0, #0]
    177e:	e003      	b.n	1788 <__ARM_grp_.debug_frame$8+0x14>
    1780:	f1b9 0f00 	cmp.w	r9, #0
    1784:	d000      	beq.n	1788 <__ARM_grp_.debug_frame$8+0x14>
    1786:	4252      	negs	r2, r2
    1788:	b115      	cbz	r5, 1790 <__ARM_grp_.debug_frame$8+0x1c>
    178a:	b101      	cbz	r1, 178e <__ARM_grp_.debug_frame$8+0x1a>
    178c:	1e7c      	subs	r4, r7, #1
    178e:	602c      	str	r4, [r5, #0]
    1790:	4610      	mov	r0, r2
    1792:	e8bd 8ffe 	ldmia.w	sp!, {r1, r2, r3, r4, r5, r6, r7, r8, r9, sl, fp, pc}
    1796:	bf00      	nop
    1798:	10000524 	.word	0x10000524

0000179c <strtol>:
    179c:	4613      	mov	r3, r2
    179e:	4a05      	ldr	r2, [pc, #20]	; (17b4 <strtol+0x18>)
    17a0:	b530      	push	{r4, r5, lr}
    17a2:	4605      	mov	r5, r0
    17a4:	460c      	mov	r4, r1
    17a6:	6810      	ldr	r0, [r2, #0]
    17a8:	4629      	mov	r1, r5
    17aa:	4622      	mov	r2, r4
    17ac:	e8bd 4030 	ldmia.w	sp!, {r4, r5, lr}
    17b0:	f7ff bf62 	b.w	1678 <_strtol_r>
    17b4:	10000110 	.word	0x10000110

000017b8 <_svfprintf_r>:
    17b8:	e92d 4ff0 	stmdb	sp!, {r4, r5, r6, r7, r8, r9, sl, fp, lr}
    17bc:	b0bf      	sub	sp, #252	; 0xfc
    17be:	460f      	mov	r7, r1
    17c0:	461e      	mov	r6, r3
    17c2:	4615      	mov	r5, r2
    17c4:	4680      	mov	r8, r0
    17c6:	f002 f879 	bl	38bc <_localeconv_r>
    17ca:	6800      	ldr	r0, [r0, #0]
    17cc:	9013      	str	r0, [sp, #76]	; 0x4c
    17ce:	f7ff ff4a 	bl	1666 <strlen>
    17d2:	89bb      	ldrh	r3, [r7, #12]
    17d4:	f013 0f80 	tst.w	r3, #128	; 0x80
    17d8:	9012      	str	r0, [sp, #72]	; 0x48
    17da:	d011      	beq.n	1800 <__ARM_grp_.debug_frame$11+0x34>
    17dc:	693b      	ldr	r3, [r7, #16]
    17de:	b97b      	cbnz	r3, 1800 <__ARM_grp_.debug_frame$11+0x34>
    17e0:	4640      	mov	r0, r8
    17e2:	2140      	movs	r1, #64	; 0x40
    17e4:	f7ff fb02 	bl	dec <_malloc_r>
    17e8:	6038      	str	r0, [r7, #0]
    17ea:	6138      	str	r0, [r7, #16]
    17ec:	b930      	cbnz	r0, 17fc <__ARM_grp_.debug_frame$11+0x30>
    17ee:	230c      	movs	r3, #12
    17f0:	3801      	subs	r0, #1
    17f2:	f8c8 3000 	str.w	r3, [r8]
    17f6:	900f      	str	r0, [sp, #60]	; 0x3c
    17f8:	f001 b856 	b.w	28a8 <__ARM_grp_.debug_frame$23+0x64c>
    17fc:	2340      	movs	r3, #64	; 0x40
    17fe:	617b      	str	r3, [r7, #20]
    1800:	2300      	movs	r3, #0
    1802:	ac19      	add	r4, sp, #100	; 0x64
    1804:	9335      	str	r3, [sp, #212]	; 0xd4
    1806:	9433      	str	r4, [sp, #204]	; 0xcc
    1808:	9334      	str	r3, [sp, #208]	; 0xd0
    180a:	950c      	str	r5, [sp, #48]	; 0x30
    180c:	930b      	str	r3, [sp, #44]	; 0x2c
    180e:	9310      	str	r3, [sp, #64]	; 0x40
    1810:	9311      	str	r3, [sp, #68]	; 0x44
    1812:	9316      	str	r3, [sp, #88]	; 0x58
    1814:	9315      	str	r3, [sp, #84]	; 0x54
    1816:	930f      	str	r3, [sp, #60]	; 0x3c
    1818:	9b0c      	ldr	r3, [sp, #48]	; 0x30
    181a:	461d      	mov	r5, r3
    181c:	f813 2b01 	ldrb.w	r2, [r3], #1
    1820:	b10a      	cbz	r2, 1826 <__ARM_grp_.debug_frame$11+0x5a>
    1822:	2a25      	cmp	r2, #37	; 0x25
    1824:	d1f9      	bne.n	181a <__ARM_grp_.debug_frame$11+0x4e>
    1826:	990c      	ldr	r1, [sp, #48]	; 0x30
    1828:	ebb5 0901 	subs.w	r9, r5, r1
    182c:	d018      	beq.n	1860 <__ARM_grp_.debug_frame$14+0x1c>
    182e:	9b35      	ldr	r3, [sp, #212]	; 0xd4
    1830:	6021      	str	r1, [r4, #0]
    1832:	f8c4 9004 	str.w	r9, [r4, #4]
    1836:	444b      	add	r3, r9
    1838:	9335      	str	r3, [sp, #212]	; 0xd4
    183a:	9b34      	ldr	r3, [sp, #208]	; 0xd0
    183c:	3301      	adds	r3, #1
    183e:	9334      	str	r3, [sp, #208]	; 0xd0
    1840:	2b07      	cmp	r3, #7
    1842:	dc01      	bgt.n	1848 <__ARM_grp_.debug_frame$14+0x4>
    1844:	3408      	adds	r4, #8
    1846:	e008      	b.n	185a <__ARM_grp_.debug_frame$14+0x16>
    1848:	4640      	mov	r0, r8
    184a:	4639      	mov	r1, r7
    184c:	aa33      	add	r2, sp, #204	; 0xcc
    184e:	f002 fb63 	bl	3f18 <__ssprint_r>
    1852:	2800      	cmp	r0, #0
    1854:	f041 801f 	bne.w	2896 <__ARM_grp_.debug_frame$23+0x63a>
    1858:	ac19      	add	r4, sp, #100	; 0x64
    185a:	9a0f      	ldr	r2, [sp, #60]	; 0x3c
    185c:	444a      	add	r2, r9
    185e:	920f      	str	r2, [sp, #60]	; 0x3c
    1860:	782b      	ldrb	r3, [r5, #0]
    1862:	2b00      	cmp	r3, #0
    1864:	f001 8010 	beq.w	2888 <__ARM_grp_.debug_frame$23+0x62c>
    1868:	2300      	movs	r3, #0
    186a:	3501      	adds	r5, #1
    186c:	950c      	str	r5, [sp, #48]	; 0x30
    186e:	461d      	mov	r5, r3
    1870:	f88d 30f7 	strb.w	r3, [sp, #247]	; 0xf7
    1874:	f04f 3cff 	mov.w	ip, #4294967295
    1878:	930d      	str	r3, [sp, #52]	; 0x34
    187a:	462a      	mov	r2, r5
    187c:	9b0c      	ldr	r3, [sp, #48]	; 0x30
    187e:	e005      	b.n	188c <__ARM_grp_.debug_frame$17+0x4>
    1880:	460e      	mov	r6, r1
    1882:	e003      	b.n	188c <__ARM_grp_.debug_frame$17+0x4>
    1884:	461e      	mov	r6, r3
    1886:	f04f 3cff 	mov.w	ip, #4294967295
    188a:	460b      	mov	r3, r1
    188c:	f813 9b01 	ldrb.w	r9, [r3], #1
    1890:	f1a9 0120 	sub.w	r1, r9, #32
    1894:	2958      	cmp	r1, #88	; 0x58
    1896:	f200 8412 	bhi.w	20be <__ARM_grp_.debug_frame$17+0x3e>
    189a:	e8df f011 	tbh	[pc, r1, lsl #1]
    189e:	0059      	.short	0x0059
    18a0:	04100410 	.word	0x04100410
    18a4:	0410005f 	.word	0x0410005f
    18a8:	04100410 	.word	0x04100410
    18ac:	04100410 	.word	0x04100410
    18b0:	00620410 	.word	0x00620410
    18b4:	0410006b 	.word	0x0410006b
    18b8:	006f0068 	.word	0x006f0068
    18bc:	00920410 	.word	0x00920410
    18c0:	00950095 	.word	0x00950095
    18c4:	00950095 	.word	0x00950095
    18c8:	00950095 	.word	0x00950095
    18cc:	00950095 	.word	0x00950095
    18d0:	04100095 	.word	0x04100095
    18d4:	04100410 	.word	0x04100410
    18d8:	04100410 	.word	0x04100410
    18dc:	04100410 	.word	0x04100410
    18e0:	04100410 	.word	0x04100410
    18e4:	00c00410 	.word	0x00c00410
    18e8:	041000fd 	.word	0x041000fd
    18ec:	041000fd 	.word	0x041000fd
    18f0:	04100410 	.word	0x04100410
    18f4:	00a40410 	.word	0x00a40410
    18f8:	04100410 	.word	0x04100410
    18fc:	041002a8 	.word	0x041002a8
    1900:	04100410 	.word	0x04100410
    1904:	04100410 	.word	0x04100410
    1908:	04100313 	.word	0x04100313
    190c:	03450410 	.word	0x03450410
    1910:	04100410 	.word	0x04100410
    1914:	04100410 	.word	0x04100410
    1918:	04100410 	.word	0x04100410
    191c:	04100410 	.word	0x04100410
    1920:	04100410 	.word	0x04100410
    1924:	00c500b5 	.word	0x00c500b5
    1928:	00fd00fd 	.word	0x00fd00fd
    192c:	00a700fd 	.word	0x00a700fd
    1930:	041000c5 	.word	0x041000c5
    1934:	00aa0410 	.word	0x00aa0410
    1938:	028a0410 	.word	0x028a0410
    193c:	02d902ad 	.word	0x02d902ad
    1940:	041000b2 	.word	0x041000b2
    1944:	041002ed 	.word	0x041002ed
    1948:	04100318 	.word	0x04100318
    194c:	03400410 	.word	0x03400410
    1950:	f89d 10f7 	ldrb.w	r1, [sp, #247]	; 0xf7
    1954:	2900      	cmp	r1, #0
    1956:	d199      	bne.n	188c <__ARM_grp_.debug_frame$17+0x4>
    1958:	3120      	adds	r1, #32
    195a:	e00c      	b.n	1976 <__ARM_grp_.debug_frame$11+0xa>
    195c:	f045 0501 	orr.w	r5, r5, #1
    1960:	e794      	b.n	188c <__ARM_grp_.debug_frame$17+0x4>
    1962:	6832      	ldr	r2, [r6, #0]
    1964:	1d31      	adds	r1, r6, #4
    1966:	2a00      	cmp	r2, #0
    1968:	da8a      	bge.n	1880 <__ARM_grp_.debug_frame$14+0x3c>
    196a:	4252      	negs	r2, r2
    196c:	460e      	mov	r6, r1
    196e:	f045 0504 	orr.w	r5, r5, #4
    1972:	e78b      	b.n	188c <__ARM_grp_.debug_frame$17+0x4>
    1974:	212b      	movs	r1, #43	; 0x2b
    1976:	f88d 10f7 	strb.w	r1, [sp, #247]	; 0xf7
    197a:	e787      	b.n	188c <__ARM_grp_.debug_frame$17+0x4>
    197c:	4619      	mov	r1, r3
    197e:	f811 9b01 	ldrb.w	r9, [r1], #1
    1982:	f1b9 0f2a 	cmp.w	r9, #42	; 0x2a
    1986:	d003      	beq.n	1990 <__ARM_grp_.debug_frame$11+0x24>
    1988:	4619      	mov	r1, r3
    198a:	f04f 0c00 	mov.w	ip, #0
    198e:	e010      	b.n	19b2 <__ARM_grp_.debug_frame$11+0x46>
    1990:	f8d6 c000 	ldr.w	ip, [r6]
    1994:	1d33      	adds	r3, r6, #4
    1996:	f1bc 0f00 	cmp.w	ip, #0
    199a:	f6ff af73 	blt.w	1884 <__ARM_grp_.debug_frame$14+0x40>
    199e:	461e      	mov	r6, r3
    19a0:	460b      	mov	r3, r1
    19a2:	e773      	b.n	188c <__ARM_grp_.debug_frame$17+0x4>
    19a4:	f04f 090a 	mov.w	r9, #10
    19a8:	fb09 0c0c 	mla	ip, r9, ip, r0
    19ac:	f891 9001 	ldrb.w	r9, [r1, #1]
    19b0:	4619      	mov	r1, r3
    19b2:	f1a9 0030 	sub.w	r0, r9, #48	; 0x30
    19b6:	3301      	adds	r3, #1
    19b8:	2809      	cmp	r0, #9
    19ba:	d9f3      	bls.n	19a4 <__ARM_grp_.debug_frame$11+0x38>
    19bc:	ea4c 7cec 	orr.w	ip, ip, ip, asr #31
    19c0:	e766      	b.n	1890 <__ARM_grp_.debug_frame$17+0x8>
    19c2:	f045 0580 	orr.w	r5, r5, #128	; 0x80
    19c6:	e761      	b.n	188c <__ARM_grp_.debug_frame$17+0x4>
    19c8:	4619      	mov	r1, r3
    19ca:	2200      	movs	r2, #0
    19cc:	230a      	movs	r3, #10
    19ce:	f1a9 0930 	sub.w	r9, r9, #48	; 0x30
    19d2:	fb03 9202 	mla	r2, r3, r2, r9
    19d6:	f811 9b01 	ldrb.w	r9, [r1], #1
    19da:	f1a9 0030 	sub.w	r0, r9, #48	; 0x30
    19de:	460b      	mov	r3, r1
    19e0:	2809      	cmp	r0, #9
    19e2:	d9f3      	bls.n	19cc <__ARM_grp_.debug_frame$5+0x10>
    19e4:	e754      	b.n	1890 <__ARM_grp_.debug_frame$17+0x8>
    19e6:	f045 0508 	orr.w	r5, r5, #8
    19ea:	e74f      	b.n	188c <__ARM_grp_.debug_frame$17+0x4>
    19ec:	f045 0540 	orr.w	r5, r5, #64	; 0x40
    19f0:	e74c      	b.n	188c <__ARM_grp_.debug_frame$17+0x4>
    19f2:	7819      	ldrb	r1, [r3, #0]
    19f4:	296c      	cmp	r1, #108	; 0x6c
    19f6:	d101      	bne.n	19fc <__ARM_grp_.debug_frame$5+0x40>
    19f8:	3301      	adds	r3, #1
    19fa:	e002      	b.n	1a02 <__ARM_grp_.debug_frame$5+0x46>
    19fc:	f045 0510 	orr.w	r5, r5, #16
    1a00:	e744      	b.n	188c <__ARM_grp_.debug_frame$17+0x4>
    1a02:	f045 0520 	orr.w	r5, r5, #32
    1a06:	e741      	b.n	188c <__ARM_grp_.debug_frame$17+0x4>
    1a08:	930c      	str	r3, [sp, #48]	; 0x30
    1a0a:	f04f 0c00 	mov.w	ip, #0
    1a0e:	6833      	ldr	r3, [r6, #0]
    1a10:	3604      	adds	r6, #4
    1a12:	920d      	str	r2, [sp, #52]	; 0x34
    1a14:	f88d c0f7 	strb.w	ip, [sp, #247]	; 0xf7
    1a18:	f88d 30a4 	strb.w	r3, [sp, #164]	; 0xa4
    1a1c:	e35b      	b.n	20d6 <__ARM_grp_.debug_frame$5+0x12>
    1a1e:	930c      	str	r3, [sp, #48]	; 0x30
    1a20:	f045 0510 	orr.w	r5, r5, #16
    1a24:	920d      	str	r2, [sp, #52]	; 0x34
    1a26:	e001      	b.n	1a2c <__ARM_grp_.debug_frame$8+0x20>
    1a28:	930c      	str	r3, [sp, #48]	; 0x30
    1a2a:	920d      	str	r2, [sp, #52]	; 0x34
    1a2c:	f015 0f20 	tst.w	r5, #32
    1a30:	d009      	beq.n	1a46 <__ARM_grp_.debug_frame$8+0x3a>
    1a32:	3607      	adds	r6, #7
    1a34:	f026 0307 	bic.w	r3, r6, #7
    1a38:	f103 0608 	add.w	r6, r3, #8
    1a3c:	e9d3 0100 	ldrd	r0, r1, [r3]
    1a40:	e9cd 0108 	strd	r0, r1, [sp, #32]
    1a44:	e016      	b.n	1a74 <__ARM_grp_.debug_frame$11+0x18>
    1a46:	f015 0f10 	tst.w	r5, #16
    1a4a:	f106 0304 	add.w	r3, r6, #4
    1a4e:	d001      	beq.n	1a54 <__ARM_grp_.debug_frame$8+0x48>
    1a50:	6832      	ldr	r2, [r6, #0]
    1a52:	e009      	b.n	1a68 <__ARM_grp_.debug_frame$11+0xc>
    1a54:	f015 0f40 	tst.w	r5, #64	; 0x40
    1a58:	6832      	ldr	r2, [r6, #0]
    1a5a:	d005      	beq.n	1a68 <__ARM_grp_.debug_frame$11+0xc>
    1a5c:	b212      	sxth	r2, r2
    1a5e:	4610      	mov	r0, r2
    1a60:	17d1      	asrs	r1, r2, #31
    1a62:	e9cd 0108 	strd	r0, r1, [sp, #32]
    1a66:	e004      	b.n	1a72 <__ARM_grp_.debug_frame$11+0x16>
    1a68:	4692      	mov	sl, r2
    1a6a:	ea4f 7be2 	mov.w	fp, r2, asr #31
    1a6e:	e9cd ab08 	strd	sl, fp, [sp, #32]
    1a72:	461e      	mov	r6, r3
    1a74:	e9dd 0108 	ldrd	r0, r1, [sp, #32]
    1a78:	2800      	cmp	r0, #0
    1a7a:	f171 0100 	sbcs.w	r1, r1, #0
    1a7e:	f280 828e 	bge.w	1f9e <__ARM_grp_.debug_frame$8+0x2>
    1a82:	e9dd 2308 	ldrd	r2, r3, [sp, #32]
    1a86:	4252      	negs	r2, r2
    1a88:	eb63 0343 	sbc.w	r3, r3, r3, lsl #1
    1a8c:	e9cd 2308 	strd	r2, r3, [sp, #32]
    1a90:	232d      	movs	r3, #45	; 0x2d
    1a92:	f88d 30f7 	strb.w	r3, [sp, #247]	; 0xf7
    1a96:	e282      	b.n	1f9e <__ARM_grp_.debug_frame$8+0x2>
    1a98:	930c      	str	r3, [sp, #48]	; 0x30
    1a9a:	1df3      	adds	r3, r6, #7
    1a9c:	f015 0f08 	tst.w	r5, #8
    1aa0:	f023 0307 	bic.w	r3, r3, #7
    1aa4:	920d      	str	r2, [sp, #52]	; 0x34
    1aa6:	f103 0608 	add.w	r6, r3, #8
    1aaa:	bf14      	ite	ne
    1aac:	6818      	ldrne	r0, [r3, #0]
    1aae:	6819      	ldreq	r1, [r3, #0]
    1ab0:	f8cd 9038 	str.w	r9, [sp, #56]	; 0x38
    1ab4:	bf14      	ite	ne
    1ab6:	9010      	strne	r0, [sp, #64]	; 0x40
    1ab8:	9110      	streq	r1, [sp, #64]	; 0x40
    1aba:	685b      	ldr	r3, [r3, #4]
    1abc:	9810      	ldr	r0, [sp, #64]	; 0x40
    1abe:	f8cd c018 	str.w	ip, [sp, #24]
    1ac2:	9311      	str	r3, [sp, #68]	; 0x44
    1ac4:	9911      	ldr	r1, [sp, #68]	; 0x44
    1ac6:	f002 f9f5 	bl	3eb4 <__fpclassifyd>
    1aca:	f8dd c018 	ldr.w	ip, [sp, #24]
    1ace:	2801      	cmp	r0, #1
    1ad0:	d119      	bne.n	1b06 <__ARM_grp_.debug_frame$17+0x22>
    1ad2:	9810      	ldr	r0, [sp, #64]	; 0x40
    1ad4:	2200      	movs	r2, #0
    1ad6:	9911      	ldr	r1, [sp, #68]	; 0x44
    1ad8:	2300      	movs	r3, #0
    1ada:	f002 fdbb 	bl	4654 <__aeabi_dcmplt>
    1ade:	b110      	cbz	r0, 1ae6 <__ARM_grp_.debug_frame$17+0x2>
    1ae0:	232d      	movs	r3, #45	; 0x2d
    1ae2:	f88d 30f7 	strb.w	r3, [sp, #247]	; 0xf7
    1ae6:	4ba9      	ldr	r3, [pc, #676]	; (1d8c <__ARM_grp_.debug_frame$29+0xc>)
    1ae8:	f04f 0c00 	mov.w	ip, #0
    1aec:	4aa8      	ldr	r2, [pc, #672]	; (1d90 <__ARM_grp_.debug_frame$29+0x10>)
    1aee:	f025 0580 	bic.w	r5, r5, #128	; 0x80
    1af2:	f04f 0b03 	mov.w	fp, #3
    1af6:	f8cd c020 	str.w	ip, [sp, #32]
    1afa:	f1b9 0f47 	cmp.w	r9, #71	; 0x47
    1afe:	bfcc      	ite	gt
    1b00:	4692      	movgt	sl, r2
    1b02:	469a      	movle	sl, r3
    1b04:	e2fd      	b.n	2102 <__ARM_grp_.debug_frame$5+0x3e>
    1b06:	9810      	ldr	r0, [sp, #64]	; 0x40
    1b08:	9911      	ldr	r1, [sp, #68]	; 0x44
    1b0a:	f8cd c018 	str.w	ip, [sp, #24]
    1b0e:	f002 f9d1 	bl	3eb4 <__fpclassifyd>
    1b12:	f8dd c018 	ldr.w	ip, [sp, #24]
    1b16:	b958      	cbnz	r0, 1b30 <__ARM_grp_.debug_frame$5+0x8>
    1b18:	4b9e      	ldr	r3, [pc, #632]	; (1d94 <__ARM_grp_.debug_frame$29+0x14>)
    1b1a:	f025 0580 	bic.w	r5, r5, #128	; 0x80
    1b1e:	4a9e      	ldr	r2, [pc, #632]	; (1d98 <__ARM_grp_.debug_frame$29+0x18>)
    1b20:	f04f 0b03 	mov.w	fp, #3
    1b24:	f1b9 0f47 	cmp.w	r9, #71	; 0x47
    1b28:	bfcc      	ite	gt
    1b2a:	4692      	movgt	sl, r2
    1b2c:	469a      	movle	sl, r3
    1b2e:	e2dd      	b.n	20ec <__ARM_grp_.debug_frame$5+0x28>
    1b30:	f1bc 3fff 	cmp.w	ip, #4294967295
    1b34:	d00b      	beq.n	1b4e <__ARM_grp_.debug_frame$5+0x26>
    1b36:	f1b9 0f67 	cmp.w	r9, #103	; 0x67
    1b3a:	d002      	beq.n	1b42 <__ARM_grp_.debug_frame$5+0x1a>
    1b3c:	f1b9 0f47 	cmp.w	r9, #71	; 0x47
    1b40:	d107      	bne.n	1b52 <__ARM_grp_.debug_frame$5+0x2a>
    1b42:	f1bc 0f00 	cmp.w	ip, #0
    1b46:	bf08      	it	eq
    1b48:	f04f 0c01 	moveq.w	ip, #1
    1b4c:	e001      	b.n	1b52 <__ARM_grp_.debug_frame$5+0x2a>
    1b4e:	f04f 0c06 	mov.w	ip, #6
    1b52:	9b11      	ldr	r3, [sp, #68]	; 0x44
    1b54:	f445 7580 	orr.w	r5, r5, #256	; 0x100
    1b58:	2b00      	cmp	r3, #0
    1b5a:	da05      	bge.n	1b68 <__ARM_grp_.debug_frame$5+0x40>
    1b5c:	f103 4200 	add.w	r2, r3, #2147483648	; 0x80000000
    1b60:	232d      	movs	r3, #45	; 0x2d
    1b62:	920b      	str	r2, [sp, #44]	; 0x2c
    1b64:	9314      	str	r3, [sp, #80]	; 0x50
    1b66:	e003      	b.n	1b70 <__ARM_grp_.debug_frame$5+0x48>
    1b68:	9811      	ldr	r0, [sp, #68]	; 0x44
    1b6a:	2100      	movs	r1, #0
    1b6c:	9114      	str	r1, [sp, #80]	; 0x50
    1b6e:	900b      	str	r0, [sp, #44]	; 0x2c
    1b70:	f1b9 0f66 	cmp.w	r9, #102	; 0x66
    1b74:	d00b      	beq.n	1b8e <__ARM_grp_.debug_frame$8+0x16>
    1b76:	f1b9 0f46 	cmp.w	r9, #70	; 0x46
    1b7a:	d008      	beq.n	1b8e <__ARM_grp_.debug_frame$8+0x16>
    1b7c:	f1b9 0f65 	cmp.w	r9, #101	; 0x65
    1b80:	d002      	beq.n	1b88 <__ARM_grp_.debug_frame$8+0x10>
    1b82:	f1b9 0f45 	cmp.w	r9, #69	; 0x45
    1b86:	d105      	bne.n	1b94 <__ARM_grp_.debug_frame$8+0x1c>
    1b88:	f10c 0b01 	add.w	fp, ip, #1
    1b8c:	e003      	b.n	1b96 <__ARM_grp_.debug_frame$8+0x1e>
    1b8e:	46e3      	mov	fp, ip
    1b90:	2303      	movs	r3, #3
    1b92:	e001      	b.n	1b98 <__ARM_grp_.debug_frame$8+0x20>
    1b94:	46e3      	mov	fp, ip
    1b96:	2302      	movs	r3, #2
    1b98:	9300      	str	r3, [sp, #0]
    1b9a:	4640      	mov	r0, r8
    1b9c:	ab3c      	add	r3, sp, #240	; 0xf0
    1b9e:	9a10      	ldr	r2, [sp, #64]	; 0x40
    1ba0:	9302      	str	r3, [sp, #8]
    1ba2:	ab3b      	add	r3, sp, #236	; 0xec
    1ba4:	9303      	str	r3, [sp, #12]
    1ba6:	ab3a      	add	r3, sp, #232	; 0xe8
    1ba8:	9304      	str	r3, [sp, #16]
    1baa:	9b0b      	ldr	r3, [sp, #44]	; 0x2c
    1bac:	f8cd c018 	str.w	ip, [sp, #24]
    1bb0:	f8cd b004 	str.w	fp, [sp, #4]
    1bb4:	f000 ff74 	bl	2aa0 <_dtoa_r>
    1bb8:	f1b9 0f67 	cmp.w	r9, #103	; 0x67
    1bbc:	f8dd c018 	ldr.w	ip, [sp, #24]
    1bc0:	4682      	mov	sl, r0
    1bc2:	d002      	beq.n	1bca <__ARM_grp_.debug_frame$11+0x6>
    1bc4:	f1b9 0f47 	cmp.w	r9, #71	; 0x47
    1bc8:	d102      	bne.n	1bd0 <__ARM_grp_.debug_frame$11+0xc>
    1bca:	f015 0f01 	tst.w	r5, #1
    1bce:	d034      	beq.n	1c3a <__ARM_grp_.debug_frame$14+0x2e>
    1bd0:	f1b9 0f66 	cmp.w	r9, #102	; 0x66
    1bd4:	eb0a 020b 	add.w	r2, sl, fp
    1bd8:	9208      	str	r2, [sp, #32]
    1bda:	d002      	beq.n	1be2 <__ARM_grp_.debug_frame$11+0x1e>
    1bdc:	f1b9 0f46 	cmp.w	r9, #70	; 0x46
    1be0:	d115      	bne.n	1c0e <__ARM_grp_.debug_frame$14+0x2>
    1be2:	f89a 3000 	ldrb.w	r3, [sl]
    1be6:	2b30      	cmp	r3, #48	; 0x30
    1be8:	d10d      	bne.n	1c06 <__ARM_grp_.debug_frame$11+0x42>
    1bea:	9810      	ldr	r0, [sp, #64]	; 0x40
    1bec:	2200      	movs	r2, #0
    1bee:	990b      	ldr	r1, [sp, #44]	; 0x2c
    1bf0:	2300      	movs	r3, #0
    1bf2:	f8cd c018 	str.w	ip, [sp, #24]
    1bf6:	f002 fd23 	bl	4640 <__aeabi_dcmpeq>
    1bfa:	f8dd c018 	ldr.w	ip, [sp, #24]
    1bfe:	b910      	cbnz	r0, 1c06 <__ARM_grp_.debug_frame$11+0x42>
    1c00:	f1cb 0301 	rsb	r3, fp, #1
    1c04:	933c      	str	r3, [sp, #240]	; 0xf0
    1c06:	9808      	ldr	r0, [sp, #32]
    1c08:	9b3c      	ldr	r3, [sp, #240]	; 0xf0
    1c0a:	18c0      	adds	r0, r0, r3
    1c0c:	9008      	str	r0, [sp, #32]
    1c0e:	9810      	ldr	r0, [sp, #64]	; 0x40
    1c10:	2200      	movs	r2, #0
    1c12:	990b      	ldr	r1, [sp, #44]	; 0x2c
    1c14:	2300      	movs	r3, #0
    1c16:	f8cd c018 	str.w	ip, [sp, #24]
    1c1a:	f002 fd11 	bl	4640 <__aeabi_dcmpeq>
    1c1e:	f8dd c018 	ldr.w	ip, [sp, #24]
    1c22:	b130      	cbz	r0, 1c32 <__ARM_grp_.debug_frame$14+0x26>
    1c24:	9908      	ldr	r1, [sp, #32]
    1c26:	913a      	str	r1, [sp, #232]	; 0xe8
    1c28:	e003      	b.n	1c32 <__ARM_grp_.debug_frame$14+0x26>
    1c2a:	2230      	movs	r2, #48	; 0x30
    1c2c:	f803 2b01 	strb.w	r2, [r3], #1
    1c30:	933a      	str	r3, [sp, #232]	; 0xe8
    1c32:	9b3a      	ldr	r3, [sp, #232]	; 0xe8
    1c34:	9a08      	ldr	r2, [sp, #32]
    1c36:	4293      	cmp	r3, r2
    1c38:	d3f7      	bcc.n	1c2a <__ARM_grp_.debug_frame$14+0x1e>
    1c3a:	9b3a      	ldr	r3, [sp, #232]	; 0xe8
    1c3c:	f1b9 0f67 	cmp.w	r9, #103	; 0x67
    1c40:	ebca 0303 	rsb	r3, sl, r3
    1c44:	930b      	str	r3, [sp, #44]	; 0x2c
    1c46:	9b3c      	ldr	r3, [sp, #240]	; 0xf0
    1c48:	d002      	beq.n	1c50 <__ARM_grp_.debug_frame$14+0x44>
    1c4a:	f1b9 0f47 	cmp.w	r9, #71	; 0x47
    1c4e:	d108      	bne.n	1c62 <__ARM_grp_.debug_frame$17+0xe>
    1c50:	f113 0f03 	cmn.w	r3, #3
    1c54:	469b      	mov	fp, r3
    1c56:	db01      	blt.n	1c5c <__ARM_grp_.debug_frame$17+0x8>
    1c58:	4563      	cmp	r3, ip
    1c5a:	dd75      	ble.n	1d48 <__ARM_grp_.debug_frame$26+0x14>
    1c5c:	f1a9 0902 	sub.w	r9, r9, #2
    1c60:	e002      	b.n	1c68 <__ARM_grp_.debug_frame$17+0x14>
    1c62:	f1b9 0f66 	cmp.w	r9, #102	; 0x66
    1c66:	d059      	beq.n	1d1c <__ARM_grp_.debug_frame$23+0x34>
    1c68:	f103 3bff 	add.w	fp, r3, #4294967295
    1c6c:	f88d 90e0 	strb.w	r9, [sp, #224]	; 0xe0
    1c70:	f1bb 0f00 	cmp.w	fp, #0
    1c74:	f8cd b0f0 	str.w	fp, [sp, #240]	; 0xf0
    1c78:	da03      	bge.n	1c82 <__ARM_grp_.debug_frame$17+0x2e>
    1c7a:	f1cb 0b00 	rsb	fp, fp, #0
    1c7e:	232d      	movs	r3, #45	; 0x2d
    1c80:	e000      	b.n	1c84 <__ARM_grp_.debug_frame$17+0x30>
    1c82:	232b      	movs	r3, #43	; 0x2b
    1c84:	f1bb 0f09 	cmp.w	fp, #9
    1c88:	f88d 30e1 	strb.w	r3, [sp, #225]	; 0xe1
    1c8c:	dd2f      	ble.n	1cee <__ARM_grp_.debug_frame$23+0x6>
    1c8e:	f10d 03de 	add.w	r3, sp, #222	; 0xde
    1c92:	4652      	mov	r2, sl
    1c94:	46cc      	mov	ip, r9
    1c96:	46a2      	mov	sl, r4
    1c98:	461c      	mov	r4, r3
    1c9a:	4658      	mov	r0, fp
    1c9c:	210a      	movs	r1, #10
    1c9e:	9207      	str	r2, [sp, #28]
    1ca0:	46a1      	mov	r9, r4
    1ca2:	f8cd c018 	str.w	ip, [sp, #24]
    1ca6:	f002 fc65 	bl	4574 <__aeabi_idivmod>
    1caa:	4658      	mov	r0, fp
    1cac:	3130      	adds	r1, #48	; 0x30
    1cae:	f804 1901 	strb.w	r1, [r4], #-1
    1cb2:	210a      	movs	r1, #10
    1cb4:	f002 fb14 	bl	42e0 <__aeabi_idiv>
    1cb8:	9a07      	ldr	r2, [sp, #28]
    1cba:	f8dd c018 	ldr.w	ip, [sp, #24]
    1cbe:	2809      	cmp	r0, #9
    1cc0:	4683      	mov	fp, r0
    1cc2:	dcea      	bgt.n	1c9a <__ARM_grp_.debug_frame$17+0x46>
    1cc4:	4654      	mov	r4, sl
    1cc6:	4692      	mov	sl, r2
    1cc8:	464a      	mov	r2, r9
    1cca:	f100 0b30 	add.w	fp, r0, #48	; 0x30
    1cce:	46e1      	mov	r9, ip
    1cd0:	f10d 03e2 	add.w	r3, sp, #226	; 0xe2
    1cd4:	f802 bc01 	strb.w	fp, [r2, #-1]
    1cd8:	3a01      	subs	r2, #1
    1cda:	e003      	b.n	1ce4 <__ARM_grp_.debug_frame$20+0x44>
    1cdc:	f812 1b01 	ldrb.w	r1, [r2], #1
    1ce0:	f803 1b01 	strb.w	r1, [r3], #1
    1ce4:	f10d 01df 	add.w	r1, sp, #223	; 0xdf
    1ce8:	428a      	cmp	r2, r1
    1cea:	d3f7      	bcc.n	1cdc <__ARM_grp_.debug_frame$20+0x3c>
    1cec:	e006      	b.n	1cfc <__ARM_grp_.debug_frame$23+0x14>
    1cee:	2330      	movs	r3, #48	; 0x30
    1cf0:	f88d 30e2 	strb.w	r3, [sp, #226]	; 0xe2
    1cf4:	449b      	add	fp, r3
    1cf6:	ab39      	add	r3, sp, #228	; 0xe4
    1cf8:	f88d b0e3 	strb.w	fp, [sp, #227]	; 0xe3
    1cfc:	aa38      	add	r2, sp, #224	; 0xe0
    1cfe:	1a9a      	subs	r2, r3, r2
    1d00:	9b0b      	ldr	r3, [sp, #44]	; 0x2c
    1d02:	9215      	str	r2, [sp, #84]	; 0x54
    1d04:	2b01      	cmp	r3, #1
    1d06:	eb02 0b03 	add.w	fp, r2, r3
    1d0a:	dc02      	bgt.n	1d12 <__ARM_grp_.debug_frame$23+0x2a>
    1d0c:	f015 0301 	ands.w	r3, r5, #1
    1d10:	d044      	beq.n	1d9c <__ARM_grp_.debug_frame$29+0x1c>
    1d12:	2000      	movs	r0, #0
    1d14:	f10b 0b01 	add.w	fp, fp, #1
    1d18:	9008      	str	r0, [sp, #32]
    1d1a:	e040      	b.n	1d9e <__ARM_grp_.debug_frame$29+0x1e>
    1d1c:	2b00      	cmp	r3, #0
    1d1e:	469b      	mov	fp, r3
    1d20:	dd09      	ble.n	1d36 <__ARM_grp_.debug_frame$26+0x2>
    1d22:	f1bc 0f00 	cmp.w	ip, #0
    1d26:	d102      	bne.n	1d2e <__ARM_grp_.debug_frame$23+0x46>
    1d28:	f015 0f01 	tst.w	r5, #1
    1d2c:	d028      	beq.n	1d80 <__ARM_grp_.debug_frame$29>
    1d2e:	f103 0b01 	add.w	fp, r3, #1
    1d32:	44e3      	add	fp, ip
    1d34:	e024      	b.n	1d80 <__ARM_grp_.debug_frame$29>
    1d36:	f1bc 0f00 	cmp.w	ip, #0
    1d3a:	d102      	bne.n	1d42 <__ARM_grp_.debug_frame$26+0xe>
    1d3c:	f015 0f01 	tst.w	r5, #1
    1d40:	d019      	beq.n	1d76 <__ARM_grp_.debug_frame$26+0x42>
    1d42:	f10c 0b02 	add.w	fp, ip, #2
    1d46:	e01b      	b.n	1d80 <__ARM_grp_.debug_frame$29>
    1d48:	990b      	ldr	r1, [sp, #44]	; 0x2c
    1d4a:	428b      	cmp	r3, r1
    1d4c:	db07      	blt.n	1d5e <__ARM_grp_.debug_frame$26+0x2a>
    1d4e:	f015 0f01 	tst.w	r5, #1
    1d52:	d013      	beq.n	1d7c <__ARM_grp_.debug_frame$26+0x48>
    1d54:	2267      	movs	r2, #103	; 0x67
    1d56:	f103 0b01 	add.w	fp, r3, #1
    1d5a:	920e      	str	r2, [sp, #56]	; 0x38
    1d5c:	e010      	b.n	1d80 <__ARM_grp_.debug_frame$29>
    1d5e:	2b00      	cmp	r3, #0
    1d60:	bfd8      	it	le
    1d62:	f1c3 0b02 	rsble	fp, r3, #2
    1d66:	9b0b      	ldr	r3, [sp, #44]	; 0x2c
    1d68:	bfc8      	it	gt
    1d6a:	f04f 0b01 	movgt.w	fp, #1
    1d6e:	2067      	movs	r0, #103	; 0x67
    1d70:	449b      	add	fp, r3
    1d72:	900e      	str	r0, [sp, #56]	; 0x38
    1d74:	e004      	b.n	1d80 <__ARM_grp_.debug_frame$29>
    1d76:	f04f 0b01 	mov.w	fp, #1
    1d7a:	e001      	b.n	1d80 <__ARM_grp_.debug_frame$29>
    1d7c:	2167      	movs	r1, #103	; 0x67
    1d7e:	910e      	str	r1, [sp, #56]	; 0x38
    1d80:	9a3c      	ldr	r2, [sp, #240]	; 0xf0
    1d82:	f8dd 9038 	ldr.w	r9, [sp, #56]	; 0x38
    1d86:	9208      	str	r2, [sp, #32]
    1d88:	e009      	b.n	1d9e <__ARM_grp_.debug_frame$29+0x1e>
    1d8a:	bf00      	nop
    1d8c:	00004eb0 	.word	0x00004eb0
    1d90:	00004eb4 	.word	0x00004eb4
    1d94:	00004eb8 	.word	0x00004eb8
    1d98:	00004ebc 	.word	0x00004ebc
    1d9c:	9308      	str	r3, [sp, #32]
    1d9e:	9b14      	ldr	r3, [sp, #80]	; 0x50
    1da0:	2b00      	cmp	r3, #0
    1da2:	f000 819f 	beq.w	20e4 <__ARM_grp_.debug_frame$5+0x20>
    1da6:	232d      	movs	r3, #45	; 0x2d
    1da8:	f04f 0c00 	mov.w	ip, #0
    1dac:	f88d 30f7 	strb.w	r3, [sp, #247]	; 0xf7
    1db0:	e1a7      	b.n	2102 <__ARM_grp_.debug_frame$5+0x3e>
    1db2:	f015 0f20 	tst.w	r5, #32
    1db6:	930c      	str	r3, [sp, #48]	; 0x30
    1db8:	f106 0104 	add.w	r1, r6, #4
    1dbc:	d006      	beq.n	1dcc <__ARM_grp_.debug_frame$29+0x4c>
    1dbe:	9d0f      	ldr	r5, [sp, #60]	; 0x3c
    1dc0:	6830      	ldr	r0, [r6, #0]
    1dc2:	462a      	mov	r2, r5
    1dc4:	17eb      	asrs	r3, r5, #31
    1dc6:	e9c0 2300 	strd	r2, r3, [r0]
    1dca:	e00e      	b.n	1dea <__ARM_grp_.debug_frame$32+0x1a>
    1dcc:	f015 0f10 	tst.w	r5, #16
    1dd0:	d003      	beq.n	1dda <__ARM_grp_.debug_frame$32+0xa>
    1dd2:	6833      	ldr	r3, [r6, #0]
    1dd4:	980f      	ldr	r0, [sp, #60]	; 0x3c
    1dd6:	6018      	str	r0, [r3, #0]
    1dd8:	e007      	b.n	1dea <__ARM_grp_.debug_frame$32+0x1a>
    1dda:	f015 0f40 	tst.w	r5, #64	; 0x40
    1dde:	6833      	ldr	r3, [r6, #0]
    1de0:	bf15      	itete	ne
    1de2:	9a0f      	ldrne	r2, [sp, #60]	; 0x3c
    1de4:	9d0f      	ldreq	r5, [sp, #60]	; 0x3c
    1de6:	801a      	strhne	r2, [r3, #0]
    1de8:	601d      	streq	r5, [r3, #0]
    1dea:	460e      	mov	r6, r1
    1dec:	e514      	b.n	1818 <__ARM_grp_.debug_frame$11+0x4c>
    1dee:	930c      	str	r3, [sp, #48]	; 0x30
    1df0:	f045 0510 	orr.w	r5, r5, #16
    1df4:	920d      	str	r2, [sp, #52]	; 0x34
    1df6:	e001      	b.n	1dfc <__ARM_grp_.debug_frame$32+0x2c>
    1df8:	930c      	str	r3, [sp, #48]	; 0x30
    1dfa:	920d      	str	r2, [sp, #52]	; 0x34
    1dfc:	f015 0220 	ands.w	r2, r5, #32
    1e00:	d00a      	beq.n	1e18 <__ARM_grp_.debug_frame$32+0x48>
    1e02:	3607      	adds	r6, #7
    1e04:	2200      	movs	r2, #0
    1e06:	f026 0307 	bic.w	r3, r6, #7
    1e0a:	f103 0608 	add.w	r6, r3, #8
    1e0e:	e9d3 ab00 	ldrd	sl, fp, [r3]
    1e12:	e9cd ab08 	strd	sl, fp, [sp, #32]
    1e16:	e0be      	b.n	1f96 <__ARM_grp_.debug_frame$5+0x4e>
    1e18:	f015 0110 	ands.w	r1, r5, #16
    1e1c:	f106 0304 	add.w	r3, r6, #4
    1e20:	d002      	beq.n	1e28 <__ARM_grp_.debug_frame$35+0x8>
    1e22:	6831      	ldr	r1, [r6, #0]
    1e24:	468a      	mov	sl, r1
    1e26:	e00d      	b.n	1e44 <__ARM_grp_.debug_frame$35+0x24>
    1e28:	f015 0240 	ands.w	r2, r5, #64	; 0x40
    1e2c:	6830      	ldr	r0, [r6, #0]
    1e2e:	d008      	beq.n	1e42 <__ARM_grp_.debug_frame$35+0x22>
    1e30:	b280      	uxth	r0, r0
    1e32:	f04f 0b00 	mov.w	fp, #0
    1e36:	4682      	mov	sl, r0
    1e38:	461e      	mov	r6, r3
    1e3a:	e9cd ab08 	strd	sl, fp, [sp, #32]
    1e3e:	460a      	mov	r2, r1
    1e40:	e0a9      	b.n	1f96 <__ARM_grp_.debug_frame$5+0x4e>
    1e42:	4682      	mov	sl, r0
    1e44:	f04f 0b00 	mov.w	fp, #0
    1e48:	461e      	mov	r6, r3
    1e4a:	e9cd ab08 	strd	sl, fp, [sp, #32]
    1e4e:	e0a2      	b.n	1f96 <__ARM_grp_.debug_frame$5+0x4e>
    1e50:	930c      	str	r3, [sp, #48]	; 0x30
    1e52:	2100      	movs	r1, #0
    1e54:	6833      	ldr	r3, [r6, #0]
    1e56:	f04f 0978 	mov.w	r9, #120	; 0x78
    1e5a:	920d      	str	r2, [sp, #52]	; 0x34
    1e5c:	f045 0502 	orr.w	r5, r5, #2
    1e60:	4618      	mov	r0, r3
    1e62:	e9cd 0108 	strd	r0, r1, [sp, #32]
    1e66:	49a3      	ldr	r1, [pc, #652]	; (20f4 <__ARM_grp_.debug_frame$5+0x30>)
    1e68:	2330      	movs	r3, #48	; 0x30
    1e6a:	f88d 90f5 	strb.w	r9, [sp, #245]	; 0xf5
    1e6e:	3604      	adds	r6, #4
    1e70:	f88d 30f4 	strb.w	r3, [sp, #244]	; 0xf4
    1e74:	9116      	str	r1, [sp, #88]	; 0x58
    1e76:	e08d      	b.n	1f94 <__ARM_grp_.debug_frame$5+0x4c>
    1e78:	930c      	str	r3, [sp, #48]	; 0x30
    1e7a:	2300      	movs	r3, #0
    1e7c:	920d      	str	r2, [sp, #52]	; 0x34
    1e7e:	4632      	mov	r2, r6
    1e80:	3604      	adds	r6, #4
    1e82:	459c      	cmp	ip, r3
    1e84:	f88d 30f7 	strb.w	r3, [sp, #247]	; 0xf7
    1e88:	f8d2 a000 	ldr.w	sl, [r2]
    1e8c:	db13      	blt.n	1eb6 <__ARM_grp_.debug_frame$41+0x6>
    1e8e:	4619      	mov	r1, r3
    1e90:	4662      	mov	r2, ip
    1e92:	4650      	mov	r0, sl
    1e94:	9307      	str	r3, [sp, #28]
    1e96:	f8cd c018 	str.w	ip, [sp, #24]
    1e9a:	f7ff f9ab 	bl	11f4 <memchr>
    1e9e:	9b07      	ldr	r3, [sp, #28]
    1ea0:	f8dd c018 	ldr.w	ip, [sp, #24]
    1ea4:	2800      	cmp	r0, #0
    1ea6:	f000 8120 	beq.w	20ea <__ARM_grp_.debug_frame$5+0x26>
    1eaa:	ebca 0b00 	rsb	fp, sl, r0
    1eae:	45e3      	cmp	fp, ip
    1eb0:	f300 8124 	bgt.w	20fc <__ARM_grp_.debug_frame$5+0x38>
    1eb4:	e123      	b.n	20fe <__ARM_grp_.debug_frame$5+0x3a>
    1eb6:	4650      	mov	r0, sl
    1eb8:	9307      	str	r3, [sp, #28]
    1eba:	f7ff fbd4 	bl	1666 <strlen>
    1ebe:	9b07      	ldr	r3, [sp, #28]
    1ec0:	4683      	mov	fp, r0
    1ec2:	e11c      	b.n	20fe <__ARM_grp_.debug_frame$5+0x3a>
    1ec4:	930c      	str	r3, [sp, #48]	; 0x30
    1ec6:	f045 0510 	orr.w	r5, r5, #16
    1eca:	920d      	str	r2, [sp, #52]	; 0x34
    1ecc:	e001      	b.n	1ed2 <__ARM_grp_.debug_frame$41+0x22>
    1ece:	930c      	str	r3, [sp, #48]	; 0x30
    1ed0:	920d      	str	r2, [sp, #52]	; 0x34
    1ed2:	f015 0f20 	tst.w	r5, #32
    1ed6:	d009      	beq.n	1eec <__ARM_grp_.debug_frame$41+0x3c>
    1ed8:	3607      	adds	r6, #7
    1eda:	f026 0307 	bic.w	r3, r6, #7
    1ede:	f103 0608 	add.w	r6, r3, #8
    1ee2:	e9d3 ab00 	ldrd	sl, fp, [r3]
    1ee6:	e9cd ab08 	strd	sl, fp, [sp, #32]
    1eea:	e016      	b.n	1f1a <__ARM_grp_.debug_frame$5+0x26>
    1eec:	f015 0f10 	tst.w	r5, #16
    1ef0:	f106 0304 	add.w	r3, r6, #4
    1ef4:	d001      	beq.n	1efa <__ARM_grp_.debug_frame$5+0x6>
    1ef6:	6832      	ldr	r2, [r6, #0]
    1ef8:	e00a      	b.n	1f10 <__ARM_grp_.debug_frame$5+0x1c>
    1efa:	f015 0f40 	tst.w	r5, #64	; 0x40
    1efe:	6832      	ldr	r2, [r6, #0]
    1f00:	d006      	beq.n	1f10 <__ARM_grp_.debug_frame$5+0x1c>
    1f02:	b292      	uxth	r2, r2
    1f04:	f04f 0b00 	mov.w	fp, #0
    1f08:	4692      	mov	sl, r2
    1f0a:	e9cd ab08 	strd	sl, fp, [sp, #32]
    1f0e:	e003      	b.n	1f18 <__ARM_grp_.debug_frame$5+0x24>
    1f10:	4610      	mov	r0, r2
    1f12:	2100      	movs	r1, #0
    1f14:	e9cd 0108 	strd	r0, r1, [sp, #32]
    1f18:	461e      	mov	r6, r3
    1f1a:	2201      	movs	r2, #1
    1f1c:	e03b      	b.n	1f96 <__ARM_grp_.debug_frame$5+0x4e>
    1f1e:	4975      	ldr	r1, [pc, #468]	; (20f4 <__ARM_grp_.debug_frame$5+0x30>)
    1f20:	930c      	str	r3, [sp, #48]	; 0x30
    1f22:	920d      	str	r2, [sp, #52]	; 0x34
    1f24:	9116      	str	r1, [sp, #88]	; 0x58
    1f26:	e003      	b.n	1f30 <__ARM_grp_.debug_frame$5+0x3c>
    1f28:	920d      	str	r2, [sp, #52]	; 0x34
    1f2a:	4a73      	ldr	r2, [pc, #460]	; (20f8 <__ARM_grp_.debug_frame$5+0x34>)
    1f2c:	930c      	str	r3, [sp, #48]	; 0x30
    1f2e:	9216      	str	r2, [sp, #88]	; 0x58
    1f30:	f015 0f20 	tst.w	r5, #32
    1f34:	d009      	beq.n	1f4a <__ARM_grp_.debug_frame$5+0x2>
    1f36:	3607      	adds	r6, #7
    1f38:	f026 0307 	bic.w	r3, r6, #7
    1f3c:	f103 0608 	add.w	r6, r3, #8
    1f40:	e9d3 ab00 	ldrd	sl, fp, [r3]
    1f44:	e9cd ab08 	strd	sl, fp, [sp, #32]
    1f48:	e016      	b.n	1f78 <__ARM_grp_.debug_frame$5+0x30>
    1f4a:	f015 0f10 	tst.w	r5, #16
    1f4e:	f106 0304 	add.w	r3, r6, #4
    1f52:	d001      	beq.n	1f58 <__ARM_grp_.debug_frame$5+0x10>
    1f54:	6832      	ldr	r2, [r6, #0]
    1f56:	e00a      	b.n	1f6e <__ARM_grp_.debug_frame$5+0x26>
    1f58:	f015 0f40 	tst.w	r5, #64	; 0x40
    1f5c:	6832      	ldr	r2, [r6, #0]
    1f5e:	d006      	beq.n	1f6e <__ARM_grp_.debug_frame$5+0x26>
    1f60:	b292      	uxth	r2, r2
    1f62:	f04f 0b00 	mov.w	fp, #0
    1f66:	4692      	mov	sl, r2
    1f68:	e9cd ab08 	strd	sl, fp, [sp, #32]
    1f6c:	e003      	b.n	1f76 <__ARM_grp_.debug_frame$5+0x2e>
    1f6e:	4610      	mov	r0, r2
    1f70:	2100      	movs	r1, #0
    1f72:	e9cd 0108 	strd	r0, r1, [sp, #32]
    1f76:	461e      	mov	r6, r3
    1f78:	f015 0f01 	tst.w	r5, #1
    1f7c:	d00a      	beq.n	1f94 <__ARM_grp_.debug_frame$5+0x4c>
    1f7e:	e9dd 2308 	ldrd	r2, r3, [sp, #32]
    1f82:	4313      	orrs	r3, r2
    1f84:	d006      	beq.n	1f94 <__ARM_grp_.debug_frame$5+0x4c>
    1f86:	f045 0502 	orr.w	r5, r5, #2
    1f8a:	2330      	movs	r3, #48	; 0x30
    1f8c:	f88d 90f5 	strb.w	r9, [sp, #245]	; 0xf5
    1f90:	f88d 30f4 	strb.w	r3, [sp, #244]	; 0xf4
    1f94:	2202      	movs	r2, #2
    1f96:	2300      	movs	r3, #0
    1f98:	f88d 30f7 	strb.w	r3, [sp, #247]	; 0xf7
    1f9c:	e000      	b.n	1fa0 <__ARM_grp_.debug_frame$8+0x4>
    1f9e:	2201      	movs	r2, #1
    1fa0:	e9dd ab08 	ldrd	sl, fp, [sp, #32]
    1fa4:	f1bc 0f00 	cmp.w	ip, #0
    1fa8:	bfa8      	it	ge
    1faa:	f025 0580 	bicge.w	r5, r5, #128	; 0x80
    1fae:	ea5a 0b0b 	orrs.w	fp, sl, fp
    1fb2:	d102      	bne.n	1fba <__ARM_grp_.debug_frame$8+0x1e>
    1fb4:	f1bc 0f00 	cmp.w	ip, #0
    1fb8:	d06e      	beq.n	2098 <__ARM_grp_.debug_frame$17+0x18>
    1fba:	2a01      	cmp	r2, #1
    1fbc:	d023      	beq.n	2006 <__ARM_grp_.debug_frame$11+0x26>
    1fbe:	2a02      	cmp	r2, #2
    1fc0:	d051      	beq.n	2066 <__ARM_grp_.debug_frame$14+0x2a>
    1fc2:	f10d 03cb 	add.w	r3, sp, #203	; 0xcb
    1fc6:	9808      	ldr	r0, [sp, #32]
    1fc8:	469a      	mov	sl, r3
    1fca:	f000 0207 	and.w	r2, r0, #7
    1fce:	3230      	adds	r2, #48	; 0x30
    1fd0:	701a      	strb	r2, [r3, #0]
    1fd2:	9908      	ldr	r1, [sp, #32]
    1fd4:	3b01      	subs	r3, #1
    1fd6:	f8dd b024 	ldr.w	fp, [sp, #36]	; 0x24
    1fda:	08c8      	lsrs	r0, r1, #3
    1fdc:	ea40 714b 	orr.w	r1, r0, fp, lsl #29
    1fe0:	ea4f 0bdb 	mov.w	fp, fp, lsr #3
    1fe4:	9108      	str	r1, [sp, #32]
    1fe6:	f8cd b024 	str.w	fp, [sp, #36]	; 0x24
    1fea:	e9dd 0108 	ldrd	r0, r1, [sp, #32]
    1fee:	4301      	orrs	r1, r0
    1ff0:	d1e9      	bne.n	1fc6 <__ARM_grp_.debug_frame$8+0x2a>
    1ff2:	f015 0f01 	tst.w	r5, #1
    1ff6:	d05b      	beq.n	20b0 <__ARM_grp_.debug_frame$17+0x30>
    1ff8:	2a30      	cmp	r2, #48	; 0x30
    1ffa:	d059      	beq.n	20b0 <__ARM_grp_.debug_frame$17+0x30>
    1ffc:	469a      	mov	sl, r3
    1ffe:	2330      	movs	r3, #48	; 0x30
    2000:	f88a 3000 	strb.w	r3, [sl]
    2004:	e054      	b.n	20b0 <__ARM_grp_.debug_frame$17+0x30>
    2006:	e9dd 2308 	ldrd	r2, r3, [sp, #32]
    200a:	2a0a      	cmp	r2, #10
    200c:	f173 0300 	sbcs.w	r3, r3, #0
    2010:	d208      	bcs.n	2024 <__ARM_grp_.debug_frame$11+0x44>
    2012:	f8dd a020 	ldr.w	sl, [sp, #32]
    2016:	f10a 0330 	add.w	r3, sl, #48	; 0x30
    201a:	f10d 0acb 	add.w	sl, sp, #203	; 0xcb
    201e:	f88d 30cb 	strb.w	r3, [sp, #203]	; 0xcb
    2022:	e045      	b.n	20b0 <__ARM_grp_.debug_frame$17+0x30>
    2024:	f10d 0bcb 	add.w	fp, sp, #203	; 0xcb
    2028:	4623      	mov	r3, r4
    202a:	465c      	mov	r4, fp
    202c:	46cb      	mov	fp, r9
    202e:	4699      	mov	r9, r3
    2030:	e9dd 0108 	ldrd	r0, r1, [sp, #32]
    2034:	220a      	movs	r2, #10
    2036:	2300      	movs	r3, #0
    2038:	f8cd c018 	str.w	ip, [sp, #24]
    203c:	f002 fb32 	bl	46a4 <__aeabi_uldivmod>
    2040:	46a2      	mov	sl, r4
    2042:	2300      	movs	r3, #0
    2044:	3230      	adds	r2, #48	; 0x30
    2046:	f804 2901 	strb.w	r2, [r4], #-1
    204a:	e9dd 0108 	ldrd	r0, r1, [sp, #32]
    204e:	220a      	movs	r2, #10
    2050:	f002 fb28 	bl	46a4 <__aeabi_uldivmod>
    2054:	f8dd c018 	ldr.w	ip, [sp, #24]
    2058:	e9cd 0108 	strd	r0, r1, [sp, #32]
    205c:	4308      	orrs	r0, r1
    205e:	d1e7      	bne.n	2030 <__ARM_grp_.debug_frame$11+0x50>
    2060:	464c      	mov	r4, r9
    2062:	46d9      	mov	r9, fp
    2064:	e024      	b.n	20b0 <__ARM_grp_.debug_frame$17+0x30>
    2066:	f10d 03cb 	add.w	r3, sp, #203	; 0xcb
    206a:	9908      	ldr	r1, [sp, #32]
    206c:	469a      	mov	sl, r3
    206e:	f8dd b058 	ldr.w	fp, [sp, #88]	; 0x58
    2072:	f001 020f 	and.w	r2, r1, #15
    2076:	f81b 2002 	ldrb.w	r2, [fp, r2]
    207a:	f803 2901 	strb.w	r2, [r3], #-1
    207e:	9908      	ldr	r1, [sp, #32]
    2080:	9a09      	ldr	r2, [sp, #36]	; 0x24
    2082:	0908      	lsrs	r0, r1, #4
    2084:	ea40 7102 	orr.w	r1, r0, r2, lsl #28
    2088:	0912      	lsrs	r2, r2, #4
    208a:	9108      	str	r1, [sp, #32]
    208c:	9209      	str	r2, [sp, #36]	; 0x24
    208e:	e9dd 0108 	ldrd	r0, r1, [sp, #32]
    2092:	4301      	orrs	r1, r0
    2094:	d1e9      	bne.n	206a <__ARM_grp_.debug_frame$14+0x2e>
    2096:	e00b      	b.n	20b0 <__ARM_grp_.debug_frame$17+0x30>
    2098:	b942      	cbnz	r2, 20ac <__ARM_grp_.debug_frame$17+0x2c>
    209a:	f015 0f01 	tst.w	r5, #1
    209e:	d005      	beq.n	20ac <__ARM_grp_.debug_frame$17+0x2c>
    20a0:	f10d 0af8 	add.w	sl, sp, #248	; 0xf8
    20a4:	2330      	movs	r3, #48	; 0x30
    20a6:	f80a 3d2d 	strb.w	r3, [sl, #-45]!
    20aa:	e001      	b.n	20b0 <__ARM_grp_.debug_frame$17+0x30>
    20ac:	f10d 0acc 	add.w	sl, sp, #204	; 0xcc
    20b0:	f10d 0bcc 	add.w	fp, sp, #204	; 0xcc
    20b4:	2200      	movs	r2, #0
    20b6:	ebca 0b0b 	rsb	fp, sl, fp
    20ba:	9208      	str	r2, [sp, #32]
    20bc:	e021      	b.n	2102 <__ARM_grp_.debug_frame$5+0x3e>
    20be:	930c      	str	r3, [sp, #48]	; 0x30
    20c0:	920d      	str	r2, [sp, #52]	; 0x34
    20c2:	f1b9 0f00 	cmp.w	r9, #0
    20c6:	f000 83df 	beq.w	2888 <__ARM_grp_.debug_frame$23+0x62c>
    20ca:	f04f 0c00 	mov.w	ip, #0
    20ce:	f88d 90a4 	strb.w	r9, [sp, #164]	; 0xa4
    20d2:	f88d c0f7 	strb.w	ip, [sp, #247]	; 0xf7
    20d6:	f04f 0b01 	mov.w	fp, #1
    20da:	f8cd c020 	str.w	ip, [sp, #32]
    20de:	f10d 0aa4 	add.w	sl, sp, #164	; 0xa4
    20e2:	e00e      	b.n	2102 <__ARM_grp_.debug_frame$5+0x3e>
    20e4:	f8dd c050 	ldr.w	ip, [sp, #80]	; 0x50
    20e8:	e00b      	b.n	2102 <__ARM_grp_.debug_frame$5+0x3e>
    20ea:	46e3      	mov	fp, ip
    20ec:	4684      	mov	ip, r0
    20ee:	9008      	str	r0, [sp, #32]
    20f0:	e007      	b.n	2102 <__ARM_grp_.debug_frame$5+0x3e>
    20f2:	bf00      	nop
    20f4:	00004ed1 	.word	0x00004ed1
    20f8:	00004ec0 	.word	0x00004ec0
    20fc:	46e3      	mov	fp, ip
    20fe:	469c      	mov	ip, r3
    2100:	9308      	str	r3, [sp, #32]
    2102:	45e3      	cmp	fp, ip
    2104:	bfac      	ite	ge
    2106:	465b      	movge	r3, fp
    2108:	4663      	movlt	r3, ip
    210a:	930e      	str	r3, [sp, #56]	; 0x38
    210c:	f89d 30f7 	ldrb.w	r3, [sp, #247]	; 0xf7
    2110:	b113      	cbz	r3, 2118 <__ARM_grp_.debug_frame$8+0x10>
    2112:	980e      	ldr	r0, [sp, #56]	; 0x38
    2114:	3001      	adds	r0, #1
    2116:	900e      	str	r0, [sp, #56]	; 0x38
    2118:	f015 0102 	ands.w	r1, r5, #2
    211c:	9114      	str	r1, [sp, #80]	; 0x50
    211e:	d002      	beq.n	2126 <__ARM_grp_.debug_frame$8+0x1e>
    2120:	9a0e      	ldr	r2, [sp, #56]	; 0x38
    2122:	3202      	adds	r2, #2
    2124:	920e      	str	r2, [sp, #56]	; 0x38
    2126:	f015 0384 	ands.w	r3, r5, #132	; 0x84
    212a:	9317      	str	r3, [sp, #92]	; 0x5c
    212c:	d146      	bne.n	21bc <__ARM_grp_.debug_frame$14+0x2c>
    212e:	980d      	ldr	r0, [sp, #52]	; 0x34
    2130:	990e      	ldr	r1, [sp, #56]	; 0x38
    2132:	1a43      	subs	r3, r0, r1
    2134:	2b00      	cmp	r3, #0
    2136:	dc1b      	bgt.n	2170 <__ARM_grp_.debug_frame$11+0x24>
    2138:	e040      	b.n	21bc <__ARM_grp_.debug_frame$14+0x2c>
    213a:	601a      	str	r2, [r3, #0]
    213c:	2210      	movs	r2, #16
    213e:	1889      	adds	r1, r1, r2
    2140:	605a      	str	r2, [r3, #4]
    2142:	9a34      	ldr	r2, [sp, #208]	; 0xd0
    2144:	9135      	str	r1, [sp, #212]	; 0xd4
    2146:	3201      	adds	r2, #1
    2148:	9234      	str	r2, [sp, #208]	; 0xd0
    214a:	2a07      	cmp	r2, #7
    214c:	dc01      	bgt.n	2152 <__ARM_grp_.debug_frame$11+0x6>
    214e:	3308      	adds	r3, #8
    2150:	e00c      	b.n	216c <__ARM_grp_.debug_frame$11+0x20>
    2152:	4640      	mov	r0, r8
    2154:	4639      	mov	r1, r7
    2156:	aa33      	add	r2, sp, #204	; 0xcc
    2158:	f8cd c018 	str.w	ip, [sp, #24]
    215c:	f001 fedc 	bl	3f18 <__ssprint_r>
    2160:	f8dd c018 	ldr.w	ip, [sp, #24]
    2164:	2800      	cmp	r0, #0
    2166:	f040 8396 	bne.w	2896 <__ARM_grp_.debug_frame$23+0x63a>
    216a:	ab19      	add	r3, sp, #100	; 0x64
    216c:	3d10      	subs	r5, #16
    216e:	e004      	b.n	217a <__ARM_grp_.debug_frame$11+0x2e>
    2170:	462a      	mov	r2, r5
    2172:	461d      	mov	r5, r3
    2174:	4623      	mov	r3, r4
    2176:	464c      	mov	r4, r9
    2178:	4691      	mov	r9, r2
    217a:	2d10      	cmp	r5, #16
    217c:	9935      	ldr	r1, [sp, #212]	; 0xd4
    217e:	4a93      	ldr	r2, [pc, #588]	; (23cc <__ARM_grp_.debug_frame$23+0x170>)
    2180:	dcdb      	bgt.n	213a <__ARM_grp_.debug_frame$8+0x32>
    2182:	4648      	mov	r0, r9
    2184:	46a1      	mov	r9, r4
    2186:	461c      	mov	r4, r3
    2188:	462b      	mov	r3, r5
    218a:	4605      	mov	r5, r0
    218c:	6063      	str	r3, [r4, #4]
    218e:	18cb      	adds	r3, r1, r3
    2190:	6022      	str	r2, [r4, #0]
    2192:	9335      	str	r3, [sp, #212]	; 0xd4
    2194:	9b34      	ldr	r3, [sp, #208]	; 0xd0
    2196:	3301      	adds	r3, #1
    2198:	9334      	str	r3, [sp, #208]	; 0xd0
    219a:	2b07      	cmp	r3, #7
    219c:	dc01      	bgt.n	21a2 <__ARM_grp_.debug_frame$14+0x12>
    219e:	3408      	adds	r4, #8
    21a0:	e00c      	b.n	21bc <__ARM_grp_.debug_frame$14+0x2c>
    21a2:	4640      	mov	r0, r8
    21a4:	4639      	mov	r1, r7
    21a6:	aa33      	add	r2, sp, #204	; 0xcc
    21a8:	f8cd c018 	str.w	ip, [sp, #24]
    21ac:	f001 feb4 	bl	3f18 <__ssprint_r>
    21b0:	f8dd c018 	ldr.w	ip, [sp, #24]
    21b4:	2800      	cmp	r0, #0
    21b6:	f040 836e 	bne.w	2896 <__ARM_grp_.debug_frame$23+0x63a>
    21ba:	ac19      	add	r4, sp, #100	; 0x64
    21bc:	f89d 30f7 	ldrb.w	r3, [sp, #247]	; 0xf7
    21c0:	b1db      	cbz	r3, 21fa <__ARM_grp_.debug_frame$17+0x26>
    21c2:	f10d 03f7 	add.w	r3, sp, #247	; 0xf7
    21c6:	6023      	str	r3, [r4, #0]
    21c8:	2301      	movs	r3, #1
    21ca:	6063      	str	r3, [r4, #4]
    21cc:	9b35      	ldr	r3, [sp, #212]	; 0xd4
    21ce:	3301      	adds	r3, #1
    21d0:	9335      	str	r3, [sp, #212]	; 0xd4
    21d2:	9b34      	ldr	r3, [sp, #208]	; 0xd0
    21d4:	3301      	adds	r3, #1
    21d6:	9334      	str	r3, [sp, #208]	; 0xd0
    21d8:	2b07      	cmp	r3, #7
    21da:	dc01      	bgt.n	21e0 <__ARM_grp_.debug_frame$17+0xc>
    21dc:	3408      	adds	r4, #8
    21de:	e00c      	b.n	21fa <__ARM_grp_.debug_frame$17+0x26>
    21e0:	4640      	mov	r0, r8
    21e2:	4639      	mov	r1, r7
    21e4:	aa33      	add	r2, sp, #204	; 0xcc
    21e6:	f8cd c018 	str.w	ip, [sp, #24]
    21ea:	f001 fe95 	bl	3f18 <__ssprint_r>
    21ee:	f8dd c018 	ldr.w	ip, [sp, #24]
    21f2:	2800      	cmp	r0, #0
    21f4:	f040 834f 	bne.w	2896 <__ARM_grp_.debug_frame$23+0x63a>
    21f8:	ac19      	add	r4, sp, #100	; 0x64
    21fa:	9a14      	ldr	r2, [sp, #80]	; 0x50
    21fc:	b1d2      	cbz	r2, 2234 <__ARM_grp_.debug_frame$20+0x1c>
    21fe:	ab3d      	add	r3, sp, #244	; 0xf4
    2200:	6023      	str	r3, [r4, #0]
    2202:	2302      	movs	r3, #2
    2204:	6063      	str	r3, [r4, #4]
    2206:	9b35      	ldr	r3, [sp, #212]	; 0xd4
    2208:	3302      	adds	r3, #2
    220a:	9335      	str	r3, [sp, #212]	; 0xd4
    220c:	9b34      	ldr	r3, [sp, #208]	; 0xd0
    220e:	3301      	adds	r3, #1
    2210:	9334      	str	r3, [sp, #208]	; 0xd0
    2212:	2b07      	cmp	r3, #7
    2214:	dc01      	bgt.n	221a <__ARM_grp_.debug_frame$20+0x2>
    2216:	3408      	adds	r4, #8
    2218:	e00c      	b.n	2234 <__ARM_grp_.debug_frame$20+0x1c>
    221a:	4640      	mov	r0, r8
    221c:	4639      	mov	r1, r7
    221e:	aa33      	add	r2, sp, #204	; 0xcc
    2220:	f8cd c018 	str.w	ip, [sp, #24]
    2224:	f001 fe78 	bl	3f18 <__ssprint_r>
    2228:	f8dd c018 	ldr.w	ip, [sp, #24]
    222c:	2800      	cmp	r0, #0
    222e:	f040 8332 	bne.w	2896 <__ARM_grp_.debug_frame$23+0x63a>
    2232:	ac19      	add	r4, sp, #100	; 0x64
    2234:	9b17      	ldr	r3, [sp, #92]	; 0x5c
    2236:	2b80      	cmp	r3, #128	; 0x80
    2238:	d146      	bne.n	22c8 <__ARM_grp_.debug_frame$23+0x6c>
    223a:	980d      	ldr	r0, [sp, #52]	; 0x34
    223c:	990e      	ldr	r1, [sp, #56]	; 0x38
    223e:	1a43      	subs	r3, r0, r1
    2240:	2b00      	cmp	r3, #0
    2242:	dc1b      	bgt.n	227c <__ARM_grp_.debug_frame$23+0x20>
    2244:	e040      	b.n	22c8 <__ARM_grp_.debug_frame$23+0x6c>
    2246:	601a      	str	r2, [r3, #0]
    2248:	2210      	movs	r2, #16
    224a:	1889      	adds	r1, r1, r2
    224c:	605a      	str	r2, [r3, #4]
    224e:	9a34      	ldr	r2, [sp, #208]	; 0xd0
    2250:	9135      	str	r1, [sp, #212]	; 0xd4
    2252:	3201      	adds	r2, #1
    2254:	9234      	str	r2, [sp, #208]	; 0xd0
    2256:	2a07      	cmp	r2, #7
    2258:	dc01      	bgt.n	225e <__ARM_grp_.debug_frame$23+0x2>
    225a:	3308      	adds	r3, #8
    225c:	e00c      	b.n	2278 <__ARM_grp_.debug_frame$23+0x1c>
    225e:	4640      	mov	r0, r8
    2260:	4639      	mov	r1, r7
    2262:	aa33      	add	r2, sp, #204	; 0xcc
    2264:	f8cd c018 	str.w	ip, [sp, #24]
    2268:	f001 fe56 	bl	3f18 <__ssprint_r>
    226c:	f8dd c018 	ldr.w	ip, [sp, #24]
    2270:	2800      	cmp	r0, #0
    2272:	f040 8310 	bne.w	2896 <__ARM_grp_.debug_frame$23+0x63a>
    2276:	ab19      	add	r3, sp, #100	; 0x64
    2278:	3d10      	subs	r5, #16
    227a:	e004      	b.n	2286 <__ARM_grp_.debug_frame$23+0x2a>
    227c:	462a      	mov	r2, r5
    227e:	461d      	mov	r5, r3
    2280:	4623      	mov	r3, r4
    2282:	464c      	mov	r4, r9
    2284:	4691      	mov	r9, r2
    2286:	2d10      	cmp	r5, #16
    2288:	9935      	ldr	r1, [sp, #212]	; 0xd4
    228a:	4a51      	ldr	r2, [pc, #324]	; (23d0 <__ARM_grp_.debug_frame$23+0x174>)
    228c:	dcdb      	bgt.n	2246 <__ARM_grp_.debug_frame$20+0x2e>
    228e:	4648      	mov	r0, r9
    2290:	46a1      	mov	r9, r4
    2292:	461c      	mov	r4, r3
    2294:	462b      	mov	r3, r5
    2296:	4605      	mov	r5, r0
    2298:	6063      	str	r3, [r4, #4]
    229a:	18cb      	adds	r3, r1, r3
    229c:	6022      	str	r2, [r4, #0]
    229e:	9335      	str	r3, [sp, #212]	; 0xd4
    22a0:	9b34      	ldr	r3, [sp, #208]	; 0xd0
    22a2:	3301      	adds	r3, #1
    22a4:	9334      	str	r3, [sp, #208]	; 0xd0
    22a6:	2b07      	cmp	r3, #7
    22a8:	dc01      	bgt.n	22ae <__ARM_grp_.debug_frame$23+0x52>
    22aa:	3408      	adds	r4, #8
    22ac:	e00c      	b.n	22c8 <__ARM_grp_.debug_frame$23+0x6c>
    22ae:	4640      	mov	r0, r8
    22b0:	4639      	mov	r1, r7
    22b2:	aa33      	add	r2, sp, #204	; 0xcc
    22b4:	f8cd c018 	str.w	ip, [sp, #24]
    22b8:	f001 fe2e 	bl	3f18 <__ssprint_r>
    22bc:	f8dd c018 	ldr.w	ip, [sp, #24]
    22c0:	2800      	cmp	r0, #0
    22c2:	f040 82e8 	bne.w	2896 <__ARM_grp_.debug_frame$23+0x63a>
    22c6:	ac19      	add	r4, sp, #100	; 0x64
    22c8:	ebcb 030c 	rsb	r3, fp, ip
    22cc:	2b00      	cmp	r3, #0
    22ce:	dc17      	bgt.n	2300 <__ARM_grp_.debug_frame$23+0xa4>
    22d0:	e038      	b.n	2344 <__ARM_grp_.debug_frame$23+0xe8>
    22d2:	601a      	str	r2, [r3, #0]
    22d4:	2210      	movs	r2, #16
    22d6:	1889      	adds	r1, r1, r2
    22d8:	605a      	str	r2, [r3, #4]
    22da:	9a34      	ldr	r2, [sp, #208]	; 0xd0
    22dc:	9135      	str	r1, [sp, #212]	; 0xd4
    22de:	3201      	adds	r2, #1
    22e0:	9234      	str	r2, [sp, #208]	; 0xd0
    22e2:	2a07      	cmp	r2, #7
    22e4:	dc01      	bgt.n	22ea <__ARM_grp_.debug_frame$23+0x8e>
    22e6:	3308      	adds	r3, #8
    22e8:	e008      	b.n	22fc <__ARM_grp_.debug_frame$23+0xa0>
    22ea:	4640      	mov	r0, r8
    22ec:	4639      	mov	r1, r7
    22ee:	aa33      	add	r2, sp, #204	; 0xcc
    22f0:	f001 fe12 	bl	3f18 <__ssprint_r>
    22f4:	2800      	cmp	r0, #0
    22f6:	f040 82ce 	bne.w	2896 <__ARM_grp_.debug_frame$23+0x63a>
    22fa:	ab19      	add	r3, sp, #100	; 0x64
    22fc:	3d10      	subs	r5, #16
    22fe:	e004      	b.n	230a <__ARM_grp_.debug_frame$23+0xae>
    2300:	462a      	mov	r2, r5
    2302:	461d      	mov	r5, r3
    2304:	4623      	mov	r3, r4
    2306:	464c      	mov	r4, r9
    2308:	4691      	mov	r9, r2
    230a:	2d10      	cmp	r5, #16
    230c:	9935      	ldr	r1, [sp, #212]	; 0xd4
    230e:	4a30      	ldr	r2, [pc, #192]	; (23d0 <__ARM_grp_.debug_frame$23+0x174>)
    2310:	dcdf      	bgt.n	22d2 <__ARM_grp_.debug_frame$23+0x76>
    2312:	4648      	mov	r0, r9
    2314:	46a1      	mov	r9, r4
    2316:	461c      	mov	r4, r3
    2318:	462b      	mov	r3, r5
    231a:	4605      	mov	r5, r0
    231c:	6063      	str	r3, [r4, #4]
    231e:	18cb      	adds	r3, r1, r3
    2320:	6022      	str	r2, [r4, #0]
    2322:	9335      	str	r3, [sp, #212]	; 0xd4
    2324:	9b34      	ldr	r3, [sp, #208]	; 0xd0
    2326:	3301      	adds	r3, #1
    2328:	9334      	str	r3, [sp, #208]	; 0xd0
    232a:	2b07      	cmp	r3, #7
    232c:	dc01      	bgt.n	2332 <__ARM_grp_.debug_frame$23+0xd6>
    232e:	3408      	adds	r4, #8
    2330:	e008      	b.n	2344 <__ARM_grp_.debug_frame$23+0xe8>
    2332:	4640      	mov	r0, r8
    2334:	4639      	mov	r1, r7
    2336:	aa33      	add	r2, sp, #204	; 0xcc
    2338:	f001 fdee 	bl	3f18 <__ssprint_r>
    233c:	2800      	cmp	r0, #0
    233e:	f040 82aa 	bne.w	2896 <__ARM_grp_.debug_frame$23+0x63a>
    2342:	ac19      	add	r4, sp, #100	; 0x64
    2344:	f415 7f80 	tst.w	r5, #256	; 0x100
    2348:	d106      	bne.n	2358 <__ARM_grp_.debug_frame$23+0xfc>
    234a:	9b35      	ldr	r3, [sp, #212]	; 0xd4
    234c:	f8c4 a000 	str.w	sl, [r4]
    2350:	f8c4 b004 	str.w	fp, [r4, #4]
    2354:	445b      	add	r3, fp
    2356:	e23f      	b.n	27d8 <__ARM_grp_.debug_frame$23+0x57c>
    2358:	f1b9 0f65 	cmp.w	r9, #101	; 0x65
    235c:	f340 81b7 	ble.w	26ce <__ARM_grp_.debug_frame$23+0x472>
    2360:	9810      	ldr	r0, [sp, #64]	; 0x40
    2362:	2200      	movs	r2, #0
    2364:	9911      	ldr	r1, [sp, #68]	; 0x44
    2366:	2300      	movs	r3, #0
    2368:	f002 f96a 	bl	4640 <__aeabi_dcmpeq>
    236c:	2800      	cmp	r0, #0
    236e:	d060      	beq.n	2432 <__ARM_grp_.debug_frame$23+0x1d6>
    2370:	4b18      	ldr	r3, [pc, #96]	; (23d4 <__ARM_grp_.debug_frame$23+0x178>)
    2372:	6023      	str	r3, [r4, #0]
    2374:	2301      	movs	r3, #1
    2376:	6063      	str	r3, [r4, #4]
    2378:	9b35      	ldr	r3, [sp, #212]	; 0xd4
    237a:	3301      	adds	r3, #1
    237c:	9335      	str	r3, [sp, #212]	; 0xd4
    237e:	9b34      	ldr	r3, [sp, #208]	; 0xd0
    2380:	3301      	adds	r3, #1
    2382:	9334      	str	r3, [sp, #208]	; 0xd0
    2384:	2b07      	cmp	r3, #7
    2386:	dc01      	bgt.n	238c <__ARM_grp_.debug_frame$23+0x130>
    2388:	3408      	adds	r4, #8
    238a:	e008      	b.n	239e <__ARM_grp_.debug_frame$23+0x142>
    238c:	4640      	mov	r0, r8
    238e:	4639      	mov	r1, r7
    2390:	aa33      	add	r2, sp, #204	; 0xcc
    2392:	f001 fdc1 	bl	3f18 <__ssprint_r>
    2396:	2800      	cmp	r0, #0
    2398:	f040 827d 	bne.w	2896 <__ARM_grp_.debug_frame$23+0x63a>
    239c:	ac19      	add	r4, sp, #100	; 0x64
    239e:	9b3c      	ldr	r3, [sp, #240]	; 0xf0
    23a0:	9a0b      	ldr	r2, [sp, #44]	; 0x2c
    23a2:	4293      	cmp	r3, r2
    23a4:	db03      	blt.n	23ae <__ARM_grp_.debug_frame$23+0x152>
    23a6:	f015 0f01 	tst.w	r5, #1
    23aa:	f000 8225 	beq.w	27f8 <__ARM_grp_.debug_frame$23+0x59c>
    23ae:	9b13      	ldr	r3, [sp, #76]	; 0x4c
    23b0:	9812      	ldr	r0, [sp, #72]	; 0x48
    23b2:	6023      	str	r3, [r4, #0]
    23b4:	9b35      	ldr	r3, [sp, #212]	; 0xd4
    23b6:	6060      	str	r0, [r4, #4]
    23b8:	181b      	adds	r3, r3, r0
    23ba:	9335      	str	r3, [sp, #212]	; 0xd4
    23bc:	9b34      	ldr	r3, [sp, #208]	; 0xd0
    23be:	3301      	adds	r3, #1
    23c0:	9334      	str	r3, [sp, #208]	; 0xd0
    23c2:	2b07      	cmp	r3, #7
    23c4:	dc08      	bgt.n	23d8 <__ARM_grp_.debug_frame$23+0x17c>
    23c6:	3408      	adds	r4, #8
    23c8:	e00f      	b.n	23ea <__ARM_grp_.debug_frame$23+0x18e>
    23ca:	bf00      	nop
    23cc:	00004ee4 	.word	0x00004ee4
    23d0:	00004ea0 	.word	0x00004ea0
    23d4:	00004ee2 	.word	0x00004ee2
    23d8:	4640      	mov	r0, r8
    23da:	4639      	mov	r1, r7
    23dc:	aa33      	add	r2, sp, #204	; 0xcc
    23de:	f001 fd9b 	bl	3f18 <__ssprint_r>
    23e2:	2800      	cmp	r0, #0
    23e4:	f040 8257 	bne.w	2896 <__ARM_grp_.debug_frame$23+0x63a>
    23e8:	ac19      	add	r4, sp, #100	; 0x64
    23ea:	990b      	ldr	r1, [sp, #44]	; 0x2c
    23ec:	f101 39ff 	add.w	r9, r1, #4294967295
    23f0:	f1b9 0f00 	cmp.w	r9, #0
    23f4:	dc17      	bgt.n	2426 <__ARM_grp_.debug_frame$23+0x1ca>
    23f6:	e1ff      	b.n	27f8 <__ARM_grp_.debug_frame$23+0x59c>
    23f8:	6022      	str	r2, [r4, #0]
    23fa:	2210      	movs	r2, #16
    23fc:	189b      	adds	r3, r3, r2
    23fe:	6062      	str	r2, [r4, #4]
    2400:	9335      	str	r3, [sp, #212]	; 0xd4
    2402:	9b34      	ldr	r3, [sp, #208]	; 0xd0
    2404:	3301      	adds	r3, #1
    2406:	9334      	str	r3, [sp, #208]	; 0xd0
    2408:	2b07      	cmp	r3, #7
    240a:	dc01      	bgt.n	2410 <__ARM_grp_.debug_frame$23+0x1b4>
    240c:	3408      	adds	r4, #8
    240e:	e008      	b.n	2422 <__ARM_grp_.debug_frame$23+0x1c6>
    2410:	4640      	mov	r0, r8
    2412:	4639      	mov	r1, r7
    2414:	aa33      	add	r2, sp, #204	; 0xcc
    2416:	f001 fd7f 	bl	3f18 <__ssprint_r>
    241a:	2800      	cmp	r0, #0
    241c:	f040 823b 	bne.w	2896 <__ARM_grp_.debug_frame$23+0x63a>
    2420:	ac19      	add	r4, sp, #100	; 0x64
    2422:	f1a9 0910 	sub.w	r9, r9, #16
    2426:	f1b9 0f10 	cmp.w	r9, #16
    242a:	9b35      	ldr	r3, [sp, #212]	; 0xd4
    242c:	4a95      	ldr	r2, [pc, #596]	; (2684 <__ARM_grp_.debug_frame$23+0x428>)
    242e:	dce3      	bgt.n	23f8 <__ARM_grp_.debug_frame$23+0x19c>
    2430:	e148      	b.n	26c4 <__ARM_grp_.debug_frame$23+0x468>
    2432:	9b3c      	ldr	r3, [sp, #240]	; 0xf0
    2434:	2b00      	cmp	r3, #0
    2436:	dc79      	bgt.n	252c <__ARM_grp_.debug_frame$23+0x2d0>
    2438:	4b93      	ldr	r3, [pc, #588]	; (2688 <__ARM_grp_.debug_frame$23+0x42c>)
    243a:	6023      	str	r3, [r4, #0]
    243c:	2301      	movs	r3, #1
    243e:	6063      	str	r3, [r4, #4]
    2440:	9b35      	ldr	r3, [sp, #212]	; 0xd4
    2442:	3301      	adds	r3, #1
    2444:	9335      	str	r3, [sp, #212]	; 0xd4
    2446:	9b34      	ldr	r3, [sp, #208]	; 0xd0
    2448:	3301      	adds	r3, #1
    244a:	9334      	str	r3, [sp, #208]	; 0xd0
    244c:	2b07      	cmp	r3, #7
    244e:	dc01      	bgt.n	2454 <__ARM_grp_.debug_frame$23+0x1f8>
    2450:	3408      	adds	r4, #8
    2452:	e008      	b.n	2466 <__ARM_grp_.debug_frame$23+0x20a>
    2454:	4640      	mov	r0, r8
    2456:	4639      	mov	r1, r7
    2458:	aa33      	add	r2, sp, #204	; 0xcc
    245a:	f001 fd5d 	bl	3f18 <__ssprint_r>
    245e:	2800      	cmp	r0, #0
    2460:	f040 8219 	bne.w	2896 <__ARM_grp_.debug_frame$23+0x63a>
    2464:	ac19      	add	r4, sp, #100	; 0x64
    2466:	9b3c      	ldr	r3, [sp, #240]	; 0xf0
    2468:	b92b      	cbnz	r3, 2476 <__ARM_grp_.debug_frame$23+0x21a>
    246a:	9a0b      	ldr	r2, [sp, #44]	; 0x2c
    246c:	b91a      	cbnz	r2, 2476 <__ARM_grp_.debug_frame$23+0x21a>
    246e:	f015 0f01 	tst.w	r5, #1
    2472:	f000 81c1 	beq.w	27f8 <__ARM_grp_.debug_frame$23+0x59c>
    2476:	9b13      	ldr	r3, [sp, #76]	; 0x4c
    2478:	9812      	ldr	r0, [sp, #72]	; 0x48
    247a:	6023      	str	r3, [r4, #0]
    247c:	9b35      	ldr	r3, [sp, #212]	; 0xd4
    247e:	6060      	str	r0, [r4, #4]
    2480:	181b      	adds	r3, r3, r0
    2482:	9335      	str	r3, [sp, #212]	; 0xd4
    2484:	9b34      	ldr	r3, [sp, #208]	; 0xd0
    2486:	3301      	adds	r3, #1
    2488:	9334      	str	r3, [sp, #208]	; 0xd0
    248a:	2b07      	cmp	r3, #7
    248c:	dc02      	bgt.n	2494 <__ARM_grp_.debug_frame$23+0x238>
    248e:	f104 0308 	add.w	r3, r4, #8
    2492:	e008      	b.n	24a6 <__ARM_grp_.debug_frame$23+0x24a>
    2494:	4640      	mov	r0, r8
    2496:	4639      	mov	r1, r7
    2498:	aa33      	add	r2, sp, #204	; 0xcc
    249a:	f001 fd3d 	bl	3f18 <__ssprint_r>
    249e:	2800      	cmp	r0, #0
    24a0:	f040 81f9 	bne.w	2896 <__ARM_grp_.debug_frame$23+0x63a>
    24a4:	ab19      	add	r3, sp, #100	; 0x64
    24a6:	9c3c      	ldr	r4, [sp, #240]	; 0xf0
    24a8:	4264      	negs	r4, r4
    24aa:	2c00      	cmp	r4, #0
    24ac:	dc16      	bgt.n	24dc <__ARM_grp_.debug_frame$23+0x280>
    24ae:	e02d      	b.n	250c <__ARM_grp_.debug_frame$23+0x2b0>
    24b0:	6019      	str	r1, [r3, #0]
    24b2:	2110      	movs	r1, #16
    24b4:	1852      	adds	r2, r2, r1
    24b6:	6059      	str	r1, [r3, #4]
    24b8:	9235      	str	r2, [sp, #212]	; 0xd4
    24ba:	9a34      	ldr	r2, [sp, #208]	; 0xd0
    24bc:	3201      	adds	r2, #1
    24be:	9234      	str	r2, [sp, #208]	; 0xd0
    24c0:	2a07      	cmp	r2, #7
    24c2:	dc01      	bgt.n	24c8 <__ARM_grp_.debug_frame$23+0x26c>
    24c4:	3308      	adds	r3, #8
    24c6:	e008      	b.n	24da <__ARM_grp_.debug_frame$23+0x27e>
    24c8:	4640      	mov	r0, r8
    24ca:	4639      	mov	r1, r7
    24cc:	aa33      	add	r2, sp, #204	; 0xcc
    24ce:	f001 fd23 	bl	3f18 <__ssprint_r>
    24d2:	2800      	cmp	r0, #0
    24d4:	f040 81df 	bne.w	2896 <__ARM_grp_.debug_frame$23+0x63a>
    24d8:	ab19      	add	r3, sp, #100	; 0x64
    24da:	3c10      	subs	r4, #16
    24dc:	2c10      	cmp	r4, #16
    24de:	9a35      	ldr	r2, [sp, #212]	; 0xd4
    24e0:	4968      	ldr	r1, [pc, #416]	; (2684 <__ARM_grp_.debug_frame$23+0x428>)
    24e2:	dce5      	bgt.n	24b0 <__ARM_grp_.debug_frame$23+0x254>
    24e4:	605c      	str	r4, [r3, #4]
    24e6:	1914      	adds	r4, r2, r4
    24e8:	9a34      	ldr	r2, [sp, #208]	; 0xd0
    24ea:	6019      	str	r1, [r3, #0]
    24ec:	3201      	adds	r2, #1
    24ee:	9435      	str	r4, [sp, #212]	; 0xd4
    24f0:	2a07      	cmp	r2, #7
    24f2:	9234      	str	r2, [sp, #208]	; 0xd0
    24f4:	dc01      	bgt.n	24fa <__ARM_grp_.debug_frame$23+0x29e>
    24f6:	3308      	adds	r3, #8
    24f8:	e008      	b.n	250c <__ARM_grp_.debug_frame$23+0x2b0>
    24fa:	4640      	mov	r0, r8
    24fc:	4639      	mov	r1, r7
    24fe:	aa33      	add	r2, sp, #204	; 0xcc
    2500:	f001 fd0a 	bl	3f18 <__ssprint_r>
    2504:	2800      	cmp	r0, #0
    2506:	f040 81c6 	bne.w	2896 <__ARM_grp_.debug_frame$23+0x63a>
    250a:	ab19      	add	r3, sp, #100	; 0x64
    250c:	990b      	ldr	r1, [sp, #44]	; 0x2c
    250e:	9a35      	ldr	r2, [sp, #212]	; 0xd4
    2510:	f8c3 a000 	str.w	sl, [r3]
    2514:	6059      	str	r1, [r3, #4]
    2516:	1852      	adds	r2, r2, r1
    2518:	9235      	str	r2, [sp, #212]	; 0xd4
    251a:	9a34      	ldr	r2, [sp, #208]	; 0xd0
    251c:	3201      	adds	r2, #1
    251e:	9234      	str	r2, [sp, #208]	; 0xd0
    2520:	2a07      	cmp	r2, #7
    2522:	f300 8161 	bgt.w	27e8 <__ARM_grp_.debug_frame$23+0x58c>
    2526:	f103 0408 	add.w	r4, r3, #8
    252a:	e165      	b.n	27f8 <__ARM_grp_.debug_frame$23+0x59c>
    252c:	9a0b      	ldr	r2, [sp, #44]	; 0x2c
    252e:	9b08      	ldr	r3, [sp, #32]
    2530:	4691      	mov	r9, r2
    2532:	eb0a 0b02 	add.w	fp, sl, r2
    2536:	4599      	cmp	r9, r3
    2538:	bfa8      	it	ge
    253a:	4699      	movge	r9, r3
    253c:	f1b9 0f00 	cmp.w	r9, #0
    2540:	dd16      	ble.n	2570 <__ARM_grp_.debug_frame$23+0x314>
    2542:	9b35      	ldr	r3, [sp, #212]	; 0xd4
    2544:	f8c4 a000 	str.w	sl, [r4]
    2548:	f8c4 9004 	str.w	r9, [r4, #4]
    254c:	444b      	add	r3, r9
    254e:	9335      	str	r3, [sp, #212]	; 0xd4
    2550:	9b34      	ldr	r3, [sp, #208]	; 0xd0
    2552:	3301      	adds	r3, #1
    2554:	9334      	str	r3, [sp, #208]	; 0xd0
    2556:	2b07      	cmp	r3, #7
    2558:	dc01      	bgt.n	255e <__ARM_grp_.debug_frame$23+0x302>
    255a:	3408      	adds	r4, #8
    255c:	e008      	b.n	2570 <__ARM_grp_.debug_frame$23+0x314>
    255e:	4640      	mov	r0, r8
    2560:	4639      	mov	r1, r7
    2562:	aa33      	add	r2, sp, #204	; 0xcc
    2564:	f001 fcd8 	bl	3f18 <__ssprint_r>
    2568:	2800      	cmp	r0, #0
    256a:	f040 8194 	bne.w	2896 <__ARM_grp_.debug_frame$23+0x63a>
    256e:	ac19      	add	r4, sp, #100	; 0x64
    2570:	9808      	ldr	r0, [sp, #32]
    2572:	ea29 79e9 	bic.w	r9, r9, r9, asr #31
    2576:	ebc9 0900 	rsb	r9, r9, r0
    257a:	f1b9 0f00 	cmp.w	r9, #0
    257e:	dc17      	bgt.n	25b0 <__ARM_grp_.debug_frame$23+0x354>
    2580:	e030      	b.n	25e4 <__ARM_grp_.debug_frame$23+0x388>
    2582:	6022      	str	r2, [r4, #0]
    2584:	2210      	movs	r2, #16
    2586:	189b      	adds	r3, r3, r2
    2588:	6062      	str	r2, [r4, #4]
    258a:	9335      	str	r3, [sp, #212]	; 0xd4
    258c:	9b34      	ldr	r3, [sp, #208]	; 0xd0
    258e:	3301      	adds	r3, #1
    2590:	9334      	str	r3, [sp, #208]	; 0xd0
    2592:	2b07      	cmp	r3, #7
    2594:	dc01      	bgt.n	259a <__ARM_grp_.debug_frame$23+0x33e>
    2596:	3408      	adds	r4, #8
    2598:	e008      	b.n	25ac <__ARM_grp_.debug_frame$23+0x350>
    259a:	4640      	mov	r0, r8
    259c:	4639      	mov	r1, r7
    259e:	aa33      	add	r2, sp, #204	; 0xcc
    25a0:	f001 fcba 	bl	3f18 <__ssprint_r>
    25a4:	2800      	cmp	r0, #0
    25a6:	f040 8176 	bne.w	2896 <__ARM_grp_.debug_frame$23+0x63a>
    25aa:	ac19      	add	r4, sp, #100	; 0x64
    25ac:	f1a9 0910 	sub.w	r9, r9, #16
    25b0:	f1b9 0f10 	cmp.w	r9, #16
    25b4:	9b35      	ldr	r3, [sp, #212]	; 0xd4
    25b6:	4a33      	ldr	r2, [pc, #204]	; (2684 <__ARM_grp_.debug_frame$23+0x428>)
    25b8:	dce3      	bgt.n	2582 <__ARM_grp_.debug_frame$23+0x326>
    25ba:	6022      	str	r2, [r4, #0]
    25bc:	444b      	add	r3, r9
    25be:	f8c4 9004 	str.w	r9, [r4, #4]
    25c2:	9335      	str	r3, [sp, #212]	; 0xd4
    25c4:	9b34      	ldr	r3, [sp, #208]	; 0xd0
    25c6:	3301      	adds	r3, #1
    25c8:	9334      	str	r3, [sp, #208]	; 0xd0
    25ca:	2b07      	cmp	r3, #7
    25cc:	dc01      	bgt.n	25d2 <__ARM_grp_.debug_frame$23+0x376>
    25ce:	3408      	adds	r4, #8
    25d0:	e008      	b.n	25e4 <__ARM_grp_.debug_frame$23+0x388>
    25d2:	4640      	mov	r0, r8
    25d4:	4639      	mov	r1, r7
    25d6:	aa33      	add	r2, sp, #204	; 0xcc
    25d8:	f001 fc9e 	bl	3f18 <__ssprint_r>
    25dc:	2800      	cmp	r0, #0
    25de:	f040 815a 	bne.w	2896 <__ARM_grp_.debug_frame$23+0x63a>
    25e2:	ac19      	add	r4, sp, #100	; 0x64
    25e4:	9b3c      	ldr	r3, [sp, #240]	; 0xf0
    25e6:	990b      	ldr	r1, [sp, #44]	; 0x2c
    25e8:	428b      	cmp	r3, r1
    25ea:	db02      	blt.n	25f2 <__ARM_grp_.debug_frame$23+0x396>
    25ec:	f015 0f01 	tst.w	r5, #1
    25f0:	d017      	beq.n	2622 <__ARM_grp_.debug_frame$23+0x3c6>
    25f2:	9b12      	ldr	r3, [sp, #72]	; 0x48
    25f4:	9a13      	ldr	r2, [sp, #76]	; 0x4c
    25f6:	9812      	ldr	r0, [sp, #72]	; 0x48
    25f8:	6063      	str	r3, [r4, #4]
    25fa:	9b35      	ldr	r3, [sp, #212]	; 0xd4
    25fc:	6022      	str	r2, [r4, #0]
    25fe:	181b      	adds	r3, r3, r0
    2600:	9335      	str	r3, [sp, #212]	; 0xd4
    2602:	9b34      	ldr	r3, [sp, #208]	; 0xd0
    2604:	3301      	adds	r3, #1
    2606:	9334      	str	r3, [sp, #208]	; 0xd0
    2608:	2b07      	cmp	r3, #7
    260a:	dc01      	bgt.n	2610 <__ARM_grp_.debug_frame$23+0x3b4>
    260c:	3408      	adds	r4, #8
    260e:	e008      	b.n	2622 <__ARM_grp_.debug_frame$23+0x3c6>
    2610:	4640      	mov	r0, r8
    2612:	4639      	mov	r1, r7
    2614:	aa33      	add	r2, sp, #204	; 0xcc
    2616:	f001 fc7f 	bl	3f18 <__ssprint_r>
    261a:	2800      	cmp	r0, #0
    261c:	f040 813b 	bne.w	2896 <__ARM_grp_.debug_frame$23+0x63a>
    2620:	ac19      	add	r4, sp, #100	; 0x64
    2622:	9908      	ldr	r1, [sp, #32]
    2624:	9a3c      	ldr	r2, [sp, #240]	; 0xf0
    2626:	980b      	ldr	r0, [sp, #44]	; 0x2c
    2628:	eb0a 0301 	add.w	r3, sl, r1
    262c:	ebc3 0b0b 	rsb	fp, r3, fp
    2630:	ebc2 0900 	rsb	r9, r2, r0
    2634:	45cb      	cmp	fp, r9
    2636:	bfb8      	it	lt
    2638:	46d9      	movlt	r9, fp
    263a:	f1b9 0f00 	cmp.w	r9, #0
    263e:	dd15      	ble.n	266c <__ARM_grp_.debug_frame$23+0x410>
    2640:	6023      	str	r3, [r4, #0]
    2642:	9b35      	ldr	r3, [sp, #212]	; 0xd4
    2644:	f8c4 9004 	str.w	r9, [r4, #4]
    2648:	444b      	add	r3, r9
    264a:	9335      	str	r3, [sp, #212]	; 0xd4
    264c:	9b34      	ldr	r3, [sp, #208]	; 0xd0
    264e:	3301      	adds	r3, #1
    2650:	9334      	str	r3, [sp, #208]	; 0xd0
    2652:	2b07      	cmp	r3, #7
    2654:	dc01      	bgt.n	265a <__ARM_grp_.debug_frame$23+0x3fe>
    2656:	3408      	adds	r4, #8
    2658:	e008      	b.n	266c <__ARM_grp_.debug_frame$23+0x410>
    265a:	4640      	mov	r0, r8
    265c:	4639      	mov	r1, r7
    265e:	aa33      	add	r2, sp, #204	; 0xcc
    2660:	f001 fc5a 	bl	3f18 <__ssprint_r>
    2664:	2800      	cmp	r0, #0
    2666:	f040 8116 	bne.w	2896 <__ARM_grp_.debug_frame$23+0x63a>
    266a:	ac19      	add	r4, sp, #100	; 0x64
    266c:	9b3c      	ldr	r3, [sp, #240]	; 0xf0
    266e:	ea29 79e9 	bic.w	r9, r9, r9, asr #31
    2672:	990b      	ldr	r1, [sp, #44]	; 0x2c
    2674:	1acb      	subs	r3, r1, r3
    2676:	ebc9 0903 	rsb	r9, r9, r3
    267a:	f1b9 0f00 	cmp.w	r9, #0
    267e:	dc1c      	bgt.n	26ba <__ARM_grp_.debug_frame$23+0x45e>
    2680:	e0ba      	b.n	27f8 <__ARM_grp_.debug_frame$23+0x59c>
    2682:	bf00      	nop
    2684:	00004ea0 	.word	0x00004ea0
    2688:	00004ee2 	.word	0x00004ee2
    268c:	6022      	str	r2, [r4, #0]
    268e:	2210      	movs	r2, #16
    2690:	189b      	adds	r3, r3, r2
    2692:	6062      	str	r2, [r4, #4]
    2694:	9335      	str	r3, [sp, #212]	; 0xd4
    2696:	9b34      	ldr	r3, [sp, #208]	; 0xd0
    2698:	3301      	adds	r3, #1
    269a:	9334      	str	r3, [sp, #208]	; 0xd0
    269c:	2b07      	cmp	r3, #7
    269e:	dc01      	bgt.n	26a4 <__ARM_grp_.debug_frame$23+0x448>
    26a0:	3408      	adds	r4, #8
    26a2:	e008      	b.n	26b6 <__ARM_grp_.debug_frame$23+0x45a>
    26a4:	4640      	mov	r0, r8
    26a6:	4639      	mov	r1, r7
    26a8:	aa33      	add	r2, sp, #204	; 0xcc
    26aa:	f001 fc35 	bl	3f18 <__ssprint_r>
    26ae:	2800      	cmp	r0, #0
    26b0:	f040 80f1 	bne.w	2896 <__ARM_grp_.debug_frame$23+0x63a>
    26b4:	ac19      	add	r4, sp, #100	; 0x64
    26b6:	f1a9 0910 	sub.w	r9, r9, #16
    26ba:	f1b9 0f10 	cmp.w	r9, #16
    26be:	9b35      	ldr	r3, [sp, #212]	; 0xd4
    26c0:	4a7b      	ldr	r2, [pc, #492]	; (28b0 <__ARM_grp_.debug_frame$23+0x654>)
    26c2:	dce3      	bgt.n	268c <__ARM_grp_.debug_frame$23+0x430>
    26c4:	6022      	str	r2, [r4, #0]
    26c6:	444b      	add	r3, r9
    26c8:	f8c4 9004 	str.w	r9, [r4, #4]
    26cc:	e084      	b.n	27d8 <__ARM_grp_.debug_frame$23+0x57c>
    26ce:	9a0b      	ldr	r2, [sp, #44]	; 0x2c
    26d0:	2a01      	cmp	r2, #1
    26d2:	dc02      	bgt.n	26da <__ARM_grp_.debug_frame$23+0x47e>
    26d4:	f015 0f01 	tst.w	r5, #1
    26d8:	d062      	beq.n	27a0 <__ARM_grp_.debug_frame$23+0x544>
    26da:	2301      	movs	r3, #1
    26dc:	6063      	str	r3, [r4, #4]
    26de:	9b35      	ldr	r3, [sp, #212]	; 0xd4
    26e0:	f8c4 a000 	str.w	sl, [r4]
    26e4:	3301      	adds	r3, #1
    26e6:	9335      	str	r3, [sp, #212]	; 0xd4
    26e8:	9b34      	ldr	r3, [sp, #208]	; 0xd0
    26ea:	3301      	adds	r3, #1
    26ec:	9334      	str	r3, [sp, #208]	; 0xd0
    26ee:	2b07      	cmp	r3, #7
    26f0:	dc01      	bgt.n	26f6 <__ARM_grp_.debug_frame$23+0x49a>
    26f2:	3408      	adds	r4, #8
    26f4:	e008      	b.n	2708 <__ARM_grp_.debug_frame$23+0x4ac>
    26f6:	4640      	mov	r0, r8
    26f8:	4639      	mov	r1, r7
    26fa:	aa33      	add	r2, sp, #204	; 0xcc
    26fc:	f001 fc0c 	bl	3f18 <__ssprint_r>
    2700:	2800      	cmp	r0, #0
    2702:	f040 80c8 	bne.w	2896 <__ARM_grp_.debug_frame$23+0x63a>
    2706:	ac19      	add	r4, sp, #100	; 0x64
    2708:	9b13      	ldr	r3, [sp, #76]	; 0x4c
    270a:	9812      	ldr	r0, [sp, #72]	; 0x48
    270c:	6023      	str	r3, [r4, #0]
    270e:	9b35      	ldr	r3, [sp, #212]	; 0xd4
    2710:	6060      	str	r0, [r4, #4]
    2712:	181b      	adds	r3, r3, r0
    2714:	9335      	str	r3, [sp, #212]	; 0xd4
    2716:	9b34      	ldr	r3, [sp, #208]	; 0xd0
    2718:	3301      	adds	r3, #1
    271a:	9334      	str	r3, [sp, #208]	; 0xd0
    271c:	2b07      	cmp	r3, #7
    271e:	dc01      	bgt.n	2724 <__ARM_grp_.debug_frame$23+0x4c8>
    2720:	3408      	adds	r4, #8
    2722:	e008      	b.n	2736 <__ARM_grp_.debug_frame$23+0x4da>
    2724:	4640      	mov	r0, r8
    2726:	4639      	mov	r1, r7
    2728:	aa33      	add	r2, sp, #204	; 0xcc
    272a:	f001 fbf5 	bl	3f18 <__ssprint_r>
    272e:	2800      	cmp	r0, #0
    2730:	f040 80b1 	bne.w	2896 <__ARM_grp_.debug_frame$23+0x63a>
    2734:	ac19      	add	r4, sp, #100	; 0x64
    2736:	9911      	ldr	r1, [sp, #68]	; 0x44
    2738:	2300      	movs	r3, #0
    273a:	9810      	ldr	r0, [sp, #64]	; 0x40
    273c:	2200      	movs	r2, #0
    273e:	f001 ff7f 	bl	4640 <__aeabi_dcmpeq>
    2742:	990b      	ldr	r1, [sp, #44]	; 0x2c
    2744:	1e4b      	subs	r3, r1, #1
    2746:	b930      	cbnz	r0, 2756 <__ARM_grp_.debug_frame$23+0x4fa>
    2748:	f10a 0201 	add.w	r2, sl, #1
    274c:	6022      	str	r2, [r4, #0]
    274e:	9a35      	ldr	r2, [sp, #212]	; 0xd4
    2750:	6063      	str	r3, [r4, #4]
    2752:	18d3      	adds	r3, r2, r3
    2754:	e02a      	b.n	27ac <__ARM_grp_.debug_frame$23+0x550>
    2756:	f1b3 0900 	subs.w	r9, r3, #0
    275a:	dc17      	bgt.n	278c <__ARM_grp_.debug_frame$23+0x530>
    275c:	e036      	b.n	27cc <__ARM_grp_.debug_frame$23+0x570>
    275e:	6022      	str	r2, [r4, #0]
    2760:	2210      	movs	r2, #16
    2762:	189b      	adds	r3, r3, r2
    2764:	6062      	str	r2, [r4, #4]
    2766:	9335      	str	r3, [sp, #212]	; 0xd4
    2768:	9b34      	ldr	r3, [sp, #208]	; 0xd0
    276a:	3301      	adds	r3, #1
    276c:	9334      	str	r3, [sp, #208]	; 0xd0
    276e:	2b07      	cmp	r3, #7
    2770:	dc01      	bgt.n	2776 <__ARM_grp_.debug_frame$23+0x51a>
    2772:	3408      	adds	r4, #8
    2774:	e008      	b.n	2788 <__ARM_grp_.debug_frame$23+0x52c>
    2776:	4640      	mov	r0, r8
    2778:	4639      	mov	r1, r7
    277a:	aa33      	add	r2, sp, #204	; 0xcc
    277c:	f001 fbcc 	bl	3f18 <__ssprint_r>
    2780:	2800      	cmp	r0, #0
    2782:	f040 8088 	bne.w	2896 <__ARM_grp_.debug_frame$23+0x63a>
    2786:	ac19      	add	r4, sp, #100	; 0x64
    2788:	f1a9 0910 	sub.w	r9, r9, #16
    278c:	f1b9 0f10 	cmp.w	r9, #16
    2790:	9b35      	ldr	r3, [sp, #212]	; 0xd4
    2792:	4a47      	ldr	r2, [pc, #284]	; (28b0 <__ARM_grp_.debug_frame$23+0x654>)
    2794:	dce3      	bgt.n	275e <__ARM_grp_.debug_frame$23+0x502>
    2796:	6022      	str	r2, [r4, #0]
    2798:	444b      	add	r3, r9
    279a:	f8c4 9004 	str.w	r9, [r4, #4]
    279e:	e005      	b.n	27ac <__ARM_grp_.debug_frame$23+0x550>
    27a0:	2301      	movs	r3, #1
    27a2:	6063      	str	r3, [r4, #4]
    27a4:	9b35      	ldr	r3, [sp, #212]	; 0xd4
    27a6:	f8c4 a000 	str.w	sl, [r4]
    27aa:	3301      	adds	r3, #1
    27ac:	9335      	str	r3, [sp, #212]	; 0xd4
    27ae:	9b34      	ldr	r3, [sp, #208]	; 0xd0
    27b0:	3301      	adds	r3, #1
    27b2:	9334      	str	r3, [sp, #208]	; 0xd0
    27b4:	2b07      	cmp	r3, #7
    27b6:	dc01      	bgt.n	27bc <__ARM_grp_.debug_frame$23+0x560>
    27b8:	3408      	adds	r4, #8
    27ba:	e007      	b.n	27cc <__ARM_grp_.debug_frame$23+0x570>
    27bc:	4640      	mov	r0, r8
    27be:	4639      	mov	r1, r7
    27c0:	aa33      	add	r2, sp, #204	; 0xcc
    27c2:	f001 fba9 	bl	3f18 <__ssprint_r>
    27c6:	2800      	cmp	r0, #0
    27c8:	d165      	bne.n	2896 <__ARM_grp_.debug_frame$23+0x63a>
    27ca:	ac19      	add	r4, sp, #100	; 0x64
    27cc:	ab38      	add	r3, sp, #224	; 0xe0
    27ce:	9a15      	ldr	r2, [sp, #84]	; 0x54
    27d0:	6023      	str	r3, [r4, #0]
    27d2:	9b35      	ldr	r3, [sp, #212]	; 0xd4
    27d4:	6062      	str	r2, [r4, #4]
    27d6:	189b      	adds	r3, r3, r2
    27d8:	9335      	str	r3, [sp, #212]	; 0xd4
    27da:	9b34      	ldr	r3, [sp, #208]	; 0xd0
    27dc:	3301      	adds	r3, #1
    27de:	9334      	str	r3, [sp, #208]	; 0xd0
    27e0:	2b07      	cmp	r3, #7
    27e2:	dc01      	bgt.n	27e8 <__ARM_grp_.debug_frame$23+0x58c>
    27e4:	3408      	adds	r4, #8
    27e6:	e007      	b.n	27f8 <__ARM_grp_.debug_frame$23+0x59c>
    27e8:	4640      	mov	r0, r8
    27ea:	4639      	mov	r1, r7
    27ec:	aa33      	add	r2, sp, #204	; 0xcc
    27ee:	f001 fb93 	bl	3f18 <__ssprint_r>
    27f2:	2800      	cmp	r0, #0
    27f4:	d14f      	bne.n	2896 <__ARM_grp_.debug_frame$23+0x63a>
    27f6:	ac19      	add	r4, sp, #100	; 0x64
    27f8:	f015 0f04 	tst.w	r5, #4
    27fc:	d02f      	beq.n	285e <__ARM_grp_.debug_frame$23+0x602>
    27fe:	9b0d      	ldr	r3, [sp, #52]	; 0x34
    2800:	f8dd a038 	ldr.w	sl, [sp, #56]	; 0x38
    2804:	ebca 0503 	rsb	r5, sl, r3
    2808:	2d00      	cmp	r5, #0
    280a:	dc15      	bgt.n	2838 <__ARM_grp_.debug_frame$23+0x5dc>
    280c:	e027      	b.n	285e <__ARM_grp_.debug_frame$23+0x602>
    280e:	6022      	str	r2, [r4, #0]
    2810:	2210      	movs	r2, #16
    2812:	189b      	adds	r3, r3, r2
    2814:	6062      	str	r2, [r4, #4]
    2816:	9335      	str	r3, [sp, #212]	; 0xd4
    2818:	9b34      	ldr	r3, [sp, #208]	; 0xd0
    281a:	3301      	adds	r3, #1
    281c:	9334      	str	r3, [sp, #208]	; 0xd0
    281e:	2b07      	cmp	r3, #7
    2820:	dc01      	bgt.n	2826 <__ARM_grp_.debug_frame$23+0x5ca>
    2822:	3408      	adds	r4, #8
    2824:	e007      	b.n	2836 <__ARM_grp_.debug_frame$23+0x5da>
    2826:	4640      	mov	r0, r8
    2828:	4639      	mov	r1, r7
    282a:	aa33      	add	r2, sp, #204	; 0xcc
    282c:	f001 fb74 	bl	3f18 <__ssprint_r>
    2830:	2800      	cmp	r0, #0
    2832:	d130      	bne.n	2896 <__ARM_grp_.debug_frame$23+0x63a>
    2834:	ac19      	add	r4, sp, #100	; 0x64
    2836:	3d10      	subs	r5, #16
    2838:	2d10      	cmp	r5, #16
    283a:	9b35      	ldr	r3, [sp, #212]	; 0xd4
    283c:	4a1d      	ldr	r2, [pc, #116]	; (28b4 <__ARM_grp_.debug_frame$23+0x658>)
    283e:	dce6      	bgt.n	280e <__ARM_grp_.debug_frame$23+0x5b2>
    2840:	6065      	str	r5, [r4, #4]
    2842:	195d      	adds	r5, r3, r5
    2844:	9b34      	ldr	r3, [sp, #208]	; 0xd0
    2846:	6022      	str	r2, [r4, #0]
    2848:	3301      	adds	r3, #1
    284a:	9535      	str	r5, [sp, #212]	; 0xd4
    284c:	2b07      	cmp	r3, #7
    284e:	9334      	str	r3, [sp, #208]	; 0xd0
    2850:	dd05      	ble.n	285e <__ARM_grp_.debug_frame$23+0x602>
    2852:	4640      	mov	r0, r8
    2854:	4639      	mov	r1, r7
    2856:	aa33      	add	r2, sp, #204	; 0xcc
    2858:	f001 fb5e 	bl	3f18 <__ssprint_r>
    285c:	b9d8      	cbnz	r0, 2896 <__ARM_grp_.debug_frame$23+0x63a>
    285e:	980f      	ldr	r0, [sp, #60]	; 0x3c
    2860:	9a0e      	ldr	r2, [sp, #56]	; 0x38
    2862:	990d      	ldr	r1, [sp, #52]	; 0x34
    2864:	9b35      	ldr	r3, [sp, #212]	; 0xd4
    2866:	428a      	cmp	r2, r1
    2868:	bfac      	ite	ge
    286a:	1880      	addge	r0, r0, r2
    286c:	1840      	addlt	r0, r0, r1
    286e:	900f      	str	r0, [sp, #60]	; 0x3c
    2870:	b12b      	cbz	r3, 287e <__ARM_grp_.debug_frame$23+0x622>
    2872:	4640      	mov	r0, r8
    2874:	4639      	mov	r1, r7
    2876:	aa33      	add	r2, sp, #204	; 0xcc
    2878:	f001 fb4e 	bl	3f18 <__ssprint_r>
    287c:	b958      	cbnz	r0, 2896 <__ARM_grp_.debug_frame$23+0x63a>
    287e:	2300      	movs	r3, #0
    2880:	ac19      	add	r4, sp, #100	; 0x64
    2882:	9334      	str	r3, [sp, #208]	; 0xd0
    2884:	f7fe bfc8 	b.w	1818 <__ARM_grp_.debug_frame$11+0x4c>
    2888:	9b35      	ldr	r3, [sp, #212]	; 0xd4
    288a:	b123      	cbz	r3, 2896 <__ARM_grp_.debug_frame$23+0x63a>
    288c:	4640      	mov	r0, r8
    288e:	4639      	mov	r1, r7
    2890:	aa33      	add	r2, sp, #204	; 0xcc
    2892:	f001 fb41 	bl	3f18 <__ssprint_r>
    2896:	89bb      	ldrh	r3, [r7, #12]
    2898:	9d0f      	ldr	r5, [sp, #60]	; 0x3c
    289a:	f003 0340 	and.w	r3, r3, #64	; 0x40
    289e:	2b00      	cmp	r3, #0
    28a0:	bf18      	it	ne
    28a2:	f04f 35ff 	movne.w	r5, #4294967295
    28a6:	950f      	str	r5, [sp, #60]	; 0x3c
    28a8:	980f      	ldr	r0, [sp, #60]	; 0x3c
    28aa:	b03f      	add	sp, #252	; 0xfc
    28ac:	e8bd 8ff0 	ldmia.w	sp!, {r4, r5, r6, r7, r8, r9, sl, fp, pc}
    28b0:	00004ea0 	.word	0x00004ea0
    28b4:	00004ee4 	.word	0x00004ee4

000028b8 <__register_exitproc>:
    28b8:	e92d 43f8 	stmdb	sp!, {r3, r4, r5, r6, r7, r8, r9, lr}
    28bc:	4699      	mov	r9, r3
    28be:	4b2c      	ldr	r3, [pc, #176]	; (2970 <__register_exitproc+0xb8>)
    28c0:	4604      	mov	r4, r0
    28c2:	460d      	mov	r5, r1
    28c4:	4616      	mov	r6, r2
    28c6:	f8d3 8000 	ldr.w	r8, [r3]
    28ca:	f8d8 7048 	ldr.w	r7, [r8, #72]	; 0x48
    28ce:	b91f      	cbnz	r7, 28d8 <__register_exitproc+0x20>
    28d0:	f108 074c 	add.w	r7, r8, #76	; 0x4c
    28d4:	f8c8 7048 	str.w	r7, [r8, #72]	; 0x48
    28d8:	687b      	ldr	r3, [r7, #4]
    28da:	2b1f      	cmp	r3, #31
    28dc:	dd0f      	ble.n	28fe <__register_exitproc+0x46>
    28de:	4b25      	ldr	r3, [pc, #148]	; (2974 <__register_exitproc+0xbc>)
    28e0:	2b00      	cmp	r3, #0
    28e2:	d03d      	beq.n	2960 <__register_exitproc+0xa8>
    28e4:	208c      	movs	r0, #140	; 0x8c
    28e6:	f7fe fa71 	bl	dcc <malloc>
    28ea:	4607      	mov	r7, r0
    28ec:	2800      	cmp	r0, #0
    28ee:	d037      	beq.n	2960 <__register_exitproc+0xa8>
    28f0:	2300      	movs	r3, #0
    28f2:	6043      	str	r3, [r0, #4]
    28f4:	f8d8 3048 	ldr.w	r3, [r8, #72]	; 0x48
    28f8:	6003      	str	r3, [r0, #0]
    28fa:	f8c8 0048 	str.w	r0, [r8, #72]	; 0x48
    28fe:	b334      	cbz	r4, 294e <__register_exitproc+0x96>
    2900:	f8d7 0088 	ldr.w	r0, [r7, #136]	; 0x88
    2904:	b968      	cbnz	r0, 2922 <__register_exitproc+0x6a>
    2906:	4b1b      	ldr	r3, [pc, #108]	; (2974 <__register_exitproc+0xbc>)
    2908:	b353      	cbz	r3, 2960 <__register_exitproc+0xa8>
    290a:	f44f 7084 	mov.w	r0, #264	; 0x108
    290e:	f7fe fa5d 	bl	dcc <malloc>
    2912:	b348      	cbz	r0, 2968 <__register_exitproc+0xb0>
    2914:	2300      	movs	r3, #0
    2916:	f8c0 3100 	str.w	r3, [r0, #256]	; 0x100
    291a:	f8c0 3104 	str.w	r3, [r0, #260]	; 0x104
    291e:	f8c7 0088 	str.w	r0, [r7, #136]	; 0x88
    2922:	687b      	ldr	r3, [r7, #4]
    2924:	2201      	movs	r2, #1
    2926:	f8d0 1100 	ldr.w	r1, [r0, #256]	; 0x100
    292a:	409a      	lsls	r2, r3
    292c:	f840 6023 	str.w	r6, [r0, r3, lsl #2]
    2930:	3320      	adds	r3, #32
    2932:	2c02      	cmp	r4, #2
    2934:	ea41 0102 	orr.w	r1, r1, r2
    2938:	f840 9023 	str.w	r9, [r0, r3, lsl #2]
    293c:	f8c0 1100 	str.w	r1, [r0, #256]	; 0x100
    2940:	d105      	bne.n	294e <__register_exitproc+0x96>
    2942:	f8d0 3104 	ldr.w	r3, [r0, #260]	; 0x104
    2946:	ea43 0202 	orr.w	r2, r3, r2
    294a:	f8c0 2104 	str.w	r2, [r0, #260]	; 0x104
    294e:	687b      	ldr	r3, [r7, #4]
    2950:	2000      	movs	r0, #0
    2952:	1c9a      	adds	r2, r3, #2
    2954:	3301      	adds	r3, #1
    2956:	607b      	str	r3, [r7, #4]
    2958:	f847 5022 	str.w	r5, [r7, r2, lsl #2]
    295c:	e8bd 83f8 	ldmia.w	sp!, {r3, r4, r5, r6, r7, r8, r9, pc}
    2960:	f04f 30ff 	mov.w	r0, #4294967295
    2964:	e8bd 83f8 	ldmia.w	sp!, {r3, r4, r5, r6, r7, r8, r9, pc}
    2968:	f04f 30ff 	mov.w	r0, #4294967295
    296c:	e8bd 83f8 	ldmia.w	sp!, {r3, r4, r5, r6, r7, r8, r9, pc}
    2970:	00004e9c 	.word	0x00004e9c
    2974:	00000dcd 	.word	0x00000dcd

00002978 <quorem>:
    2978:	e92d 4ff7 	stmdb	sp!, {r0, r1, r2, r4, r5, r6, r7, r8, r9, sl, fp, lr}
    297c:	4604      	mov	r4, r0
    297e:	690b      	ldr	r3, [r1, #16]
    2980:	4689      	mov	r9, r1
    2982:	6902      	ldr	r2, [r0, #16]
    2984:	429a      	cmp	r2, r3
    2986:	f2c0 8086 	blt.w	2a96 <quorem+0x11e>
    298a:	1e5d      	subs	r5, r3, #1
    298c:	3303      	adds	r3, #3
    298e:	f101 0814 	add.w	r8, r1, #20
    2992:	f100 0714 	add.w	r7, r0, #20
    2996:	009b      	lsls	r3, r3, #2
    2998:	18ca      	adds	r2, r1, r3
    299a:	18c3      	adds	r3, r0, r3
    299c:	f102 0a04 	add.w	sl, r2, #4
    29a0:	6851      	ldr	r1, [r2, #4]
    29a2:	6858      	ldr	r0, [r3, #4]
    29a4:	3101      	adds	r1, #1
    29a6:	f001 fb5f 	bl	4068 <__aeabi_uidiv>
    29aa:	4606      	mov	r6, r0
    29ac:	2800      	cmp	r0, #0
    29ae:	d03c      	beq.n	2a2a <quorem+0xb2>
    29b0:	2300      	movs	r3, #0
    29b2:	4639      	mov	r1, r7
    29b4:	4642      	mov	r2, r8
    29b6:	4618      	mov	r0, r3
    29b8:	9401      	str	r4, [sp, #4]
    29ba:	f852 eb04 	ldr.w	lr, [r2], #4
    29be:	680c      	ldr	r4, [r1, #0]
    29c0:	4552      	cmp	r2, sl
    29c2:	fa1f fc8e 	uxth.w	ip, lr
    29c6:	ea4f 4e1e 	mov.w	lr, lr, lsr #16
    29ca:	fa1f fb84 	uxth.w	fp, r4
    29ce:	fb0c 3c06 	mla	ip, ip, r6, r3
    29d2:	4458      	add	r0, fp
    29d4:	fb0e fe06 	mul.w	lr, lr, r6
    29d8:	eb0e 4e1c 	add.w	lr, lr, ip, lsr #16
    29dc:	fa1f fc8c 	uxth.w	ip, ip
    29e0:	ebcc 0c00 	rsb	ip, ip, r0
    29e4:	ea4f 431e 	mov.w	r3, lr, lsr #16
    29e8:	fa1f fe8e 	uxth.w	lr, lr
    29ec:	ebce 4e14 	rsb	lr, lr, r4, lsr #16
    29f0:	eb0e 4e2c 	add.w	lr, lr, ip, asr #16
    29f4:	fa1f fc8c 	uxth.w	ip, ip
    29f8:	ea4f 402e 	mov.w	r0, lr, asr #16
    29fc:	ea4c 4e0e 	orr.w	lr, ip, lr, lsl #16
    2a00:	f841 eb04 	str.w	lr, [r1], #4
    2a04:	d9d9      	bls.n	29ba <quorem+0x42>
    2a06:	9c01      	ldr	r4, [sp, #4]
    2a08:	1d2b      	adds	r3, r5, #4
    2a0a:	eb04 0383 	add.w	r3, r4, r3, lsl #2
    2a0e:	685a      	ldr	r2, [r3, #4]
    2a10:	b95a      	cbnz	r2, 2a2a <quorem+0xb2>
    2a12:	3304      	adds	r3, #4
    2a14:	e000      	b.n	2a18 <quorem+0xa0>
    2a16:	3d01      	subs	r5, #1
    2a18:	1f1a      	subs	r2, r3, #4
    2a1a:	4297      	cmp	r7, r2
    2a1c:	d204      	bcs.n	2a28 <quorem+0xb0>
    2a1e:	f853 1c04 	ldr.w	r1, [r3, #-4]
    2a22:	4613      	mov	r3, r2
    2a24:	2900      	cmp	r1, #0
    2a26:	d0f6      	beq.n	2a16 <quorem+0x9e>
    2a28:	6125      	str	r5, [r4, #16]
    2a2a:	4620      	mov	r0, r4
    2a2c:	4649      	mov	r1, r9
    2a2e:	f001 f963 	bl	3cf8 <__mcmp>
    2a32:	2800      	cmp	r0, #0
    2a34:	db2d      	blt.n	2a92 <quorem+0x11a>
    2a36:	3601      	adds	r6, #1
    2a38:	463b      	mov	r3, r7
    2a3a:	2200      	movs	r2, #0
    2a3c:	4641      	mov	r1, r8
    2a3e:	f851 8b04 	ldr.w	r8, [r1], #4
    2a42:	6818      	ldr	r0, [r3, #0]
    2a44:	fa1f fc88 	uxth.w	ip, r8
    2a48:	ea4f 4818 	mov.w	r8, r8, lsr #16
    2a4c:	fa1f f980 	uxth.w	r9, r0
    2a50:	ebc8 4010 	rsb	r0, r8, r0, lsr #16
    2a54:	ebcc 0c09 	rsb	ip, ip, r9
    2a58:	4494      	add	ip, r2
    2a5a:	eb00 402c 	add.w	r0, r0, ip, asr #16
    2a5e:	fa1f fc8c 	uxth.w	ip, ip
    2a62:	1402      	asrs	r2, r0, #16
    2a64:	4551      	cmp	r1, sl
    2a66:	ea4c 4000 	orr.w	r0, ip, r0, lsl #16
    2a6a:	f843 0b04 	str.w	r0, [r3], #4
    2a6e:	d9e6      	bls.n	2a3e <quorem+0xc6>
    2a70:	1d2b      	adds	r3, r5, #4
    2a72:	eb04 0383 	add.w	r3, r4, r3, lsl #2
    2a76:	685a      	ldr	r2, [r3, #4]
    2a78:	b95a      	cbnz	r2, 2a92 <quorem+0x11a>
    2a7a:	3304      	adds	r3, #4
    2a7c:	e000      	b.n	2a80 <quorem+0x108>
    2a7e:	3d01      	subs	r5, #1
    2a80:	1f1a      	subs	r2, r3, #4
    2a82:	4297      	cmp	r7, r2
    2a84:	d204      	bcs.n	2a90 <quorem+0x118>
    2a86:	f853 1c04 	ldr.w	r1, [r3, #-4]
    2a8a:	4613      	mov	r3, r2
    2a8c:	2900      	cmp	r1, #0
    2a8e:	d0f6      	beq.n	2a7e <quorem+0x106>
    2a90:	6125      	str	r5, [r4, #16]
    2a92:	4630      	mov	r0, r6
    2a94:	e000      	b.n	2a98 <quorem+0x120>
    2a96:	2000      	movs	r0, #0
    2a98:	e8bd 8ffe 	ldmia.w	sp!, {r1, r2, r3, r4, r5, r6, r7, r8, r9, sl, fp, pc}
    2a9c:	0000      	movs	r0, r0
	...

00002aa0 <_dtoa_r>:
    2aa0:	e92d 4ff0 	stmdb	sp!, {r4, r5, r6, r7, r8, r9, sl, fp, lr}
    2aa4:	4605      	mov	r5, r0
    2aa6:	b09b      	sub	sp, #108	; 0x6c
    2aa8:	4610      	mov	r0, r2
    2aaa:	6a6e      	ldr	r6, [r5, #36]	; 0x24
    2aac:	4619      	mov	r1, r3
    2aae:	9c27      	ldr	r4, [sp, #156]	; 0x9c
    2ab0:	e9cd 0104 	strd	r0, r1, [sp, #16]
    2ab4:	b93e      	cbnz	r6, 2ac6 <_dtoa_r+0x26>
    2ab6:	2010      	movs	r0, #16
    2ab8:	f7fe f988 	bl	dcc <malloc>
    2abc:	6268      	str	r0, [r5, #36]	; 0x24
    2abe:	6046      	str	r6, [r0, #4]
    2ac0:	6086      	str	r6, [r0, #8]
    2ac2:	6006      	str	r6, [r0, #0]
    2ac4:	60c6      	str	r6, [r0, #12]
    2ac6:	6a6b      	ldr	r3, [r5, #36]	; 0x24
    2ac8:	6819      	ldr	r1, [r3, #0]
    2aca:	b159      	cbz	r1, 2ae4 <_dtoa_r+0x44>
    2acc:	685b      	ldr	r3, [r3, #4]
    2ace:	2201      	movs	r2, #1
    2ad0:	4628      	mov	r0, r5
    2ad2:	604b      	str	r3, [r1, #4]
    2ad4:	fa12 f303 	lsls.w	r3, r2, r3
    2ad8:	608b      	str	r3, [r1, #8]
    2ada:	f000 ff2c 	bl	3936 <_Bfree>
    2ade:	6a6b      	ldr	r3, [r5, #36]	; 0x24
    2ae0:	2200      	movs	r2, #0
    2ae2:	601a      	str	r2, [r3, #0]
    2ae4:	9b05      	ldr	r3, [sp, #20]
    2ae6:	2b00      	cmp	r3, #0
    2ae8:	da05      	bge.n	2af6 <_dtoa_r+0x56>
    2aea:	2201      	movs	r2, #1
    2aec:	f023 4300 	bic.w	r3, r3, #2147483648	; 0x80000000
    2af0:	6022      	str	r2, [r4, #0]
    2af2:	9305      	str	r3, [sp, #20]
    2af4:	e001      	b.n	2afa <_dtoa_r+0x5a>
    2af6:	2300      	movs	r3, #0
    2af8:	6023      	str	r3, [r4, #0]
    2afa:	9c05      	ldr	r4, [sp, #20]
    2afc:	4b9a      	ldr	r3, [pc, #616]	; (2d68 <_dtoa_r+0x2c8>)
    2afe:	4a9a      	ldr	r2, [pc, #616]	; (2d68 <_dtoa_r+0x2c8>)
    2b00:	ea04 0303 	and.w	r3, r4, r3
    2b04:	4293      	cmp	r3, r2
    2b06:	d11d      	bne.n	2b44 <_dtoa_r+0xa4>
    2b08:	9926      	ldr	r1, [sp, #152]	; 0x98
    2b0a:	f242 730f 	movw	r3, #9999	; 0x270f
    2b0e:	9a04      	ldr	r2, [sp, #16]
    2b10:	600b      	str	r3, [r1, #0]
    2b12:	b94a      	cbnz	r2, 2b28 <_dtoa_r+0x88>
    2b14:	f024 447f 	bic.w	r4, r4, #4278190080	; 0xff000000
    2b18:	4b94      	ldr	r3, [pc, #592]	; (2d6c <_dtoa_r+0x2cc>)
    2b1a:	4895      	ldr	r0, [pc, #596]	; (2d70 <_dtoa_r+0x2d0>)
    2b1c:	f424 0470 	bic.w	r4, r4, #15728640	; 0xf00000
    2b20:	2c00      	cmp	r4, #0
    2b22:	bf18      	it	ne
    2b24:	4618      	movne	r0, r3
    2b26:	e000      	b.n	2b2a <_dtoa_r+0x8a>
    2b28:	4890      	ldr	r0, [pc, #576]	; (2d6c <_dtoa_r+0x2cc>)
    2b2a:	9b28      	ldr	r3, [sp, #160]	; 0xa0
    2b2c:	2b00      	cmp	r3, #0
    2b2e:	f000 85b3 	beq.w	3698 <_dtoa_r+0xbf8>
    2b32:	78c2      	ldrb	r2, [r0, #3]
    2b34:	1cc3      	adds	r3, r0, #3
    2b36:	b10a      	cbz	r2, 2b3c <_dtoa_r+0x9c>
    2b38:	f100 0308 	add.w	r3, r0, #8
    2b3c:	9928      	ldr	r1, [sp, #160]	; 0xa0
    2b3e:	600b      	str	r3, [r1, #0]
    2b40:	f000 bdaa 	b.w	3698 <_dtoa_r+0xbf8>
    2b44:	e9dd ab04 	ldrd	sl, fp, [sp, #16]
    2b48:	2200      	movs	r2, #0
    2b4a:	2300      	movs	r3, #0
    2b4c:	2601      	movs	r6, #1
    2b4e:	4650      	mov	r0, sl
    2b50:	4659      	mov	r1, fp
    2b52:	f001 fd75 	bl	4640 <__aeabi_dcmpeq>
    2b56:	b100      	cbz	r0, 2b5a <_dtoa_r+0xba>
    2b58:	2600      	movs	r6, #0
    2b5a:	f016 0fff 	tst.w	r6, #255	; 0xff
    2b5e:	d10b      	bne.n	2b78 <_dtoa_r+0xd8>
    2b60:	9a26      	ldr	r2, [sp, #152]	; 0x98
    2b62:	2301      	movs	r3, #1
    2b64:	6013      	str	r3, [r2, #0]
    2b66:	9b28      	ldr	r3, [sp, #160]	; 0xa0
    2b68:	2b00      	cmp	r3, #0
    2b6a:	f000 8592 	beq.w	3692 <_dtoa_r+0xbf2>
    2b6e:	4881      	ldr	r0, [pc, #516]	; (2d74 <_dtoa_r+0x2d4>)
    2b70:	6018      	str	r0, [r3, #0]
    2b72:	3801      	subs	r0, #1
    2b74:	f000 bd90 	b.w	3698 <_dtoa_r+0xbf8>
    2b78:	ab18      	add	r3, sp, #96	; 0x60
    2b7a:	4628      	mov	r0, r5
    2b7c:	9300      	str	r3, [sp, #0]
    2b7e:	4652      	mov	r2, sl
    2b80:	ab19      	add	r3, sp, #100	; 0x64
    2b82:	9301      	str	r3, [sp, #4]
    2b84:	465b      	mov	r3, fp
    2b86:	0d26      	lsrs	r6, r4, #20
    2b88:	f001 f936 	bl	3df8 <__d2b>
    2b8c:	0576      	lsls	r6, r6, #21
    2b8e:	0d76      	lsrs	r6, r6, #21
    2b90:	4681      	mov	r9, r0
    2b92:	b16e      	cbz	r6, 2bb0 <_dtoa_r+0x110>
    2b94:	f02b 437f 	bic.w	r3, fp, #4278190080	; 0xff000000
    2b98:	f5a6 767e 	sub.w	r6, r6, #1016	; 0x3f8
    2b9c:	f423 0370 	bic.w	r3, r3, #15728640	; 0xf00000
    2ba0:	4650      	mov	r0, sl
    2ba2:	f043 517e 	orr.w	r1, r3, #1065353216	; 0x3f800000
    2ba6:	3e07      	subs	r6, #7
    2ba8:	f441 01e0 	orr.w	r1, r1, #7340032	; 0x700000
    2bac:	2200      	movs	r2, #0
    2bae:	e01e      	b.n	2bee <_dtoa_r+0x14e>
    2bb0:	9b18      	ldr	r3, [sp, #96]	; 0x60
    2bb2:	9819      	ldr	r0, [sp, #100]	; 0x64
    2bb4:	18c0      	adds	r0, r0, r3
    2bb6:	f500 6086 	add.w	r0, r0, #1072	; 0x430
    2bba:	1c86      	adds	r6, r0, #2
    2bbc:	2e20      	cmp	r6, #32
    2bbe:	dd08      	ble.n	2bd2 <_dtoa_r+0x132>
    2bc0:	9b04      	ldr	r3, [sp, #16]
    2bc2:	381e      	subs	r0, #30
    2bc4:	fa33 f000 	lsrs.w	r0, r3, r0
    2bc8:	f1c6 0340 	rsb	r3, r6, #64	; 0x40
    2bcc:	409c      	lsls	r4, r3
    2bce:	4320      	orrs	r0, r4
    2bd0:	e005      	b.n	2bde <_dtoa_r+0x13e>
    2bd2:	f8dd e010 	ldr.w	lr, [sp, #16]
    2bd6:	f1c6 0020 	rsb	r0, r6, #32
    2bda:	fa0e f000 	lsl.w	r0, lr, r0
    2bde:	f7fd fdf9 	bl	7d4 <__aeabi_ui2d>
    2be2:	f5a6 6686 	sub.w	r6, r6, #1072	; 0x430
    2be6:	3e03      	subs	r6, #3
    2be8:	2201      	movs	r2, #1
    2bea:	f1a1 71f8 	sub.w	r1, r1, #32505856	; 0x1f00000
    2bee:	9216      	str	r2, [sp, #88]	; 0x58
    2bf0:	2200      	movs	r2, #0
    2bf2:	4b61      	ldr	r3, [pc, #388]	; (2d78 <_dtoa_r+0x2d8>)
    2bf4:	f7fd fcb0 	bl	558 <__aeabi_dsub>
    2bf8:	a355      	add	r3, pc, #340	; (adr r3, 2d50 <_dtoa_r+0x2b0>)
    2bfa:	e9d3 2300 	ldrd	r2, r3, [r3]
    2bfe:	f7fd fe5f 	bl	8c0 <__aeabi_dmul>
    2c02:	a355      	add	r3, pc, #340	; (adr r3, 2d58 <_dtoa_r+0x2b8>)
    2c04:	e9d3 2300 	ldrd	r2, r3, [r3]
    2c08:	f7fd fca8 	bl	55c <__adddf3>
    2c0c:	4682      	mov	sl, r0
    2c0e:	4630      	mov	r0, r6
    2c10:	468b      	mov	fp, r1
    2c12:	f7fd fdef 	bl	7f4 <__aeabi_i2d>
    2c16:	a352      	add	r3, pc, #328	; (adr r3, 2d60 <_dtoa_r+0x2c0>)
    2c18:	e9d3 2300 	ldrd	r2, r3, [r3]
    2c1c:	f7fd fe50 	bl	8c0 <__aeabi_dmul>
    2c20:	4602      	mov	r2, r0
    2c22:	460b      	mov	r3, r1
    2c24:	4650      	mov	r0, sl
    2c26:	4659      	mov	r1, fp
    2c28:	f7fd fc98 	bl	55c <__adddf3>
    2c2c:	4682      	mov	sl, r0
    2c2e:	468b      	mov	fp, r1
    2c30:	f7fe f858 	bl	ce4 <__aeabi_d2iz>
    2c34:	4659      	mov	r1, fp
    2c36:	2200      	movs	r2, #0
    2c38:	2300      	movs	r3, #0
    2c3a:	4604      	mov	r4, r0
    2c3c:	4650      	mov	r0, sl
    2c3e:	f001 fd09 	bl	4654 <__aeabi_dcmplt>
    2c42:	b150      	cbz	r0, 2c5a <_dtoa_r+0x1ba>
    2c44:	4620      	mov	r0, r4
    2c46:	f7fd fdd5 	bl	7f4 <__aeabi_i2d>
    2c4a:	4602      	mov	r2, r0
    2c4c:	460b      	mov	r3, r1
    2c4e:	4650      	mov	r0, sl
    2c50:	4659      	mov	r1, fp
    2c52:	f001 fcf5 	bl	4640 <__aeabi_dcmpeq>
    2c56:	b900      	cbnz	r0, 2c5a <_dtoa_r+0x1ba>
    2c58:	3c01      	subs	r4, #1
    2c5a:	2c16      	cmp	r4, #22
    2c5c:	d80d      	bhi.n	2c7a <_dtoa_r+0x1da>
    2c5e:	4b47      	ldr	r3, [pc, #284]	; (2d7c <_dtoa_r+0x2dc>)
    2c60:	eb03 03c4 	add.w	r3, r3, r4, lsl #3
    2c64:	e9d3 0100 	ldrd	r0, r1, [r3]
    2c68:	e9dd 2304 	ldrd	r2, r3, [sp, #16]
    2c6c:	f001 fd10 	bl	4690 <__aeabi_dcmpgt>
    2c70:	b130      	cbz	r0, 2c80 <_dtoa_r+0x1e0>
    2c72:	2300      	movs	r3, #0
    2c74:	3c01      	subs	r4, #1
    2c76:	9311      	str	r3, [sp, #68]	; 0x44
    2c78:	e004      	b.n	2c84 <_dtoa_r+0x1e4>
    2c7a:	2001      	movs	r0, #1
    2c7c:	9011      	str	r0, [sp, #68]	; 0x44
    2c7e:	e001      	b.n	2c84 <_dtoa_r+0x1e4>
    2c80:	2100      	movs	r1, #0
    2c82:	9111      	str	r1, [sp, #68]	; 0x44
    2c84:	9b19      	ldr	r3, [sp, #100]	; 0x64
    2c86:	f103 3bff 	add.w	fp, r3, #4294967295
    2c8a:	ebbb 0b06 	subs.w	fp, fp, r6
    2c8e:	d504      	bpl.n	2c9a <_dtoa_r+0x1fa>
    2c90:	2200      	movs	r2, #0
    2c92:	f1cb 0b00 	rsb	fp, fp, #0
    2c96:	9206      	str	r2, [sp, #24]
    2c98:	e003      	b.n	2ca2 <_dtoa_r+0x202>
    2c9a:	f8cd b018 	str.w	fp, [sp, #24]
    2c9e:	f04f 0b00 	mov.w	fp, #0
    2ca2:	2c00      	cmp	r4, #0
    2ca4:	db06      	blt.n	2cb4 <_dtoa_r+0x214>
    2ca6:	9b06      	ldr	r3, [sp, #24]
    2ca8:	f04f 0800 	mov.w	r8, #0
    2cac:	940f      	str	r4, [sp, #60]	; 0x3c
    2cae:	191b      	adds	r3, r3, r4
    2cb0:	9306      	str	r3, [sp, #24]
    2cb2:	e005      	b.n	2cc0 <_dtoa_r+0x220>
    2cb4:	ebc4 0b0b 	rsb	fp, r4, fp
    2cb8:	f1c4 0800 	rsb	r8, r4, #0
    2cbc:	2000      	movs	r0, #0
    2cbe:	900f      	str	r0, [sp, #60]	; 0x3c
    2cc0:	9924      	ldr	r1, [sp, #144]	; 0x90
    2cc2:	2909      	cmp	r1, #9
    2cc4:	d813      	bhi.n	2cee <_dtoa_r+0x24e>
    2cc6:	2905      	cmp	r1, #5
    2cc8:	dd03      	ble.n	2cd2 <_dtoa_r+0x232>
    2cca:	3904      	subs	r1, #4
    2ccc:	2700      	movs	r7, #0
    2cce:	9124      	str	r1, [sp, #144]	; 0x90
    2cd0:	e000      	b.n	2cd4 <_dtoa_r+0x234>
    2cd2:	2701      	movs	r7, #1
    2cd4:	9a24      	ldr	r2, [sp, #144]	; 0x90
    2cd6:	1e93      	subs	r3, r2, #2
    2cd8:	2b03      	cmp	r3, #3
    2cda:	d80b      	bhi.n	2cf4 <_dtoa_r+0x254>
    2cdc:	e8df f003 	tbb	[pc, r3]
    2ce0:	02051e15 	.word	0x02051e15
    2ce4:	2001      	movs	r0, #1
    2ce6:	900e      	str	r0, [sp, #56]	; 0x38
    2ce8:	e01a      	b.n	2d20 <_dtoa_r+0x280>
    2cea:	2101      	movs	r1, #1
    2cec:	e00e      	b.n	2d0c <_dtoa_r+0x26c>
    2cee:	2701      	movs	r7, #1
    2cf0:	2200      	movs	r2, #0
    2cf2:	9224      	str	r2, [sp, #144]	; 0x90
    2cf4:	2301      	movs	r3, #1
    2cf6:	f04f 3eff 	mov.w	lr, #4294967295
    2cfa:	930e      	str	r3, [sp, #56]	; 0x38
    2cfc:	2000      	movs	r0, #0
    2cfe:	f8cd e030 	str.w	lr, [sp, #48]	; 0x30
    2d02:	46f2      	mov	sl, lr
    2d04:	3311      	adds	r3, #17
    2d06:	9025      	str	r0, [sp, #148]	; 0x94
    2d08:	e01a      	b.n	2d40 <_dtoa_r+0x2a0>
    2d0a:	2100      	movs	r1, #0
    2d0c:	9a25      	ldr	r2, [sp, #148]	; 0x94
    2d0e:	910e      	str	r1, [sp, #56]	; 0x38
    2d10:	2a00      	cmp	r2, #0
    2d12:	dd0d      	ble.n	2d30 <_dtoa_r+0x290>
    2d14:	920c      	str	r2, [sp, #48]	; 0x30
    2d16:	4692      	mov	sl, r2
    2d18:	4613      	mov	r3, r2
    2d1a:	e011      	b.n	2d40 <_dtoa_r+0x2a0>
    2d1c:	2300      	movs	r3, #0
    2d1e:	930e      	str	r3, [sp, #56]	; 0x38
    2d20:	9825      	ldr	r0, [sp, #148]	; 0x94
    2d22:	1820      	adds	r0, r4, r0
    2d24:	900c      	str	r0, [sp, #48]	; 0x30
    2d26:	1c43      	adds	r3, r0, #1
    2d28:	2b00      	cmp	r3, #0
    2d2a:	dd07      	ble.n	2d3c <_dtoa_r+0x29c>
    2d2c:	469a      	mov	sl, r3
    2d2e:	e007      	b.n	2d40 <_dtoa_r+0x2a0>
    2d30:	2101      	movs	r1, #1
    2d32:	910c      	str	r1, [sp, #48]	; 0x30
    2d34:	468a      	mov	sl, r1
    2d36:	460b      	mov	r3, r1
    2d38:	9125      	str	r1, [sp, #148]	; 0x94
    2d3a:	e001      	b.n	2d40 <_dtoa_r+0x2a0>
    2d3c:	469a      	mov	sl, r3
    2d3e:	2301      	movs	r3, #1
    2d40:	6a6e      	ldr	r6, [r5, #36]	; 0x24
    2d42:	2200      	movs	r2, #0
    2d44:	6072      	str	r2, [r6, #4]
    2d46:	3204      	adds	r2, #4
    2d48:	e01e      	b.n	2d88 <_dtoa_r+0x2e8>
    2d4a:	bf00      	nop
    2d4c:	f3af 8000 	nop.w
    2d50:	636f4361 	.word	0x636f4361
    2d54:	3fd287a7 	.word	0x3fd287a7
    2d58:	8b60c8b3 	.word	0x8b60c8b3
    2d5c:	3fc68a28 	.word	0x3fc68a28
    2d60:	509f79fb 	.word	0x509f79fb
    2d64:	3fd34413 	.word	0x3fd34413
    2d68:	7ff00000 	.word	0x7ff00000
    2d6c:	00004ffe 	.word	0x00004ffe
    2d70:	00004ff5 	.word	0x00004ff5
    2d74:	00004ee3 	.word	0x00004ee3
    2d78:	3ff80000 	.word	0x3ff80000
    2d7c:	00005078 	.word	0x00005078
    2d80:	6871      	ldr	r1, [r6, #4]
    2d82:	0052      	lsls	r2, r2, #1
    2d84:	3101      	adds	r1, #1
    2d86:	6071      	str	r1, [r6, #4]
    2d88:	f102 0114 	add.w	r1, r2, #20
    2d8c:	4299      	cmp	r1, r3
    2d8e:	d9f7      	bls.n	2d80 <_dtoa_r+0x2e0>
    2d90:	4628      	mov	r0, r5
    2d92:	6871      	ldr	r1, [r6, #4]
    2d94:	f000 fd9e 	bl	38d4 <_Balloc>
    2d98:	6a6b      	ldr	r3, [r5, #36]	; 0x24
    2d9a:	f1ba 0f0e 	cmp.w	sl, #14
    2d9e:	6030      	str	r0, [r6, #0]
    2da0:	681b      	ldr	r3, [r3, #0]
    2da2:	930d      	str	r3, [sp, #52]	; 0x34
    2da4:	f200 81ac 	bhi.w	3100 <_dtoa_r+0x660>
    2da8:	2f00      	cmp	r7, #0
    2daa:	f000 81a9 	beq.w	3100 <_dtoa_r+0x660>
    2dae:	e9dd 2304 	ldrd	r2, r3, [sp, #16]
    2db2:	2c00      	cmp	r4, #0
    2db4:	e9cd 2312 	strd	r2, r3, [sp, #72]	; 0x48
    2db8:	dd3f      	ble.n	2e3a <_dtoa_r+0x39a>
    2dba:	f004 020f 	and.w	r2, r4, #15
    2dbe:	4b92      	ldr	r3, [pc, #584]	; (3008 <_dtoa_r+0x568>)
    2dc0:	1127      	asrs	r7, r4, #4
    2dc2:	eb03 03c2 	add.w	r3, r3, r2, lsl #3
    2dc6:	f017 0f10 	tst.w	r7, #16
    2dca:	e9d3 0100 	ldrd	r0, r1, [r3]
    2dce:	e9cd 010a 	strd	r0, r1, [sp, #40]	; 0x28
    2dd2:	d00e      	beq.n	2df2 <_dtoa_r+0x352>
    2dd4:	4b8d      	ldr	r3, [pc, #564]	; (300c <_dtoa_r+0x56c>)
    2dd6:	f007 070f 	and.w	r7, r7, #15
    2dda:	e9dd 0112 	ldrd	r0, r1, [sp, #72]	; 0x48
    2dde:	2603      	movs	r6, #3
    2de0:	e9d3 2308 	ldrd	r2, r3, [r3, #32]
    2de4:	f7fd fe96 	bl	b14 <__aeabi_ddiv>
    2de8:	4602      	mov	r2, r0
    2dea:	460b      	mov	r3, r1
    2dec:	e9cd 2304 	strd	r2, r3, [sp, #16]
    2df0:	e000      	b.n	2df4 <_dtoa_r+0x354>
    2df2:	2602      	movs	r6, #2
    2df4:	f8df c214 	ldr.w	ip, [pc, #532]	; 300c <_dtoa_r+0x56c>
    2df8:	f8cd b020 	str.w	fp, [sp, #32]
    2dfc:	46c3      	mov	fp, r8
    2dfe:	e9dd 010a 	ldrd	r0, r1, [sp, #40]	; 0x28
    2e02:	46a0      	mov	r8, r4
    2e04:	4664      	mov	r4, ip
    2e06:	e009      	b.n	2e1c <_dtoa_r+0x37c>
    2e08:	f017 0f01 	tst.w	r7, #1
    2e0c:	d004      	beq.n	2e18 <_dtoa_r+0x378>
    2e0e:	e9d4 2300 	ldrd	r2, r3, [r4]
    2e12:	3601      	adds	r6, #1
    2e14:	f7fd fd54 	bl	8c0 <__aeabi_dmul>
    2e18:	107f      	asrs	r7, r7, #1
    2e1a:	3408      	adds	r4, #8
    2e1c:	2f00      	cmp	r7, #0
    2e1e:	d1f3      	bne.n	2e08 <_dtoa_r+0x368>
    2e20:	e9cd 010a 	strd	r0, r1, [sp, #40]	; 0x28
    2e24:	4644      	mov	r4, r8
    2e26:	e9dd 0104 	ldrd	r0, r1, [sp, #16]
    2e2a:	46d8      	mov	r8, fp
    2e2c:	e9dd 230a 	ldrd	r2, r3, [sp, #40]	; 0x28
    2e30:	f8dd b020 	ldr.w	fp, [sp, #32]
    2e34:	f7fd fe6e 	bl	b14 <__aeabi_ddiv>
    2e38:	e026      	b.n	2e88 <_dtoa_r+0x3e8>
    2e3a:	4267      	negs	r7, r4
    2e3c:	b34f      	cbz	r7, 2e92 <_dtoa_r+0x3f2>
    2e3e:	f007 020f 	and.w	r2, r7, #15
    2e42:	4b71      	ldr	r3, [pc, #452]	; (3008 <_dtoa_r+0x568>)
    2e44:	e9dd 0112 	ldrd	r0, r1, [sp, #72]	; 0x48
    2e48:	113f      	asrs	r7, r7, #4
    2e4a:	eb03 03c2 	add.w	r3, r3, r2, lsl #3
    2e4e:	2602      	movs	r6, #2
    2e50:	e9d3 2300 	ldrd	r2, r3, [r3]
    2e54:	f7fd fd34 	bl	8c0 <__aeabi_dmul>
    2e58:	f8df c1b0 	ldr.w	ip, [pc, #432]	; 300c <_dtoa_r+0x56c>
    2e5c:	f8cd b010 	str.w	fp, [sp, #16]
    2e60:	46c3      	mov	fp, r8
    2e62:	46a0      	mov	r8, r4
    2e64:	4664      	mov	r4, ip
    2e66:	e009      	b.n	2e7c <_dtoa_r+0x3dc>
    2e68:	f017 0f01 	tst.w	r7, #1
    2e6c:	d004      	beq.n	2e78 <_dtoa_r+0x3d8>
    2e6e:	e9d4 2300 	ldrd	r2, r3, [r4]
    2e72:	3601      	adds	r6, #1
    2e74:	f7fd fd24 	bl	8c0 <__aeabi_dmul>
    2e78:	107f      	asrs	r7, r7, #1
    2e7a:	3408      	adds	r4, #8
    2e7c:	2f00      	cmp	r7, #0
    2e7e:	d1f3      	bne.n	2e68 <_dtoa_r+0x3c8>
    2e80:	4644      	mov	r4, r8
    2e82:	46d8      	mov	r8, fp
    2e84:	f8dd b010 	ldr.w	fp, [sp, #16]
    2e88:	4602      	mov	r2, r0
    2e8a:	460b      	mov	r3, r1
    2e8c:	e9cd 2304 	strd	r2, r3, [sp, #16]
    2e90:	e000      	b.n	2e94 <_dtoa_r+0x3f4>
    2e92:	2602      	movs	r6, #2
    2e94:	9b11      	ldr	r3, [sp, #68]	; 0x44
    2e96:	b1f3      	cbz	r3, 2ed6 <_dtoa_r+0x436>
    2e98:	e9dd 0104 	ldrd	r0, r1, [sp, #16]
    2e9c:	2200      	movs	r2, #0
    2e9e:	4b5c      	ldr	r3, [pc, #368]	; (3010 <_dtoa_r+0x570>)
    2ea0:	e9cd 0108 	strd	r0, r1, [sp, #32]
    2ea4:	f001 fbd6 	bl	4654 <__aeabi_dcmplt>
    2ea8:	b1a8      	cbz	r0, 2ed6 <_dtoa_r+0x436>
    2eaa:	f1ba 0f00 	cmp.w	sl, #0
    2eae:	d012      	beq.n	2ed6 <_dtoa_r+0x436>
    2eb0:	990c      	ldr	r1, [sp, #48]	; 0x30
    2eb2:	2900      	cmp	r1, #0
    2eb4:	f340 8120 	ble.w	30f8 <_dtoa_r+0x658>
    2eb8:	1e62      	subs	r2, r4, #1
    2eba:	4b56      	ldr	r3, [pc, #344]	; (3014 <_dtoa_r+0x574>)
    2ebc:	920a      	str	r2, [sp, #40]	; 0x28
    2ebe:	2200      	movs	r2, #0
    2ec0:	e9dd 0108 	ldrd	r0, r1, [sp, #32]
    2ec4:	3601      	adds	r6, #1
    2ec6:	f7fd fcfb 	bl	8c0 <__aeabi_dmul>
    2eca:	9f0c      	ldr	r7, [sp, #48]	; 0x30
    2ecc:	4602      	mov	r2, r0
    2ece:	460b      	mov	r3, r1
    2ed0:	e9cd 2304 	strd	r2, r3, [sp, #16]
    2ed4:	e001      	b.n	2eda <_dtoa_r+0x43a>
    2ed6:	4657      	mov	r7, sl
    2ed8:	940a      	str	r4, [sp, #40]	; 0x28
    2eda:	4630      	mov	r0, r6
    2edc:	f7fd fc8a 	bl	7f4 <__aeabi_i2d>
    2ee0:	e9dd 2304 	ldrd	r2, r3, [sp, #16]
    2ee4:	f7fd fcec 	bl	8c0 <__aeabi_dmul>
    2ee8:	2200      	movs	r2, #0
    2eea:	4b4b      	ldr	r3, [pc, #300]	; (3018 <_dtoa_r+0x578>)
    2eec:	f7fd fb36 	bl	55c <__adddf3>
    2ef0:	460b      	mov	r3, r1
    2ef2:	4602      	mov	r2, r0
    2ef4:	e9cd 2308 	strd	r2, r3, [sp, #32]
    2ef8:	9b09      	ldr	r3, [sp, #36]	; 0x24
    2efa:	f1a3 7650 	sub.w	r6, r3, #54525952	; 0x3400000
    2efe:	9609      	str	r6, [sp, #36]	; 0x24
    2f00:	b9ef      	cbnz	r7, 2f3e <_dtoa_r+0x49e>
    2f02:	e9dd 0104 	ldrd	r0, r1, [sp, #16]
    2f06:	2200      	movs	r2, #0
    2f08:	4b44      	ldr	r3, [pc, #272]	; (301c <_dtoa_r+0x57c>)
    2f0a:	f7fd fb25 	bl	558 <__aeabi_dsub>
    2f0e:	f8dd e020 	ldr.w	lr, [sp, #32]
    2f12:	4633      	mov	r3, r6
    2f14:	4672      	mov	r2, lr
    2f16:	e9cd 0104 	strd	r0, r1, [sp, #16]
    2f1a:	f001 fbb9 	bl	4690 <__aeabi_dcmpgt>
    2f1e:	2800      	cmp	r0, #0
    2f20:	f040 8296 	bne.w	3450 <_dtoa_r+0x9b0>
    2f24:	f8dd e020 	ldr.w	lr, [sp, #32]
    2f28:	f106 4300 	add.w	r3, r6, #2147483648	; 0x80000000
    2f2c:	e9dd 0104 	ldrd	r0, r1, [sp, #16]
    2f30:	4672      	mov	r2, lr
    2f32:	f001 fb8f 	bl	4654 <__aeabi_dcmplt>
    2f36:	2800      	cmp	r0, #0
    2f38:	f040 827e 	bne.w	3438 <_dtoa_r+0x998>
    2f3c:	e0dc      	b.n	30f8 <_dtoa_r+0x658>
    2f3e:	980e      	ldr	r0, [sp, #56]	; 0x38
    2f40:	1e7a      	subs	r2, r7, #1
    2f42:	4b31      	ldr	r3, [pc, #196]	; (3008 <_dtoa_r+0x568>)
    2f44:	2800      	cmp	r0, #0
    2f46:	d06d      	beq.n	3024 <_dtoa_r+0x584>
    2f48:	eb03 03c2 	add.w	r3, r3, r2, lsl #3
    2f4c:	2000      	movs	r0, #0
    2f4e:	4934      	ldr	r1, [pc, #208]	; (3020 <_dtoa_r+0x580>)
    2f50:	e9d3 2300 	ldrd	r2, r3, [r3]
    2f54:	f7fd fdde 	bl	b14 <__aeabi_ddiv>
    2f58:	e9dd 2308 	ldrd	r2, r3, [sp, #32]
    2f5c:	f7fd fafc 	bl	558 <__aeabi_dsub>
    2f60:	e9dd 2304 	ldrd	r2, r3, [sp, #16]
    2f64:	f8cd b054 	str.w	fp, [sp, #84]	; 0x54
    2f68:	46d3      	mov	fp, sl
    2f6a:	f8cd 805c 	str.w	r8, [sp, #92]	; 0x5c
    2f6e:	46a2      	mov	sl, r4
    2f70:	46a8      	mov	r8, r5
    2f72:	4614      	mov	r4, r2
    2f74:	461d      	mov	r5, r3
    2f76:	f04f 0e00 	mov.w	lr, #0
    2f7a:	f8cd e010 	str.w	lr, [sp, #16]
    2f7e:	e9cd 0108 	strd	r0, r1, [sp, #32]
    2f82:	990d      	ldr	r1, [sp, #52]	; 0x34
    2f84:	9110      	str	r1, [sp, #64]	; 0x40
    2f86:	4629      	mov	r1, r5
    2f88:	4620      	mov	r0, r4
    2f8a:	f7fd feab 	bl	ce4 <__aeabi_d2iz>
    2f8e:	4606      	mov	r6, r0
    2f90:	f7fd fc30 	bl	7f4 <__aeabi_i2d>
    2f94:	3630      	adds	r6, #48	; 0x30
    2f96:	4602      	mov	r2, r0
    2f98:	460b      	mov	r3, r1
    2f9a:	4620      	mov	r0, r4
    2f9c:	4629      	mov	r1, r5
    2f9e:	f7fd fadb 	bl	558 <__aeabi_dsub>
    2fa2:	9a10      	ldr	r2, [sp, #64]	; 0x40
    2fa4:	f802 6b01 	strb.w	r6, [r2], #1
    2fa8:	4616      	mov	r6, r2
    2faa:	9210      	str	r2, [sp, #64]	; 0x40
    2fac:	e9dd 2308 	ldrd	r2, r3, [sp, #32]
    2fb0:	4604      	mov	r4, r0
    2fb2:	460d      	mov	r5, r1
    2fb4:	f001 fb4e 	bl	4654 <__aeabi_dcmplt>
    2fb8:	2800      	cmp	r0, #0
    2fba:	f040 835b 	bne.w	3674 <_dtoa_r+0xbd4>
    2fbe:	4622      	mov	r2, r4
    2fc0:	462b      	mov	r3, r5
    2fc2:	2000      	movs	r0, #0
    2fc4:	4912      	ldr	r1, [pc, #72]	; (3010 <_dtoa_r+0x570>)
    2fc6:	f7fd fac7 	bl	558 <__aeabi_dsub>
    2fca:	e9dd 2308 	ldrd	r2, r3, [sp, #32]
    2fce:	f001 fb41 	bl	4654 <__aeabi_dcmplt>
    2fd2:	2800      	cmp	r0, #0
    2fd4:	f040 8102 	bne.w	31dc <_dtoa_r+0x73c>
    2fd8:	9b04      	ldr	r3, [sp, #16]
    2fda:	3301      	adds	r3, #1
    2fdc:	9304      	str	r3, [sp, #16]
    2fde:	42bb      	cmp	r3, r7
    2fe0:	f280 8083 	bge.w	30ea <_dtoa_r+0x64a>
    2fe4:	e9dd 0108 	ldrd	r0, r1, [sp, #32]
    2fe8:	2200      	movs	r2, #0
    2fea:	4b0a      	ldr	r3, [pc, #40]	; (3014 <_dtoa_r+0x574>)
    2fec:	f7fd fc68 	bl	8c0 <__aeabi_dmul>
    2ff0:	2200      	movs	r2, #0
    2ff2:	4b08      	ldr	r3, [pc, #32]	; (3014 <_dtoa_r+0x574>)
    2ff4:	e9cd 0108 	strd	r0, r1, [sp, #32]
    2ff8:	4620      	mov	r0, r4
    2ffa:	4629      	mov	r1, r5
    2ffc:	f7fd fc60 	bl	8c0 <__aeabi_dmul>
    3000:	4604      	mov	r4, r0
    3002:	460d      	mov	r5, r1
    3004:	e7bf      	b.n	2f86 <_dtoa_r+0x4e6>
    3006:	bf00      	nop
    3008:	00005078 	.word	0x00005078
    300c:	00005140 	.word	0x00005140
    3010:	3ff00000 	.word	0x3ff00000
    3014:	40240000 	.word	0x40240000
    3018:	401c0000 	.word	0x401c0000
    301c:	40140000 	.word	0x40140000
    3020:	3fe00000 	.word	0x3fe00000
    3024:	eb03 03c2 	add.w	r3, r3, r2, lsl #3
    3028:	e9d3 0100 	ldrd	r0, r1, [r3]
    302c:	e9dd 2308 	ldrd	r2, r3, [sp, #32]
    3030:	f7fd fc46 	bl	8c0 <__aeabi_dmul>
    3034:	e9dd 2304 	ldrd	r2, r3, [sp, #16]
    3038:	9e0e      	ldr	r6, [sp, #56]	; 0x38
    303a:	f8cd b040 	str.w	fp, [sp, #64]	; 0x40
    303e:	46d3      	mov	fp, sl
    3040:	f8cd 8054 	str.w	r8, [sp, #84]	; 0x54
    3044:	46a2      	mov	sl, r4
    3046:	46a8      	mov	r8, r5
    3048:	4614      	mov	r4, r2
    304a:	461d      	mov	r5, r3
    304c:	e9cd 0108 	strd	r0, r1, [sp, #32]
    3050:	4629      	mov	r1, r5
    3052:	4620      	mov	r0, r4
    3054:	f7fd fe46 	bl	ce4 <__aeabi_d2iz>
    3058:	9003      	str	r0, [sp, #12]
    305a:	f7fd fbcb 	bl	7f4 <__aeabi_i2d>
    305e:	4602      	mov	r2, r0
    3060:	460b      	mov	r3, r1
    3062:	4620      	mov	r0, r4
    3064:	4629      	mov	r1, r5
    3066:	f7fd fa77 	bl	558 <__aeabi_dsub>
    306a:	f8dd e034 	ldr.w	lr, [sp, #52]	; 0x34
    306e:	f8dd c00c 	ldr.w	ip, [sp, #12]
    3072:	f10c 0c30 	add.w	ip, ip, #48	; 0x30
    3076:	e9cd 0104 	strd	r0, r1, [sp, #16]
    307a:	f80e c006 	strb.w	ip, [lr, r6]
    307e:	3601      	adds	r6, #1
    3080:	42be      	cmp	r6, r7
    3082:	d12b      	bne.n	30dc <_dtoa_r+0x63c>
    3084:	2200      	movs	r2, #0
    3086:	4b81      	ldr	r3, [pc, #516]	; (328c <_dtoa_r+0x7ec>)
    3088:	e9dd 0108 	ldrd	r0, r1, [sp, #32]
    308c:	4476      	add	r6, lr
    308e:	f7fd fa65 	bl	55c <__adddf3>
    3092:	4654      	mov	r4, sl
    3094:	4645      	mov	r5, r8
    3096:	46da      	mov	sl, fp
    3098:	f8dd 8054 	ldr.w	r8, [sp, #84]	; 0x54
    309c:	f8dd b040 	ldr.w	fp, [sp, #64]	; 0x40
    30a0:	4602      	mov	r2, r0
    30a2:	460b      	mov	r3, r1
    30a4:	e9dd 0104 	ldrd	r0, r1, [sp, #16]
    30a8:	f001 faf2 	bl	4690 <__aeabi_dcmpgt>
    30ac:	2800      	cmp	r0, #0
    30ae:	f040 8096 	bne.w	31de <_dtoa_r+0x73e>
    30b2:	e9dd 2308 	ldrd	r2, r3, [sp, #32]
    30b6:	2000      	movs	r0, #0
    30b8:	4974      	ldr	r1, [pc, #464]	; (328c <_dtoa_r+0x7ec>)
    30ba:	f7fd fa4d 	bl	558 <__aeabi_dsub>
    30be:	4602      	mov	r2, r0
    30c0:	460b      	mov	r3, r1
    30c2:	e9dd 0104 	ldrd	r0, r1, [sp, #16]
    30c6:	f001 fac5 	bl	4654 <__aeabi_dcmplt>
    30ca:	b1a8      	cbz	r0, 30f8 <_dtoa_r+0x658>
    30cc:	4633      	mov	r3, r6
    30ce:	f813 2c01 	ldrb.w	r2, [r3, #-1]
    30d2:	461e      	mov	r6, r3
    30d4:	3b01      	subs	r3, #1
    30d6:	2a30      	cmp	r2, #48	; 0x30
    30d8:	d0f9      	beq.n	30ce <_dtoa_r+0x62e>
    30da:	e2cc      	b.n	3676 <_dtoa_r+0xbd6>
    30dc:	2200      	movs	r2, #0
    30de:	4b6c      	ldr	r3, [pc, #432]	; (3290 <_dtoa_r+0x7f0>)
    30e0:	f7fd fbee 	bl	8c0 <__aeabi_dmul>
    30e4:	4604      	mov	r4, r0
    30e6:	460d      	mov	r5, r1
    30e8:	e7b2      	b.n	3050 <_dtoa_r+0x5b0>
    30ea:	4654      	mov	r4, sl
    30ec:	4645      	mov	r5, r8
    30ee:	46da      	mov	sl, fp
    30f0:	f8dd 805c 	ldr.w	r8, [sp, #92]	; 0x5c
    30f4:	f8dd b054 	ldr.w	fp, [sp, #84]	; 0x54
    30f8:	e9dd 2312 	ldrd	r2, r3, [sp, #72]	; 0x48
    30fc:	e9cd 2304 	strd	r2, r3, [sp, #16]
    3100:	9a18      	ldr	r2, [sp, #96]	; 0x60
    3102:	2a00      	cmp	r2, #0
    3104:	f2c0 808a 	blt.w	321c <_dtoa_r+0x77c>
    3108:	2c0e      	cmp	r4, #14
    310a:	f300 8087 	bgt.w	321c <_dtoa_r+0x77c>
    310e:	4b61      	ldr	r3, [pc, #388]	; (3294 <_dtoa_r+0x7f4>)
    3110:	eb03 03c4 	add.w	r3, r3, r4, lsl #3
    3114:	e9d3 0100 	ldrd	r0, r1, [r3]
    3118:	e9cd 0106 	strd	r0, r1, [sp, #24]
    311c:	9925      	ldr	r1, [sp, #148]	; 0x94
    311e:	2900      	cmp	r1, #0
    3120:	da14      	bge.n	314c <_dtoa_r+0x6ac>
    3122:	f1ba 0f00 	cmp.w	sl, #0
    3126:	dc11      	bgt.n	314c <_dtoa_r+0x6ac>
    3128:	f040 8188 	bne.w	343c <_dtoa_r+0x99c>
    312c:	2200      	movs	r2, #0
    312e:	4b5a      	ldr	r3, [pc, #360]	; (3298 <_dtoa_r+0x7f8>)
    3130:	e9dd 0106 	ldrd	r0, r1, [sp, #24]
    3134:	f7fd fbc4 	bl	8c0 <__aeabi_dmul>
    3138:	e9dd 2304 	ldrd	r2, r3, [sp, #16]
    313c:	f001 fa9e 	bl	467c <__aeabi_dcmpge>
    3140:	2800      	cmp	r0, #0
    3142:	f040 817f 	bne.w	3444 <_dtoa_r+0x9a4>
    3146:	46d0      	mov	r8, sl
    3148:	4657      	mov	r7, sl
    314a:	e183      	b.n	3454 <_dtoa_r+0x9b4>
    314c:	e9dd 2304 	ldrd	r2, r3, [sp, #16]
    3150:	f8dd 8034 	ldr.w	r8, [sp, #52]	; 0x34
    3154:	469b      	mov	fp, r3
    3156:	9404      	str	r4, [sp, #16]
    3158:	44c2      	add	sl, r8
    315a:	f8cd a030 	str.w	sl, [sp, #48]	; 0x30
    315e:	4692      	mov	sl, r2
    3160:	e9dd 2306 	ldrd	r2, r3, [sp, #24]
    3164:	4650      	mov	r0, sl
    3166:	4659      	mov	r1, fp
    3168:	4646      	mov	r6, r8
    316a:	f7fd fcd3 	bl	b14 <__aeabi_ddiv>
    316e:	f7fd fdb9 	bl	ce4 <__aeabi_d2iz>
    3172:	4607      	mov	r7, r0
    3174:	f7fd fb3e 	bl	7f4 <__aeabi_i2d>
    3178:	e9dd 2306 	ldrd	r2, r3, [sp, #24]
    317c:	f7fd fba0 	bl	8c0 <__aeabi_dmul>
    3180:	4602      	mov	r2, r0
    3182:	460b      	mov	r3, r1
    3184:	4650      	mov	r0, sl
    3186:	4659      	mov	r1, fp
    3188:	f7fd f9e6 	bl	558 <__aeabi_dsub>
    318c:	f107 0330 	add.w	r3, r7, #48	; 0x30
    3190:	f806 3b01 	strb.w	r3, [r6], #1
    3194:	46b0      	mov	r8, r6
    3196:	9a0c      	ldr	r2, [sp, #48]	; 0x30
    3198:	4296      	cmp	r6, r2
    319a:	d12d      	bne.n	31f8 <_dtoa_r+0x758>
    319c:	4602      	mov	r2, r0
    319e:	460b      	mov	r3, r1
    31a0:	f7fd f9dc 	bl	55c <__adddf3>
    31a4:	e9dd 2306 	ldrd	r2, r3, [sp, #24]
    31a8:	9c04      	ldr	r4, [sp, #16]
    31aa:	4682      	mov	sl, r0
    31ac:	468b      	mov	fp, r1
    31ae:	f001 fa6f 	bl	4690 <__aeabi_dcmpgt>
    31b2:	b9a8      	cbnz	r0, 31e0 <_dtoa_r+0x740>
    31b4:	4650      	mov	r0, sl
    31b6:	4659      	mov	r1, fp
    31b8:	e9dd 2306 	ldrd	r2, r3, [sp, #24]
    31bc:	f001 fa40 	bl	4640 <__aeabi_dcmpeq>
    31c0:	2800      	cmp	r0, #0
    31c2:	f000 8259 	beq.w	3678 <_dtoa_r+0xbd8>
    31c6:	f017 0f01 	tst.w	r7, #1
    31ca:	d109      	bne.n	31e0 <_dtoa_r+0x740>
    31cc:	e254      	b.n	3678 <_dtoa_r+0xbd8>
    31ce:	980d      	ldr	r0, [sp, #52]	; 0x34
    31d0:	4282      	cmp	r2, r0
    31d2:	d106      	bne.n	31e2 <_dtoa_r+0x742>
    31d4:	2230      	movs	r2, #48	; 0x30
    31d6:	3401      	adds	r4, #1
    31d8:	7002      	strb	r2, [r0, #0]
    31da:	e009      	b.n	31f0 <_dtoa_r+0x750>
    31dc:	4645      	mov	r5, r8
    31de:	9c0a      	ldr	r4, [sp, #40]	; 0x28
    31e0:	4632      	mov	r2, r6
    31e2:	f812 1c01 	ldrb.w	r1, [r2, #-1]
    31e6:	1e53      	subs	r3, r2, #1
    31e8:	4616      	mov	r6, r2
    31ea:	461a      	mov	r2, r3
    31ec:	2939      	cmp	r1, #57	; 0x39
    31ee:	d0ee      	beq.n	31ce <_dtoa_r+0x72e>
    31f0:	781a      	ldrb	r2, [r3, #0]
    31f2:	3201      	adds	r2, #1
    31f4:	701a      	strb	r2, [r3, #0]
    31f6:	e23f      	b.n	3678 <_dtoa_r+0xbd8>
    31f8:	2200      	movs	r2, #0
    31fa:	4b25      	ldr	r3, [pc, #148]	; (3290 <_dtoa_r+0x7f0>)
    31fc:	f7fd fb60 	bl	8c0 <__aeabi_dmul>
    3200:	2200      	movs	r2, #0
    3202:	2300      	movs	r3, #0
    3204:	2401      	movs	r4, #1
    3206:	4682      	mov	sl, r0
    3208:	468b      	mov	fp, r1
    320a:	f001 fa19 	bl	4640 <__aeabi_dcmpeq>
    320e:	b100      	cbz	r0, 3212 <_dtoa_r+0x772>
    3210:	2400      	movs	r4, #0
    3212:	f014 0fff 	tst.w	r4, #255	; 0xff
    3216:	d1a3      	bne.n	3160 <_dtoa_r+0x6c0>
    3218:	9c04      	ldr	r4, [sp, #16]
    321a:	e22d      	b.n	3678 <_dtoa_r+0xbd8>
    321c:	990e      	ldr	r1, [sp, #56]	; 0x38
    321e:	2900      	cmp	r1, #0
    3220:	d03c      	beq.n	329c <_dtoa_r+0x7fc>
    3222:	9b24      	ldr	r3, [sp, #144]	; 0x90
    3224:	2b01      	cmp	r3, #1
    3226:	dc0b      	bgt.n	3240 <_dtoa_r+0x7a0>
    3228:	9816      	ldr	r0, [sp, #88]	; 0x58
    322a:	b118      	cbz	r0, 3234 <_dtoa_r+0x794>
    322c:	f502 6286 	add.w	r2, r2, #1072	; 0x430
    3230:	3203      	adds	r2, #3
    3232:	e002      	b.n	323a <_dtoa_r+0x79a>
    3234:	9a19      	ldr	r2, [sp, #100]	; 0x64
    3236:	f1c2 0236 	rsb	r2, r2, #54	; 0x36
    323a:	4643      	mov	r3, r8
    323c:	465e      	mov	r6, fp
    323e:	e016      	b.n	326e <_dtoa_r+0x7ce>
    3240:	f10a 33ff 	add.w	r3, sl, #4294967295
    3244:	4598      	cmp	r8, r3
    3246:	db02      	blt.n	324e <_dtoa_r+0x7ae>
    3248:	ebc3 0308 	rsb	r3, r3, r8
    324c:	e006      	b.n	325c <_dtoa_r+0x7bc>
    324e:	990f      	ldr	r1, [sp, #60]	; 0x3c
    3250:	ebc8 0303 	rsb	r3, r8, r3
    3254:	4498      	add	r8, r3
    3256:	18c9      	adds	r1, r1, r3
    3258:	2300      	movs	r3, #0
    325a:	910f      	str	r1, [sp, #60]	; 0x3c
    325c:	f1ba 0f00 	cmp.w	sl, #0
    3260:	da03      	bge.n	326a <_dtoa_r+0x7ca>
    3262:	ebca 060b 	rsb	r6, sl, fp
    3266:	2200      	movs	r2, #0
    3268:	e001      	b.n	326e <_dtoa_r+0x7ce>
    326a:	465e      	mov	r6, fp
    326c:	4652      	mov	r2, sl
    326e:	f8dd e018 	ldr.w	lr, [sp, #24]
    3272:	4628      	mov	r0, r5
    3274:	2101      	movs	r1, #1
    3276:	9302      	str	r3, [sp, #8]
    3278:	4496      	add	lr, r2
    327a:	4493      	add	fp, r2
    327c:	f8cd e018 	str.w	lr, [sp, #24]
    3280:	f000 fc00 	bl	3a84 <__i2b>
    3284:	9b02      	ldr	r3, [sp, #8]
    3286:	4607      	mov	r7, r0
    3288:	e00b      	b.n	32a2 <_dtoa_r+0x802>
    328a:	bf00      	nop
    328c:	3fe00000 	.word	0x3fe00000
    3290:	40240000 	.word	0x40240000
    3294:	00005078 	.word	0x00005078
    3298:	40140000 	.word	0x40140000
    329c:	9f0e      	ldr	r7, [sp, #56]	; 0x38
    329e:	4643      	mov	r3, r8
    32a0:	465e      	mov	r6, fp
    32a2:	b15e      	cbz	r6, 32bc <_dtoa_r+0x81c>
    32a4:	9806      	ldr	r0, [sp, #24]
    32a6:	2800      	cmp	r0, #0
    32a8:	dd08      	ble.n	32bc <_dtoa_r+0x81c>
    32aa:	4602      	mov	r2, r0
    32ac:	42b2      	cmp	r2, r6
    32ae:	bfa8      	it	ge
    32b0:	4632      	movge	r2, r6
    32b2:	ebc2 0b0b 	rsb	fp, r2, fp
    32b6:	1ab6      	subs	r6, r6, r2
    32b8:	1a80      	subs	r0, r0, r2
    32ba:	9006      	str	r0, [sp, #24]
    32bc:	f1b8 0f00 	cmp.w	r8, #0
    32c0:	dd24      	ble.n	330c <_dtoa_r+0x86c>
    32c2:	990e      	ldr	r1, [sp, #56]	; 0x38
    32c4:	b1e1      	cbz	r1, 3300 <_dtoa_r+0x860>
    32c6:	2b00      	cmp	r3, #0
    32c8:	dd14      	ble.n	32f4 <_dtoa_r+0x854>
    32ca:	461a      	mov	r2, r3
    32cc:	4639      	mov	r1, r7
    32ce:	4628      	mov	r0, r5
    32d0:	9302      	str	r3, [sp, #8]
    32d2:	f000 fc73 	bl	3bbc <__pow5mult>
    32d6:	464a      	mov	r2, r9
    32d8:	4607      	mov	r7, r0
    32da:	4628      	mov	r0, r5
    32dc:	4639      	mov	r1, r7
    32de:	f000 fbda 	bl	3a96 <__multiply>
    32e2:	4649      	mov	r1, r9
    32e4:	4602      	mov	r2, r0
    32e6:	4628      	mov	r0, r5
    32e8:	9203      	str	r2, [sp, #12]
    32ea:	f000 fb24 	bl	3936 <_Bfree>
    32ee:	9a03      	ldr	r2, [sp, #12]
    32f0:	9b02      	ldr	r3, [sp, #8]
    32f2:	4691      	mov	r9, r2
    32f4:	ebb8 0203 	subs.w	r2, r8, r3
    32f8:	d008      	beq.n	330c <_dtoa_r+0x86c>
    32fa:	4628      	mov	r0, r5
    32fc:	4649      	mov	r1, r9
    32fe:	e002      	b.n	3306 <_dtoa_r+0x866>
    3300:	4628      	mov	r0, r5
    3302:	4649      	mov	r1, r9
    3304:	4642      	mov	r2, r8
    3306:	f000 fc59 	bl	3bbc <__pow5mult>
    330a:	4681      	mov	r9, r0
    330c:	2101      	movs	r1, #1
    330e:	4628      	mov	r0, r5
    3310:	f000 fbb8 	bl	3a84 <__i2b>
    3314:	9a0f      	ldr	r2, [sp, #60]	; 0x3c
    3316:	2a00      	cmp	r2, #0
    3318:	4680      	mov	r8, r0
    331a:	dd04      	ble.n	3326 <_dtoa_r+0x886>
    331c:	4641      	mov	r1, r8
    331e:	4628      	mov	r0, r5
    3320:	f000 fc4c 	bl	3bbc <__pow5mult>
    3324:	4680      	mov	r8, r0
    3326:	9b24      	ldr	r3, [sp, #144]	; 0x90
    3328:	2b01      	cmp	r3, #1
    332a:	dc13      	bgt.n	3354 <_dtoa_r+0x8b4>
    332c:	9804      	ldr	r0, [sp, #16]
    332e:	b998      	cbnz	r0, 3358 <_dtoa_r+0x8b8>
    3330:	9a05      	ldr	r2, [sp, #20]
    3332:	f022 437f 	bic.w	r3, r2, #4278190080	; 0xff000000
    3336:	f423 0370 	bic.w	r3, r3, #15728640	; 0xf00000
    333a:	b983      	cbnz	r3, 335e <_dtoa_r+0x8be>
    333c:	4b8c      	ldr	r3, [pc, #560]	; (3570 <_dtoa_r+0xad0>)
    333e:	ea02 0303 	and.w	r3, r2, r3
    3342:	b17b      	cbz	r3, 3364 <_dtoa_r+0x8c4>
    3344:	9906      	ldr	r1, [sp, #24]
    3346:	2201      	movs	r2, #1
    3348:	f10b 0b01 	add.w	fp, fp, #1
    334c:	920a      	str	r2, [sp, #40]	; 0x28
    334e:	3101      	adds	r1, #1
    3350:	9106      	str	r1, [sp, #24]
    3352:	e008      	b.n	3366 <_dtoa_r+0x8c6>
    3354:	2300      	movs	r3, #0
    3356:	e005      	b.n	3364 <_dtoa_r+0x8c4>
    3358:	2000      	movs	r0, #0
    335a:	900a      	str	r0, [sp, #40]	; 0x28
    335c:	e003      	b.n	3366 <_dtoa_r+0x8c6>
    335e:	9904      	ldr	r1, [sp, #16]
    3360:	910a      	str	r1, [sp, #40]	; 0x28
    3362:	e000      	b.n	3366 <_dtoa_r+0x8c6>
    3364:	930a      	str	r3, [sp, #40]	; 0x28
    3366:	9a0f      	ldr	r2, [sp, #60]	; 0x3c
    3368:	b14a      	cbz	r2, 337e <_dtoa_r+0x8de>
    336a:	f8d8 3010 	ldr.w	r3, [r8, #16]
    336e:	eb08 0383 	add.w	r3, r8, r3, lsl #2
    3372:	6918      	ldr	r0, [r3, #16]
    3374:	f000 fb34 	bl	39e0 <__hi0bits>
    3378:	f1c0 0320 	rsb	r3, r0, #32
    337c:	e000      	b.n	3380 <_dtoa_r+0x8e0>
    337e:	2301      	movs	r3, #1
    3380:	f8dd e018 	ldr.w	lr, [sp, #24]
    3384:	4473      	add	r3, lr
    3386:	f013 031f 	ands.w	r3, r3, #31
    338a:	d00b      	beq.n	33a4 <_dtoa_r+0x904>
    338c:	f1c3 0320 	rsb	r3, r3, #32
    3390:	2b04      	cmp	r3, #4
    3392:	dd06      	ble.n	33a2 <_dtoa_r+0x902>
    3394:	3b04      	subs	r3, #4
    3396:	449e      	add	lr, r3
    3398:	449b      	add	fp, r3
    339a:	18f6      	adds	r6, r6, r3
    339c:	f8cd e018 	str.w	lr, [sp, #24]
    33a0:	e006      	b.n	33b0 <_dtoa_r+0x910>
    33a2:	d005      	beq.n	33b0 <_dtoa_r+0x910>
    33a4:	331c      	adds	r3, #28
    33a6:	9806      	ldr	r0, [sp, #24]
    33a8:	449b      	add	fp, r3
    33aa:	18f6      	adds	r6, r6, r3
    33ac:	18c0      	adds	r0, r0, r3
    33ae:	9006      	str	r0, [sp, #24]
    33b0:	f1bb 0f00 	cmp.w	fp, #0
    33b4:	dd05      	ble.n	33c2 <_dtoa_r+0x922>
    33b6:	4649      	mov	r1, r9
    33b8:	4628      	mov	r0, r5
    33ba:	465a      	mov	r2, fp
    33bc:	f000 fc50 	bl	3c60 <__lshift>
    33c0:	4681      	mov	r9, r0
    33c2:	9906      	ldr	r1, [sp, #24]
    33c4:	2900      	cmp	r1, #0
    33c6:	dd05      	ble.n	33d4 <_dtoa_r+0x934>
    33c8:	4641      	mov	r1, r8
    33ca:	4628      	mov	r0, r5
    33cc:	9a06      	ldr	r2, [sp, #24]
    33ce:	f000 fc47 	bl	3c60 <__lshift>
    33d2:	4680      	mov	r8, r0
    33d4:	9a11      	ldr	r2, [sp, #68]	; 0x44
    33d6:	b1c2      	cbz	r2, 340a <_dtoa_r+0x96a>
    33d8:	4648      	mov	r0, r9
    33da:	4641      	mov	r1, r8
    33dc:	f000 fc8c 	bl	3cf8 <__mcmp>
    33e0:	2800      	cmp	r0, #0
    33e2:	da12      	bge.n	340a <_dtoa_r+0x96a>
    33e4:	4649      	mov	r1, r9
    33e6:	2300      	movs	r3, #0
    33e8:	4628      	mov	r0, r5
    33ea:	220a      	movs	r2, #10
    33ec:	f000 faba 	bl	3964 <__multadd>
    33f0:	9b0e      	ldr	r3, [sp, #56]	; 0x38
    33f2:	3c01      	subs	r4, #1
    33f4:	4681      	mov	r9, r0
    33f6:	b133      	cbz	r3, 3406 <_dtoa_r+0x966>
    33f8:	4639      	mov	r1, r7
    33fa:	4628      	mov	r0, r5
    33fc:	220a      	movs	r2, #10
    33fe:	2300      	movs	r3, #0
    3400:	f000 fab0 	bl	3964 <__multadd>
    3404:	4607      	mov	r7, r0
    3406:	f8dd a030 	ldr.w	sl, [sp, #48]	; 0x30
    340a:	f1ba 0f00 	cmp.w	sl, #0
    340e:	dc29      	bgt.n	3464 <_dtoa_r+0x9c4>
    3410:	9824      	ldr	r0, [sp, #144]	; 0x90
    3412:	2802      	cmp	r0, #2
    3414:	dd26      	ble.n	3464 <_dtoa_r+0x9c4>
    3416:	f1ba 0f00 	cmp.w	sl, #0
    341a:	d115      	bne.n	3448 <_dtoa_r+0x9a8>
    341c:	4641      	mov	r1, r8
    341e:	2205      	movs	r2, #5
    3420:	4653      	mov	r3, sl
    3422:	4628      	mov	r0, r5
    3424:	f000 fa9e 	bl	3964 <__multadd>
    3428:	4680      	mov	r8, r0
    342a:	4648      	mov	r0, r9
    342c:	4641      	mov	r1, r8
    342e:	f000 fc63 	bl	3cf8 <__mcmp>
    3432:	2800      	cmp	r0, #0
    3434:	dc0e      	bgt.n	3454 <_dtoa_r+0x9b4>
    3436:	e007      	b.n	3448 <_dtoa_r+0x9a8>
    3438:	46b8      	mov	r8, r7
    343a:	e005      	b.n	3448 <_dtoa_r+0x9a8>
    343c:	f04f 0800 	mov.w	r8, #0
    3440:	4647      	mov	r7, r8
    3442:	e001      	b.n	3448 <_dtoa_r+0x9a8>
    3444:	46d0      	mov	r8, sl
    3446:	4657      	mov	r7, sl
    3448:	9925      	ldr	r1, [sp, #148]	; 0x94
    344a:	9e0d      	ldr	r6, [sp, #52]	; 0x34
    344c:	43cc      	mvns	r4, r1
    344e:	e006      	b.n	345e <_dtoa_r+0x9be>
    3450:	9c0a      	ldr	r4, [sp, #40]	; 0x28
    3452:	46b8      	mov	r8, r7
    3454:	9e0d      	ldr	r6, [sp, #52]	; 0x34
    3456:	3401      	adds	r4, #1
    3458:	2331      	movs	r3, #49	; 0x31
    345a:	f806 3b01 	strb.w	r3, [r6], #1
    345e:	f04f 0a00 	mov.w	sl, #0
    3462:	e0f4      	b.n	364e <_dtoa_r+0xbae>
    3464:	9a0e      	ldr	r2, [sp, #56]	; 0x38
    3466:	2a00      	cmp	r2, #0
    3468:	f000 80aa 	beq.w	35c0 <_dtoa_r+0xb20>
    346c:	2e00      	cmp	r6, #0
    346e:	dd05      	ble.n	347c <_dtoa_r+0x9dc>
    3470:	4639      	mov	r1, r7
    3472:	4628      	mov	r0, r5
    3474:	4632      	mov	r2, r6
    3476:	f000 fbf3 	bl	3c60 <__lshift>
    347a:	4607      	mov	r7, r0
    347c:	9b0a      	ldr	r3, [sp, #40]	; 0x28
    347e:	b193      	cbz	r3, 34a6 <_dtoa_r+0xa06>
    3480:	6879      	ldr	r1, [r7, #4]
    3482:	4628      	mov	r0, r5
    3484:	f000 fa26 	bl	38d4 <_Balloc>
    3488:	693a      	ldr	r2, [r7, #16]
    348a:	f107 010c 	add.w	r1, r7, #12
    348e:	3202      	adds	r2, #2
    3490:	0092      	lsls	r2, r2, #2
    3492:	4606      	mov	r6, r0
    3494:	300c      	adds	r0, #12
    3496:	f7fd febb 	bl	1210 <memcpy>
    349a:	4628      	mov	r0, r5
    349c:	4631      	mov	r1, r6
    349e:	2201      	movs	r2, #1
    34a0:	f000 fbde 	bl	3c60 <__lshift>
    34a4:	e000      	b.n	34a8 <_dtoa_r+0xa08>
    34a6:	4638      	mov	r0, r7
    34a8:	9e0d      	ldr	r6, [sp, #52]	; 0x34
    34aa:	9406      	str	r4, [sp, #24]
    34ac:	44b2      	add	sl, r6
    34ae:	f8cd a038 	str.w	sl, [sp, #56]	; 0x38
    34b2:	46ba      	mov	sl, r7
    34b4:	4607      	mov	r7, r0
    34b6:	4641      	mov	r1, r8
    34b8:	4648      	mov	r0, r9
    34ba:	f7ff fa5d 	bl	2978 <quorem>
    34be:	4651      	mov	r1, sl
    34c0:	f100 0b30 	add.w	fp, r0, #48	; 0x30
    34c4:	4648      	mov	r0, r9
    34c6:	f000 fc17 	bl	3cf8 <__mcmp>
    34ca:	463a      	mov	r2, r7
    34cc:	4641      	mov	r1, r8
    34ce:	900c      	str	r0, [sp, #48]	; 0x30
    34d0:	4628      	mov	r0, r5
    34d2:	f000 fc2e 	bl	3d32 <__mdiff>
    34d6:	68c2      	ldr	r2, [r0, #12]
    34d8:	4603      	mov	r3, r0
    34da:	b93a      	cbnz	r2, 34ec <_dtoa_r+0xa4c>
    34dc:	4619      	mov	r1, r3
    34de:	4648      	mov	r0, r9
    34e0:	9302      	str	r3, [sp, #8]
    34e2:	f000 fc09 	bl	3cf8 <__mcmp>
    34e6:	9b02      	ldr	r3, [sp, #8]
    34e8:	4604      	mov	r4, r0
    34ea:	e000      	b.n	34ee <_dtoa_r+0xa4e>
    34ec:	2401      	movs	r4, #1
    34ee:	4628      	mov	r0, r5
    34f0:	4619      	mov	r1, r3
    34f2:	f000 fa20 	bl	3936 <_Bfree>
    34f6:	b96c      	cbnz	r4, 3514 <_dtoa_r+0xa74>
    34f8:	9824      	ldr	r0, [sp, #144]	; 0x90
    34fa:	b958      	cbnz	r0, 3514 <_dtoa_r+0xa74>
    34fc:	9904      	ldr	r1, [sp, #16]
    34fe:	f001 0301 	and.w	r3, r1, #1
    3502:	b93b      	cbnz	r3, 3514 <_dtoa_r+0xa74>
    3504:	f1bb 0f39 	cmp.w	fp, #57	; 0x39
    3508:	9c06      	ldr	r4, [sp, #24]
    350a:	d027      	beq.n	355c <_dtoa_r+0xabc>
    350c:	9a0c      	ldr	r2, [sp, #48]	; 0x30
    350e:	2a00      	cmp	r2, #0
    3510:	dc29      	bgt.n	3566 <_dtoa_r+0xac6>
    3512:	e02a      	b.n	356a <_dtoa_r+0xaca>
    3514:	9b0c      	ldr	r3, [sp, #48]	; 0x30
    3516:	2b00      	cmp	r3, #0
    3518:	db06      	blt.n	3528 <_dtoa_r+0xa88>
    351a:	d119      	bne.n	3550 <_dtoa_r+0xab0>
    351c:	9824      	ldr	r0, [sp, #144]	; 0x90
    351e:	b9b8      	cbnz	r0, 3550 <_dtoa_r+0xab0>
    3520:	9904      	ldr	r1, [sp, #16]
    3522:	f001 0301 	and.w	r3, r1, #1
    3526:	b99b      	cbnz	r3, 3550 <_dtoa_r+0xab0>
    3528:	4622      	mov	r2, r4
    352a:	9c06      	ldr	r4, [sp, #24]
    352c:	2a00      	cmp	r2, #0
    352e:	dd1c      	ble.n	356a <_dtoa_r+0xaca>
    3530:	4649      	mov	r1, r9
    3532:	2201      	movs	r2, #1
    3534:	4628      	mov	r0, r5
    3536:	f000 fb93 	bl	3c60 <__lshift>
    353a:	4641      	mov	r1, r8
    353c:	4681      	mov	r9, r0
    353e:	f000 fbdb 	bl	3cf8 <__mcmp>
    3542:	2800      	cmp	r0, #0
    3544:	dc07      	bgt.n	3556 <_dtoa_r+0xab6>
    3546:	d110      	bne.n	356a <_dtoa_r+0xaca>
    3548:	f01b 0f01 	tst.w	fp, #1
    354c:	d00d      	beq.n	356a <_dtoa_r+0xaca>
    354e:	e002      	b.n	3556 <_dtoa_r+0xab6>
    3550:	2c00      	cmp	r4, #0
    3552:	dd0f      	ble.n	3574 <_dtoa_r+0xad4>
    3554:	9c06      	ldr	r4, [sp, #24]
    3556:	f1bb 0f39 	cmp.w	fp, #57	; 0x39
    355a:	d104      	bne.n	3566 <_dtoa_r+0xac6>
    355c:	4633      	mov	r3, r6
    355e:	2239      	movs	r2, #57	; 0x39
    3560:	f803 2b01 	strb.w	r2, [r3], #1
    3564:	e065      	b.n	3632 <_dtoa_r+0xb92>
    3566:	f10b 0b01 	add.w	fp, fp, #1
    356a:	f806 bb01 	strb.w	fp, [r6], #1
    356e:	e06e      	b.n	364e <_dtoa_r+0xbae>
    3570:	7ff00000 	.word	0x7ff00000
    3574:	f806 bb01 	strb.w	fp, [r6], #1
    3578:	4633      	mov	r3, r6
    357a:	9a0e      	ldr	r2, [sp, #56]	; 0x38
    357c:	4296      	cmp	r6, r2
    357e:	d03e      	beq.n	35fe <_dtoa_r+0xb5e>
    3580:	4649      	mov	r1, r9
    3582:	220a      	movs	r2, #10
    3584:	2300      	movs	r3, #0
    3586:	4628      	mov	r0, r5
    3588:	f000 f9ec 	bl	3964 <__multadd>
    358c:	45ba      	cmp	sl, r7
    358e:	4681      	mov	r9, r0
    3590:	d107      	bne.n	35a2 <_dtoa_r+0xb02>
    3592:	4651      	mov	r1, sl
    3594:	4628      	mov	r0, r5
    3596:	220a      	movs	r2, #10
    3598:	2300      	movs	r3, #0
    359a:	f000 f9e3 	bl	3964 <__multadd>
    359e:	4682      	mov	sl, r0
    35a0:	e00c      	b.n	35bc <_dtoa_r+0xb1c>
    35a2:	4651      	mov	r1, sl
    35a4:	220a      	movs	r2, #10
    35a6:	2300      	movs	r3, #0
    35a8:	4628      	mov	r0, r5
    35aa:	f000 f9db 	bl	3964 <__multadd>
    35ae:	4639      	mov	r1, r7
    35b0:	220a      	movs	r2, #10
    35b2:	2300      	movs	r3, #0
    35b4:	4682      	mov	sl, r0
    35b6:	4628      	mov	r0, r5
    35b8:	f000 f9d4 	bl	3964 <__multadd>
    35bc:	4607      	mov	r7, r0
    35be:	e77a      	b.n	34b6 <_dtoa_r+0xa16>
    35c0:	f04f 0c01 	mov.w	ip, #1
    35c4:	9e0d      	ldr	r6, [sp, #52]	; 0x34
    35c6:	46cb      	mov	fp, r9
    35c8:	46a1      	mov	r9, r4
    35ca:	4664      	mov	r4, ip
    35cc:	4658      	mov	r0, fp
    35ce:	4641      	mov	r1, r8
    35d0:	f7ff f9d2 	bl	2978 <quorem>
    35d4:	3030      	adds	r0, #48	; 0x30
    35d6:	4554      	cmp	r4, sl
    35d8:	f806 0b01 	strb.w	r0, [r6], #1
    35dc:	4633      	mov	r3, r6
    35de:	da08      	bge.n	35f2 <_dtoa_r+0xb52>
    35e0:	4659      	mov	r1, fp
    35e2:	4628      	mov	r0, r5
    35e4:	220a      	movs	r2, #10
    35e6:	2300      	movs	r3, #0
    35e8:	f000 f9bc 	bl	3964 <__multadd>
    35ec:	3401      	adds	r4, #1
    35ee:	4683      	mov	fp, r0
    35f0:	e7ec      	b.n	35cc <_dtoa_r+0xb2c>
    35f2:	464c      	mov	r4, r9
    35f4:	f04f 0a00 	mov.w	sl, #0
    35f8:	46d9      	mov	r9, fp
    35fa:	4683      	mov	fp, r0
    35fc:	e000      	b.n	3600 <_dtoa_r+0xb60>
    35fe:	9c06      	ldr	r4, [sp, #24]
    3600:	4649      	mov	r1, r9
    3602:	2201      	movs	r2, #1
    3604:	4628      	mov	r0, r5
    3606:	9302      	str	r3, [sp, #8]
    3608:	f000 fb2a 	bl	3c60 <__lshift>
    360c:	4641      	mov	r1, r8
    360e:	4681      	mov	r9, r0
    3610:	f000 fb72 	bl	3cf8 <__mcmp>
    3614:	9b02      	ldr	r3, [sp, #8]
    3616:	2800      	cmp	r0, #0
    3618:	dc0b      	bgt.n	3632 <_dtoa_r+0xb92>
    361a:	d113      	bne.n	3644 <_dtoa_r+0xba4>
    361c:	f01b 0f01 	tst.w	fp, #1
    3620:	d107      	bne.n	3632 <_dtoa_r+0xb92>
    3622:	e00f      	b.n	3644 <_dtoa_r+0xba4>
    3624:	980d      	ldr	r0, [sp, #52]	; 0x34
    3626:	4283      	cmp	r3, r0
    3628:	d103      	bne.n	3632 <_dtoa_r+0xb92>
    362a:	2331      	movs	r3, #49	; 0x31
    362c:	3401      	adds	r4, #1
    362e:	7003      	strb	r3, [r0, #0]
    3630:	e00d      	b.n	364e <_dtoa_r+0xbae>
    3632:	f813 2c01 	ldrb.w	r2, [r3, #-1]
    3636:	461e      	mov	r6, r3
    3638:	3b01      	subs	r3, #1
    363a:	2a39      	cmp	r2, #57	; 0x39
    363c:	d0f2      	beq.n	3624 <_dtoa_r+0xb84>
    363e:	3201      	adds	r2, #1
    3640:	701a      	strb	r2, [r3, #0]
    3642:	e004      	b.n	364e <_dtoa_r+0xbae>
    3644:	461e      	mov	r6, r3
    3646:	f813 2d01 	ldrb.w	r2, [r3, #-1]!
    364a:	2a30      	cmp	r2, #48	; 0x30
    364c:	d0fa      	beq.n	3644 <_dtoa_r+0xba4>
    364e:	4628      	mov	r0, r5
    3650:	4641      	mov	r1, r8
    3652:	f000 f970 	bl	3936 <_Bfree>
    3656:	b17f      	cbz	r7, 3678 <_dtoa_r+0xbd8>
    3658:	f1ba 0f00 	cmp.w	sl, #0
    365c:	d005      	beq.n	366a <_dtoa_r+0xbca>
    365e:	45ba      	cmp	sl, r7
    3660:	d003      	beq.n	366a <_dtoa_r+0xbca>
    3662:	4628      	mov	r0, r5
    3664:	4651      	mov	r1, sl
    3666:	f000 f966 	bl	3936 <_Bfree>
    366a:	4628      	mov	r0, r5
    366c:	4639      	mov	r1, r7
    366e:	f000 f962 	bl	3936 <_Bfree>
    3672:	e001      	b.n	3678 <_dtoa_r+0xbd8>
    3674:	4645      	mov	r5, r8
    3676:	9c0a      	ldr	r4, [sp, #40]	; 0x28
    3678:	4649      	mov	r1, r9
    367a:	4628      	mov	r0, r5
    367c:	f000 f95b 	bl	3936 <_Bfree>
    3680:	2300      	movs	r3, #0
    3682:	7033      	strb	r3, [r6, #0]
    3684:	3401      	adds	r4, #1
    3686:	9926      	ldr	r1, [sp, #152]	; 0x98
    3688:	9a28      	ldr	r2, [sp, #160]	; 0xa0
    368a:	600c      	str	r4, [r1, #0]
    368c:	b11a      	cbz	r2, 3696 <_dtoa_r+0xbf6>
    368e:	6016      	str	r6, [r2, #0]
    3690:	e001      	b.n	3696 <_dtoa_r+0xbf6>
    3692:	4803      	ldr	r0, [pc, #12]	; (36a0 <_dtoa_r+0xc00>)
    3694:	e000      	b.n	3698 <_dtoa_r+0xbf8>
    3696:	980d      	ldr	r0, [sp, #52]	; 0x34
    3698:	b01b      	add	sp, #108	; 0x6c
    369a:	e8bd 8ff0 	ldmia.w	sp!, {r4, r5, r6, r7, r8, r9, sl, fp, pc}
    369e:	bf00      	nop
    36a0:	00004ee2 	.word	0x00004ee2
    36a4:	f3af 8000 	nop.w

000036a8 <_malloc_trim_r>:
    36a8:	b5f8      	push	{r3, r4, r5, r6, r7, lr}
    36aa:	460d      	mov	r5, r1
    36ac:	4e20      	ldr	r6, [pc, #128]	; (3730 <_malloc_trim_r+0x88>)
    36ae:	4604      	mov	r4, r0
    36b0:	f7fd fdd1 	bl	1256 <__malloc_lock>
    36b4:	68b3      	ldr	r3, [r6, #8]
    36b6:	685f      	ldr	r7, [r3, #4]
    36b8:	f027 0703 	bic.w	r7, r7, #3
    36bc:	f107 036f 	add.w	r3, r7, #111	; 0x6f
    36c0:	1b5d      	subs	r5, r3, r5
    36c2:	f025 057f 	bic.w	r5, r5, #127	; 0x7f
    36c6:	3d80      	subs	r5, #128	; 0x80
    36c8:	2d7f      	cmp	r5, #127	; 0x7f
    36ca:	dd1e      	ble.n	370a <_malloc_trim_r+0x62>
    36cc:	2100      	movs	r1, #0
    36ce:	4620      	mov	r0, r4
    36d0:	f7fd ff40 	bl	1554 <_sbrk_r>
    36d4:	68b3      	ldr	r3, [r6, #8]
    36d6:	19db      	adds	r3, r3, r7
    36d8:	4298      	cmp	r0, r3
    36da:	d116      	bne.n	370a <_malloc_trim_r+0x62>
    36dc:	4269      	negs	r1, r5
    36de:	4620      	mov	r0, r4
    36e0:	f7fd ff38 	bl	1554 <_sbrk_r>
    36e4:	f1b0 3fff 	cmp.w	r0, #4294967295
    36e8:	d114      	bne.n	3714 <_malloc_trim_r+0x6c>
    36ea:	2100      	movs	r1, #0
    36ec:	4620      	mov	r0, r4
    36ee:	f7fd ff31 	bl	1554 <_sbrk_r>
    36f2:	68b3      	ldr	r3, [r6, #8]
    36f4:	1ac2      	subs	r2, r0, r3
    36f6:	2a0f      	cmp	r2, #15
    36f8:	dd07      	ble.n	370a <_malloc_trim_r+0x62>
    36fa:	490e      	ldr	r1, [pc, #56]	; (3734 <_malloc_trim_r+0x8c>)
    36fc:	f042 0201 	orr.w	r2, r2, #1
    3700:	605a      	str	r2, [r3, #4]
    3702:	6809      	ldr	r1, [r1, #0]
    3704:	1a40      	subs	r0, r0, r1
    3706:	490c      	ldr	r1, [pc, #48]	; (3738 <_malloc_trim_r+0x90>)
    3708:	6008      	str	r0, [r1, #0]
    370a:	4620      	mov	r0, r4
    370c:	f7fd fda4 	bl	1258 <__malloc_unlock>
    3710:	2000      	movs	r0, #0
    3712:	bdf8      	pop	{r3, r4, r5, r6, r7, pc}
    3714:	68b3      	ldr	r3, [r6, #8]
    3716:	1b7f      	subs	r7, r7, r5
    3718:	f047 0701 	orr.w	r7, r7, #1
    371c:	4620      	mov	r0, r4
    371e:	605f      	str	r7, [r3, #4]
    3720:	4b05      	ldr	r3, [pc, #20]	; (3738 <_malloc_trim_r+0x90>)
    3722:	681a      	ldr	r2, [r3, #0]
    3724:	1b55      	subs	r5, r2, r5
    3726:	601d      	str	r5, [r3, #0]
    3728:	f7fd fd96 	bl	1258 <__malloc_unlock>
    372c:	2001      	movs	r0, #1
    372e:	bdf8      	pop	{r3, r4, r5, r6, r7, pc}
    3730:	10000114 	.word	0x10000114
    3734:	10000520 	.word	0x10000520
    3738:	10000590 	.word	0x10000590

0000373c <_free_r>:
    373c:	e92d 41f0 	stmdb	sp!, {r4, r5, r6, r7, r8, lr}
    3740:	4604      	mov	r4, r0
    3742:	460d      	mov	r5, r1
    3744:	2900      	cmp	r1, #0
    3746:	f000 80ae 	beq.w	38a6 <_free_r+0x16a>
    374a:	f7fd fd84 	bl	1256 <__malloc_lock>
    374e:	f1a5 0308 	sub.w	r3, r5, #8
    3752:	4856      	ldr	r0, [pc, #344]	; (38ac <_free_r+0x170>)
    3754:	685f      	ldr	r7, [r3, #4]
    3756:	f027 0201 	bic.w	r2, r7, #1
    375a:	f8d0 c008 	ldr.w	ip, [r0, #8]
    375e:	1899      	adds	r1, r3, r2
    3760:	f007 0701 	and.w	r7, r7, #1
    3764:	4561      	cmp	r1, ip
    3766:	684e      	ldr	r6, [r1, #4]
    3768:	f026 0603 	bic.w	r6, r6, #3
    376c:	d118      	bne.n	37a0 <_free_r+0x64>
    376e:	18b2      	adds	r2, r6, r2
    3770:	b93f      	cbnz	r7, 3782 <_free_r+0x46>
    3772:	f855 1c08 	ldr.w	r1, [r5, #-8]
    3776:	1a5b      	subs	r3, r3, r1
    3778:	1852      	adds	r2, r2, r1
    377a:	689d      	ldr	r5, [r3, #8]
    377c:	68d9      	ldr	r1, [r3, #12]
    377e:	60e9      	str	r1, [r5, #12]
    3780:	608d      	str	r5, [r1, #8]
    3782:	f042 0101 	orr.w	r1, r2, #1
    3786:	6083      	str	r3, [r0, #8]
    3788:	6059      	str	r1, [r3, #4]
    378a:	4b49      	ldr	r3, [pc, #292]	; (38b0 <_free_r+0x174>)
    378c:	681b      	ldr	r3, [r3, #0]
    378e:	429a      	cmp	r2, r3
    3790:	f0c0 8084 	bcc.w	389c <_free_r+0x160>
    3794:	4b47      	ldr	r3, [pc, #284]	; (38b4 <_free_r+0x178>)
    3796:	4620      	mov	r0, r4
    3798:	6819      	ldr	r1, [r3, #0]
    379a:	f7ff ff85 	bl	36a8 <_malloc_trim_r>
    379e:	e07d      	b.n	389c <_free_r+0x160>
    37a0:	604e      	str	r6, [r1, #4]
    37a2:	b987      	cbnz	r7, 37c6 <_free_r+0x8a>
    37a4:	f855 5c08 	ldr.w	r5, [r5, #-8]
    37a8:	f100 0c08 	add.w	ip, r0, #8
    37ac:	1b5b      	subs	r3, r3, r5
    37ae:	1952      	adds	r2, r2, r5
    37b0:	689d      	ldr	r5, [r3, #8]
    37b2:	4565      	cmp	r5, ip
    37b4:	d009      	beq.n	37ca <_free_r+0x8e>
    37b6:	f8d3 c00c 	ldr.w	ip, [r3, #12]
    37ba:	f8c5 c00c 	str.w	ip, [r5, #12]
    37be:	f8cc 5008 	str.w	r5, [ip, #8]
    37c2:	463d      	mov	r5, r7
    37c4:	e002      	b.n	37cc <_free_r+0x90>
    37c6:	2500      	movs	r5, #0
    37c8:	e000      	b.n	37cc <_free_r+0x90>
    37ca:	2501      	movs	r5, #1
    37cc:	198f      	adds	r7, r1, r6
    37ce:	687f      	ldr	r7, [r7, #4]
    37d0:	f017 0f01 	tst.w	r7, #1
    37d4:	d10f      	bne.n	37f6 <_free_r+0xba>
    37d6:	1992      	adds	r2, r2, r6
    37d8:	b94d      	cbnz	r5, 37ee <_free_r+0xb2>
    37da:	688e      	ldr	r6, [r1, #8]
    37dc:	4f36      	ldr	r7, [pc, #216]	; (38b8 <_free_r+0x17c>)
    37de:	42be      	cmp	r6, r7
    37e0:	d105      	bne.n	37ee <_free_r+0xb2>
    37e2:	60f3      	str	r3, [r6, #12]
    37e4:	3501      	adds	r5, #1
    37e6:	60b3      	str	r3, [r6, #8]
    37e8:	60de      	str	r6, [r3, #12]
    37ea:	609e      	str	r6, [r3, #8]
    37ec:	e003      	b.n	37f6 <_free_r+0xba>
    37ee:	68ce      	ldr	r6, [r1, #12]
    37f0:	6889      	ldr	r1, [r1, #8]
    37f2:	60ce      	str	r6, [r1, #12]
    37f4:	60b1      	str	r1, [r6, #8]
    37f6:	f042 0101 	orr.w	r1, r2, #1
    37fa:	509a      	str	r2, [r3, r2]
    37fc:	6059      	str	r1, [r3, #4]
    37fe:	2d00      	cmp	r5, #0
    3800:	d14c      	bne.n	389c <_free_r+0x160>
    3802:	f5b2 7f00 	cmp.w	r2, #512	; 0x200
    3806:	d210      	bcs.n	382a <_free_r+0xee>
    3808:	08d2      	lsrs	r2, r2, #3
    380a:	3501      	adds	r5, #1
    380c:	1091      	asrs	r1, r2, #2
    380e:	fa15 f101 	lsls.w	r1, r5, r1
    3812:	6845      	ldr	r5, [r0, #4]
    3814:	ea45 0101 	orr.w	r1, r5, r1
    3818:	6041      	str	r1, [r0, #4]
    381a:	eb00 00c2 	add.w	r0, r0, r2, lsl #3
    381e:	60d8      	str	r0, [r3, #12]
    3820:	6882      	ldr	r2, [r0, #8]
    3822:	609a      	str	r2, [r3, #8]
    3824:	60d3      	str	r3, [r2, #12]
    3826:	6083      	str	r3, [r0, #8]
    3828:	e038      	b.n	389c <_free_r+0x160>
    382a:	0a55      	lsrs	r5, r2, #9
    382c:	2d04      	cmp	r5, #4
    382e:	d802      	bhi.n	3836 <_free_r+0xfa>
    3830:	0995      	lsrs	r5, r2, #6
    3832:	3538      	adds	r5, #56	; 0x38
    3834:	e016      	b.n	3864 <_free_r+0x128>
    3836:	2d14      	cmp	r5, #20
    3838:	d801      	bhi.n	383e <_free_r+0x102>
    383a:	355b      	adds	r5, #91	; 0x5b
    383c:	e012      	b.n	3864 <_free_r+0x128>
    383e:	2d54      	cmp	r5, #84	; 0x54
    3840:	d802      	bhi.n	3848 <_free_r+0x10c>
    3842:	0b15      	lsrs	r5, r2, #12
    3844:	356e      	adds	r5, #110	; 0x6e
    3846:	e00d      	b.n	3864 <_free_r+0x128>
    3848:	f5b5 7faa 	cmp.w	r5, #340	; 0x154
    384c:	d802      	bhi.n	3854 <_free_r+0x118>
    384e:	0bd5      	lsrs	r5, r2, #15
    3850:	3577      	adds	r5, #119	; 0x77
    3852:	e007      	b.n	3864 <_free_r+0x128>
    3854:	f240 5154 	movw	r1, #1364	; 0x554
    3858:	428d      	cmp	r5, r1
    385a:	d802      	bhi.n	3862 <_free_r+0x126>
    385c:	0c95      	lsrs	r5, r2, #18
    385e:	357c      	adds	r5, #124	; 0x7c
    3860:	e000      	b.n	3864 <_free_r+0x128>
    3862:	257e      	movs	r5, #126	; 0x7e
    3864:	eb00 06c5 	add.w	r6, r0, r5, lsl #3
    3868:	68b1      	ldr	r1, [r6, #8]
    386a:	42b1      	cmp	r1, r6
    386c:	d10c      	bne.n	3888 <_free_r+0x14c>
    386e:	2201      	movs	r2, #1
    3870:	10ad      	asrs	r5, r5, #2
    3872:	fa12 f505 	lsls.w	r5, r2, r5
    3876:	6842      	ldr	r2, [r0, #4]
    3878:	ea42 0505 	orr.w	r5, r2, r5
    387c:	460a      	mov	r2, r1
    387e:	6045      	str	r5, [r0, #4]
    3880:	e008      	b.n	3894 <_free_r+0x158>
    3882:	6889      	ldr	r1, [r1, #8]
    3884:	42b1      	cmp	r1, r6
    3886:	d004      	beq.n	3892 <_free_r+0x156>
    3888:	6848      	ldr	r0, [r1, #4]
    388a:	f020 0003 	bic.w	r0, r0, #3
    388e:	4282      	cmp	r2, r0
    3890:	d3f7      	bcc.n	3882 <_free_r+0x146>
    3892:	68ca      	ldr	r2, [r1, #12]
    3894:	60da      	str	r2, [r3, #12]
    3896:	6099      	str	r1, [r3, #8]
    3898:	60cb      	str	r3, [r1, #12]
    389a:	6093      	str	r3, [r2, #8]
    389c:	4620      	mov	r0, r4
    389e:	e8bd 41f0 	ldmia.w	sp!, {r4, r5, r6, r7, r8, lr}
    38a2:	f7fd bcd9 	b.w	1258 <__malloc_unlock>
    38a6:	e8bd 81f0 	ldmia.w	sp!, {r4, r5, r6, r7, r8, pc}
    38aa:	bf00      	nop
    38ac:	10000114 	.word	0x10000114
    38b0:	1000051c 	.word	0x1000051c
    38b4:	1000058c 	.word	0x1000058c
    38b8:	1000011c 	.word	0x1000011c

000038bc <_localeconv_r>:
    38bc:	4800      	ldr	r0, [pc, #0]	; (38c0 <_localeconv_r+0x4>)
    38be:	4770      	bx	lr
    38c0:	10000528 	.word	0x10000528

000038c4 <memset>:
    38c4:	1882      	adds	r2, r0, r2
    38c6:	4603      	mov	r3, r0
    38c8:	e001      	b.n	38ce <memset+0xa>
    38ca:	f803 1b01 	strb.w	r1, [r3], #1
    38ce:	4293      	cmp	r3, r2
    38d0:	d3fb      	bcc.n	38ca <memset+0x6>
    38d2:	4770      	bx	lr

000038d4 <_Balloc>:
    38d4:	b570      	push	{r4, r5, r6, lr}
    38d6:	4604      	mov	r4, r0
    38d8:	6a46      	ldr	r6, [r0, #36]	; 0x24
    38da:	460d      	mov	r5, r1
    38dc:	b93e      	cbnz	r6, 38ee <_Balloc+0x1a>
    38de:	2010      	movs	r0, #16
    38e0:	f7fd fa74 	bl	dcc <malloc>
    38e4:	6260      	str	r0, [r4, #36]	; 0x24
    38e6:	6046      	str	r6, [r0, #4]
    38e8:	6086      	str	r6, [r0, #8]
    38ea:	6006      	str	r6, [r0, #0]
    38ec:	60c6      	str	r6, [r0, #12]
    38ee:	6a66      	ldr	r6, [r4, #36]	; 0x24
    38f0:	68f3      	ldr	r3, [r6, #12]
    38f2:	b943      	cbnz	r3, 3906 <_Balloc+0x32>
    38f4:	4620      	mov	r0, r4
    38f6:	2104      	movs	r1, #4
    38f8:	2221      	movs	r2, #33	; 0x21
    38fa:	f000 fb88 	bl	400e <_calloc_r>
    38fe:	6a63      	ldr	r3, [r4, #36]	; 0x24
    3900:	60f0      	str	r0, [r6, #12]
    3902:	68d8      	ldr	r0, [r3, #12]
    3904:	b1b0      	cbz	r0, 3934 <_Balloc+0x60>
    3906:	6a63      	ldr	r3, [r4, #36]	; 0x24
    3908:	68db      	ldr	r3, [r3, #12]
    390a:	f853 0025 	ldr.w	r0, [r3, r5, lsl #2]
    390e:	b118      	cbz	r0, 3918 <_Balloc+0x44>
    3910:	6802      	ldr	r2, [r0, #0]
    3912:	f843 2025 	str.w	r2, [r3, r5, lsl #2]
    3916:	e00a      	b.n	392e <_Balloc+0x5a>
    3918:	2101      	movs	r1, #1
    391a:	4620      	mov	r0, r4
    391c:	fa11 f605 	lsls.w	r6, r1, r5
    3920:	1d72      	adds	r2, r6, #5
    3922:	0092      	lsls	r2, r2, #2
    3924:	f000 fb73 	bl	400e <_calloc_r>
    3928:	b120      	cbz	r0, 3934 <_Balloc+0x60>
    392a:	6045      	str	r5, [r0, #4]
    392c:	6086      	str	r6, [r0, #8]
    392e:	2300      	movs	r3, #0
    3930:	6103      	str	r3, [r0, #16]
    3932:	60c3      	str	r3, [r0, #12]
    3934:	bd70      	pop	{r4, r5, r6, pc}

00003936 <_Bfree>:
    3936:	b570      	push	{r4, r5, r6, lr}
    3938:	4604      	mov	r4, r0
    393a:	6a45      	ldr	r5, [r0, #36]	; 0x24
    393c:	460e      	mov	r6, r1
    393e:	b93d      	cbnz	r5, 3950 <_Bfree+0x1a>
    3940:	2010      	movs	r0, #16
    3942:	f7fd fa43 	bl	dcc <malloc>
    3946:	6260      	str	r0, [r4, #36]	; 0x24
    3948:	6045      	str	r5, [r0, #4]
    394a:	6085      	str	r5, [r0, #8]
    394c:	6005      	str	r5, [r0, #0]
    394e:	60c5      	str	r5, [r0, #12]
    3950:	b13e      	cbz	r6, 3962 <_Bfree+0x2c>
    3952:	6a63      	ldr	r3, [r4, #36]	; 0x24
    3954:	6872      	ldr	r2, [r6, #4]
    3956:	68db      	ldr	r3, [r3, #12]
    3958:	f853 1022 	ldr.w	r1, [r3, r2, lsl #2]
    395c:	6031      	str	r1, [r6, #0]
    395e:	f843 6022 	str.w	r6, [r3, r2, lsl #2]
    3962:	bd70      	pop	{r4, r5, r6, pc}

00003964 <__multadd>:
    3964:	e92d 41f0 	stmdb	sp!, {r4, r5, r6, r7, r8, lr}
    3968:	460c      	mov	r4, r1
    396a:	461f      	mov	r7, r3
    396c:	690e      	ldr	r6, [r1, #16]
    396e:	4605      	mov	r5, r0
    3970:	3114      	adds	r1, #20
    3972:	2300      	movs	r3, #0
    3974:	f8d1 c000 	ldr.w	ip, [r1]
    3978:	3301      	adds	r3, #1
    397a:	42b3      	cmp	r3, r6
    397c:	fa1f f08c 	uxth.w	r0, ip
    3980:	ea4f 4c1c 	mov.w	ip, ip, lsr #16
    3984:	fb00 7002 	mla	r0, r0, r2, r7
    3988:	fb0c fc02 	mul.w	ip, ip, r2
    398c:	eb0c 4c10 	add.w	ip, ip, r0, lsr #16
    3990:	b280      	uxth	r0, r0
    3992:	ea4f 471c 	mov.w	r7, ip, lsr #16
    3996:	ea4f 4c0c 	mov.w	ip, ip, lsl #16
    399a:	4460      	add	r0, ip
    399c:	f841 0b04 	str.w	r0, [r1], #4
    39a0:	dbe8      	blt.n	3974 <__multadd+0x10>
    39a2:	b1d7      	cbz	r7, 39da <__multadd+0x76>
    39a4:	68a3      	ldr	r3, [r4, #8]
    39a6:	429e      	cmp	r6, r3
    39a8:	db12      	blt.n	39d0 <__multadd+0x6c>
    39aa:	6861      	ldr	r1, [r4, #4]
    39ac:	4628      	mov	r0, r5
    39ae:	3101      	adds	r1, #1
    39b0:	f7ff ff90 	bl	38d4 <_Balloc>
    39b4:	6922      	ldr	r2, [r4, #16]
    39b6:	f104 010c 	add.w	r1, r4, #12
    39ba:	3202      	adds	r2, #2
    39bc:	0092      	lsls	r2, r2, #2
    39be:	4680      	mov	r8, r0
    39c0:	300c      	adds	r0, #12
    39c2:	f7fd fc25 	bl	1210 <memcpy>
    39c6:	4621      	mov	r1, r4
    39c8:	4628      	mov	r0, r5
    39ca:	4644      	mov	r4, r8
    39cc:	f7ff ffb3 	bl	3936 <_Bfree>
    39d0:	eb04 0386 	add.w	r3, r4, r6, lsl #2
    39d4:	3601      	adds	r6, #1
    39d6:	6126      	str	r6, [r4, #16]
    39d8:	615f      	str	r7, [r3, #20]
    39da:	4620      	mov	r0, r4
    39dc:	e8bd 81f0 	ldmia.w	sp!, {r4, r5, r6, r7, r8, pc}

000039e0 <__hi0bits>:
    39e0:	0c02      	lsrs	r2, r0, #16
    39e2:	4603      	mov	r3, r0
    39e4:	0412      	lsls	r2, r2, #16
    39e6:	b912      	cbnz	r2, 39ee <__hi0bits+0xe>
    39e8:	0403      	lsls	r3, r0, #16
    39ea:	2010      	movs	r0, #16
    39ec:	e000      	b.n	39f0 <__hi0bits+0x10>
    39ee:	2000      	movs	r0, #0
    39f0:	f013 4f7f 	tst.w	r3, #4278190080	; 0xff000000
    39f4:	d101      	bne.n	39fa <__hi0bits+0x1a>
    39f6:	3008      	adds	r0, #8
    39f8:	021b      	lsls	r3, r3, #8
    39fa:	f013 4f70 	tst.w	r3, #4026531840	; 0xf0000000
    39fe:	d101      	bne.n	3a04 <__hi0bits+0x24>
    3a00:	3004      	adds	r0, #4
    3a02:	011b      	lsls	r3, r3, #4
    3a04:	f013 4f40 	tst.w	r3, #3221225472	; 0xc0000000
    3a08:	d101      	bne.n	3a0e <__hi0bits+0x2e>
    3a0a:	3002      	adds	r0, #2
    3a0c:	009b      	lsls	r3, r3, #2
    3a0e:	2b00      	cmp	r3, #0
    3a10:	db05      	blt.n	3a1e <__hi0bits+0x3e>
    3a12:	f013 4f80 	tst.w	r3, #1073741824	; 0x40000000
    3a16:	d001      	beq.n	3a1c <__hi0bits+0x3c>
    3a18:	3001      	adds	r0, #1
    3a1a:	4770      	bx	lr
    3a1c:	2020      	movs	r0, #32
    3a1e:	4770      	bx	lr

00003a20 <__lo0bits>:
    3a20:	6803      	ldr	r3, [r0, #0]
    3a22:	4602      	mov	r2, r0
    3a24:	f013 0007 	ands.w	r0, r3, #7
    3a28:	d00d      	beq.n	3a46 <__lo0bits+0x26>
    3a2a:	f013 0f01 	tst.w	r3, #1
    3a2e:	d125      	bne.n	3a7c <__lo0bits+0x5c>
    3a30:	f013 0f02 	tst.w	r3, #2
    3a34:	d003      	beq.n	3a3e <__lo0bits+0x1e>
    3a36:	085b      	lsrs	r3, r3, #1
    3a38:	2001      	movs	r0, #1
    3a3a:	6013      	str	r3, [r2, #0]
    3a3c:	4770      	bx	lr
    3a3e:	089b      	lsrs	r3, r3, #2
    3a40:	2002      	movs	r0, #2
    3a42:	6013      	str	r3, [r2, #0]
    3a44:	4770      	bx	lr
    3a46:	b299      	uxth	r1, r3
    3a48:	b909      	cbnz	r1, 3a4e <__lo0bits+0x2e>
    3a4a:	0c1b      	lsrs	r3, r3, #16
    3a4c:	2010      	movs	r0, #16
    3a4e:	f013 0fff 	tst.w	r3, #255	; 0xff
    3a52:	d101      	bne.n	3a58 <__lo0bits+0x38>
    3a54:	3008      	adds	r0, #8
    3a56:	0a1b      	lsrs	r3, r3, #8
    3a58:	f013 0f0f 	tst.w	r3, #15
    3a5c:	d101      	bne.n	3a62 <__lo0bits+0x42>
    3a5e:	3004      	adds	r0, #4
    3a60:	091b      	lsrs	r3, r3, #4
    3a62:	f013 0f03 	tst.w	r3, #3
    3a66:	d101      	bne.n	3a6c <__lo0bits+0x4c>
    3a68:	3002      	adds	r0, #2
    3a6a:	089b      	lsrs	r3, r3, #2
    3a6c:	f013 0f01 	tst.w	r3, #1
    3a70:	d102      	bne.n	3a78 <__lo0bits+0x58>
    3a72:	085b      	lsrs	r3, r3, #1
    3a74:	d004      	beq.n	3a80 <__lo0bits+0x60>
    3a76:	3001      	adds	r0, #1
    3a78:	6013      	str	r3, [r2, #0]
    3a7a:	4770      	bx	lr
    3a7c:	2000      	movs	r0, #0
    3a7e:	4770      	bx	lr
    3a80:	2020      	movs	r0, #32
    3a82:	4770      	bx	lr

00003a84 <__i2b>:
    3a84:	b510      	push	{r4, lr}
    3a86:	460c      	mov	r4, r1
    3a88:	2101      	movs	r1, #1
    3a8a:	f7ff ff23 	bl	38d4 <_Balloc>
    3a8e:	2201      	movs	r2, #1
    3a90:	6144      	str	r4, [r0, #20]
    3a92:	6102      	str	r2, [r0, #16]
    3a94:	bd10      	pop	{r4, pc}

00003a96 <__multiply>:
    3a96:	e92d 4ff0 	stmdb	sp!, {r4, r5, r6, r7, r8, r9, sl, fp, lr}
    3a9a:	4616      	mov	r6, r2
    3a9c:	690a      	ldr	r2, [r1, #16]
    3a9e:	460d      	mov	r5, r1
    3aa0:	6933      	ldr	r3, [r6, #16]
    3aa2:	b085      	sub	sp, #20
    3aa4:	429a      	cmp	r2, r3
    3aa6:	bfbc      	itt	lt
    3aa8:	4635      	movlt	r5, r6
    3aaa:	460e      	movlt	r6, r1
    3aac:	f8d5 8010 	ldr.w	r8, [r5, #16]
    3ab0:	6937      	ldr	r7, [r6, #16]
    3ab2:	68ab      	ldr	r3, [r5, #8]
    3ab4:	6869      	ldr	r1, [r5, #4]
    3ab6:	eb07 0408 	add.w	r4, r7, r8
    3aba:	429c      	cmp	r4, r3
    3abc:	bfc8      	it	gt
    3abe:	3101      	addgt	r1, #1
    3ac0:	f7ff ff08 	bl	38d4 <_Balloc>
    3ac4:	f100 0314 	add.w	r3, r0, #20
    3ac8:	eb00 0284 	add.w	r2, r0, r4, lsl #2
    3acc:	3214      	adds	r2, #20
    3ace:	9201      	str	r2, [sp, #4]
    3ad0:	461a      	mov	r2, r3
    3ad2:	e002      	b.n	3ada <__multiply+0x44>
    3ad4:	2100      	movs	r1, #0
    3ad6:	f842 1b04 	str.w	r1, [r2], #4
    3ada:	9901      	ldr	r1, [sp, #4]
    3adc:	428a      	cmp	r2, r1
    3ade:	d3f9      	bcc.n	3ad4 <__multiply+0x3e>
    3ae0:	f105 0b14 	add.w	fp, r5, #20
    3ae4:	eb06 0787 	add.w	r7, r6, r7, lsl #2
    3ae8:	eb05 0588 	add.w	r5, r5, r8, lsl #2
    3aec:	3714      	adds	r7, #20
    3aee:	3514      	adds	r5, #20
    3af0:	9703      	str	r7, [sp, #12]
    3af2:	9502      	str	r5, [sp, #8]
    3af4:	f106 0214 	add.w	r2, r6, #20
    3af8:	e04e      	b.n	3b98 <__multiply+0x102>
    3afa:	f852 7b04 	ldr.w	r7, [r2], #4
    3afe:	b2bf      	uxth	r7, r7
    3b00:	b317      	cbz	r7, 3b48 <__multiply+0xb2>
    3b02:	465e      	mov	r6, fp
    3b04:	4619      	mov	r1, r3
    3b06:	2500      	movs	r5, #0
    3b08:	f856 cb04 	ldr.w	ip, [r6], #4
    3b0c:	f8d1 a000 	ldr.w	sl, [r1]
    3b10:	fa1f f98c 	uxth.w	r9, ip
    3b14:	ea4f 4c1c 	mov.w	ip, ip, lsr #16
    3b18:	fa1f f88a 	uxth.w	r8, sl
    3b1c:	ea4f 4a1a 	mov.w	sl, sl, lsr #16
    3b20:	fb07 8809 	mla	r8, r7, r9, r8
    3b24:	f8dd 9008 	ldr.w	r9, [sp, #8]
    3b28:	fb07 ac0c 	mla	ip, r7, ip, sl
    3b2c:	45b1      	cmp	r9, r6
    3b2e:	44a8      	add	r8, r5
    3b30:	eb0c 4c18 	add.w	ip, ip, r8, lsr #16
    3b34:	fa1f f888 	uxth.w	r8, r8
    3b38:	ea48 480c 	orr.w	r8, r8, ip, lsl #16
    3b3c:	ea4f 451c 	mov.w	r5, ip, lsr #16
    3b40:	f841 8b04 	str.w	r8, [r1], #4
    3b44:	d8e0      	bhi.n	3b08 <__multiply+0x72>
    3b46:	600d      	str	r5, [r1, #0]
    3b48:	f832 7c02 	ldrh.w	r7, [r2, #-2]
    3b4c:	b31f      	cbz	r7, 3b96 <__multiply+0x100>
    3b4e:	681d      	ldr	r5, [r3, #0]
    3b50:	465e      	mov	r6, fp
    3b52:	4698      	mov	r8, r3
    3b54:	4619      	mov	r1, r3
    3b56:	f04f 0c00 	mov.w	ip, #0
    3b5a:	f8b6 a000 	ldrh.w	sl, [r6]
    3b5e:	b2ad      	uxth	r5, r5
    3b60:	f8b1 9002 	ldrh.w	r9, [r1, #2]
    3b64:	fb07 990a 	mla	r9, r7, sl, r9
    3b68:	44cc      	add	ip, r9
    3b6a:	ea45 450c 	orr.w	r5, r5, ip, lsl #16
    3b6e:	f841 5b04 	str.w	r5, [r1], #4
    3b72:	f856 9b04 	ldr.w	r9, [r6], #4
    3b76:	f858 5f04 	ldr.w	r5, [r8, #4]!
    3b7a:	ea4f 4919 	mov.w	r9, r9, lsr #16
    3b7e:	b2ad      	uxth	r5, r5
    3b80:	fb07 5509 	mla	r5, r7, r9, r5
    3b84:	f8dd 9008 	ldr.w	r9, [sp, #8]
    3b88:	45b1      	cmp	r9, r6
    3b8a:	eb05 451c 	add.w	r5, r5, ip, lsr #16
    3b8e:	ea4f 4c15 	mov.w	ip, r5, lsr #16
    3b92:	d8e2      	bhi.n	3b5a <__multiply+0xc4>
    3b94:	600d      	str	r5, [r1, #0]
    3b96:	3304      	adds	r3, #4
    3b98:	f8dd c00c 	ldr.w	ip, [sp, #12]
    3b9c:	4594      	cmp	ip, r2
    3b9e:	d8ac      	bhi.n	3afa <__multiply+0x64>
    3ba0:	9b01      	ldr	r3, [sp, #4]
    3ba2:	e000      	b.n	3ba6 <__multiply+0x110>
    3ba4:	3c01      	subs	r4, #1
    3ba6:	2c00      	cmp	r4, #0
    3ba8:	dd03      	ble.n	3bb2 <__multiply+0x11c>
    3baa:	f853 2d04 	ldr.w	r2, [r3, #-4]!
    3bae:	2a00      	cmp	r2, #0
    3bb0:	d0f8      	beq.n	3ba4 <__multiply+0x10e>
    3bb2:	6104      	str	r4, [r0, #16]
    3bb4:	b005      	add	sp, #20
    3bb6:	e8bd 8ff0 	ldmia.w	sp!, {r4, r5, r6, r7, r8, r9, sl, fp, pc}
	...

00003bbc <__pow5mult>:
    3bbc:	f012 0303 	ands.w	r3, r2, #3
    3bc0:	e92d 41f0 	stmdb	sp!, {r4, r5, r6, r7, r8, lr}
    3bc4:	4604      	mov	r4, r0
    3bc6:	460f      	mov	r7, r1
    3bc8:	4615      	mov	r5, r2
    3bca:	d007      	beq.n	3bdc <__pow5mult+0x20>
    3bcc:	4a23      	ldr	r2, [pc, #140]	; (3c5c <__pow5mult+0xa0>)
    3bce:	3b01      	subs	r3, #1
    3bd0:	f852 2023 	ldr.w	r2, [r2, r3, lsl #2]
    3bd4:	2300      	movs	r3, #0
    3bd6:	f7ff fec5 	bl	3964 <__multadd>
    3bda:	4607      	mov	r7, r0
    3bdc:	10ad      	asrs	r5, r5, #2
    3bde:	d039      	beq.n	3c54 <__pow5mult+0x98>
    3be0:	6a66      	ldr	r6, [r4, #36]	; 0x24
    3be2:	b93e      	cbnz	r6, 3bf4 <__pow5mult+0x38>
    3be4:	2010      	movs	r0, #16
    3be6:	f7fd f8f1 	bl	dcc <malloc>
    3bea:	6260      	str	r0, [r4, #36]	; 0x24
    3bec:	6046      	str	r6, [r0, #4]
    3bee:	6086      	str	r6, [r0, #8]
    3bf0:	6006      	str	r6, [r0, #0]
    3bf2:	60c6      	str	r6, [r0, #12]
    3bf4:	f8d4 8024 	ldr.w	r8, [r4, #36]	; 0x24
    3bf8:	f8d8 6008 	ldr.w	r6, [r8, #8]
    3bfc:	b966      	cbnz	r6, 3c18 <__pow5mult+0x5c>
    3bfe:	4620      	mov	r0, r4
    3c00:	f240 2171 	movw	r1, #625	; 0x271
    3c04:	f7ff ff3e 	bl	3a84 <__i2b>
    3c08:	2300      	movs	r3, #0
    3c0a:	f8c8 0008 	str.w	r0, [r8, #8]
    3c0e:	4606      	mov	r6, r0
    3c10:	6003      	str	r3, [r0, #0]
    3c12:	e001      	b.n	3c18 <__pow5mult+0x5c>
    3c14:	4640      	mov	r0, r8
    3c16:	4606      	mov	r6, r0
    3c18:	f015 0f01 	tst.w	r5, #1
    3c1c:	d00a      	beq.n	3c34 <__pow5mult+0x78>
    3c1e:	4639      	mov	r1, r7
    3c20:	4632      	mov	r2, r6
    3c22:	4620      	mov	r0, r4
    3c24:	f7ff ff37 	bl	3a96 <__multiply>
    3c28:	4639      	mov	r1, r7
    3c2a:	4680      	mov	r8, r0
    3c2c:	4620      	mov	r0, r4
