
Ticker.elf:     file format elf32-littlearm


Disassembly of section .text:

00000000 <__Vectors>:
       0:	00 80 00 10 0d 14 00 00 15 14 00 00 ad 13 00 00     ................
      10:	af 13 00 00 b1 13 00 00 b3 13 00 00 00 00 00 00     ................
	...
      2c:	1f 14 00 00 b5 13 00 00 00 00 00 00 23 14 00 00     ............#...
      3c:	25 14 00 00 27 14 00 00 27 14 00 00 27 14 00 00     %...'...'...'...
      4c:	27 14 00 00 27 14 00 00 b7 13 00 00 27 14 00 00     '...'.......'...
      5c:	27 14 00 00 27 14 00 00 27 14 00 00 27 14 00 00     '...'...'...'...
      6c:	27 14 00 00 27 14 00 00 27 14 00 00 27 14 00 00     '...'...'...'...
      7c:	27 14 00 00 27 14 00 00 27 14 00 00 27 14 00 00     '...'...'...'...
      8c:	27 14 00 00 27 14 00 00 27 14 00 00 27 14 00 00     '...'...'...'...
      9c:	27 14 00 00 27 14 00 00 27 14 00 00 27 14 00 00     '...'...'...'...
      ac:	27 14 00 00 27 14 00 00 27 14 00 00 27 14 00 00     '...'...'...'...
      bc:	27 14 00 00 27 14 00 00                             '...'...

000000c4 <__main>:
      c4:	483a      	ldr	r0, [pc, #232]	; (1b0 <__main+0xec>)
      c6:	493b      	ldr	r1, [pc, #236]	; (1b4 <__main+0xf0>)
      c8:	b570      	push	{r4, r5, r6, lr}
      ca:	4288      	cmp	r0, r1
      cc:	d023      	beq.n	116 <__main+0x52>
      ce:	4c3a      	ldr	r4, [pc, #232]	; (1b8 <__main+0xf4>)
      d0:	42a1      	cmp	r1, r4
      d2:	d220      	bcs.n	116 <__main+0x52>
      d4:	4602      	mov	r2, r0
      d6:	f852 6b04 	ldr.w	r6, [r2], #4
      da:	460b      	mov	r3, r1
      dc:	43cd      	mvns	r5, r1
      de:	f843 6b04 	str.w	r6, [r3], #4
      e2:	1965      	adds	r5, r4, r5
      e4:	42a3      	cmp	r3, r4
      e6:	f3c5 0580 	ubfx	r5, r5, #2, #1
      ea:	d214      	bcs.n	116 <__main+0x52>
      ec:	b13d      	cbz	r5, fe <__main+0x3a>
      ee:	6816      	ldr	r6, [r2, #0]
      f0:	f100 0208 	add.w	r2, r0, #8
      f4:	601e      	str	r6, [r3, #0]
      f6:	f101 0308 	add.w	r3, r1, #8
      fa:	42a3      	cmp	r3, r4
      fc:	d20b      	bcs.n	116 <__main+0x52>
      fe:	4610      	mov	r0, r2
     100:	f850 5b04 	ldr.w	r5, [r0], #4
     104:	4619      	mov	r1, r3
     106:	f841 5b04 	str.w	r5, [r1], #4
     10a:	6856      	ldr	r6, [r2, #4]
     10c:	1d02      	adds	r2, r0, #4
     10e:	605e      	str	r6, [r3, #4]
     110:	1d0b      	adds	r3, r1, #4
     112:	42a3      	cmp	r3, r4
     114:	d3f3      	bcc.n	fe <__main+0x3a>
     116:	4829      	ldr	r0, [pc, #164]	; (1bc <__main+0xf8>)
     118:	4929      	ldr	r1, [pc, #164]	; (1c0 <__main+0xfc>)
     11a:	4288      	cmp	r0, r1
     11c:	d024      	beq.n	168 <__main+0xa4>
     11e:	4c29      	ldr	r4, [pc, #164]	; (1c4 <__main+0x100>)
     120:	42a1      	cmp	r1, r4
     122:	d221      	bcs.n	168 <__main+0xa4>
     124:	4602      	mov	r2, r0
     126:	f852 6b04 	ldr.w	r6, [r2], #4
     12a:	460b      	mov	r3, r1
     12c:	43cd      	mvns	r5, r1
     12e:	f843 6b04 	str.w	r6, [r3], #4
     132:	eb04 0c05 	add.w	ip, r4, r5
     136:	42a3      	cmp	r3, r4
     138:	f3cc 0580 	ubfx	r5, ip, #2, #1
     13c:	d214      	bcs.n	168 <__main+0xa4>
     13e:	b13d      	cbz	r5, 150 <__main+0x8c>
     140:	6815      	ldr	r5, [r2, #0]
     142:	f100 0208 	add.w	r2, r0, #8
     146:	601d      	str	r5, [r3, #0]
     148:	f101 0308 	add.w	r3, r1, #8
     14c:	42a3      	cmp	r3, r4
     14e:	d20b      	bcs.n	168 <__main+0xa4>
     150:	4610      	mov	r0, r2
     152:	f850 5b04 	ldr.w	r5, [r0], #4
     156:	4619      	mov	r1, r3
     158:	f841 5b04 	str.w	r5, [r1], #4
     15c:	6856      	ldr	r6, [r2, #4]
     15e:	1d02      	adds	r2, r0, #4
     160:	605e      	str	r6, [r3, #4]
     162:	1d0b      	adds	r3, r1, #4
     164:	42a3      	cmp	r3, r4
     166:	d3f3      	bcc.n	150 <__main+0x8c>
     168:	4a17      	ldr	r2, [pc, #92]	; (1c8 <__main+0x104>)
     16a:	4818      	ldr	r0, [pc, #96]	; (1cc <__main+0x108>)
     16c:	4282      	cmp	r2, r0
     16e:	d216      	bcs.n	19e <__main+0xda>
     170:	2100      	movs	r1, #0
     172:	4613      	mov	r3, r2
     174:	43d6      	mvns	r6, r2
     176:	f843 1b04 	str.w	r1, [r3], #4
     17a:	1984      	adds	r4, r0, r6
     17c:	4283      	cmp	r3, r0
     17e:	f3c4 0480 	ubfx	r4, r4, #2, #1
     182:	d20c      	bcs.n	19e <__main+0xda>
     184:	b124      	cbz	r4, 190 <__main+0xcc>
     186:	6019      	str	r1, [r3, #0]
     188:	f102 0308 	add.w	r3, r2, #8
     18c:	4283      	cmp	r3, r0
     18e:	d206      	bcs.n	19e <__main+0xda>
     190:	461a      	mov	r2, r3
     192:	f842 1b04 	str.w	r1, [r2], #4
     196:	6059      	str	r1, [r3, #4]
     198:	1d13      	adds	r3, r2, #4
     19a:	4283      	cmp	r3, r0
     19c:	d3f8      	bcc.n	190 <__main+0xcc>
     19e:	f006 f897 	bl	62d0 <__libc_init_array>
     1a2:	f000 febd 	bl	f20 <MriInit>
     1a6:	f000 f9f3 	bl	590 <main>
     1aa:	f011 fa83 	bl	116b4 <exit>
     1ae:	bf00      	nop
     1b0:	00011fd4 	.word	0x00011fd4
     1b4:	10000000 	.word	0x10000000
     1b8:	10000680 	.word	0x10000680
     1bc:	00012654 	.word	0x00012654
     1c0:	10000b28 	.word	0x10000b28
     1c4:	10000b28 	.word	0x10000b28
     1c8:	10000680 	.word	0x10000680
     1cc:	10000b28 	.word	0x10000b28

000001d0 <SystemInit>:
     1d0:	481b      	ldr	r0, [pc, #108]	; (240 <SystemInit+0x70>)
     1d2:	2120      	movs	r1, #32
     1d4:	f8c0 11a0 	str.w	r1, [r0, #416]	; 0x1a0
     1d8:	f8d0 11a0 	ldr.w	r1, [r0, #416]	; 0x1a0
     1dc:	f011 0f40 	tst.w	r1, #64	; 0x40
     1e0:	d0fa      	beq.n	1d8 <SystemInit+0x8>
     1e2:	2102      	movs	r1, #2
     1e4:	f8c0 1104 	str.w	r1, [r0, #260]	; 0x104
     1e8:	2101      	movs	r1, #1
     1ea:	f8c0 110c 	str.w	r1, [r0, #268]	; 0x10c
     1ee:	220b      	movs	r2, #11
     1f0:	f8c0 2084 	str.w	r2, [r0, #132]	; 0x84
     1f4:	f8c0 1080 	str.w	r1, [r0, #128]	; 0x80
     1f8:	22aa      	movs	r2, #170	; 0xaa
     1fa:	f8c0 208c 	str.w	r2, [r0, #140]	; 0x8c
     1fe:	2355      	movs	r3, #85	; 0x55
     200:	f8c0 308c 	str.w	r3, [r0, #140]	; 0x8c
     204:	f8d0 1088 	ldr.w	r1, [r0, #136]	; 0x88
     208:	f011 6f80 	tst.w	r1, #67108864	; 0x4000000
     20c:	d0fa      	beq.n	204 <SystemInit+0x34>
     20e:	2103      	movs	r1, #3
     210:	f8c0 1080 	str.w	r1, [r0, #128]	; 0x80
     214:	f8c0 208c 	str.w	r2, [r0, #140]	; 0x8c
     218:	f8c0 308c 	str.w	r3, [r0, #140]	; 0x8c
     21c:	2105      	movs	r1, #5
     21e:	f8c0 1108 	str.w	r1, [r0, #264]	; 0x108
     222:	2100      	movs	r1, #0
     224:	f8c0 11a8 	str.w	r1, [r0, #424]	; 0x1a8
     228:	f8c0 11ac 	str.w	r1, [r0, #428]	; 0x1ac
     22c:	4a05      	ldr	r2, [pc, #20]	; (244 <SystemInit+0x74>)
     22e:	f8c0 20c4 	str.w	r2, [r0, #196]	; 0xc4
     232:	f8c0 11c8 	str.w	r1, [r0, #456]	; 0x1c8
     236:	f243 013a 	movw	r1, #12346	; 0x303a
     23a:	6001      	str	r1, [r0, #0]
     23c:	4770      	bx	lr
     23e:	0000      	.short	0x0000
     240:	400fc000 	.word	0x400fc000
     244:	042887de 	.word	0x042887de
	...

00000300 <__do_global_dtors_aux>:
     300:	f240 6380 	movw	r3, #1664	; 0x680
     304:	f2c1 0300 	movt	r3, #4096	; 0x1000
     308:	781a      	ldrb	r2, [r3, #0]
     30a:	b90a      	cbnz	r2, 310 <__do_global_dtors_aux+0x10>
     30c:	2001      	movs	r0, #1
     30e:	7018      	strb	r0, [r3, #0]
     310:	4770      	bx	lr
     312:	bf00      	nop

00000314 <frame_dummy>:
     314:	f240 6080 	movw	r0, #1664	; 0x680
     318:	f2c1 0000 	movt	r0, #4096	; 0x1000
     31c:	b508      	push	{r3, lr}
     31e:	6803      	ldr	r3, [r0, #0]
     320:	b12b      	cbz	r3, 32e <frame_dummy+0x1a>
     322:	f240 0300 	movw	r3, #0
     326:	f2c0 0300 	movt	r3, #0
     32a:	b103      	cbz	r3, 32e <frame_dummy+0x1a>
     32c:	4798      	blx	r3
     32e:	bd08      	pop	{r3, pc}

00000330 <__GCC4MBEDOpenStandardHandles>:
     330:	b508      	push	{r3, lr}
     332:	2100      	movs	r1, #0
     334:	4807      	ldr	r0, [pc, #28]	; (354 <__GCC4MBEDOpenStandardHandles+0x24>)
     336:	f010 fafb 	bl	10930 <_sys_open>
     33a:	2104      	movs	r1, #4
     33c:	4806      	ldr	r0, [pc, #24]	; (358 <__GCC4MBEDOpenStandardHandles+0x28>)
     33e:	f010 faf7 	bl	10930 <_sys_open>
     342:	4806      	ldr	r0, [pc, #24]	; (35c <__GCC4MBEDOpenStandardHandles+0x2c>)
     344:	2104      	movs	r1, #4
     346:	f010 faf3 	bl	10930 <_sys_open>
     34a:	4b05      	ldr	r3, [pc, #20]	; (360 <__GCC4MBEDOpenStandardHandles+0x30>)
     34c:	2201      	movs	r2, #1
     34e:	601a      	str	r2, [r3, #0]
     350:	bd08      	pop	{r3, pc}
     352:	bf00      	nop
     354:	0000edb8 	.word	0x0000edb8
     358:	0000edc0 	.word	0x0000edc0
     35c:	0000edc8 	.word	0x0000edc8
     360:	1000068c 	.word	0x1000068c

00000364 <_kill>:
     364:	4b02      	ldr	r3, [pc, #8]	; (370 <_kill+0xc>)
     366:	2216      	movs	r2, #22
     368:	601a      	str	r2, [r3, #0]
     36a:	f04f 30ff 	mov.w	r0, #4294967295
     36e:	4770      	bx	lr
     370:	10000a24 	.word	0x10000a24

00000374 <_exit>:
     374:	b508      	push	{r3, lr}
     376:	f011 f99d 	bl	116b4 <exit>
     37a:	bf00      	nop

0000037c <_getpid>:
     37c:	2001      	movs	r0, #1
     37e:	4770      	bx	lr

00000380 <_sbrk>:
     380:	b570      	push	{r4, r5, r6, lr}
     382:	4d09      	ldr	r5, [pc, #36]	; (3a8 <_sbrk+0x28>)
     384:	4606      	mov	r6, r0
     386:	682c      	ldr	r4, [r5, #0]
     388:	b14c      	cbz	r4, 39e <_sbrk+0x1e>
     38a:	f010 ffd5 	bl	11338 <__get_MSP>
     38e:	19a3      	adds	r3, r4, r6
     390:	4283      	cmp	r3, r0
     392:	d807      	bhi.n	3a4 <_sbrk+0x24>
     394:	6829      	ldr	r1, [r5, #0]
     396:	4620      	mov	r0, r4
     398:	198e      	adds	r6, r1, r6
     39a:	602e      	str	r6, [r5, #0]
     39c:	bd70      	pop	{r4, r5, r6, pc}
     39e:	4c03      	ldr	r4, [pc, #12]	; (3ac <_sbrk+0x2c>)
     3a0:	602c      	str	r4, [r5, #0]
     3a2:	e7f2      	b.n	38a <_sbrk+0xa>
     3a4:	f005 f822 	bl	53ec <abort>
     3a8:	10000688 	.word	0x10000688
     3ac:	10000b28 	.word	0x10000b28

000003b0 <_open>:
     3b0:	f001 0302 	and.w	r3, r1, #2
     3b4:	f411 6f80 	tst.w	r1, #1024	; 0x400
     3b8:	bf18      	it	ne
     3ba:	f043 0304 	orrne.w	r3, r3, #4
     3be:	f011 0f08 	tst.w	r1, #8
     3c2:	bf18      	it	ne
     3c4:	f043 0308 	orrne.w	r3, r3, #8
     3c8:	4619      	mov	r1, r3
     3ca:	f010 bab1 	b.w	10930 <_sys_open>
     3ce:	bf00      	nop

000003d0 <_close>:
     3d0:	f010 ba84 	b.w	108dc <_sys_close>

000003d4 <_isatty>:
     3d4:	2802      	cmp	r0, #2
     3d6:	dc01      	bgt.n	3dc <_isatty+0x8>
     3d8:	2001      	movs	r0, #1
     3da:	4770      	bx	lr
     3dc:	f010 ba94 	b.w	10908 <_sys_istty>

000003e0 <_lseek>:
     3e0:	2802      	cmp	r0, #2
     3e2:	e92d 47f0 	stmdb	sp!, {r4, r5, r6, r7, r8, r9, sl, lr}
     3e6:	dd6e      	ble.n	4c6 <_lseek+0xe6>
     3e8:	4f40      	ldr	r7, [pc, #256]	; (4ec <_lseek+0x10c>)
     3ea:	683b      	ldr	r3, [r7, #0]
     3ec:	2b00      	cmp	r3, #0
     3ee:	d161      	bne.n	4b4 <_lseek+0xd4>
     3f0:	4d3f      	ldr	r5, [pc, #252]	; (4f0 <_lseek+0x110>)
     3f2:	4c40      	ldr	r4, [pc, #256]	; (4f4 <_lseek+0x114>)
     3f4:	f025 0c01 	bic.w	ip, r5, #1
     3f8:	4665      	mov	r5, ip
     3fa:	f10c 0628 	add.w	r6, ip, #40	; 0x28
     3fe:	f815 ab01 	ldrb.w	sl, [r5], #1
     402:	f3c3 084f 	ubfx	r8, r3, #1, #16
     406:	ea83 030a 	eor.w	r3, r3, sl
     40a:	f013 0f01 	tst.w	r3, #1
     40e:	bf1c      	itt	ne
     410:	ea88 0804 	eorne.w	r8, r8, r4
     414:	fa1f f888 	uxthne.w	r8, r8
     418:	ea4f 095a 	mov.w	r9, sl, lsr #1
     41c:	ea88 0a09 	eor.w	sl, r8, r9
     420:	ea4f 0358 	mov.w	r3, r8, lsr #1
     424:	f01a 0f01 	tst.w	sl, #1
     428:	bf1c      	itt	ne
     42a:	4063      	eorne	r3, r4
     42c:	b29b      	uxthne	r3, r3
     42e:	ea4f 0859 	mov.w	r8, r9, lsr #1
     432:	ea83 0908 	eor.w	r9, r3, r8
     436:	085b      	lsrs	r3, r3, #1
     438:	f019 0f01 	tst.w	r9, #1
     43c:	bf1c      	itt	ne
     43e:	4063      	eorne	r3, r4
     440:	b29b      	uxthne	r3, r3
     442:	ea4f 0858 	mov.w	r8, r8, lsr #1
     446:	ea83 0908 	eor.w	r9, r3, r8
     44a:	085b      	lsrs	r3, r3, #1
     44c:	f019 0f01 	tst.w	r9, #1
     450:	bf1c      	itt	ne
     452:	4063      	eorne	r3, r4
     454:	b29b      	uxthne	r3, r3
     456:	ea4f 0858 	mov.w	r8, r8, lsr #1
     45a:	ea83 0908 	eor.w	r9, r3, r8
     45e:	085b      	lsrs	r3, r3, #1
     460:	f019 0f01 	tst.w	r9, #1
     464:	bf1c      	itt	ne
     466:	4063      	eorne	r3, r4
     468:	b29b      	uxthne	r3, r3
     46a:	ea4f 0858 	mov.w	r8, r8, lsr #1
     46e:	ea83 0908 	eor.w	r9, r3, r8
     472:	085b      	lsrs	r3, r3, #1
     474:	f019 0f01 	tst.w	r9, #1
     478:	bf1c      	itt	ne
     47a:	4063      	eorne	r3, r4
     47c:	b29b      	uxthne	r3, r3
     47e:	ea4f 0858 	mov.w	r8, r8, lsr #1
     482:	ea83 0908 	eor.w	r9, r3, r8
     486:	085b      	lsrs	r3, r3, #1
     488:	f019 0f01 	tst.w	r9, #1
     48c:	bf1c      	itt	ne
     48e:	4063      	eorne	r3, r4
     490:	b29b      	uxthne	r3, r3
     492:	ea83 0858 	eor.w	r8, r3, r8, lsr #1
     496:	085b      	lsrs	r3, r3, #1
     498:	f018 0f01 	tst.w	r8, #1
     49c:	bf1c      	itt	ne
     49e:	4063      	eorne	r3, r4
     4a0:	b29b      	uxthne	r3, r3
     4a2:	42b5      	cmp	r5, r6
     4a4:	d1ab      	bne.n	3fe <_lseek+0x1e>
     4a6:	f242 043f 	movw	r4, #8255	; 0x203f
     4aa:	42a3      	cmp	r3, r4
     4ac:	d112      	bne.n	4d4 <_lseek+0xf4>
     4ae:	f8dc 3028 	ldr.w	r3, [ip, #40]	; 0x28
     4b2:	603b      	str	r3, [r7, #0]
     4b4:	3803      	subs	r0, #3
     4b6:	f853 0020 	ldr.w	r0, [r3, r0, lsl #2]
     4ba:	b138      	cbz	r0, 4cc <_lseek+0xec>
     4bc:	6803      	ldr	r3, [r0, #0]
     4be:	691b      	ldr	r3, [r3, #16]
     4c0:	4798      	blx	r3
     4c2:	e8bd 87f0 	ldmia.w	sp!, {r4, r5, r6, r7, r8, r9, sl, pc}
     4c6:	2000      	movs	r0, #0
     4c8:	e8bd 87f0 	ldmia.w	sp!, {r4, r5, r6, r7, r8, r9, sl, pc}
     4cc:	f04f 30ff 	mov.w	r0, #4294967295
     4d0:	e8bd 87f0 	ldmia.w	sp!, {r4, r5, r6, r7, r8, r9, sl, pc}
     4d4:	4908      	ldr	r1, [pc, #32]	; (4f8 <_lseek+0x118>)
     4d6:	4809      	ldr	r0, [pc, #36]	; (4fc <_lseek+0x11c>)
     4d8:	680c      	ldr	r4, [r1, #0]
     4da:	226b      	movs	r2, #107	; 0x6b
     4dc:	2101      	movs	r1, #1
     4de:	68e3      	ldr	r3, [r4, #12]
     4e0:	f005 fee6 	bl	62b0 <fwrite>
     4e4:	2001      	movs	r0, #1
     4e6:	f011 f8e5 	bl	116b4 <exit>
     4ea:	bf00      	nop
     4ec:	10000684 	.word	0x10000684
     4f0:	00010af5 	.word	0x00010af5
     4f4:	ffffa001 	.word	0xffffa001
     4f8:	100001dc 	.word	0x100001dc
     4fc:	0000edd0 	.word	0x0000edd0

00000500 <_read>:
     500:	b510      	push	{r4, lr}
     502:	4c0b      	ldr	r4, [pc, #44]	; (530 <_read+0x30>)
     504:	b082      	sub	sp, #8
     506:	6823      	ldr	r3, [r4, #0]
     508:	4614      	mov	r4, r2
     50a:	b90b      	cbnz	r3, 510 <_read+0x10>
     50c:	2802      	cmp	r0, #2
     50e:	dd08      	ble.n	522 <_read+0x22>
     510:	4622      	mov	r2, r4
     512:	2300      	movs	r3, #0
     514:	f010 face 	bl	10ab4 <_sys_read>
     518:	f020 4000 	bic.w	r0, r0, #2147483648	; 0x80000000
     51c:	1a20      	subs	r0, r4, r0
     51e:	b002      	add	sp, #8
     520:	bd10      	pop	{r4, pc}
     522:	9001      	str	r0, [sp, #4]
     524:	9100      	str	r1, [sp, #0]
     526:	f7ff ff03 	bl	330 <__GCC4MBEDOpenStandardHandles>
     52a:	9900      	ldr	r1, [sp, #0]
     52c:	9801      	ldr	r0, [sp, #4]
     52e:	e7ef      	b.n	510 <_read+0x10>
     530:	1000068c 	.word	0x1000068c

00000534 <_write>:
     534:	b510      	push	{r4, lr}
     536:	4c0c      	ldr	r4, [pc, #48]	; (568 <_write+0x34>)
     538:	b082      	sub	sp, #8
     53a:	6823      	ldr	r3, [r4, #0]
     53c:	4614      	mov	r4, r2
     53e:	b90b      	cbnz	r3, 544 <_write+0x10>
     540:	2802      	cmp	r0, #2
     542:	dd09      	ble.n	558 <_write+0x24>
     544:	2300      	movs	r3, #0
     546:	4622      	mov	r2, r4
     548:	f010 faea 	bl	10b20 <_sys_write>
     54c:	2800      	cmp	r0, #0
     54e:	bfa8      	it	ge
     550:	ebc0 0004 	rsbge	r0, r0, r4
     554:	b002      	add	sp, #8
     556:	bd10      	pop	{r4, pc}
     558:	9001      	str	r0, [sp, #4]
     55a:	9100      	str	r1, [sp, #0]
     55c:	f7ff fee8 	bl	330 <__GCC4MBEDOpenStandardHandles>
     560:	9900      	ldr	r1, [sp, #0]
     562:	9801      	ldr	r0, [sp, #4]
     564:	e7ee      	b.n	544 <_write+0x10>
     566:	bf00      	nop
     568:	1000068c 	.word	0x1000068c

0000056c <_fstat>:
     56c:	f44f 5300 	mov.w	r3, #8192	; 0x2000
     570:	604b      	str	r3, [r1, #4]
     572:	2000      	movs	r0, #0
     574:	4770      	bx	lr
     576:	bf00      	nop

00000578 <_Z4flipv>:
     578:	4804      	ldr	r0, [pc, #16]	; (58c <_Z4flipv+0x14>)
     57a:	6943      	ldr	r3, [r0, #20]
     57c:	6982      	ldr	r2, [r0, #24]
     57e:	6959      	ldr	r1, [r3, #20]
     580:	4211      	tst	r1, r2
     582:	bf14      	ite	ne
     584:	61da      	strne	r2, [r3, #28]
     586:	619a      	streq	r2, [r3, #24]
     588:	4770      	bx	lr
     58a:	bf00      	nop
     58c:	100006ac 	.word	0x100006ac

00000590 <main>:
     590:	490c      	ldr	r1, [pc, #48]	; (5c4 <main+0x34>)
     592:	b510      	push	{r4, lr}
     594:	694b      	ldr	r3, [r1, #20]
     596:	698a      	ldr	r2, [r1, #24]
     598:	480b      	ldr	r0, [pc, #44]	; (5c8 <main+0x38>)
     59a:	490c      	ldr	r1, [pc, #48]	; (5cc <main+0x3c>)
     59c:	619a      	str	r2, [r3, #24]
     59e:	f010 fb13 	bl	10bc8 <_ZN4mbed15FunctionPointer6attachEPFvvE>
     5a2:	480b      	ldr	r0, [pc, #44]	; (5d0 <main+0x40>)
     5a4:	490b      	ldr	r1, [pc, #44]	; (5d4 <main+0x44>)
     5a6:	f010 f93b 	bl	10820 <_ZN4mbed6Ticker5setupEj>
     5aa:	4c0b      	ldr	r4, [pc, #44]	; (5d8 <main+0x48>)
     5ac:	e003      	b.n	5b6 <main+0x26>
     5ae:	61da      	str	r2, [r3, #28]
     5b0:	480a      	ldr	r0, [pc, #40]	; (5dc <main+0x4c>)
     5b2:	f011 f98b 	bl	118cc <wait>
     5b6:	6963      	ldr	r3, [r4, #20]
     5b8:	69a2      	ldr	r2, [r4, #24]
     5ba:	6958      	ldr	r0, [r3, #20]
     5bc:	4210      	tst	r0, r2
     5be:	d1f6      	bne.n	5ae <main+0x1e>
     5c0:	619a      	str	r2, [r3, #24]
     5c2:	e7f5      	b.n	5b0 <main+0x20>
     5c4:	100006ac 	.word	0x100006ac
     5c8:	100006d8 	.word	0x100006d8
     5cc:	00000579 	.word	0x00000579
     5d0:	100006c8 	.word	0x100006c8
     5d4:	004c4b40 	.word	0x004c4b40
     5d8:	10000690 	.word	0x10000690
     5dc:	3dcccccd 	.word	0x3dcccccd

000005e0 <_GLOBAL__I_flipper>:
     5e0:	e92d 41f0 	stmdb	sp!, {r4, r5, r6, r7, r8, lr}
     5e4:	4d14      	ldr	r5, [pc, #80]	; (638 <_GLOBAL__I_flipper+0x58>)
     5e6:	4c15      	ldr	r4, [pc, #84]	; (63c <_GLOBAL__I_flipper+0x5c>)
     5e8:	4628      	mov	r0, r5
     5ea:	f010 fc4f 	bl	10e8c <_ZN4mbed10TimerEventC2Ev>
     5ee:	4b14      	ldr	r3, [pc, #80]	; (640 <_GLOBAL__I_flipper+0x60>)
     5f0:	4628      	mov	r0, r5
     5f2:	f840 3b10 	str.w	r3, [r0], #16
     5f6:	2100      	movs	r1, #0
     5f8:	4f12      	ldr	r7, [pc, #72]	; (644 <_GLOBAL__I_flipper+0x64>)
     5fa:	f010 fae9 	bl	10bd0 <_ZN4mbed15FunctionPointerC1EPFvvE>
     5fe:	4e12      	ldr	r6, [pc, #72]	; (648 <_GLOBAL__I_flipper+0x68>)
     600:	4622      	mov	r2, r4
     602:	4912      	ldr	r1, [pc, #72]	; (64c <_GLOBAL__I_flipper+0x6c>)
     604:	4628      	mov	r0, r5
     606:	f000 ff13 	bl	1430 <__aeabi_atexit>
     60a:	4d11      	ldr	r5, [pc, #68]	; (650 <_GLOBAL__I_flipper+0x70>)
     60c:	2200      	movs	r2, #0
     60e:	4911      	ldr	r1, [pc, #68]	; (654 <_GLOBAL__I_flipper+0x74>)
     610:	4638      	mov	r0, r7
     612:	f00f ff15 	bl	10440 <_ZN4mbed10DigitalOutC1E7PinNamePKc>
     616:	4631      	mov	r1, r6
     618:	4622      	mov	r2, r4
     61a:	4638      	mov	r0, r7
     61c:	f000 ff08 	bl	1430 <__aeabi_atexit>
     620:	2200      	movs	r2, #0
     622:	4628      	mov	r0, r5
     624:	490c      	ldr	r1, [pc, #48]	; (658 <_GLOBAL__I_flipper+0x78>)
     626:	f00f ff0b 	bl	10440 <_ZN4mbed10DigitalOutC1E7PinNamePKc>
     62a:	4628      	mov	r0, r5
     62c:	4631      	mov	r1, r6
     62e:	4622      	mov	r2, r4
     630:	e8bd 41f0 	ldmia.w	sp!, {r4, r5, r6, r7, r8, lr}
     634:	f000 befc 	b.w	1430 <__aeabi_atexit>
     638:	100006c8 	.word	0x100006c8
     63c:	100000c4 	.word	0x100000c4
     640:	00011df0 	.word	0x00011df0
     644:	10000690 	.word	0x10000690
     648:	0001047d 	.word	0x0001047d
     64c:	0001085b 	.word	0x0001085b
     650:	100006ac 	.word	0x100006ac
     654:	2009c032 	.word	0x2009c032
     658:	2009c034 	.word	0x2009c034

0000065c <_ZL18IsDebuggerAttachedv>:
     65c:	4b02      	ldr	r3, [pc, #8]	; (668 <_ZL18IsDebuggerAttachedv+0xc>)
     65e:	6818      	ldr	r0, [r3, #0]
     660:	f000 0001 	and.w	r0, r0, #1
     664:	4770      	bx	lr
     666:	bf00      	nop
     668:	e000edf0 	.word	0xe000edf0

0000066c <_ZL17DisableSingleStepv>:
     66c:	4b02      	ldr	r3, [pc, #8]	; (678 <_ZL17DisableSingleStepv+0xc>)
     66e:	68da      	ldr	r2, [r3, #12]
     670:	f422 2280 	bic.w	r2, r2, #262144	; 0x40000
     674:	60da      	str	r2, [r3, #12]
     676:	4770      	bx	lr
     678:	e000edf0 	.word	0xe000edf0

0000067c <_ZL19ClearMonitorPendingv>:
     67c:	4b02      	ldr	r3, [pc, #8]	; (688 <_ZL19ClearMonitorPendingv+0xc>)
     67e:	68da      	ldr	r2, [r3, #12]
     680:	f422 3200 	bic.w	r2, r2, #131072	; 0x20000
     684:	60da      	str	r2, [r3, #12]
     686:	4770      	bx	lr
     688:	e000edf0 	.word	0xe000edf0

0000068c <_ZL25GetFPBCodeComparatorCountv>:
     68c:	4b04      	ldr	r3, [pc, #16]	; (6a0 <_ZL25GetFPBCodeComparatorCountv+0x14>)
     68e:	681b      	ldr	r3, [r3, #0]
     690:	f003 00f0 	and.w	r0, r3, #240	; 0xf0
     694:	f403 43e0 	and.w	r3, r3, #28672	; 0x7000
     698:	0a1b      	lsrs	r3, r3, #8
     69a:	ea43 1010 	orr.w	r0, r3, r0, lsr #4
     69e:	4770      	bx	lr
     6a0:	e0002000 	.word	0xe0002000

000006a4 <_ZL18ClearFPBComparatorPm>:
     6a4:	2300      	movs	r3, #0
     6a6:	6003      	str	r3, [r0, #0]
     6a8:	4770      	bx	lr
	...

000006ac <_ZL27CalculateFPBComparatorValueml>:
     6ac:	4b0f      	ldr	r3, [pc, #60]	; (6ec <_ZL27CalculateFPBComparatorValueml+0x40>)
     6ae:	ea00 0303 	and.w	r3, r0, r3
     6b2:	b18b      	cbz	r3, 6d8 <_ZL27CalculateFPBComparatorValueml+0x2c>
     6b4:	e00d      	b.n	6d2 <_ZL27CalculateFPBComparatorValueml+0x26>
     6b6:	f000 0002 	and.w	r0, r0, #2
     6ba:	2800      	cmp	r0, #0
     6bc:	bf0c      	ite	eq
     6be:	f04f 4080 	moveq.w	r0, #1073741824	; 0x40000000
     6c2:	f04f 4000 	movne.w	r0, #2147483648	; 0x80000000
     6c6:	e001      	b.n	6cc <_ZL27CalculateFPBComparatorValueml+0x20>
     6c8:	f04f 4040 	mov.w	r0, #3221225472	; 0xc0000000
     6cc:	ea43 0000 	orr.w	r0, r3, r0
     6d0:	4770      	bx	lr
     6d2:	f04f 30ff 	mov.w	r0, #4294967295
     6d6:	4770      	bx	lr
     6d8:	f020 4360 	bic.w	r3, r0, #3758096384	; 0xe0000000
     6dc:	f023 0303 	bic.w	r3, r3, #3
     6e0:	f043 0301 	orr.w	r3, r3, #1
     6e4:	2900      	cmp	r1, #0
     6e6:	d0e6      	beq.n	6b6 <_ZL27CalculateFPBComparatorValueml+0xa>
     6e8:	e7ee      	b.n	6c8 <_ZL27CalculateFPBComparatorValueml+0x1c>
     6ea:	bf00      	nop
     6ec:	e0000001 	.word	0xe0000001

000006f0 <_ZL27FindFPBBreakpointComparatorml>:
     6f0:	b538      	push	{r3, r4, r5, lr}
     6f2:	f7ff ffdb 	bl	6ac <_ZL27CalculateFPBComparatorValueml>
     6f6:	4604      	mov	r4, r0
     6f8:	f7ff ffc8 	bl	68c <_ZL25GetFPBCodeComparatorCountv>
     6fc:	4a08      	ldr	r2, [pc, #32]	; (720 <_ZL27FindFPBBreakpointComparatorml+0x30>)
     6fe:	4605      	mov	r5, r0
     700:	2300      	movs	r3, #0
     702:	e008      	b.n	716 <_ZL27FindFPBBreakpointComparatorml+0x26>
     704:	f852 1b04 	ldr.w	r1, [r2], #4
     708:	f021 5100 	bic.w	r1, r1, #536870912	; 0x20000000
     70c:	f021 0102 	bic.w	r1, r1, #2
     710:	428c      	cmp	r4, r1
     712:	d004      	beq.n	71e <_ZL27FindFPBBreakpointComparatorml+0x2e>
     714:	3301      	adds	r3, #1
     716:	42ab      	cmp	r3, r5
     718:	4610      	mov	r0, r2
     71a:	d1f3      	bne.n	704 <_ZL27FindFPBBreakpointComparatorml+0x14>
     71c:	2000      	movs	r0, #0
     71e:	bd38      	pop	{r3, r4, r5, pc}
     720:	e0002008 	.word	0xe0002008

00000724 <_ZL15HexCharToNibbleh>:
     724:	f1a0 0361 	sub.w	r3, r0, #97	; 0x61
     728:	b2db      	uxtb	r3, r3
     72a:	2b05      	cmp	r3, #5
     72c:	d801      	bhi.n	732 <_ZL15HexCharToNibbleh+0xe>
     72e:	3857      	subs	r0, #87	; 0x57
     730:	4770      	bx	lr
     732:	f1a0 0341 	sub.w	r3, r0, #65	; 0x41
     736:	b2db      	uxtb	r3, r3
     738:	2b05      	cmp	r3, #5
     73a:	d801      	bhi.n	740 <_ZL15HexCharToNibbleh+0x1c>
     73c:	3837      	subs	r0, #55	; 0x37
     73e:	4770      	bx	lr
     740:	3830      	subs	r0, #48	; 0x30
     742:	b2c3      	uxtb	r3, r0
     744:	2b09      	cmp	r3, #9
     746:	bf88      	it	hi
     748:	f04f 30ff 	movhi.w	r0, #4294967295
     74c:	4770      	bx	lr

0000074e <_ZL12SBuffer_InitP7SBufferPcj>:
     74e:	188a      	adds	r2, r1, r2
     750:	2300      	movs	r3, #0
     752:	6001      	str	r1, [r0, #0]
     754:	6042      	str	r2, [r0, #4]
     756:	6081      	str	r1, [r0, #8]
     758:	60c3      	str	r3, [r0, #12]
     75a:	4770      	bx	lr

0000075c <_ZL17SBuffer_BytesLeftP7SBuffer>:
     75c:	6842      	ldr	r2, [r0, #4]
     75e:	6883      	ldr	r3, [r0, #8]
     760:	1ad3      	subs	r3, r2, r3
     762:	d503      	bpl.n	76c <_ZL17SBuffer_BytesLeftP7SBuffer+0x10>
     764:	2301      	movs	r3, #1
     766:	60c3      	str	r3, [r0, #12]
     768:	2000      	movs	r0, #0
     76a:	4770      	bx	lr
     76c:	4618      	mov	r0, r3
     76e:	4770      	bx	lr

00000770 <_ZL17SBuffer_WriteCharP7SBufferc>:
     770:	b538      	push	{r3, r4, r5, lr}
     772:	4604      	mov	r4, r0
     774:	460d      	mov	r5, r1
     776:	f7ff fff1 	bl	75c <_ZL17SBuffer_BytesLeftP7SBuffer>
     77a:	b910      	cbnz	r0, 782 <_ZL17SBuffer_WriteCharP7SBufferc+0x12>
     77c:	2301      	movs	r3, #1
     77e:	60e3      	str	r3, [r4, #12]
     780:	bd38      	pop	{r3, r4, r5, pc}
     782:	68a3      	ldr	r3, [r4, #8]
     784:	2001      	movs	r0, #1
     786:	f803 5b01 	strb.w	r5, [r3], #1
     78a:	60a3      	str	r3, [r4, #8]
     78c:	bd38      	pop	{r3, r4, r5, pc}

0000078e <_ZL16SBuffer_ReadCharP7SBufferPc>:
     78e:	b538      	push	{r3, r4, r5, lr}
     790:	4604      	mov	r4, r0
     792:	460d      	mov	r5, r1
     794:	f7ff ffe2 	bl	75c <_ZL17SBuffer_BytesLeftP7SBuffer>
     798:	b918      	cbnz	r0, 7a2 <_ZL16SBuffer_ReadCharP7SBufferPc+0x14>
     79a:	2301      	movs	r3, #1
     79c:	60e3      	str	r3, [r4, #12]
     79e:	7028      	strb	r0, [r5, #0]
     7a0:	bd38      	pop	{r3, r4, r5, pc}
     7a2:	68a3      	ldr	r3, [r4, #8]
     7a4:	2001      	movs	r0, #1
     7a6:	f813 2b01 	ldrb.w	r2, [r3], #1
     7aa:	702a      	strb	r2, [r5, #0]
     7ac:	60a3      	str	r3, [r4, #8]
     7ae:	bd38      	pop	{r3, r4, r5, pc}

000007b0 <_ZL22SBuffer_WriteByteAsHexP7SBufferh>:
     7b0:	b538      	push	{r3, r4, r5, lr}
     7b2:	4604      	mov	r4, r0
     7b4:	460d      	mov	r5, r1
     7b6:	f7ff ffd1 	bl	75c <_ZL17SBuffer_BytesLeftP7SBuffer>
     7ba:	2801      	cmp	r0, #1
     7bc:	d803      	bhi.n	7c6 <_ZL22SBuffer_WriteByteAsHexP7SBufferh+0x16>
     7be:	2301      	movs	r3, #1
     7c0:	60e3      	str	r3, [r4, #12]
     7c2:	2000      	movs	r0, #0
     7c4:	bd38      	pop	{r3, r4, r5, pc}
     7c6:	4907      	ldr	r1, [pc, #28]	; (7e4 <_ZL22SBuffer_WriteByteAsHexP7SBufferh+0x34>)
     7c8:	68a2      	ldr	r2, [r4, #8]
     7ca:	092b      	lsrs	r3, r5, #4
     7cc:	5cc8      	ldrb	r0, [r1, r3]
     7ce:	f005 050f 	and.w	r5, r5, #15
     7d2:	4613      	mov	r3, r2
     7d4:	f803 0b01 	strb.w	r0, [r3], #1
     7d8:	5d49      	ldrb	r1, [r1, r5]
     7da:	3301      	adds	r3, #1
     7dc:	7051      	strb	r1, [r2, #1]
     7de:	2001      	movs	r0, #1
     7e0:	60a3      	str	r3, [r4, #8]
     7e2:	bd38      	pop	{r3, r4, r5, pc}
     7e4:	0000f043 	.word	0x0000f043

000007e8 <_ZL21SBuffer_ReadByteAsHexP7SBufferPh>:
     7e8:	e92d 41f0 	stmdb	sp!, {r4, r5, r6, r7, r8, lr}
     7ec:	4604      	mov	r4, r0
     7ee:	460f      	mov	r7, r1
     7f0:	f7ff ffb4 	bl	75c <_ZL17SBuffer_BytesLeftP7SBuffer>
     7f4:	2801      	cmp	r0, #1
     7f6:	d804      	bhi.n	802 <_ZL21SBuffer_ReadByteAsHexP7SBufferPh+0x1a>
     7f8:	2301      	movs	r3, #1
     7fa:	60e3      	str	r3, [r4, #12]
     7fc:	2000      	movs	r0, #0
     7fe:	e8bd 81f0 	ldmia.w	sp!, {r4, r5, r6, r7, r8, pc}
     802:	68a6      	ldr	r6, [r4, #8]
     804:	4635      	mov	r5, r6
     806:	f815 0b01 	ldrb.w	r0, [r5], #1
     80a:	60a5      	str	r5, [r4, #8]
     80c:	f7ff ff8a 	bl	724 <_ZL15HexCharToNibbleh>
     810:	3501      	adds	r5, #1
     812:	4680      	mov	r8, r0
     814:	7870      	ldrb	r0, [r6, #1]
     816:	60a5      	str	r5, [r4, #8]
     818:	f7ff ff84 	bl	724 <_ZL15HexCharToNibbleh>
     81c:	ea40 1008 	orr.w	r0, r0, r8, lsl #4
     820:	7038      	strb	r0, [r7, #0]
     822:	2001      	movs	r0, #1
     824:	e8bd 81f0 	ldmia.w	sp!, {r4, r5, r6, r7, r8, pc}

00000828 <_ZL19SBuffer_WriteStringP7SBufferPKc>:
     828:	b538      	push	{r3, r4, r5, lr}
     82a:	4605      	mov	r5, r0
     82c:	460c      	mov	r4, r1
     82e:	e003      	b.n	838 <_ZL19SBuffer_WriteStringP7SBufferPKc+0x10>
     830:	4628      	mov	r0, r5
     832:	f7ff ff9d 	bl	770 <_ZL17SBuffer_WriteCharP7SBufferc>
     836:	b120      	cbz	r0, 842 <_ZL19SBuffer_WriteStringP7SBufferPKc+0x1a>
     838:	f814 1b01 	ldrb.w	r1, [r4], #1
     83c:	2900      	cmp	r1, #0
     83e:	d1f7      	bne.n	830 <_ZL19SBuffer_WriteStringP7SBufferPKc+0x8>
     840:	2001      	movs	r0, #1
     842:	bd38      	pop	{r3, r4, r5, pc}

00000844 <_ZL25SBuffer_ReadUIntegerAsHexP7SBufferPj>:
     844:	b5f7      	push	{r0, r1, r2, r4, r5, r6, r7, lr}
     846:	2400      	movs	r4, #0
     848:	4605      	mov	r5, r0
     84a:	460f      	mov	r7, r1
     84c:	4626      	mov	r6, r4
     84e:	e00f      	b.n	870 <_ZL25SBuffer_ReadUIntegerAsHexP7SBufferPj+0x2c>
     850:	f89d 0007 	ldrb.w	r0, [sp, #7]
     854:	f7ff ff66 	bl	724 <_ZL15HexCharToNibbleh>
     858:	2800      	cmp	r0, #0
     85a:	da06      	bge.n	86a <_ZL25SBuffer_ReadUIntegerAsHexP7SBufferPj+0x26>
     85c:	68ab      	ldr	r3, [r5, #8]
     85e:	682a      	ldr	r2, [r5, #0]
     860:	4293      	cmp	r3, r2
     862:	d90c      	bls.n	87e <_ZL25SBuffer_ReadUIntegerAsHexP7SBufferPj+0x3a>
     864:	3b01      	subs	r3, #1
     866:	60ab      	str	r3, [r5, #8]
     868:	e009      	b.n	87e <_ZL25SBuffer_ReadUIntegerAsHexP7SBufferPj+0x3a>
     86a:	eb00 1404 	add.w	r4, r0, r4, lsl #4
     86e:	3601      	adds	r6, #1
     870:	4628      	mov	r0, r5
     872:	f10d 0107 	add.w	r1, sp, #7
     876:	f7ff ff8a 	bl	78e <_ZL16SBuffer_ReadCharP7SBufferPc>
     87a:	2800      	cmp	r0, #0
     87c:	d1e8      	bne.n	850 <_ZL25SBuffer_ReadUIntegerAsHexP7SBufferPj+0xc>
     87e:	603c      	str	r4, [r7, #0]
     880:	4630      	mov	r0, r6
     882:	bdfe      	pop	{r1, r2, r3, r4, r5, r6, r7, pc}

00000884 <_ZL25SBuffer_IsNextCharEqualToP7SBufferc>:
     884:	b513      	push	{r0, r1, r4, lr}
     886:	460c      	mov	r4, r1
     888:	f10d 0107 	add.w	r1, sp, #7
     88c:	f7ff ff7f 	bl	78e <_ZL16SBuffer_ReadCharP7SBufferPc>
     890:	b128      	cbz	r0, 89e <_ZL25SBuffer_IsNextCharEqualToP7SBufferc+0x1a>
     892:	f89d 0007 	ldrb.w	r0, [sp, #7]
     896:	1b03      	subs	r3, r0, r4
     898:	4258      	negs	r0, r3
     89a:	eb40 0003 	adc.w	r0, r0, r3
     89e:	bd1c      	pop	{r2, r3, r4, pc}

000008a0 <_ZL20SMriState_InitBufferP9SMriState>:
     8a0:	f100 0120 	add.w	r1, r0, #32
     8a4:	f240 1251 	movw	r2, #337	; 0x151
     8a8:	f7ff bf51 	b.w	74e <_ZL12SBuffer_InitP7SBufferPcj>

000008ac <_ZL31SMriState_PrepareStringResponseP9SMriStatePKc>:
     8ac:	b570      	push	{r4, r5, r6, lr}
     8ae:	4604      	mov	r4, r0
     8b0:	460d      	mov	r5, r1
     8b2:	f7ff fff5 	bl	8a0 <_ZL20SMriState_InitBufferP9SMriState>
     8b6:	4620      	mov	r0, r4
     8b8:	4629      	mov	r1, r5
     8ba:	e8bd 4070 	ldmia.w	sp!, {r4, r5, r6, lr}
     8be:	f7ff bfb3 	b.w	828 <_ZL19SBuffer_WriteStringP7SBufferPKc>
	...

000008c4 <_ZL24AdvanceToNextInstructionv>:
     8c4:	4b0a      	ldr	r3, [pc, #40]	; (8f0 <_ZL24AdvanceToNextInstructionv+0x2c>)
     8c6:	6bda      	ldr	r2, [r3, #60]	; 0x3c
     8c8:	4618      	mov	r0, r3
     8ca:	8811      	ldrh	r1, [r2, #0]
     8cc:	f401 4178 	and.w	r1, r1, #63488	; 0xf800
     8d0:	f5b1 4f68 	cmp.w	r1, #59392	; 0xe800
     8d4:	d005      	beq.n	8e2 <_ZL24AdvanceToNextInstructionv+0x1e>
     8d6:	f5b1 4f70 	cmp.w	r1, #61440	; 0xf000
     8da:	d002      	beq.n	8e2 <_ZL24AdvanceToNextInstructionv+0x1e>
     8dc:	f5b1 4f78 	cmp.w	r1, #63488	; 0xf800
     8e0:	d102      	bne.n	8e8 <_ZL24AdvanceToNextInstructionv+0x24>
     8e2:	3204      	adds	r2, #4
     8e4:	63c2      	str	r2, [r0, #60]	; 0x3c
     8e6:	4770      	bx	lr
     8e8:	3202      	adds	r2, #2
     8ea:	63da      	str	r2, [r3, #60]	; 0x3c
     8ec:	4770      	bx	lr
     8ee:	bf00      	nop
     8f0:	1000086c 	.word	0x1000086c

000008f4 <_ZL23ClearDebuggerActiveFlagv>:
     8f4:	4b02      	ldr	r3, [pc, #8]	; (900 <_ZL23ClearDebuggerActiveFlagv+0xc>)
     8f6:	681a      	ldr	r2, [r3, #0]
     8f8:	f022 0201 	bic.w	r2, r2, #1
     8fc:	601a      	str	r2, [r3, #0]
     8fe:	4770      	bx	lr
     900:	100006f4 	.word	0x100006f4

00000904 <_ZL23ClearFaultDetectionFlagv>:
     904:	4b02      	ldr	r3, [pc, #8]	; (910 <_ZL23ClearFaultDetectionFlagv+0xc>)
     906:	681a      	ldr	r2, [r3, #0]
     908:	f022 0202 	bic.w	r2, r2, #2
     90c:	601a      	str	r2, [r3, #0]
     90e:	4770      	bx	lr
     910:	100006f4 	.word	0x100006f4

00000914 <_ZL16WasFaultDetectedv>:
     914:	4b02      	ldr	r3, [pc, #8]	; (920 <_ZL16WasFaultDetectedv+0xc>)
     916:	6818      	ldr	r0, [r3, #0]
     918:	f000 0002 	and.w	r0, r0, #2
     91c:	4770      	bx	lr
     91e:	bf00      	nop
     920:	100006f4 	.word	0x100006f4

00000924 <_ZL23ReadMemoryIntoHexBufferP7SBufferPKvi>:
     924:	b5f8      	push	{r3, r4, r5, r6, r7, lr}
     926:	4604      	mov	r4, r0
     928:	4615      	mov	r5, r2
     92a:	460e      	mov	r6, r1
     92c:	f7ff ffea 	bl	904 <_ZL23ClearFaultDetectionFlagv>
     930:	e009      	b.n	946 <_ZL23ReadMemoryIntoHexBufferP7SBufferPKvi+0x22>
     932:	7837      	ldrb	r7, [r6, #0]
     934:	f7ff ffee 	bl	914 <_ZL16WasFaultDetectedv>
     938:	3d01      	subs	r5, #1
     93a:	b940      	cbnz	r0, 94e <_ZL23ReadMemoryIntoHexBufferP7SBufferPKvi+0x2a>
     93c:	4620      	mov	r0, r4
     93e:	4639      	mov	r1, r7
     940:	3601      	adds	r6, #1
     942:	f7ff ff35 	bl	7b0 <_ZL22SBuffer_WriteByteAsHexP7SBufferh>
     946:	2d00      	cmp	r5, #0
     948:	dcf3      	bgt.n	932 <_ZL23ReadMemoryIntoHexBufferP7SBufferPKvi+0xe>
     94a:	2001      	movs	r0, #1
     94c:	bdf8      	pop	{r3, r4, r5, r6, r7, pc}
     94e:	2000      	movs	r0, #0
     950:	bdf8      	pop	{r3, r4, r5, r6, r7, pc}

00000952 <_ZL22WriteHexBufferToMemoryP7SBufferPvi>:
     952:	b573      	push	{r0, r1, r4, r5, r6, lr}
     954:	4604      	mov	r4, r0
     956:	4615      	mov	r5, r2
     958:	460e      	mov	r6, r1
     95a:	f7ff ffd3 	bl	904 <_ZL23ClearFaultDetectionFlagv>
     95e:	e00d      	b.n	97c <_ZL22WriteHexBufferToMemoryP7SBufferPvi+0x2a>
     960:	4620      	mov	r0, r4
     962:	f10d 0107 	add.w	r1, sp, #7
     966:	f7ff ff3f 	bl	7e8 <_ZL21SBuffer_ReadByteAsHexP7SBufferPh>
     96a:	b160      	cbz	r0, 986 <_ZL22WriteHexBufferToMemoryP7SBufferPvi+0x34>
     96c:	f89d 3007 	ldrb.w	r3, [sp, #7]
     970:	3d01      	subs	r5, #1
     972:	7033      	strb	r3, [r6, #0]
     974:	f7ff ffce 	bl	914 <_ZL16WasFaultDetectedv>
     978:	b920      	cbnz	r0, 984 <_ZL22WriteHexBufferToMemoryP7SBufferPvi+0x32>
     97a:	3601      	adds	r6, #1
     97c:	2d00      	cmp	r5, #0
     97e:	dcef      	bgt.n	960 <_ZL22WriteHexBufferToMemoryP7SBufferPvi+0xe>
     980:	2001      	movs	r0, #1
     982:	e000      	b.n	986 <_ZL22WriteHexBufferToMemoryP7SBufferPvi+0x34>
     984:	2000      	movs	r0, #0
     986:	bd7c      	pop	{r2, r3, r4, r5, r6, pc}

00000988 <_ZL26SendRegisterFor_T_ResponseP7SBufferhj>:
     988:	b537      	push	{r0, r1, r2, r4, r5, lr}
     98a:	4604      	mov	r4, r0
     98c:	ad02      	add	r5, sp, #8
     98e:	f845 2d04 	str.w	r2, [r5, #-4]!
     992:	f7ff ff0d 	bl	7b0 <_ZL22SBuffer_WriteByteAsHexP7SBufferh>
     996:	213a      	movs	r1, #58	; 0x3a
     998:	4620      	mov	r0, r4
     99a:	f7ff fee9 	bl	770 <_ZL17SBuffer_WriteCharP7SBufferc>
     99e:	4629      	mov	r1, r5
     9a0:	4620      	mov	r0, r4
     9a2:	2204      	movs	r2, #4
     9a4:	f7ff ffbe 	bl	924 <_ZL23ReadMemoryIntoHexBufferP7SBufferPKvi>
     9a8:	4620      	mov	r0, r4
     9aa:	213b      	movs	r1, #59	; 0x3b
     9ac:	f7ff fee0 	bl	770 <_ZL17SBuffer_WriteCharP7SBufferc>
     9b0:	bd3e      	pop	{r1, r2, r3, r4, r5, pc}

000009b2 <_ZL37PrepareEmptyResponseForUnknownCommandP9SMriState>:
     9b2:	f7ff bf75 	b.w	8a0 <_ZL20SMriState_InitBufferP9SMriState>
	...

000009b8 <_ZL25HandleRegisterReadCommandP9SMriState>:
     9b8:	b510      	push	{r4, lr}
     9ba:	4604      	mov	r4, r0
     9bc:	f7ff ff70 	bl	8a0 <_ZL20SMriState_InitBufferP9SMriState>
     9c0:	4620      	mov	r0, r4
     9c2:	4903      	ldr	r1, [pc, #12]	; (9d0 <_ZL25HandleRegisterReadCommandP9SMriState+0x18>)
     9c4:	22a8      	movs	r2, #168	; 0xa8
     9c6:	f7ff ffad 	bl	924 <_ZL23ReadMemoryIntoHexBufferP7SBufferPKvi>
     9ca:	2000      	movs	r0, #0
     9cc:	bd10      	pop	{r4, pc}
     9ce:	bf00      	nop
     9d0:	1000086c 	.word	0x1000086c

000009d4 <_ZL26HandleRegisterWriteCommandP9SMriState>:
     9d4:	b570      	push	{r4, r5, r6, lr}
     9d6:	4d0e      	ldr	r5, [pc, #56]	; (a10 <_ZL26HandleRegisterWriteCommandP9SMriState+0x3c>)
     9d8:	22a8      	movs	r2, #168	; 0xa8
     9da:	4629      	mov	r1, r5
     9dc:	4604      	mov	r4, r0
     9de:	f7ff ffb8 	bl	952 <_ZL22WriteHexBufferToMemoryP7SBufferPvi>
     9e2:	f8d5 30a4 	ldr.w	r3, [r5, #164]	; 0xa4
     9e6:	6962      	ldr	r2, [r4, #20]
     9e8:	f423 7300 	bic.w	r3, r3, #512	; 0x200
     9ec:	4606      	mov	r6, r0
     9ee:	4313      	orrs	r3, r2
     9f0:	4620      	mov	r0, r4
     9f2:	f8c5 30a4 	str.w	r3, [r5, #164]	; 0xa4
     9f6:	f7ff ff53 	bl	8a0 <_ZL20SMriState_InitBufferP9SMriState>
     9fa:	b916      	cbnz	r6, a02 <_ZL26HandleRegisterWriteCommandP9SMriState+0x2e>
     9fc:	4620      	mov	r0, r4
     9fe:	4905      	ldr	r1, [pc, #20]	; (a14 <_ZL26HandleRegisterWriteCommandP9SMriState+0x40>)
     a00:	e001      	b.n	a06 <_ZL26HandleRegisterWriteCommandP9SMriState+0x32>
     a02:	4905      	ldr	r1, [pc, #20]	; (a18 <_ZL26HandleRegisterWriteCommandP9SMriState+0x44>)
     a04:	4620      	mov	r0, r4
     a06:	f7ff ff0f 	bl	828 <_ZL19SBuffer_WriteStringP7SBufferPKc>
     a0a:	2000      	movs	r0, #0
     a0c:	bd70      	pop	{r4, r5, r6, pc}
     a0e:	bf00      	nop
     a10:	1000086c 	.word	0x1000086c
     a14:	0000f0c4 	.word	0x0000f0c4
     a18:	0000f0c8 	.word	0x0000f0c8

00000a1c <_ZL23HandleMemoryReadCommandP9SMriState>:
     a1c:	b513      	push	{r0, r1, r4, lr}
     a1e:	a901      	add	r1, sp, #4
     a20:	4604      	mov	r4, r0
     a22:	f7ff ff0f 	bl	844 <_ZL25SBuffer_ReadUIntegerAsHexP7SBufferPj>
     a26:	b1c0      	cbz	r0, a5a <_ZL23HandleMemoryReadCommandP9SMriState+0x3e>
     a28:	4620      	mov	r0, r4
     a2a:	212c      	movs	r1, #44	; 0x2c
     a2c:	f7ff ff2a 	bl	884 <_ZL25SBuffer_IsNextCharEqualToP7SBufferc>
     a30:	b198      	cbz	r0, a5a <_ZL23HandleMemoryReadCommandP9SMriState+0x3e>
     a32:	4620      	mov	r0, r4
     a34:	4669      	mov	r1, sp
     a36:	f7ff ff05 	bl	844 <_ZL25SBuffer_ReadUIntegerAsHexP7SBufferPj>
     a3a:	b170      	cbz	r0, a5a <_ZL23HandleMemoryReadCommandP9SMriState+0x3e>
     a3c:	4620      	mov	r0, r4
     a3e:	f7ff ff2f 	bl	8a0 <_ZL20SMriState_InitBufferP9SMriState>
     a42:	4620      	mov	r0, r4
     a44:	9901      	ldr	r1, [sp, #4]
     a46:	9a00      	ldr	r2, [sp, #0]
     a48:	f7ff ff6c 	bl	924 <_ZL23ReadMemoryIntoHexBufferP7SBufferPKvi>
     a4c:	b918      	cbnz	r0, a56 <_ZL23HandleMemoryReadCommandP9SMriState+0x3a>
     a4e:	4904      	ldr	r1, [pc, #16]	; (a60 <_ZL23HandleMemoryReadCommandP9SMriState+0x44>)
     a50:	4620      	mov	r0, r4
     a52:	f7ff ff2b 	bl	8ac <_ZL31SMriState_PrepareStringResponseP9SMriStatePKc>
     a56:	2000      	movs	r0, #0
     a58:	bd1c      	pop	{r2, r3, r4, pc}
     a5a:	4620      	mov	r0, r4
     a5c:	4901      	ldr	r1, [pc, #4]	; (a64 <_ZL23HandleMemoryReadCommandP9SMriState+0x48>)
     a5e:	e7f8      	b.n	a52 <_ZL23HandleMemoryReadCommandP9SMriState+0x36>
     a60:	0000f0cb 	.word	0x0000f0cb
     a64:	0000f0cf 	.word	0x0000f0cf

00000a68 <_ZL24HandleMemoryWriteCommandP9SMriState>:
     a68:	b513      	push	{r0, r1, r4, lr}
     a6a:	a901      	add	r1, sp, #4
     a6c:	4604      	mov	r4, r0
     a6e:	f7ff fee9 	bl	844 <_ZL25SBuffer_ReadUIntegerAsHexP7SBufferPj>
     a72:	b1e8      	cbz	r0, ab0 <_ZL24HandleMemoryWriteCommandP9SMriState+0x48>
     a74:	4620      	mov	r0, r4
     a76:	212c      	movs	r1, #44	; 0x2c
     a78:	f7ff ff04 	bl	884 <_ZL25SBuffer_IsNextCharEqualToP7SBufferc>
     a7c:	b1c0      	cbz	r0, ab0 <_ZL24HandleMemoryWriteCommandP9SMriState+0x48>
     a7e:	4620      	mov	r0, r4
     a80:	4669      	mov	r1, sp
     a82:	f7ff fedf 	bl	844 <_ZL25SBuffer_ReadUIntegerAsHexP7SBufferPj>
     a86:	b198      	cbz	r0, ab0 <_ZL24HandleMemoryWriteCommandP9SMriState+0x48>
     a88:	4620      	mov	r0, r4
     a8a:	213a      	movs	r1, #58	; 0x3a
     a8c:	f7ff fefa 	bl	884 <_ZL25SBuffer_IsNextCharEqualToP7SBufferc>
     a90:	b170      	cbz	r0, ab0 <_ZL24HandleMemoryWriteCommandP9SMriState+0x48>
     a92:	4620      	mov	r0, r4
     a94:	9901      	ldr	r1, [sp, #4]
     a96:	9a00      	ldr	r2, [sp, #0]
     a98:	f7ff ff5b 	bl	952 <_ZL22WriteHexBufferToMemoryP7SBufferPvi>
     a9c:	b110      	cbz	r0, aa4 <_ZL24HandleMemoryWriteCommandP9SMriState+0x3c>
     a9e:	4620      	mov	r0, r4
     aa0:	4905      	ldr	r1, [pc, #20]	; (ab8 <_ZL24HandleMemoryWriteCommandP9SMriState+0x50>)
     aa2:	e001      	b.n	aa8 <_ZL24HandleMemoryWriteCommandP9SMriState+0x40>
     aa4:	4905      	ldr	r1, [pc, #20]	; (abc <_ZL24HandleMemoryWriteCommandP9SMriState+0x54>)
     aa6:	4620      	mov	r0, r4
     aa8:	f7ff ff00 	bl	8ac <_ZL31SMriState_PrepareStringResponseP9SMriStatePKc>
     aac:	2000      	movs	r0, #0
     aae:	bd1c      	pop	{r2, r3, r4, pc}
     ab0:	4620      	mov	r0, r4
     ab2:	4903      	ldr	r1, [pc, #12]	; (ac0 <_ZL24HandleMemoryWriteCommandP9SMriState+0x58>)
     ab4:	e7f8      	b.n	aa8 <_ZL24HandleMemoryWriteCommandP9SMriState+0x40>
     ab6:	bf00      	nop
     ab8:	0000f0c8 	.word	0x0000f0c8
     abc:	0000f0cb 	.word	0x0000f0cb
     ac0:	0000f0cf 	.word	0x0000f0cf

00000ac4 <_ZL41ParseBreakpointWatchpointCommandArgumentsP9SMriStateP30SBreakpointWatchpointArguments>:
     ac4:	b537      	push	{r0, r1, r2, r4, r5, lr}
     ac6:	460d      	mov	r5, r1
     ac8:	3108      	adds	r1, #8
     aca:	4604      	mov	r4, r0
     acc:	f7ff fe5f 	bl	78e <_ZL16SBuffer_ReadCharP7SBufferPc>
     ad0:	2800      	cmp	r0, #0
     ad2:	d029      	beq.n	b28 <_ZL41ParseBreakpointWatchpointCommandArgumentsP9SMriStateP30SBreakpointWatchpointArguments+0x64>
     ad4:	4620      	mov	r0, r4
     ad6:	212c      	movs	r1, #44	; 0x2c
     ad8:	f7ff fed4 	bl	884 <_ZL25SBuffer_IsNextCharEqualToP7SBufferc>
     adc:	2800      	cmp	r0, #0
     ade:	d023      	beq.n	b28 <_ZL41ParseBreakpointWatchpointCommandArgumentsP9SMriStateP30SBreakpointWatchpointArguments+0x64>
     ae0:	4620      	mov	r0, r4
     ae2:	4629      	mov	r1, r5
     ae4:	f7ff feae 	bl	844 <_ZL25SBuffer_ReadUIntegerAsHexP7SBufferPj>
     ae8:	2800      	cmp	r0, #0
     aea:	d01d      	beq.n	b28 <_ZL41ParseBreakpointWatchpointCommandArgumentsP9SMriStateP30SBreakpointWatchpointArguments+0x64>
     aec:	4620      	mov	r0, r4
     aee:	212c      	movs	r1, #44	; 0x2c
     af0:	f7ff fec8 	bl	884 <_ZL25SBuffer_IsNextCharEqualToP7SBufferc>
     af4:	b1c0      	cbz	r0, b28 <_ZL41ParseBreakpointWatchpointCommandArgumentsP9SMriStateP30SBreakpointWatchpointArguments+0x64>
     af6:	4620      	mov	r0, r4
     af8:	f10d 0107 	add.w	r1, sp, #7
     afc:	f7ff fe47 	bl	78e <_ZL16SBuffer_ReadCharP7SBufferPc>
     b00:	b190      	cbz	r0, b28 <_ZL41ParseBreakpointWatchpointCommandArgumentsP9SMriStateP30SBreakpointWatchpointArguments+0x64>
     b02:	f89d 3007 	ldrb.w	r3, [sp, #7]
     b06:	2b32      	cmp	r3, #50	; 0x32
     b08:	d003      	beq.n	b12 <_ZL41ParseBreakpointWatchpointCommandArgumentsP9SMriStateP30SBreakpointWatchpointArguments+0x4e>
     b0a:	d309      	bcc.n	b20 <_ZL41ParseBreakpointWatchpointCommandArgumentsP9SMriStateP30SBreakpointWatchpointArguments+0x5c>
     b0c:	2b34      	cmp	r3, #52	; 0x34
     b0e:	d807      	bhi.n	b20 <_ZL41ParseBreakpointWatchpointCommandArgumentsP9SMriStateP30SBreakpointWatchpointArguments+0x5c>
     b10:	e003      	b.n	b1a <_ZL41ParseBreakpointWatchpointCommandArgumentsP9SMriStateP30SBreakpointWatchpointArguments+0x56>
     b12:	2300      	movs	r3, #0
     b14:	606b      	str	r3, [r5, #4]
     b16:	2001      	movs	r0, #1
     b18:	e005      	b.n	b26 <_ZL41ParseBreakpointWatchpointCommandArgumentsP9SMriStateP30SBreakpointWatchpointArguments+0x62>
     b1a:	2001      	movs	r0, #1
     b1c:	6068      	str	r0, [r5, #4]
     b1e:	e002      	b.n	b26 <_ZL41ParseBreakpointWatchpointCommandArgumentsP9SMriStateP30SBreakpointWatchpointArguments+0x62>
     b20:	2300      	movs	r3, #0
     b22:	606b      	str	r3, [r5, #4]
     b24:	e000      	b.n	b28 <_ZL41ParseBreakpointWatchpointCommandArgumentsP9SMriStateP30SBreakpointWatchpointArguments+0x64>
     b26:	bd3e      	pop	{r1, r2, r3, r4, r5, pc}
     b28:	4620      	mov	r0, r4
     b2a:	4902      	ldr	r1, [pc, #8]	; (b34 <_ZL41ParseBreakpointWatchpointCommandArgumentsP9SMriStateP30SBreakpointWatchpointArguments+0x70>)
     b2c:	f7ff febe 	bl	8ac <_ZL31SMriState_PrepareStringResponseP9SMriStatePKc>
     b30:	2000      	movs	r0, #0
     b32:	e7f8      	b.n	b26 <_ZL41ParseBreakpointWatchpointCommandArgumentsP9SMriStateP30SBreakpointWatchpointArguments+0x62>
     b34:	0000f0cf 	.word	0x0000f0cf

00000b38 <_ZL36HandleBreakpointWatchpointSetCommandP9SMriState>:
     b38:	b5f0      	push	{r4, r5, r6, r7, lr}
     b3a:	b085      	sub	sp, #20
     b3c:	a901      	add	r1, sp, #4
     b3e:	4604      	mov	r4, r0
     b40:	f7ff ffc0 	bl	ac4 <_ZL41ParseBreakpointWatchpointCommandArgumentsP9SMriStateP30SBreakpointWatchpointArguments>
     b44:	2800      	cmp	r0, #0
     b46:	d029      	beq.n	b9c <_ZL36HandleBreakpointWatchpointSetCommandP9SMriState+0x64>
     b48:	f89d 300c 	ldrb.w	r3, [sp, #12]
     b4c:	2b31      	cmp	r3, #49	; 0x31
     b4e:	d122      	bne.n	b96 <_ZL36HandleBreakpointWatchpointSetCommandP9SMriState+0x5e>
     b50:	4620      	mov	r0, r4
     b52:	f7ff fea5 	bl	8a0 <_ZL20SMriState_InitBufferP9SMriState>
     b56:	9f01      	ldr	r7, [sp, #4]
     b58:	9e02      	ldr	r6, [sp, #8]
     b5a:	4638      	mov	r0, r7
     b5c:	4631      	mov	r1, r6
     b5e:	f7ff fdc7 	bl	6f0 <_ZL27FindFPBBreakpointComparatorml>
     b62:	4605      	mov	r5, r0
     b64:	b9a0      	cbnz	r0, b90 <_ZL36HandleBreakpointWatchpointSetCommandP9SMriState+0x58>
     b66:	f7ff fd91 	bl	68c <_ZL25GetFPBCodeComparatorCountv>
     b6a:	4a10      	ldr	r2, [pc, #64]	; (bac <_ZL36HandleBreakpointWatchpointSetCommandP9SMriState+0x74>)
     b6c:	462b      	mov	r3, r5
     b6e:	e005      	b.n	b7c <_ZL36HandleBreakpointWatchpointSetCommandP9SMriState+0x44>
     b70:	f852 1b04 	ldr.w	r1, [r2], #4
     b74:	f011 0f01 	tst.w	r1, #1
     b78:	d004      	beq.n	b84 <_ZL36HandleBreakpointWatchpointSetCommandP9SMriState+0x4c>
     b7a:	3301      	adds	r3, #1
     b7c:	4283      	cmp	r3, r0
     b7e:	4615      	mov	r5, r2
     b80:	d1f6      	bne.n	b70 <_ZL36HandleBreakpointWatchpointSetCommandP9SMriState+0x38>
     b82:	e00e      	b.n	ba2 <_ZL36HandleBreakpointWatchpointSetCommandP9SMriState+0x6a>
     b84:	b16d      	cbz	r5, ba2 <_ZL36HandleBreakpointWatchpointSetCommandP9SMriState+0x6a>
     b86:	4638      	mov	r0, r7
     b88:	4631      	mov	r1, r6
     b8a:	f7ff fd8f 	bl	6ac <_ZL27CalculateFPBComparatorValueml>
     b8e:	6028      	str	r0, [r5, #0]
     b90:	4620      	mov	r0, r4
     b92:	4907      	ldr	r1, [pc, #28]	; (bb0 <_ZL36HandleBreakpointWatchpointSetCommandP9SMriState+0x78>)
     b94:	e007      	b.n	ba6 <_ZL36HandleBreakpointWatchpointSetCommandP9SMriState+0x6e>
     b96:	4620      	mov	r0, r4
     b98:	f7ff ff0b 	bl	9b2 <_ZL37PrepareEmptyResponseForUnknownCommandP9SMriState>
     b9c:	2000      	movs	r0, #0
     b9e:	b005      	add	sp, #20
     ba0:	bdf0      	pop	{r4, r5, r6, r7, pc}
     ba2:	4904      	ldr	r1, [pc, #16]	; (bb4 <_ZL36HandleBreakpointWatchpointSetCommandP9SMriState+0x7c>)
     ba4:	4620      	mov	r0, r4
     ba6:	f7ff fe3f 	bl	828 <_ZL19SBuffer_WriteStringP7SBufferPKc>
     baa:	e7f7      	b.n	b9c <_ZL36HandleBreakpointWatchpointSetCommandP9SMriState+0x64>
     bac:	e0002008 	.word	0xe0002008
     bb0:	0000f0c8 	.word	0x0000f0c8
     bb4:	0000f0d3 	.word	0x0000f0d3

00000bb8 <_ZL39HandleBreakpointWatchpointRemoveCommandP9SMriState>:
     bb8:	b51f      	push	{r0, r1, r2, r3, r4, lr}
     bba:	a901      	add	r1, sp, #4
     bbc:	4604      	mov	r4, r0
     bbe:	f7ff ff81 	bl	ac4 <_ZL41ParseBreakpointWatchpointCommandArgumentsP9SMriStateP30SBreakpointWatchpointArguments>
     bc2:	b190      	cbz	r0, bea <_ZL39HandleBreakpointWatchpointRemoveCommandP9SMriState+0x32>
     bc4:	f89d 300c 	ldrb.w	r3, [sp, #12]
     bc8:	2b31      	cmp	r3, #49	; 0x31
     bca:	d10b      	bne.n	be4 <_ZL39HandleBreakpointWatchpointRemoveCommandP9SMriState+0x2c>
     bcc:	9801      	ldr	r0, [sp, #4]
     bce:	9902      	ldr	r1, [sp, #8]
     bd0:	f7ff fd8e 	bl	6f0 <_ZL27FindFPBBreakpointComparatorml>
     bd4:	b108      	cbz	r0, bda <_ZL39HandleBreakpointWatchpointRemoveCommandP9SMriState+0x22>
     bd6:	f7ff fd65 	bl	6a4 <_ZL18ClearFPBComparatorPm>
     bda:	4620      	mov	r0, r4
     bdc:	4904      	ldr	r1, [pc, #16]	; (bf0 <_ZL39HandleBreakpointWatchpointRemoveCommandP9SMriState+0x38>)
     bde:	f7ff fe65 	bl	8ac <_ZL31SMriState_PrepareStringResponseP9SMriStatePKc>
     be2:	e002      	b.n	bea <_ZL39HandleBreakpointWatchpointRemoveCommandP9SMriState+0x32>
     be4:	4620      	mov	r0, r4
     be6:	f7ff fee4 	bl	9b2 <_ZL37PrepareEmptyResponseForUnknownCommandP9SMriState>
     bea:	2000      	movs	r0, #0
     bec:	b004      	add	sp, #16
     bee:	bd10      	pop	{r4, pc}
     bf0:	0000f0c8 	.word	0x0000f0c8

00000bf4 <_ZL36GetCurrentlyExecutingExceptionNumberv>:
     bf4:	b508      	push	{r3, lr}
     bf6:	f000 fb75 	bl	12e4 <MriGetIPSR>
     bfa:	b2c0      	uxtb	r0, r0
     bfc:	bd08      	pop	{r3, pc}

00000bfe <_ZL21SBuffer_MatchesStringP7SBufferPKcj>:
     bfe:	e92d 41f0 	stmdb	sp!, {r4, r5, r6, r7, r8, lr}
     c02:	4614      	mov	r4, r2
     c04:	4606      	mov	r6, r0
     c06:	4688      	mov	r8, r1
     c08:	f7ff fda8 	bl	75c <_ZL17SBuffer_BytesLeftP7SBuffer>
     c0c:	42a0      	cmp	r0, r4
     c0e:	4607      	mov	r7, r0
     c10:	d310      	bcc.n	c34 <_ZL21SBuffer_MatchesStringP7SBufferPKcj+0x36>
     c12:	68b5      	ldr	r5, [r6, #8]
     c14:	4641      	mov	r1, r8
     c16:	4628      	mov	r0, r5
     c18:	4622      	mov	r2, r4
     c1a:	f006 fac7 	bl	71ac <strncmp>
     c1e:	b960      	cbnz	r0, c3a <_ZL21SBuffer_MatchesStringP7SBufferPKcj+0x3c>
     c20:	42a7      	cmp	r7, r4
     c22:	d002      	beq.n	c2a <_ZL21SBuffer_MatchesStringP7SBufferPKcj+0x2c>
     c24:	5d2b      	ldrb	r3, [r5, r4]
     c26:	2b3a      	cmp	r3, #58	; 0x3a
     c28:	d108      	bne.n	c3c <_ZL21SBuffer_MatchesStringP7SBufferPKcj+0x3e>
     c2a:	192c      	adds	r4, r5, r4
     c2c:	60b4      	str	r4, [r6, #8]
     c2e:	2001      	movs	r0, #1
     c30:	e8bd 81f0 	ldmia.w	sp!, {r4, r5, r6, r7, r8, pc}
     c34:	2000      	movs	r0, #0
     c36:	e8bd 81f0 	ldmia.w	sp!, {r4, r5, r6, r7, r8, pc}
     c3a:	2000      	movs	r0, #0
     c3c:	e8bd 81f0 	ldmia.w	sp!, {r4, r5, r6, r7, r8, pc}

00000c40 <_ZL21HandleContinueCommandP9SMriState>:
     c40:	b537      	push	{r0, r1, r2, r4, r5, lr}
     c42:	4c0a      	ldr	r4, [pc, #40]	; (c6c <_ZL21HandleContinueCommandP9SMriState+0x2c>)
     c44:	6902      	ldr	r2, [r0, #16]
     c46:	6be3      	ldr	r3, [r4, #60]	; 0x3c
     c48:	4605      	mov	r5, r0
     c4a:	4293      	cmp	r3, r2
     c4c:	d105      	bne.n	c5a <_ZL21HandleContinueCommandP9SMriState+0x1a>
     c4e:	881b      	ldrh	r3, [r3, #0]
     c50:	f5b3 4f3e 	cmp.w	r3, #48640	; 0xbe00
     c54:	d101      	bne.n	c5a <_ZL21HandleContinueCommandP9SMriState+0x1a>
     c56:	f7ff fe35 	bl	8c4 <_ZL24AdvanceToNextInstructionv>
     c5a:	4628      	mov	r0, r5
     c5c:	a901      	add	r1, sp, #4
     c5e:	f7ff fdf1 	bl	844 <_ZL25SBuffer_ReadUIntegerAsHexP7SBufferPj>
     c62:	b108      	cbz	r0, c68 <_ZL21HandleContinueCommandP9SMriState+0x28>
     c64:	9b01      	ldr	r3, [sp, #4]
     c66:	63e3      	str	r3, [r4, #60]	; 0x3c
     c68:	2003      	movs	r0, #3
     c6a:	bd3e      	pop	{r1, r2, r3, r4, r5, pc}
     c6c:	1000086c 	.word	0x1000086c

00000c70 <_ZL23HandleSingleStepCommandP9SMriState>:
     c70:	b508      	push	{r3, lr}
     c72:	f7ff ffe5 	bl	c40 <_ZL21HandleContinueCommandP9SMriState>
     c76:	4b03      	ldr	r3, [pc, #12]	; (c84 <_ZL23HandleSingleStepCommandP9SMriState+0x14>)
     c78:	2003      	movs	r0, #3
     c7a:	68da      	ldr	r2, [r3, #12]
     c7c:	f442 2280 	orr.w	r2, r2, #262144	; 0x40000
     c80:	60da      	str	r2, [r3, #12]
     c82:	bd08      	pop	{r3, pc}
     c84:	e000edf0 	.word	0xe000edf0

00000c88 <_ZL27SMriState_PrepareForRestartP9SMriState.clone.4>:
     c88:	4b01      	ldr	r3, [pc, #4]	; (c90 <_ZL27SMriState_PrepareForRestartP9SMriState.clone.4+0x8>)
     c8a:	6058      	str	r0, [r3, #4]
     c8c:	f7ff be32 	b.w	8f4 <_ZL23ClearDebuggerActiveFlagv>
     c90:	e000ed90 	.word	0xe000ed90

00000c94 <NVIC_SetPriority.clone.7>:
     c94:	2800      	cmp	r0, #0
     c96:	da06      	bge.n	ca6 <NVIC_SetPriority.clone.7+0x12>
     c98:	4b06      	ldr	r3, [pc, #24]	; (cb4 <NVIC_SetPriority.clone.7+0x20>)
     c9a:	f000 000f 	and.w	r0, r0, #15
     c9e:	18c3      	adds	r3, r0, r3
     ca0:	2200      	movs	r2, #0
     ca2:	761a      	strb	r2, [r3, #24]
     ca4:	4770      	bx	lr
     ca6:	4b04      	ldr	r3, [pc, #16]	; (cb8 <NVIC_SetPriority.clone.7+0x24>)
     ca8:	2200      	movs	r2, #0
     caa:	18c3      	adds	r3, r0, r3
     cac:	f883 2300 	strb.w	r2, [r3, #768]	; 0x300
     cb0:	4770      	bx	lr
     cb2:	bf00      	nop
     cb4:	e000ecfc 	.word	0xe000ecfc
     cb8:	e000e100 	.word	0xe000e100

00000cbc <_ZL18HandleQueryCommandP9SMriState>:
     cbc:	b573      	push	{r0, r1, r4, r5, r6, lr}
     cbe:	2209      	movs	r2, #9
     cc0:	4948      	ldr	r1, [pc, #288]	; (de4 <_ZL18HandleQueryCommandP9SMriState+0x128>)
     cc2:	4604      	mov	r4, r0
     cc4:	f7ff ff9b 	bl	bfe <_ZL21SBuffer_MatchesStringP7SBufferPKcj>
     cc8:	b1d8      	cbz	r0, d02 <_ZL18HandleQueryCommandP9SMriState+0x46>
     cca:	4620      	mov	r0, r4
     ccc:	f7ff fde8 	bl	8a0 <_ZL20SMriState_InitBufferP9SMriState>
     cd0:	4620      	mov	r0, r4
     cd2:	4945      	ldr	r1, [pc, #276]	; (de8 <_ZL18HandleQueryCommandP9SMriState+0x12c>)
     cd4:	f7ff fda8 	bl	828 <_ZL19SBuffer_WriteStringP7SBufferPKc>
     cd8:	23ab      	movs	r3, #171	; 0xab
     cda:	9301      	str	r3, [sp, #4]
     cdc:	2503      	movs	r5, #3
     cde:	3bab      	subs	r3, #171	; 0xab
     ce0:	aa01      	add	r2, sp, #4
     ce2:	5d51      	ldrb	r1, [r2, r5]
     ce4:	b903      	cbnz	r3, ce8 <_ZL18HandleQueryCommandP9SMriState+0x2c>
     ce6:	b119      	cbz	r1, cf0 <_ZL18HandleQueryCommandP9SMriState+0x34>
     ce8:	4620      	mov	r0, r4
     cea:	f7ff fd61 	bl	7b0 <_ZL22SBuffer_WriteByteAsHexP7SBufferh>
     cee:	2301      	movs	r3, #1
     cf0:	3d01      	subs	r5, #1
     cf2:	d2f5      	bcs.n	ce0 <_ZL18HandleQueryCommandP9SMriState+0x24>
     cf4:	2b00      	cmp	r3, #0
     cf6:	d16d      	bne.n	dd4 <_ZL18HandleQueryCommandP9SMriState+0x118>
     cf8:	4620      	mov	r0, r4
     cfa:	4619      	mov	r1, r3
     cfc:	f7ff fd58 	bl	7b0 <_ZL22SBuffer_WriteByteAsHexP7SBufferh>
     d00:	e068      	b.n	dd4 <_ZL18HandleQueryCommandP9SMriState+0x118>
     d02:	4620      	mov	r0, r4
     d04:	4939      	ldr	r1, [pc, #228]	; (dec <_ZL18HandleQueryCommandP9SMriState+0x130>)
     d06:	2204      	movs	r2, #4
     d08:	f7ff ff79 	bl	bfe <_ZL21SBuffer_MatchesStringP7SBufferPKcj>
     d0c:	2800      	cmp	r0, #0
     d0e:	d05e      	beq.n	dce <_ZL18HandleQueryCommandP9SMriState+0x112>
     d10:	4620      	mov	r0, r4
     d12:	213a      	movs	r1, #58	; 0x3a
     d14:	f7ff fdb6 	bl	884 <_ZL25SBuffer_IsNextCharEqualToP7SBufferc>
     d18:	b358      	cbz	r0, d72 <_ZL18HandleQueryCommandP9SMriState+0xb6>
     d1a:	4620      	mov	r0, r4
     d1c:	4934      	ldr	r1, [pc, #208]	; (df0 <_ZL18HandleQueryCommandP9SMriState+0x134>)
     d1e:	220a      	movs	r2, #10
     d20:	f7ff ff6d 	bl	bfe <_ZL21SBuffer_MatchesStringP7SBufferPKcj>
     d24:	2800      	cmp	r0, #0
     d26:	d052      	beq.n	dce <_ZL18HandleQueryCommandP9SMriState+0x112>
     d28:	4620      	mov	r0, r4
     d2a:	213a      	movs	r1, #58	; 0x3a
     d2c:	f7ff fdaa 	bl	884 <_ZL25SBuffer_IsNextCharEqualToP7SBufferc>
     d30:	b1f8      	cbz	r0, d72 <_ZL18HandleQueryCommandP9SMriState+0xb6>
     d32:	4620      	mov	r0, r4
     d34:	492f      	ldr	r1, [pc, #188]	; (df4 <_ZL18HandleQueryCommandP9SMriState+0x138>)
     d36:	2204      	movs	r2, #4
     d38:	f7ff ff61 	bl	bfe <_ZL21SBuffer_MatchesStringP7SBufferPKcj>
     d3c:	b1c8      	cbz	r0, d72 <_ZL18HandleQueryCommandP9SMriState+0xb6>
     d3e:	4620      	mov	r0, r4
     d40:	213a      	movs	r1, #58	; 0x3a
     d42:	f7ff fd9f 	bl	884 <_ZL25SBuffer_IsNextCharEqualToP7SBufferc>
     d46:	b1a0      	cbz	r0, d72 <_ZL18HandleQueryCommandP9SMriState+0xb6>
     d48:	4620      	mov	r0, r4
     d4a:	213a      	movs	r1, #58	; 0x3a
     d4c:	f7ff fd9a 	bl	884 <_ZL25SBuffer_IsNextCharEqualToP7SBufferc>
     d50:	b178      	cbz	r0, d72 <_ZL18HandleQueryCommandP9SMriState+0xb6>
     d52:	4620      	mov	r0, r4
     d54:	a901      	add	r1, sp, #4
     d56:	f7ff fd75 	bl	844 <_ZL25SBuffer_ReadUIntegerAsHexP7SBufferPj>
     d5a:	b150      	cbz	r0, d72 <_ZL18HandleQueryCommandP9SMriState+0xb6>
     d5c:	4620      	mov	r0, r4
     d5e:	212c      	movs	r1, #44	; 0x2c
     d60:	f7ff fd90 	bl	884 <_ZL25SBuffer_IsNextCharEqualToP7SBufferc>
     d64:	b128      	cbz	r0, d72 <_ZL18HandleQueryCommandP9SMriState+0xb6>
     d66:	4620      	mov	r0, r4
     d68:	4669      	mov	r1, sp
     d6a:	f7ff fd6b 	bl	844 <_ZL25SBuffer_ReadUIntegerAsHexP7SBufferPj>
     d6e:	2800      	cmp	r0, #0
     d70:	d132      	bne.n	dd8 <_ZL18HandleQueryCommandP9SMriState+0x11c>
     d72:	4620      	mov	r0, r4
     d74:	4920      	ldr	r1, [pc, #128]	; (df8 <_ZL18HandleQueryCommandP9SMriState+0x13c>)
     d76:	f7ff fd99 	bl	8ac <_ZL31SMriState_PrepareStringResponseP9SMriStatePKc>
     d7a:	e02b      	b.n	dd4 <_ZL18HandleQueryCommandP9SMriState+0x118>
     d7c:	2500      	movs	r5, #0
     d7e:	9500      	str	r5, [sp, #0]
     d80:	266c      	movs	r6, #108	; 0x6c
     d82:	e003      	b.n	d8c <_ZL18HandleQueryCommandP9SMriState+0xd0>
     d84:	f5c5 75fc 	rsb	r5, r5, #504	; 0x1f8
     d88:	3503      	adds	r5, #3
     d8a:	266d      	movs	r6, #109	; 0x6d
     d8c:	4620      	mov	r0, r4
     d8e:	f7ff fd87 	bl	8a0 <_ZL20SMriState_InitBufferP9SMriState>
     d92:	4620      	mov	r0, r4
     d94:	f7ff fce2 	bl	75c <_ZL17SBuffer_BytesLeftP7SBuffer>
     d98:	9b00      	ldr	r3, [sp, #0]
     d9a:	4283      	cmp	r3, r0
     d9c:	bf88      	it	hi
     d9e:	9000      	strhi	r0, [sp, #0]
     da0:	9b00      	ldr	r3, [sp, #0]
     da2:	4620      	mov	r0, r4
     da4:	42ab      	cmp	r3, r5
     da6:	bf84      	itt	hi
     da8:	9500      	strhi	r5, [sp, #0]
     daa:	266c      	movhi	r6, #108	; 0x6c
     dac:	4631      	mov	r1, r6
     dae:	f7ff fcdf 	bl	770 <_ZL17SBuffer_WriteCharP7SBufferc>
     db2:	4e12      	ldr	r6, [pc, #72]	; (dfc <_ZL18HandleQueryCommandP9SMriState+0x140>)
     db4:	9b01      	ldr	r3, [sp, #4]
     db6:	9d00      	ldr	r5, [sp, #0]
     db8:	18f6      	adds	r6, r6, r3
     dba:	e005      	b.n	dc8 <_ZL18HandleQueryCommandP9SMriState+0x10c>
     dbc:	4620      	mov	r0, r4
     dbe:	f816 1b01 	ldrb.w	r1, [r6], #1
     dc2:	f7ff fcd5 	bl	770 <_ZL17SBuffer_WriteCharP7SBufferc>
     dc6:	b128      	cbz	r0, dd4 <_ZL18HandleQueryCommandP9SMriState+0x118>
     dc8:	3d01      	subs	r5, #1
     dca:	d2f7      	bcs.n	dbc <_ZL18HandleQueryCommandP9SMriState+0x100>
     dcc:	e002      	b.n	dd4 <_ZL18HandleQueryCommandP9SMriState+0x118>
     dce:	4620      	mov	r0, r4
     dd0:	f7ff fdef 	bl	9b2 <_ZL37PrepareEmptyResponseForUnknownCommandP9SMriState>
     dd4:	2000      	movs	r0, #0
     dd6:	bd7c      	pop	{r2, r3, r4, r5, r6, pc}
     dd8:	9d01      	ldr	r5, [sp, #4]
     dda:	f5b5 7ffd 	cmp.w	r5, #506	; 0x1fa
     dde:	d8cd      	bhi.n	d7c <_ZL18HandleQueryCommandP9SMriState+0xc0>
     de0:	e7d0      	b.n	d84 <_ZL18HandleQueryCommandP9SMriState+0xc8>
     de2:	bf00      	nop
     de4:	0000f13c 	.word	0x0000f13c
     de8:	0000f150 	.word	0x0000f150
     dec:	0000f14b 	.word	0x0000f14b
     df0:	0000f038 	.word	0x0000f038
     df4:	0000f146 	.word	0x0000f146
     df8:	0000f0cf 	.word	0x0000f0cf
     dfc:	0000ee3c 	.word	0x0000ee3c

00000e00 <_ZN4mbed6Stream4putcEi>:
     e00:	b570      	push	{r4, r5, r6, lr}
     e02:	4604      	mov	r4, r0
     e04:	6940      	ldr	r0, [r0, #20]
     e06:	460d      	mov	r5, r1
     e08:	f004 fc38 	bl	567c <fflush>
     e0c:	6961      	ldr	r1, [r4, #20]
     e0e:	4628      	mov	r0, r5
     e10:	e8bd 4070 	ldmia.w	sp!, {r4, r5, r6, lr}
     e14:	f004 bda4 	b.w	5960 <fputc>

00000e18 <_ZN4mbed6Stream4getcEv>:
     e18:	b510      	push	{r4, lr}
     e1a:	4604      	mov	r4, r0
     e1c:	6940      	ldr	r0, [r0, #20]
     e1e:	f004 fc2d 	bl	567c <fflush>
     e22:	6960      	ldr	r0, [r4, #20]
     e24:	e8bd 4010 	ldmia.w	sp!, {r4, lr}
     e28:	f004 bc66 	b.w	56f8 <fgetc>

00000e2c <_Z17MriTargetSendChari>:
     e2c:	4601      	mov	r1, r0
     e2e:	4801      	ldr	r0, [pc, #4]	; (e34 <_Z17MriTargetSendChari+0x8>)
     e30:	f7ff bfe6 	b.w	e00 <_ZN4mbed6Stream4putcEi>
     e34:	10000914 	.word	0x10000914

00000e38 <_Z20MriTargetReceiveCharv>:
     e38:	4801      	ldr	r0, [pc, #4]	; (e40 <_Z20MriTargetReceiveCharv+0x8>)
     e3a:	f7ff bfed 	b.w	e18 <_ZN4mbed6Stream4getcEv>
     e3e:	bf00      	nop
     e40:	10000914 	.word	0x10000914

00000e44 <_ZL25SMriState_SendPacketToGDBP9SMriState>:
     e44:	68c3      	ldr	r3, [r0, #12]
     e46:	e92d 41f0 	stmdb	sp!, {r4, r5, r6, r7, r8, lr}
     e4a:	4604      	mov	r4, r0
     e4c:	b12b      	cbz	r3, e5a <_ZL25SMriState_SendPacketToGDBP9SMriState+0x16>
     e4e:	f7ff fd27 	bl	8a0 <_ZL20SMriState_InitBufferP9SMriState>
     e52:	4620      	mov	r0, r4
     e54:	4913      	ldr	r1, [pc, #76]	; (ea4 <_ZL25SMriState_SendPacketToGDBP9SMriState+0x60>)
     e56:	f7ff fce7 	bl	828 <_ZL19SBuffer_WriteStringP7SBufferPKc>
     e5a:	f8d4 8008 	ldr.w	r8, [r4, #8]
     e5e:	2024      	movs	r0, #36	; 0x24
     e60:	6826      	ldr	r6, [r4, #0]
     e62:	2500      	movs	r5, #0
     e64:	f7ff ffe2 	bl	e2c <_Z17MriTargetSendChari>
     e68:	e006      	b.n	e78 <_ZL25SMriState_SendPacketToGDBP9SMriState+0x34>
     e6a:	f816 7b01 	ldrb.w	r7, [r6], #1
     e6e:	4638      	mov	r0, r7
     e70:	f7ff ffdc 	bl	e2c <_Z17MriTargetSendChari>
     e74:	19ed      	adds	r5, r5, r7
     e76:	b2ed      	uxtb	r5, r5
     e78:	4546      	cmp	r6, r8
     e7a:	d3f6      	bcc.n	e6a <_ZL25SMriState_SendPacketToGDBP9SMriState+0x26>
     e7c:	2023      	movs	r0, #35	; 0x23
     e7e:	4e0a      	ldr	r6, [pc, #40]	; (ea8 <_ZL25SMriState_SendPacketToGDBP9SMriState+0x64>)
     e80:	f7ff ffd4 	bl	e2c <_Z17MriTargetSendChari>
     e84:	092b      	lsrs	r3, r5, #4
     e86:	5cf0      	ldrb	r0, [r6, r3]
     e88:	f005 050f 	and.w	r5, r5, #15
     e8c:	f7ff ffce 	bl	e2c <_Z17MriTargetSendChari>
     e90:	5d70      	ldrb	r0, [r6, r5]
     e92:	f7ff ffcb 	bl	e2c <_Z17MriTargetSendChari>
     e96:	f7ff ffcf 	bl	e38 <_Z20MriTargetReceiveCharv>
     e9a:	282b      	cmp	r0, #43	; 0x2b
     e9c:	d1df      	bne.n	e5e <_ZL25SMriState_SendPacketToGDBP9SMriState+0x1a>
     e9e:	e8bd 81f0 	ldmia.w	sp!, {r4, r5, r6, r7, r8, pc}
     ea2:	bf00      	nop
     ea4:	0000f0c4 	.word	0x0000f0c4
     ea8:	0000f043 	.word	0x0000f043

00000eac <_ZL19Send_T_StopResponseP9SMriState>:
     eac:	b538      	push	{r3, r4, r5, lr}
     eae:	4604      	mov	r4, r0
     eb0:	4d11      	ldr	r5, [pc, #68]	; (ef8 <_ZL19Send_T_StopResponseP9SMriState+0x4c>)
     eb2:	f7ff fcf5 	bl	8a0 <_ZL20SMriState_InitBufferP9SMriState>
     eb6:	2154      	movs	r1, #84	; 0x54
     eb8:	4620      	mov	r0, r4
     eba:	f7ff fc59 	bl	770 <_ZL17SBuffer_WriteCharP7SBufferc>
     ebe:	7f21      	ldrb	r1, [r4, #28]
     ec0:	4620      	mov	r0, r4
     ec2:	f7ff fc75 	bl	7b0 <_ZL22SBuffer_WriteByteAsHexP7SBufferh>
     ec6:	4620      	mov	r0, r4
     ec8:	210c      	movs	r1, #12
     eca:	6b2a      	ldr	r2, [r5, #48]	; 0x30
     ecc:	f7ff fd5c 	bl	988 <_ZL26SendRegisterFor_T_ResponseP7SBufferhj>
     ed0:	4620      	mov	r0, r4
     ed2:	210d      	movs	r1, #13
     ed4:	6b6a      	ldr	r2, [r5, #52]	; 0x34
     ed6:	f7ff fd57 	bl	988 <_ZL26SendRegisterFor_T_ResponseP7SBufferhj>
     eda:	4620      	mov	r0, r4
     edc:	210e      	movs	r1, #14
     ede:	6baa      	ldr	r2, [r5, #56]	; 0x38
     ee0:	f7ff fd52 	bl	988 <_ZL26SendRegisterFor_T_ResponseP7SBufferhj>
     ee4:	4620      	mov	r0, r4
     ee6:	210f      	movs	r1, #15
     ee8:	6bea      	ldr	r2, [r5, #60]	; 0x3c
     eea:	f7ff fd4d 	bl	988 <_ZL26SendRegisterFor_T_ResponseP7SBufferhj>
     eee:	4620      	mov	r0, r4
     ef0:	f7ff ffa8 	bl	e44 <_ZL25SMriState_SendPacketToGDBP9SMriState>
     ef4:	2002      	movs	r0, #2
     ef6:	bd38      	pop	{r3, r4, r5, pc}
     ef8:	1000086c 	.word	0x1000086c

00000efc <_Z16ControlCDetectedv>:
     efc:	b508      	push	{r3, lr}
     efe:	e005      	b.n	f0c <_Z16ControlCDetectedv+0x10>
     f00:	4806      	ldr	r0, [pc, #24]	; (f1c <_Z16ControlCDetectedv+0x20>)
     f02:	f7ff ff89 	bl	e18 <_ZN4mbed6Stream4getcEv>
     f06:	b2c0      	uxtb	r0, r0
     f08:	2803      	cmp	r0, #3
     f0a:	d005      	beq.n	f18 <_Z16ControlCDetectedv+0x1c>
     f0c:	4803      	ldr	r0, [pc, #12]	; (f1c <_Z16ControlCDetectedv+0x20>)
     f0e:	f00f fe78 	bl	10c02 <_ZN4mbed6Serial8readableEv>
     f12:	2800      	cmp	r0, #0
     f14:	d1f4      	bne.n	f00 <_Z16ControlCDetectedv+0x4>
     f16:	bd08      	pop	{r3, pc}
     f18:	2001      	movs	r0, #1
     f1a:	bd08      	pop	{r3, pc}
     f1c:	10000914 	.word	0x10000914

00000f20 <MriInit>:
     f20:	b570      	push	{r4, r5, r6, lr}
     f22:	f7ff fb9b 	bl	65c <_ZL18IsDebuggerAttachedv>
     f26:	b1d8      	cbz	r0, f60 <MriInit+0x40>
     f28:	4838      	ldr	r0, [pc, #224]	; (100c <MriInit+0xec>)
     f2a:	f010 fd1f 	bl	1196c <semihost_uid>
     f2e:	f000 f9cd 	bl	12cc <MriDisableMbed>
     f32:	f241 3488 	movw	r4, #5000	; 0x1388
     f36:	3c01      	subs	r4, #1
     f38:	d303      	bcc.n	f42 <MriInit+0x22>
     f3a:	f7ff fb8f 	bl	65c <_ZL18IsDebuggerAttachedv>
     f3e:	2800      	cmp	r0, #0
     f40:	d1f9      	bne.n	f36 <MriInit+0x16>
     f42:	f7ff fb8b 	bl	65c <_ZL18IsDebuggerAttachedv>
     f46:	4c32      	ldr	r4, [pc, #200]	; (1010 <MriInit+0xf0>)
     f48:	b130      	cbz	r0, f58 <MriInit+0x38>
     f4a:	4832      	ldr	r0, [pc, #200]	; (1014 <MriInit+0xf4>)
     f4c:	f005 fd3c 	bl	69c8 <puts>
     f50:	6823      	ldr	r3, [r4, #0]
     f52:	f043 0304 	orr.w	r3, r3, #4
     f56:	e002      	b.n	f5e <MriInit+0x3e>
     f58:	6823      	ldr	r3, [r4, #0]
     f5a:	f043 0308 	orr.w	r3, r3, #8
     f5e:	6023      	str	r3, [r4, #0]
     f60:	4b2b      	ldr	r3, [pc, #172]	; (1010 <MriInit+0xf0>)
     f62:	681b      	ldr	r3, [r3, #0]
     f64:	f013 0304 	ands.w	r3, r3, #4
     f68:	d004      	beq.n	f74 <MriInit+0x54>
     f6a:	482b      	ldr	r0, [pc, #172]	; (1018 <MriInit+0xf8>)
     f6c:	e8bd 4070 	ldmia.w	sp!, {r4, r5, r6, lr}
     f70:	f005 bd2a 	b.w	69c8 <puts>
     f74:	4a29      	ldr	r2, [pc, #164]	; (101c <MriInit+0xfc>)
     f76:	6810      	ldr	r0, [r2, #0]
     f78:	3220      	adds	r2, #32
     f7a:	0f00      	lsrs	r0, r0, #28
     f7c:	e00a      	b.n	f94 <MriInit+0x74>
     f7e:	2100      	movs	r1, #0
     f80:	6011      	str	r1, [r2, #0]
     f82:	6051      	str	r1, [r2, #4]
     f84:	6891      	ldr	r1, [r2, #8]
     f86:	3301      	adds	r3, #1
     f88:	f421 71d6 	bic.w	r1, r1, #428	; 0x1ac
     f8c:	f021 0103 	bic.w	r1, r1, #3
     f90:	6091      	str	r1, [r2, #8]
     f92:	3210      	adds	r2, #16
     f94:	4283      	cmp	r3, r0
     f96:	d1f2      	bne.n	f7e <MriInit+0x5e>
     f98:	f7ff fb78 	bl	68c <_ZL25GetFPBCodeComparatorCountv>
     f9c:	4b20      	ldr	r3, [pc, #128]	; (1020 <MriInit+0x100>)
     f9e:	4d21      	ldr	r5, [pc, #132]	; (1024 <MriInit+0x104>)
     fa0:	681e      	ldr	r6, [r3, #0]
     fa2:	2400      	movs	r4, #0
     fa4:	f406 6670 	and.w	r6, r6, #3840	; 0xf00
     fa8:	eb00 2616 	add.w	r6, r0, r6, lsr #8
     fac:	e004      	b.n	fb8 <MriInit+0x98>
     fae:	4628      	mov	r0, r5
     fb0:	f7ff fb78 	bl	6a4 <_ZL18ClearFPBComparatorPm>
     fb4:	3504      	adds	r5, #4
     fb6:	3401      	adds	r4, #1
     fb8:	42b4      	cmp	r4, r6
     fba:	d1f8      	bne.n	fae <MriInit+0x8e>
     fbc:	4b18      	ldr	r3, [pc, #96]	; (1020 <MriInit+0x100>)
     fbe:	681a      	ldr	r2, [r3, #0]
     fc0:	f042 0203 	orr.w	r2, r2, #3
     fc4:	601a      	str	r2, [r3, #0]
     fc6:	f7ff fb51 	bl	66c <_ZL17DisableSingleStepv>
     fca:	f7ff fb57 	bl	67c <_ZL19ClearMonitorPendingv>
     fce:	f06f 0003 	mvn.w	r0, #3
     fd2:	f7ff fe5f 	bl	c94 <NVIC_SetPriority.clone.7>
     fd6:	4b14      	ldr	r3, [pc, #80]	; (1028 <MriInit+0x108>)
     fd8:	4814      	ldr	r0, [pc, #80]	; (102c <MriInit+0x10c>)
     fda:	68da      	ldr	r2, [r3, #12]
     fdc:	f44f 31e1 	mov.w	r1, #115200	; 0x1c200
     fe0:	f442 3280 	orr.w	r2, r2, #65536	; 0x10000
     fe4:	60da      	str	r2, [r3, #12]
     fe6:	f00f fdff 	bl	10be8 <_ZN4mbed6Serial4baudEi>
     fea:	4b11      	ldr	r3, [pc, #68]	; (1030 <MriInit+0x110>)
     fec:	2201      	movs	r2, #1
     fee:	721a      	strb	r2, [r3, #8]
     ff0:	7b19      	ldrb	r1, [r3, #12]
     ff2:	7b18      	ldrb	r0, [r3, #12]
     ff4:	f000 007f 	and.w	r0, r0, #127	; 0x7f
     ff8:	7318      	strb	r0, [r3, #12]
     ffa:	605a      	str	r2, [r3, #4]
     ffc:	2005      	movs	r0, #5
     ffe:	7319      	strb	r1, [r3, #12]
    1000:	f7ff fe48 	bl	c94 <NVIC_SetPriority.clone.7>
    1004:	4b0b      	ldr	r3, [pc, #44]	; (1034 <MriInit+0x114>)
    1006:	2220      	movs	r2, #32
    1008:	601a      	str	r2, [r3, #0]
    100a:	bd70      	pop	{r4, r5, r6, pc}
    100c:	1000096c 	.word	0x1000096c
    1010:	100006f4 	.word	0x100006f4
    1014:	0000f0d7 	.word	0x0000f0d7
    1018:	0000f0ff 	.word	0x0000f0ff
    101c:	e0001000 	.word	0xe0001000
    1020:	e0002000 	.word	0xe0002000
    1024:	e0002008 	.word	0xe0002008
    1028:	e000edf0 	.word	0xe000edf0
    102c:	10000914 	.word	0x10000914
    1030:	4000c000 	.word	0x4000c000
    1034:	e000e100 	.word	0xe000e100

00001038 <MriDebugException>:
    1038:	b5f0      	push	{r4, r5, r6, r7, lr}
    103a:	4b8e      	ldr	r3, [pc, #568]	; (1274 <MriDebugException+0x23c>)
    103c:	b087      	sub	sp, #28
    103e:	681a      	ldr	r2, [r3, #0]
    1040:	f042 0201 	orr.w	r2, r2, #1
    1044:	601a      	str	r2, [r3, #0]
    1046:	f7ff fdd5 	bl	bf4 <_ZL36GetCurrentlyExecutingExceptionNumberv>
    104a:	2815      	cmp	r0, #21
    104c:	f040 80ce 	bne.w	11ec <MriDebugException+0x1b4>
    1050:	f7ff ff54 	bl	efc <_Z16ControlCDetectedv>
    1054:	2800      	cmp	r0, #0
    1056:	f040 80c9 	bne.w	11ec <MriDebugException+0x1b4>
    105a:	f7ff fc4b 	bl	8f4 <_ZL23ClearDebuggerActiveFlagv>
    105e:	e107      	b.n	1270 <MriDebugException+0x238>
    1060:	230a      	movs	r3, #10
    1062:	e020      	b.n	10a6 <MriDebugException+0x6e>
    1064:	2304      	movs	r3, #4
    1066:	e01e      	b.n	10a6 <MriDebugException+0x6e>
    1068:	4b83      	ldr	r3, [pc, #524]	; (1278 <MriDebugException+0x240>)
    106a:	4a84      	ldr	r2, [pc, #528]	; (127c <MriDebugException+0x244>)
    106c:	6b19      	ldr	r1, [r3, #48]	; 0x30
    106e:	6813      	ldr	r3, [r2, #0]
    1070:	420b      	tst	r3, r1
    1072:	d10a      	bne.n	108a <MriDebugException+0x52>
    1074:	6893      	ldr	r3, [r2, #8]
    1076:	420b      	tst	r3, r1
    1078:	d109      	bne.n	108e <MriDebugException+0x56>
    107a:	6913      	ldr	r3, [r2, #16]
    107c:	420b      	tst	r3, r1
    107e:	d108      	bne.n	1092 <MriDebugException+0x5a>
    1080:	6993      	ldr	r3, [r2, #24]
    1082:	420b      	tst	r3, r1
    1084:	d00c      	beq.n	10a0 <MriDebugException+0x68>
    1086:	2103      	movs	r1, #3
    1088:	e004      	b.n	1094 <MriDebugException+0x5c>
    108a:	2100      	movs	r1, #0
    108c:	e002      	b.n	1094 <MriDebugException+0x5c>
    108e:	2101      	movs	r1, #1
    1090:	e000      	b.n	1094 <MriDebugException+0x5c>
    1092:	2102      	movs	r1, #2
    1094:	4878      	ldr	r0, [pc, #480]	; (1278 <MriDebugException+0x240>)
    1096:	eb02 02c1 	add.w	r2, r2, r1, lsl #3
    109a:	6303      	str	r3, [r0, #48]	; 0x30
    109c:	7913      	ldrb	r3, [r2, #4]
    109e:	e002      	b.n	10a6 <MriDebugException+0x6e>
    10a0:	2311      	movs	r3, #17
    10a2:	e000      	b.n	10a6 <MriDebugException+0x6e>
    10a4:	230b      	movs	r3, #11
    10a6:	4d76      	ldr	r5, [pc, #472]	; (1280 <MriDebugException+0x248>)
    10a8:	4c76      	ldr	r4, [pc, #472]	; (1284 <MriDebugException+0x24c>)
    10aa:	f8d5 20a4 	ldr.w	r2, [r5, #164]	; 0xa4
    10ae:	6be9      	ldr	r1, [r5, #60]	; 0x3c
    10b0:	f402 7200 	and.w	r2, r2, #512	; 0x200
    10b4:	6162      	str	r2, [r4, #20]
    10b6:	4a74      	ldr	r2, [pc, #464]	; (1288 <MriDebugException+0x250>)
    10b8:	2b05      	cmp	r3, #5
    10ba:	6850      	ldr	r0, [r2, #4]
    10bc:	61e3      	str	r3, [r4, #28]
    10be:	61a0      	str	r0, [r4, #24]
    10c0:	6850      	ldr	r0, [r2, #4]
    10c2:	6121      	str	r1, [r4, #16]
    10c4:	f020 0001 	bic.w	r0, r0, #1
    10c8:	6050      	str	r0, [r2, #4]
    10ca:	4626      	mov	r6, r4
    10cc:	f040 80cc 	bne.w	1268 <MriDebugException+0x230>
    10d0:	880a      	ldrh	r2, [r1, #0]
    10d2:	f64b 63ab 	movw	r3, #48811	; 0xbeab
    10d6:	429a      	cmp	r2, r3
    10d8:	f040 80c6 	bne.w	1268 <MriDebugException+0x230>
    10dc:	682a      	ldr	r2, [r5, #0]
    10de:	f240 1301 	movw	r3, #257	; 0x101
    10e2:	429a      	cmp	r2, r3
    10e4:	f040 80c0 	bne.w	1268 <MriDebugException+0x230>
    10e8:	686b      	ldr	r3, [r5, #4]
    10ea:	4968      	ldr	r1, [pc, #416]	; (128c <MriDebugException+0x254>)
    10ec:	685a      	ldr	r2, [r3, #4]
    10ee:	6818      	ldr	r0, [r3, #0]
    10f0:	2a24      	cmp	r2, #36	; 0x24
    10f2:	bf28      	it	cs
    10f4:	2224      	movcs	r2, #36	; 0x24
    10f6:	f005 fbad 	bl	6854 <memcpy>
    10fa:	f7ff fbe3 	bl	8c4 <_ZL24AdvanceToNextInstructionv>
    10fe:	2300      	movs	r3, #0
    1100:	602b      	str	r3, [r5, #0]
    1102:	69a0      	ldr	r0, [r4, #24]
    1104:	e06f      	b.n	11e6 <MriDebugException+0x1ae>
    1106:	2000      	movs	r0, #0
    1108:	e002      	b.n	1110 <MriDebugException+0xd8>
    110a:	f7ff fe95 	bl	e38 <_Z20MriTargetReceiveCharv>
    110e:	b2c0      	uxtb	r0, r0
    1110:	2824      	cmp	r0, #36	; 0x24
    1112:	d1fa      	bne.n	110a <MriDebugException+0xd2>
    1114:	f7ff fe90 	bl	e38 <_Z20MriTargetReceiveCharv>
    1118:	4f5d      	ldr	r7, [pc, #372]	; (1290 <MriDebugException+0x258>)
    111a:	b2c0      	uxtb	r0, r0
    111c:	f507 75a8 	add.w	r5, r7, #336	; 0x150
    1120:	2400      	movs	r4, #0
    1122:	2824      	cmp	r0, #36	; 0x24
    1124:	d00a      	beq.n	113c <MriDebugException+0x104>
    1126:	2823      	cmp	r0, #35	; 0x23
    1128:	d008      	beq.n	113c <MriDebugException+0x104>
    112a:	f807 0b01 	strb.w	r0, [r7], #1
    112e:	1824      	adds	r4, r4, r0
    1130:	f7ff fe82 	bl	e38 <_Z20MriTargetReceiveCharv>
    1134:	42af      	cmp	r7, r5
    1136:	b2e4      	uxtb	r4, r4
    1138:	b2c0      	uxtb	r0, r0
    113a:	d1f2      	bne.n	1122 <MriDebugException+0xea>
    113c:	2500      	movs	r5, #0
    113e:	2823      	cmp	r0, #35	; 0x23
    1140:	703d      	strb	r5, [r7, #0]
    1142:	d1e5      	bne.n	1110 <MriDebugException+0xd8>
    1144:	f7ff fe78 	bl	e38 <_Z20MriTargetReceiveCharv>
    1148:	f88d 0014 	strb.w	r0, [sp, #20]
    114c:	f7ff fe74 	bl	e38 <_Z20MriTargetReceiveCharv>
    1150:	2202      	movs	r2, #2
    1152:	f88d 0015 	strb.w	r0, [sp, #21]
    1156:	a905      	add	r1, sp, #20
    1158:	a801      	add	r0, sp, #4
    115a:	f7ff faf8 	bl	74e <_ZL12SBuffer_InitP7SBufferPcj>
    115e:	a801      	add	r0, sp, #4
    1160:	f10d 0116 	add.w	r1, sp, #22
    1164:	f7ff fb40 	bl	7e8 <_ZL21SBuffer_ReadByteAsHexP7SBufferPh>
    1168:	f89d 3016 	ldrb.w	r3, [sp, #22]
    116c:	42a3      	cmp	r3, r4
    116e:	d113      	bne.n	1198 <MriDebugException+0x160>
    1170:	202b      	movs	r0, #43	; 0x2b
    1172:	f7ff fe5b 	bl	e2c <_Z17MriTargetSendChari>
    1176:	4846      	ldr	r0, [pc, #280]	; (1290 <MriDebugException+0x258>)
    1178:	f006 f810 	bl	719c <strlen>
    117c:	4602      	mov	r2, r0
    117e:	4841      	ldr	r0, [pc, #260]	; (1284 <MriDebugException+0x24c>)
    1180:	f100 0120 	add.w	r1, r0, #32
    1184:	f7ff fae3 	bl	74e <_ZL12SBuffer_InitP7SBufferPcj>
    1188:	483e      	ldr	r0, [pc, #248]	; (1284 <MriDebugException+0x24c>)
    118a:	f10d 0117 	add.w	r1, sp, #23
    118e:	f7ff fafe 	bl	78e <_ZL16SBuffer_ReadCharP7SBufferPc>
    1192:	f89d 2017 	ldrb.w	r2, [sp, #23]
    1196:	e003      	b.n	11a0 <MriDebugException+0x168>
    1198:	202d      	movs	r0, #45	; 0x2d
    119a:	f7ff fe47 	bl	e2c <_Z17MriTargetSendChari>
    119e:	e7b2      	b.n	1106 <MriDebugException+0xce>
    11a0:	4b3c      	ldr	r3, [pc, #240]	; (1294 <MriDebugException+0x25c>)
    11a2:	eb03 01c5 	add.w	r1, r3, r5, lsl #3
    11a6:	7909      	ldrb	r1, [r1, #4]
    11a8:	4291      	cmp	r1, r2
    11aa:	d10a      	bne.n	11c2 <MriDebugException+0x18a>
    11ac:	f853 3035 	ldr.w	r3, [r3, r5, lsl #3]
    11b0:	4834      	ldr	r0, [pc, #208]	; (1284 <MriDebugException+0x24c>)
    11b2:	4798      	blx	r3
    11b4:	f010 0f02 	tst.w	r0, #2
    11b8:	4604      	mov	r4, r0
    11ba:	d007      	beq.n	11cc <MriDebugException+0x194>
    11bc:	f000 0401 	and.w	r4, r0, #1
    11c0:	e00e      	b.n	11e0 <MriDebugException+0x1a8>
    11c2:	3501      	adds	r5, #1
    11c4:	2d0a      	cmp	r5, #10
    11c6:	d1eb      	bne.n	11a0 <MriDebugException+0x168>
    11c8:	2400      	movs	r4, #0
    11ca:	e001      	b.n	11d0 <MriDebugException+0x198>
    11cc:	2d0a      	cmp	r5, #10
    11ce:	d102      	bne.n	11d6 <MriDebugException+0x19e>
    11d0:	482c      	ldr	r0, [pc, #176]	; (1284 <MriDebugException+0x24c>)
    11d2:	f7ff fbee 	bl	9b2 <_ZL37PrepareEmptyResponseForUnknownCommandP9SMriState>
    11d6:	482b      	ldr	r0, [pc, #172]	; (1284 <MriDebugException+0x24c>)
    11d8:	f7ff fe34 	bl	e44 <_ZL25SMriState_SendPacketToGDBP9SMriState>
    11dc:	f004 0401 	and.w	r4, r4, #1
    11e0:	2c00      	cmp	r4, #0
    11e2:	d090      	beq.n	1106 <MriDebugException+0xce>
    11e4:	69b0      	ldr	r0, [r6, #24]
    11e6:	f7ff fd4f 	bl	c88 <_ZL27SMriState_PrepareForRestartP9SMriState.clone.4>
    11ea:	e041      	b.n	1270 <MriDebugException+0x238>
    11ec:	f7ff fa3e 	bl	66c <_ZL17DisableSingleStepv>
    11f0:	f7ff fa44 	bl	67c <_ZL19ClearMonitorPendingv>
    11f4:	2100      	movs	r1, #0
    11f6:	f44f 72ba 	mov.w	r2, #372	; 0x174
    11fa:	4822      	ldr	r0, [pc, #136]	; (1284 <MriDebugException+0x24c>)
    11fc:	f005 fb4d 	bl	689a <memset>
    1200:	f7ff fcf8 	bl	bf4 <_ZL36GetCurrentlyExecutingExceptionNumberv>
    1204:	3802      	subs	r0, #2
    1206:	2813      	cmp	r0, #19
    1208:	f63f af4a 	bhi.w	10a0 <MriDebugException+0x68>
    120c:	a301      	add	r3, pc, #4	; (adr r3, 1214 <MriDebugException+0x1dc>)
    120e:	f853 f020 	ldr.w	pc, [r3, r0, lsl #2]
    1212:	bf00      	nop
    1214:	00001265 	.word	0x00001265
    1218:	000010a5 	.word	0x000010a5
    121c:	000010a5 	.word	0x000010a5
    1220:	00001061 	.word	0x00001061
    1224:	00001065 	.word	0x00001065
    1228:	000010a1 	.word	0x000010a1
    122c:	000010a1 	.word	0x000010a1
    1230:	000010a1 	.word	0x000010a1
    1234:	000010a1 	.word	0x000010a1
    1238:	000010a1 	.word	0x000010a1
    123c:	00001069 	.word	0x00001069
    1240:	000010a1 	.word	0x000010a1
    1244:	000010a1 	.word	0x000010a1
    1248:	000010a1 	.word	0x000010a1
    124c:	000010a1 	.word	0x000010a1
    1250:	000010a1 	.word	0x000010a1
    1254:	000010a1 	.word	0x000010a1
    1258:	000010a1 	.word	0x000010a1
    125c:	000010a1 	.word	0x000010a1
    1260:	00001265 	.word	0x00001265
    1264:	2302      	movs	r3, #2
    1266:	e71e      	b.n	10a6 <MriDebugException+0x6e>
    1268:	4806      	ldr	r0, [pc, #24]	; (1284 <MriDebugException+0x24c>)
    126a:	f7ff fe1f 	bl	eac <_ZL19Send_T_StopResponseP9SMriState>
    126e:	e74a      	b.n	1106 <MriDebugException+0xce>
    1270:	b007      	add	sp, #28
    1272:	bdf0      	pop	{r4, r5, r6, r7, pc}
    1274:	100006f4 	.word	0x100006f4
    1278:	e000ed00 	.word	0xe000ed00
    127c:	0000f0a4 	.word	0x0000f0a4
    1280:	1000086c 	.word	0x1000086c
    1284:	100006f8 	.word	0x100006f8
    1288:	e000ed90 	.word	0xe000ed90
    128c:	1000096c 	.word	0x1000096c
    1290:	10000718 	.word	0x10000718
    1294:	0000f054 	.word	0x0000f054

00001298 <_GLOBAL__I_g_MriContext>:
    1298:	b510      	push	{r4, lr}
    129a:	4c07      	ldr	r4, [pc, #28]	; (12b8 <_GLOBAL__I_g_MriContext+0x20>)
    129c:	4907      	ldr	r1, [pc, #28]	; (12bc <_GLOBAL__I_g_MriContext+0x24>)
    129e:	4620      	mov	r0, r4
    12a0:	4a07      	ldr	r2, [pc, #28]	; (12c0 <_GLOBAL__I_g_MriContext+0x28>)
    12a2:	2300      	movs	r3, #0
    12a4:	f00f fcb4 	bl	10c10 <_ZN4mbed6SerialC1E7PinNameS1_PKc>
    12a8:	4906      	ldr	r1, [pc, #24]	; (12c4 <_GLOBAL__I_g_MriContext+0x2c>)
    12aa:	4a07      	ldr	r2, [pc, #28]	; (12c8 <_GLOBAL__I_g_MriContext+0x30>)
    12ac:	4620      	mov	r0, r4
    12ae:	e8bd 4010 	ldmia.w	sp!, {r4, lr}
    12b2:	f000 b8bd 	b.w	1430 <__aeabi_atexit>
    12b6:	bf00      	nop
    12b8:	10000914 	.word	0x10000914
    12bc:	2009c002 	.word	0x2009c002
    12c0:	2009c003 	.word	0x2009c003
    12c4:	00010ca1 	.word	0x00010ca1
    12c8:	100000c4 	.word	0x100000c4

000012cc <MriDisableMbed>:
    12cc:	b082      	sub	sp, #8
    12ce:	a901      	add	r1, sp, #4
    12d0:	f240 1005 	movw	r0, #261	; 0x105
    12d4:	beab      	bkpt	0x00ab
    12d6:	2800      	cmp	r0, #0
    12d8:	bf0c      	ite	eq
    12da:	9801      	ldreq	r0, [sp, #4]
    12dc:	f04f 30ff 	movne.w	r0, #4294967295
    12e0:	b002      	add	sp, #8
    12e2:	4770      	bx	lr

000012e4 <MriGetIPSR>:
    12e4:	f3ef 8005 	mrs	r0, IPSR
    12e8:	4770      	bx	lr

000012ea <MriExceptionHandler>:
    12ea:	f01e 0f04 	tst.w	lr, #4
    12ee:	bf0c      	ite	eq
    12f0:	f3ef 8108 	mrseq	r1, MSP
    12f4:	f3ef 8109 	mrsne	r1, PSP
    12f8:	4841      	ldr	r0, [pc, #260]	; (1400 <__MriTestRegisters+0x48>)
    12fa:	6802      	ldr	r2, [r0, #0]
    12fc:	f012 0f01 	tst.w	r2, #1
    1300:	bf1e      	ittt	ne
    1302:	f042 0202 	orrne.w	r2, r2, #2
    1306:	6002      	strne	r2, [r0, #0]
    1308:	e03c      	bne.n	1384 <__MriAdvancePCAndReturn>
    130a:	483e      	ldr	r0, [pc, #248]	; (1404 <__MriTestRegisters+0x4c>)
    130c:	e92d 5000 	stmdb	sp!, {ip, lr}
    1310:	e8b1 500c 	ldmia.w	r1!, {r2, r3, ip, lr}
    1314:	e8a0 500c 	stmia.w	r0!, {r2, r3, ip, lr}
    1318:	e8a0 0ff0 	stmia.w	r0!, {r4, r5, r6, r7, r8, r9, sl, fp}
    131c:	c93c      	ldmia	r1!, {r2, r3, r4, r5}
    131e:	f840 2b08 	str.w	r2, [r0], #8
    1322:	c018      	stmia	r0!, {r3, r4}
    1324:	6645      	str	r5, [r0, #100]	; 0x64
    1326:	f415 7f00 	tst.w	r5, #512	; 0x200
    132a:	bf18      	it	ne
    132c:	3104      	addne	r1, #4
    132e:	f840 1c0c 	str.w	r1, [r0, #-12]
    1332:	f7ff fe81 	bl	1038 <MriDebugException>
    1336:	4834      	ldr	r0, [pc, #208]	; (1408 <__MriTestRegisters+0x50>)
    1338:	f850 1c70 	ldr.w	r1, [r0, #-112]
    133c:	f850 2964 	ldr.w	r2, [r0], #-100
    1340:	f412 7f00 	tst.w	r2, #512	; 0x200
    1344:	bf18      	it	ne
    1346:	3904      	subne	r1, #4
    1348:	f841 2d04 	str.w	r2, [r1, #-4]!
    134c:	e930 000c 	ldmdb	r0!, {r2, r3}
    1350:	e921 000c 	stmdb	r1!, {r2, r3}
    1354:	f850 cd08 	ldr.w	ip, [r0, #-8]!
    1358:	f841 cd04 	str.w	ip, [r1, #-4]!
    135c:	e930 0ff0 	ldmdb	r0!, {r4, r5, r6, r7, r8, r9, sl, fp}
    1360:	e930 500c 	ldmdb	r0!, {r2, r3, ip, lr}
    1364:	e921 500c 	stmdb	r1!, {r2, r3, ip, lr}
    1368:	e8bd 5000 	ldmia.w	sp!, {ip, lr}
    136c:	f01e 0f04 	tst.w	lr, #4
    1370:	bf0c      	ite	eq
    1372:	f381 8808 	msreq	MSP, r1
    1376:	f381 8809 	msrne	PSP, r1
    137a:	f3bf 8f4f 	dsb	sy
    137e:	f3bf 8f6f 	isb	sy
    1382:	4770      	bx	lr

00001384 <__MriAdvancePCAndReturn>:
    1384:	6988      	ldr	r0, [r1, #24]
    1386:	8802      	ldrh	r2, [r0, #0]
    1388:	f402 4278 	and.w	r2, r2, #63488	; 0xf800
    138c:	f5b2 4f68 	cmp.w	r2, #59392	; 0xe800
    1390:	d008      	beq.n	13a4 <__InstructionIs32Bit>
    1392:	f5b2 4f70 	cmp.w	r2, #61440	; 0xf000
    1396:	d005      	beq.n	13a4 <__InstructionIs32Bit>
    1398:	f5b2 4f78 	cmp.w	r2, #63488	; 0xf800
    139c:	d002      	beq.n	13a4 <__InstructionIs32Bit>

0000139e <__InstructionIs16Bit>:
    139e:	f100 0002 	add.w	r0, r0, #2
    13a2:	e001      	b.n	13a8 <__StorePCAndReturn>

000013a4 <__InstructionIs32Bit>:
    13a4:	f100 0004 	add.w	r0, r0, #4

000013a8 <__StorePCAndReturn>:
    13a8:	6188      	str	r0, [r1, #24]
    13aa:	4770      	bx	lr

000013ac <HardFault_Handler>:
    13ac:	e79d      	b.n	12ea <MriExceptionHandler>

000013ae <MemManage_Handler>:
    13ae:	e79c      	b.n	12ea <MriExceptionHandler>

000013b0 <BusFault_Handler>:
    13b0:	e79b      	b.n	12ea <MriExceptionHandler>

000013b2 <UsageFault_Handler>:
    13b2:	e79a      	b.n	12ea <MriExceptionHandler>

000013b4 <DebugMon_Handler>:
    13b4:	e799      	b.n	12ea <MriExceptionHandler>

000013b6 <UART0_IRQHandler>:
    13b6:	e798      	b.n	12ea <MriExceptionHandler>

000013b8 <__MriTestRegisters>:
    13b8:	e92d 4ff0 	stmdb	sp!, {r4, r5, r6, r7, r8, r9, sl, fp, lr}
    13bc:	f04f 0000 	mov.w	r0, #0
    13c0:	f04f 0101 	mov.w	r1, #1
    13c4:	f04f 0202 	mov.w	r2, #2
    13c8:	f04f 0303 	mov.w	r3, #3
    13cc:	f04f 0404 	mov.w	r4, #4
    13d0:	f04f 0505 	mov.w	r5, #5
    13d4:	f04f 0606 	mov.w	r6, #6
    13d8:	f04f 0707 	mov.w	r7, #7
    13dc:	f04f 0808 	mov.w	r8, #8
    13e0:	f04f 0909 	mov.w	r9, #9
    13e4:	f04f 0a0a 	mov.w	sl, #10
    13e8:	f04f 0b0b 	mov.w	fp, #11
    13ec:	f04f 0c0c 	mov.w	ip, #12
    13f0:	be00      	bkpt	0x0000
    13f2:	f84d cd04 	str.w	ip, [sp, #-4]!
    13f6:	be00      	bkpt	0x0000
    13f8:	f85d cb04 	ldr.w	ip, [sp], #4
    13fc:	e8bd 8ff0 	ldmia.w	sp!, {r4, r5, r6, r7, r8, r9, sl, fp, pc}
    1400:	100006f4 	.word	0x100006f4
    1404:	1000086c 	.word	0x1000086c
    1408:	10000910 	.word	0x10000910

0000140c <Reset_Handler>:
    140c:	4806      	ldr	r0, [pc, #24]	; (1428 <ADC_IRQHandler+0x2>)
    140e:	4780      	blx	r0
    1410:	4806      	ldr	r0, [pc, #24]	; (142c <ADC_IRQHandler+0x6>)
    1412:	4700      	bx	r0

00001414 <NMI_Handler>:
    1414:	e7fe      	b.n	1414 <NMI_Handler>
    1416:	e7fe      	b.n	1416 <NMI_Handler+0x2>
    1418:	e7fe      	b.n	1418 <NMI_Handler+0x4>
    141a:	e7fe      	b.n	141a <NMI_Handler+0x6>
    141c:	e7fe      	b.n	141c <NMI_Handler+0x8>

0000141e <SVC_Handler>:
    141e:	e7fe      	b.n	141e <SVC_Handler>
    1420:	e7fe      	b.n	1420 <SVC_Handler+0x2>

00001422 <PendSV_Handler>:
    1422:	e7fe      	b.n	1422 <PendSV_Handler>

00001424 <SysTick_Handler>:
    1424:	e7fe      	b.n	1424 <SysTick_Handler>

00001426 <ADC_IRQHandler>:
    1426:	e7fe      	b.n	1426 <ADC_IRQHandler>
    1428:	000001d1 	.word	0x000001d1
    142c:	000000c5 	.word	0x000000c5

00001430 <__aeabi_atexit>:
    1430:	4603      	mov	r3, r0
    1432:	4608      	mov	r0, r1
    1434:	4619      	mov	r1, r3
    1436:	f003 bffd 	b.w	5434 <__cxa_atexit>

0000143a <_ZNK10__cxxabiv117__class_type_info20__do_find_public_srcEiPKvPKS0_S2_>:
    143a:	9800      	ldr	r0, [sp, #0]
    143c:	4290      	cmp	r0, r2
    143e:	bf14      	ite	ne
    1440:	2001      	movne	r0, #1
    1442:	2006      	moveq	r0, #6
    1444:	4770      	bx	lr

00001446 <_ZNK10__cxxabiv117__class_type_info11__do_upcastEPKS0_PKvRNS0_15__upcast_resultE>:
    1446:	b538      	push	{r3, r4, r5, lr}
    1448:	4614      	mov	r4, r2
    144a:	461d      	mov	r5, r3
    144c:	f000 f9b5 	bl	17ba <_ZNKSt9type_infoeqERKS_>
    1450:	b128      	cbz	r0, 145e <_ZNK10__cxxabiv117__class_type_info11__do_upcastEPKS0_PKvRNS0_15__upcast_resultE+0x18>
    1452:	2001      	movs	r0, #1
    1454:	2308      	movs	r3, #8
    1456:	602c      	str	r4, [r5, #0]
    1458:	60eb      	str	r3, [r5, #12]
    145a:	3b02      	subs	r3, #2
    145c:	712b      	strb	r3, [r5, #4]
    145e:	bd38      	pop	{r3, r4, r5, pc}

00001460 <_ZNK10__cxxabiv117__class_type_info12__do_dyncastEiNS0_10__sub_kindEPKS0_PKvS3_S5_RNS0_16__dyncast_resultE>:
    1460:	e92d 41f0 	stmdb	sp!, {r4, r5, r6, r7, r8, lr}
    1464:	4698      	mov	r8, r3
    1466:	9f06      	ldr	r7, [sp, #24]
    1468:	4604      	mov	r4, r0
    146a:	9b08      	ldr	r3, [sp, #32]
    146c:	4615      	mov	r5, r2
    146e:	9e09      	ldr	r6, [sp, #36]	; 0x24
    1470:	429f      	cmp	r7, r3
    1472:	d10c      	bne.n	148e <_ZNK10__cxxabiv117__class_type_info12__do_dyncastEiNS0_10__sub_kindEPKS0_PKvS3_S5_RNS0_16__dyncast_resultE+0x2e>
    1474:	9907      	ldr	r1, [sp, #28]
    1476:	f000 f9a0 	bl	17ba <_ZNKSt9type_infoeqERKS_>
    147a:	b140      	cbz	r0, 148e <_ZNK10__cxxabiv117__class_type_info12__do_dyncastEiNS0_10__sub_kindEPKS0_PKvS3_S5_RNS0_16__dyncast_resultE+0x2e>
    147c:	7175      	strb	r5, [r6, #5]
    147e:	e003      	b.n	1488 <_ZNK10__cxxabiv117__class_type_info12__do_dyncastEiNS0_10__sub_kindEPKS0_PKvS3_S5_RNS0_16__dyncast_resultE+0x28>
    1480:	2301      	movs	r3, #1
    1482:	6037      	str	r7, [r6, #0]
    1484:	7135      	strb	r5, [r6, #4]
    1486:	71b3      	strb	r3, [r6, #6]
    1488:	2000      	movs	r0, #0
    148a:	e8bd 81f0 	ldmia.w	sp!, {r4, r5, r6, r7, r8, pc}
    148e:	4620      	mov	r0, r4
    1490:	4641      	mov	r1, r8
    1492:	f000 f992 	bl	17ba <_ZNKSt9type_infoeqERKS_>
    1496:	2800      	cmp	r0, #0
    1498:	d1f2      	bne.n	1480 <_ZNK10__cxxabiv117__class_type_info12__do_dyncastEiNS0_10__sub_kindEPKS0_PKvS3_S5_RNS0_16__dyncast_resultE+0x20>
    149a:	e7f5      	b.n	1488 <_ZNK10__cxxabiv117__class_type_info12__do_dyncastEiNS0_10__sub_kindEPKS0_PKvS3_S5_RNS0_16__dyncast_resultE+0x28>

0000149c <_ZNK10__cxxabiv117__class_type_info10__do_catchEPKSt9type_infoPPvj>:
    149c:	b5f8      	push	{r3, r4, r5, r6, r7, lr}
    149e:	4605      	mov	r5, r0
    14a0:	460c      	mov	r4, r1
    14a2:	4616      	mov	r6, r2
    14a4:	461f      	mov	r7, r3
    14a6:	f000 f988 	bl	17ba <_ZNKSt9type_infoeqERKS_>
    14aa:	b940      	cbnz	r0, 14be <_ZNK10__cxxabiv117__class_type_info10__do_catchEPKSt9type_infoPPvj+0x22>
    14ac:	2f03      	cmp	r7, #3
    14ae:	d807      	bhi.n	14c0 <_ZNK10__cxxabiv117__class_type_info10__do_catchEPKSt9type_infoPPvj+0x24>
    14b0:	6823      	ldr	r3, [r4, #0]
    14b2:	4620      	mov	r0, r4
    14b4:	4629      	mov	r1, r5
    14b6:	4632      	mov	r2, r6
    14b8:	695b      	ldr	r3, [r3, #20]
    14ba:	4798      	blx	r3
    14bc:	bdf8      	pop	{r3, r4, r5, r6, r7, pc}
    14be:	2001      	movs	r0, #1
    14c0:	bdf8      	pop	{r3, r4, r5, r6, r7, pc}
	...

000014c4 <_ZN10__cxxabiv117__class_type_infoD1Ev>:
    14c4:	4b03      	ldr	r3, [pc, #12]	; (14d4 <_ZN10__cxxabiv117__class_type_infoD1Ev+0x10>)
    14c6:	b510      	push	{r4, lr}
    14c8:	4604      	mov	r4, r0
    14ca:	6003      	str	r3, [r0, #0]
    14cc:	f000 f95a 	bl	1784 <_ZNSt9type_infoD1Ev>
    14d0:	4620      	mov	r0, r4
    14d2:	bd10      	pop	{r4, pc}
    14d4:	0000f180 	.word	0x0000f180

000014d8 <_ZN10__cxxabiv117__class_type_infoD0Ev>:
    14d8:	b510      	push	{r4, lr}
    14da:	4604      	mov	r4, r0
    14dc:	f7ff fff2 	bl	14c4 <_ZN10__cxxabiv117__class_type_infoD1Ev>
    14e0:	4620      	mov	r0, r4
    14e2:	f000 f825 	bl	1530 <_ZdlPv>
    14e6:	4620      	mov	r0, r4
    14e8:	bd10      	pop	{r4, pc}

000014ea <_ZN10__cxxabiv117__class_type_info15__upcast_resultC1Ei>:
    14ea:	2200      	movs	r2, #0
    14ec:	6081      	str	r1, [r0, #8]
    14ee:	6002      	str	r2, [r0, #0]
    14f0:	7102      	strb	r2, [r0, #4]
    14f2:	60c2      	str	r2, [r0, #12]
    14f4:	4770      	bx	lr

000014f6 <_ZNK10__cxxabiv117__class_type_info11__do_upcastEPKS0_PPv>:
    14f6:	b5f0      	push	{r4, r5, r6, r7, lr}
    14f8:	4606      	mov	r6, r0
    14fa:	b085      	sub	sp, #20
    14fc:	460f      	mov	r7, r1
    14fe:	4668      	mov	r0, sp
    1500:	2110      	movs	r1, #16
    1502:	4614      	mov	r4, r2
    1504:	f7ff fff1 	bl	14ea <_ZN10__cxxabiv117__class_type_info15__upcast_resultC1Ei>
    1508:	6833      	ldr	r3, [r6, #0]
    150a:	4630      	mov	r0, r6
    150c:	4639      	mov	r1, r7
    150e:	6822      	ldr	r2, [r4, #0]
    1510:	699d      	ldr	r5, [r3, #24]
    1512:	466b      	mov	r3, sp
    1514:	47a8      	blx	r5
    1516:	f89d 3004 	ldrb.w	r3, [sp, #4]
    151a:	f003 0306 	and.w	r3, r3, #6
    151e:	2b06      	cmp	r3, #6
    1520:	d103      	bne.n	152a <_ZNK10__cxxabiv117__class_type_info11__do_upcastEPKS0_PPv+0x34>
    1522:	9b00      	ldr	r3, [sp, #0]
    1524:	2001      	movs	r0, #1
    1526:	6023      	str	r3, [r4, #0]
    1528:	e000      	b.n	152c <_ZNK10__cxxabiv117__class_type_info11__do_upcastEPKS0_PPv+0x36>
    152a:	2000      	movs	r0, #0
    152c:	b005      	add	sp, #20
    152e:	bdf0      	pop	{r4, r5, r6, r7, pc}

00001530 <_ZdlPv>:
    1530:	b108      	cbz	r0, 1536 <_ZdlPv+0x6>
    1532:	f004 bf67 	b.w	6404 <free>
    1536:	4770      	bx	lr

00001538 <_ZdaPv>:
    1538:	f7ff bffa 	b.w	1530 <_ZdlPv>

0000153c <_ZN10__cxxabiv112_GLOBAL__N_118contained_public_pENS_17__class_type_info10__sub_kindE>:
    153c:	f000 0006 	and.w	r0, r0, #6
    1540:	f1a0 0306 	sub.w	r3, r0, #6
    1544:	4258      	negs	r0, r3
    1546:	eb40 0003 	adc.w	r0, r0, r3
    154a:	4770      	bx	lr

0000154c <_ZN10__cxxabiv112_GLOBAL__N_114adjust_pointerIvEEPKT_PKvi>:
    154c:	1840      	adds	r0, r0, r1
    154e:	4770      	bx	lr

00001550 <_ZN10__cxxabiv117__class_type_info16__dyncast_resultC1Ei>:
    1550:	2200      	movs	r2, #0
    1552:	6081      	str	r1, [r0, #8]
    1554:	6002      	str	r2, [r0, #0]
    1556:	7102      	strb	r2, [r0, #4]
    1558:	7142      	strb	r2, [r0, #5]
    155a:	7182      	strb	r2, [r0, #6]
    155c:	4770      	bx	lr

0000155e <_ZNK10__cxxabiv117__class_type_info17__find_public_srcEiPKvPKS0_S2_>:
    155e:	b5f7      	push	{r0, r1, r2, r4, r5, r6, r7, lr}
    1560:	1e0e      	subs	r6, r1, #0
    1562:	9c08      	ldr	r4, [sp, #32]
    1564:	db07      	blt.n	1576 <_ZNK10__cxxabiv117__class_type_info17__find_public_srcEiPKvPKS0_S2_+0x18>
    1566:	4610      	mov	r0, r2
    1568:	f7ff fff0 	bl	154c <_ZN10__cxxabiv112_GLOBAL__N_114adjust_pointerIvEEPKT_PKvi>
    156c:	4284      	cmp	r4, r0
    156e:	bf14      	ite	ne
    1570:	2001      	movne	r0, #1
    1572:	2006      	moveq	r0, #6
    1574:	e008      	b.n	1588 <_ZNK10__cxxabiv117__class_type_info17__find_public_srcEiPKvPKS0_S2_+0x2a>
    1576:	f116 0f02 	cmn.w	r6, #2
    157a:	d004      	beq.n	1586 <_ZNK10__cxxabiv117__class_type_info17__find_public_srcEiPKvPKS0_S2_+0x28>
    157c:	6805      	ldr	r5, [r0, #0]
    157e:	9400      	str	r4, [sp, #0]
    1580:	6a2c      	ldr	r4, [r5, #32]
    1582:	47a0      	blx	r4
    1584:	e000      	b.n	1588 <_ZNK10__cxxabiv117__class_type_info17__find_public_srcEiPKvPKS0_S2_+0x2a>
    1586:	2001      	movs	r0, #1
    1588:	bdfe      	pop	{r1, r2, r3, r4, r5, r6, r7, pc}

0000158a <__dynamic_cast>:
    158a:	e92d 47f0 	stmdb	sp!, {r4, r5, r6, r7, r8, r9, sl, lr}
    158e:	461d      	mov	r5, r3
    1590:	6803      	ldr	r3, [r0, #0]
    1592:	b088      	sub	sp, #32
    1594:	4688      	mov	r8, r1
    1596:	4616      	mov	r6, r2
    1598:	f1a3 0708 	sub.w	r7, r3, #8
    159c:	4604      	mov	r4, r0
    159e:	f853 1c08 	ldr.w	r1, [r3, #-8]
    15a2:	f7ff ffd3 	bl	154c <_ZN10__cxxabiv112_GLOBAL__N_114adjust_pointerIvEEPKT_PKvi>
    15a6:	f8d7 9004 	ldr.w	r9, [r7, #4]
    15aa:	af05      	add	r7, sp, #20
    15ac:	2110      	movs	r1, #16
    15ae:	4682      	mov	sl, r0
    15b0:	4638      	mov	r0, r7
    15b2:	f7ff ffcd 	bl	1550 <_ZN10__cxxabiv117__class_type_info16__dyncast_resultC1Ei>
    15b6:	f8d9 3000 	ldr.w	r3, [r9]
    15ba:	4648      	mov	r0, r9
    15bc:	f8cd a000 	str.w	sl, [sp]
    15c0:	f8cd 8004 	str.w	r8, [sp, #4]
    15c4:	4629      	mov	r1, r5
    15c6:	9402      	str	r4, [sp, #8]
    15c8:	2206      	movs	r2, #6
    15ca:	9703      	str	r7, [sp, #12]
    15cc:	69df      	ldr	r7, [r3, #28]
    15ce:	4633      	mov	r3, r6
    15d0:	47b8      	blx	r7
    15d2:	9f05      	ldr	r7, [sp, #20]
    15d4:	b33f      	cbz	r7, 1626 <__dynamic_cast+0x9c>
    15d6:	f89d 901a 	ldrb.w	r9, [sp, #26]
    15da:	4648      	mov	r0, r9
    15dc:	f7ff ffae 	bl	153c <_ZN10__cxxabiv112_GLOBAL__N_118contained_public_pENS_17__class_type_info10__sub_kindE>
    15e0:	bb08      	cbnz	r0, 1626 <__dynamic_cast+0x9c>
    15e2:	f89d a019 	ldrb.w	sl, [sp, #25]
    15e6:	f89d 0018 	ldrb.w	r0, [sp, #24]
    15ea:	ea0a 0000 	and.w	r0, sl, r0
    15ee:	f7ff ffa5 	bl	153c <_ZN10__cxxabiv112_GLOBAL__N_118contained_public_pENS_17__class_type_info10__sub_kindE>
    15f2:	b9c0      	cbnz	r0, 1626 <__dynamic_cast+0x9c>
    15f4:	f00a 0a05 	and.w	sl, sl, #5
    15f8:	f1ba 0f04 	cmp.w	sl, #4
    15fc:	d012      	beq.n	1624 <__dynamic_cast+0x9a>
    15fe:	f1b9 0f00 	cmp.w	r9, #0
    1602:	d108      	bne.n	1616 <__dynamic_cast+0x8c>
    1604:	4630      	mov	r0, r6
    1606:	4629      	mov	r1, r5
    1608:	463a      	mov	r2, r7
    160a:	4643      	mov	r3, r8
    160c:	9400      	str	r4, [sp, #0]
    160e:	f7ff ffa6 	bl	155e <_ZNK10__cxxabiv117__class_type_info17__find_public_srcEiPKvPKS0_S2_>
    1612:	f88d 001a 	strb.w	r0, [sp, #26]
    1616:	f89d 001a 	ldrb.w	r0, [sp, #26]
    161a:	f7ff ff8f 	bl	153c <_ZN10__cxxabiv112_GLOBAL__N_118contained_public_pENS_17__class_type_info10__sub_kindE>
    161e:	b108      	cbz	r0, 1624 <__dynamic_cast+0x9a>
    1620:	9f05      	ldr	r7, [sp, #20]
    1622:	e000      	b.n	1626 <__dynamic_cast+0x9c>
    1624:	4607      	mov	r7, r0
    1626:	4638      	mov	r0, r7
    1628:	b008      	add	sp, #32
    162a:	e8bd 87f0 	ldmia.w	sp!, {r4, r5, r6, r7, r8, r9, sl, pc}
	...

00001630 <_Znwj>:
    1630:	b510      	push	{r4, lr}
    1632:	2800      	cmp	r0, #0
    1634:	bf14      	ite	ne
    1636:	4604      	movne	r4, r0
    1638:	2401      	moveq	r4, #1
    163a:	e005      	b.n	1648 <_Znwj+0x18>
    163c:	4b05      	ldr	r3, [pc, #20]	; (1654 <_Znwj+0x24>)
    163e:	681b      	ldr	r3, [r3, #0]
    1640:	b90b      	cbnz	r3, 1646 <_Znwj+0x16>
    1642:	f003 fed3 	bl	53ec <abort>
    1646:	4798      	blx	r3
    1648:	4620      	mov	r0, r4
    164a:	f004 fed3 	bl	63f4 <malloc>
    164e:	2800      	cmp	r0, #0
    1650:	d0f4      	beq.n	163c <_Znwj+0xc>
    1652:	bd10      	pop	{r4, pc}
    1654:	100009d0 	.word	0x100009d0

00001658 <_Znaj>:
    1658:	f7ff bfea 	b.w	1630 <_Znwj>

0000165c <__cxa_pure_virtual>:
    165c:	b508      	push	{r3, lr}
    165e:	221b      	movs	r2, #27
    1660:	4902      	ldr	r1, [pc, #8]	; (166c <__cxa_pure_virtual+0x10>)
    1662:	2002      	movs	r0, #2
    1664:	f007 fcc6 	bl	8ff4 <write>
    1668:	f000 fb72 	bl	1d50 <_ZSt9terminatev>
    166c:	0000f1d6 	.word	0x0000f1d6

00001670 <_ZNK10__cxxabiv120__si_class_type_info11__do_upcastEPKNS_17__class_type_infoEPKvRNS1_15__upcast_resultE>:
    1670:	b5f8      	push	{r3, r4, r5, r6, r7, lr}
    1672:	4604      	mov	r4, r0
    1674:	460f      	mov	r7, r1
    1676:	4616      	mov	r6, r2
    1678:	461d      	mov	r5, r3
    167a:	f7ff fee4 	bl	1446 <_ZNK10__cxxabiv117__class_type_info11__do_upcastEPKS0_PKvRNS0_15__upcast_resultE>
    167e:	b938      	cbnz	r0, 1690 <_ZNK10__cxxabiv120__si_class_type_info11__do_upcastEPKNS_17__class_type_infoEPKvRNS1_15__upcast_resultE+0x20>
    1680:	68a0      	ldr	r0, [r4, #8]
    1682:	4639      	mov	r1, r7
    1684:	4632      	mov	r2, r6
    1686:	6803      	ldr	r3, [r0, #0]
    1688:	699c      	ldr	r4, [r3, #24]
    168a:	462b      	mov	r3, r5
    168c:	47a0      	blx	r4
    168e:	bdf8      	pop	{r3, r4, r5, r6, r7, pc}
    1690:	2001      	movs	r0, #1
    1692:	bdf8      	pop	{r3, r4, r5, r6, r7, pc}

00001694 <_ZNK10__cxxabiv120__si_class_type_info12__do_dyncastEiNS_17__class_type_info10__sub_kindEPKS1_PKvS4_S6_RNS1_16__dyncast_resultE>:
    1694:	e92d 4ff0 	stmdb	sp!, {r4, r5, r6, r7, r8, r9, sl, fp, lr}
    1698:	b085      	sub	sp, #20
    169a:	460c      	mov	r4, r1
    169c:	4619      	mov	r1, r3
    169e:	4605      	mov	r5, r0
    16a0:	4616      	mov	r6, r2
    16a2:	461f      	mov	r7, r3
    16a4:	f8dd 9038 	ldr.w	r9, [sp, #56]	; 0x38
    16a8:	f8dd a040 	ldr.w	sl, [sp, #64]	; 0x40
    16ac:	f8dd 8044 	ldr.w	r8, [sp, #68]	; 0x44
    16b0:	f000 f883 	bl	17ba <_ZNKSt9type_infoeqERKS_>
    16b4:	4683      	mov	fp, r0
    16b6:	b1b0      	cbz	r0, 16e6 <_ZNK10__cxxabiv120__si_class_type_info12__do_dyncastEiNS_17__class_type_info10__sub_kindEPKS1_PKvS4_S6_RNS1_16__dyncast_resultE+0x52>
    16b8:	2c00      	cmp	r4, #0
    16ba:	f8c8 9000 	str.w	r9, [r8]
    16be:	f888 6004 	strb.w	r6, [r8, #4]
    16c2:	db09      	blt.n	16d8 <_ZNK10__cxxabiv120__si_class_type_info12__do_dyncastEiNS_17__class_type_info10__sub_kindEPKS1_PKvS4_S6_RNS1_16__dyncast_resultE+0x44>
    16c4:	444c      	add	r4, r9
    16c6:	45a2      	cmp	sl, r4
    16c8:	bf14      	ite	ne
    16ca:	f04f 0a01 	movne.w	sl, #1
    16ce:	f04f 0a06 	moveq.w	sl, #6
    16d2:	f888 a006 	strb.w	sl, [r8, #6]
    16d6:	e011      	b.n	16fc <_ZNK10__cxxabiv120__si_class_type_info12__do_dyncastEiNS_17__class_type_info10__sub_kindEPKS1_PKvS4_S6_RNS1_16__dyncast_resultE+0x68>
    16d8:	f114 0f02 	cmn.w	r4, #2
    16dc:	d10e      	bne.n	16fc <_ZNK10__cxxabiv120__si_class_type_info12__do_dyncastEiNS_17__class_type_info10__sub_kindEPKS1_PKvS4_S6_RNS1_16__dyncast_resultE+0x68>
    16de:	2301      	movs	r3, #1
    16e0:	f888 3006 	strb.w	r3, [r8, #6]
    16e4:	e00a      	b.n	16fc <_ZNK10__cxxabiv120__si_class_type_info12__do_dyncastEiNS_17__class_type_info10__sub_kindEPKS1_PKvS4_S6_RNS1_16__dyncast_resultE+0x68>
    16e6:	45d1      	cmp	r9, sl
    16e8:	d10c      	bne.n	1704 <_ZNK10__cxxabiv120__si_class_type_info12__do_dyncastEiNS_17__class_type_info10__sub_kindEPKS1_PKvS4_S6_RNS1_16__dyncast_resultE+0x70>
    16ea:	4628      	mov	r0, r5
    16ec:	990f      	ldr	r1, [sp, #60]	; 0x3c
    16ee:	f000 f864 	bl	17ba <_ZNKSt9type_infoeqERKS_>
    16f2:	b138      	cbz	r0, 1704 <_ZNK10__cxxabiv120__si_class_type_info12__do_dyncastEiNS_17__class_type_info10__sub_kindEPKS1_PKvS4_S6_RNS1_16__dyncast_resultE+0x70>
    16f4:	f888 6005 	strb.w	r6, [r8, #5]
    16f8:	4658      	mov	r0, fp
    16fa:	e000      	b.n	16fe <_ZNK10__cxxabiv120__si_class_type_info12__do_dyncastEiNS_17__class_type_info10__sub_kindEPKS1_PKvS4_S6_RNS1_16__dyncast_resultE+0x6a>
    16fc:	2000      	movs	r0, #0
    16fe:	b005      	add	sp, #20
    1700:	e8bd 8ff0 	ldmia.w	sp!, {r4, r5, r6, r7, r8, r9, sl, fp, pc}
    1704:	68a8      	ldr	r0, [r5, #8]
    1706:	4621      	mov	r1, r4
    1708:	9a0f      	ldr	r2, [sp, #60]	; 0x3c
    170a:	6803      	ldr	r3, [r0, #0]
    170c:	9201      	str	r2, [sp, #4]
    170e:	4632      	mov	r2, r6
    1710:	f8cd 9000 	str.w	r9, [sp]
    1714:	f8cd a008 	str.w	sl, [sp, #8]
    1718:	f8cd 800c 	str.w	r8, [sp, #12]
    171c:	69dd      	ldr	r5, [r3, #28]
    171e:	463b      	mov	r3, r7
    1720:	47a8      	blx	r5
    1722:	e7ec      	b.n	16fe <_ZNK10__cxxabiv120__si_class_type_info12__do_dyncastEiNS_17__class_type_info10__sub_kindEPKS1_PKvS4_S6_RNS1_16__dyncast_resultE+0x6a>

00001724 <_ZNK10__cxxabiv120__si_class_type_info20__do_find_public_srcEiPKvPKNS_17__class_type_infoES2_>:
    1724:	e92d 41f3 	stmdb	sp!, {r0, r1, r4, r5, r6, r7, r8, lr}
    1728:	4604      	mov	r4, r0
    172a:	f8dd 8020 	ldr.w	r8, [sp, #32]
    172e:	460d      	mov	r5, r1
    1730:	4617      	mov	r7, r2
    1732:	461e      	mov	r6, r3
    1734:	4590      	cmp	r8, r2
    1736:	d106      	bne.n	1746 <_ZNK10__cxxabiv120__si_class_type_info20__do_find_public_srcEiPKvPKNS_17__class_type_infoES2_+0x22>
    1738:	4619      	mov	r1, r3
    173a:	f000 f83e 	bl	17ba <_ZNKSt9type_infoeqERKS_>
    173e:	b110      	cbz	r0, 1746 <_ZNK10__cxxabiv120__si_class_type_info20__do_find_public_srcEiPKvPKNS_17__class_type_infoES2_+0x22>
    1740:	2006      	movs	r0, #6
    1742:	e8bd 81fc 	ldmia.w	sp!, {r2, r3, r4, r5, r6, r7, r8, pc}
    1746:	68a0      	ldr	r0, [r4, #8]
    1748:	4629      	mov	r1, r5
    174a:	463a      	mov	r2, r7
    174c:	6803      	ldr	r3, [r0, #0]
    174e:	f8cd 8000 	str.w	r8, [sp]
    1752:	6a1c      	ldr	r4, [r3, #32]
    1754:	4633      	mov	r3, r6
    1756:	47a0      	blx	r4
    1758:	e7f3      	b.n	1742 <_ZNK10__cxxabiv120__si_class_type_info20__do_find_public_srcEiPKvPKNS_17__class_type_infoES2_+0x1e>
	...

0000175c <_ZN10__cxxabiv120__si_class_type_infoD1Ev>:
    175c:	4b03      	ldr	r3, [pc, #12]	; (176c <_ZN10__cxxabiv120__si_class_type_infoD1Ev+0x10>)
    175e:	b510      	push	{r4, lr}
    1760:	4604      	mov	r4, r0
    1762:	6003      	str	r3, [r0, #0]
    1764:	f7ff feae 	bl	14c4 <_ZN10__cxxabiv117__class_type_infoD1Ev>
    1768:	4620      	mov	r0, r4
    176a:	bd10      	pop	{r4, pc}
    176c:	0000f200 	.word	0x0000f200

00001770 <_ZN10__cxxabiv120__si_class_type_infoD0Ev>:
    1770:	b510      	push	{r4, lr}
    1772:	4604      	mov	r4, r0
    1774:	f7ff fff2 	bl	175c <_ZN10__cxxabiv120__si_class_type_infoD1Ev>
    1778:	4620      	mov	r0, r4
    177a:	f7ff fed9 	bl	1530 <_ZdlPv>
    177e:	4620      	mov	r0, r4
    1780:	bd10      	pop	{r4, pc}
	...

00001784 <_ZNSt9type_infoD1Ev>:
    1784:	4b01      	ldr	r3, [pc, #4]	; (178c <_ZNSt9type_infoD1Ev+0x8>)
    1786:	6003      	str	r3, [r0, #0]
    1788:	4770      	bx	lr
    178a:	bf00      	nop
    178c:	0000f280 	.word	0x0000f280

00001790 <_ZNKSt9type_info14__is_pointer_pEv>:
    1790:	2000      	movs	r0, #0
    1792:	4770      	bx	lr

00001794 <_ZNKSt9type_info15__is_function_pEv>:
    1794:	2000      	movs	r0, #0
    1796:	4770      	bx	lr

00001798 <_ZNKSt9type_info11__do_upcastEPKN10__cxxabiv117__class_type_infoEPPv>:
    1798:	2000      	movs	r0, #0
    179a:	4770      	bx	lr

0000179c <_ZNSt9type_infoD0Ev>:
    179c:	b510      	push	{r4, lr}
    179e:	4604      	mov	r4, r0
    17a0:	f7ff fff0 	bl	1784 <_ZNSt9type_infoD1Ev>
    17a4:	4620      	mov	r0, r4
    17a6:	f7ff fec3 	bl	1530 <_ZdlPv>
    17aa:	4620      	mov	r0, r4
    17ac:	bd10      	pop	{r4, pc}

000017ae <_ZNKSt9type_info4nameEv>:
    17ae:	6840      	ldr	r0, [r0, #4]
    17b0:	7803      	ldrb	r3, [r0, #0]
    17b2:	2b2a      	cmp	r3, #42	; 0x2a
    17b4:	bf08      	it	eq
    17b6:	3001      	addeq	r0, #1
    17b8:	4770      	bx	lr

000017ba <_ZNKSt9type_infoeqERKS_>:
    17ba:	4281      	cmp	r1, r0
    17bc:	b538      	push	{r3, r4, r5, lr}
    17be:	460d      	mov	r5, r1
    17c0:	d011      	beq.n	17e6 <_ZNKSt9type_infoeqERKS_+0x2c>
    17c2:	f7ff fff4 	bl	17ae <_ZNKSt9type_info4nameEv>
    17c6:	7803      	ldrb	r3, [r0, #0]
    17c8:	4604      	mov	r4, r0
    17ca:	2b2a      	cmp	r3, #42	; 0x2a
    17cc:	d00d      	beq.n	17ea <_ZNKSt9type_infoeqERKS_+0x30>
    17ce:	4628      	mov	r0, r5
    17d0:	f7ff ffed 	bl	17ae <_ZNKSt9type_info4nameEv>
    17d4:	4601      	mov	r1, r0
    17d6:	4620      	mov	r0, r4
    17d8:	f005 fccd 	bl	7176 <strcmp>
    17dc:	f1d0 0001 	rsbs	r0, r0, #1
    17e0:	bf38      	it	cc
    17e2:	2000      	movcc	r0, #0
    17e4:	bd38      	pop	{r3, r4, r5, pc}
    17e6:	2001      	movs	r0, #1
    17e8:	bd38      	pop	{r3, r4, r5, pc}
    17ea:	2000      	movs	r0, #0
    17ec:	bd38      	pop	{r3, r4, r5, pc}

000017ee <_ZNKSt9type_info10__do_catchEPKS_PPvj>:
    17ee:	f7ff bfe4 	b.w	17ba <_ZNKSt9type_infoeqERKS_>

000017f2 <__cxa_vec_ctor>:
    17f2:	e92d 43f8 	stmdb	sp!, {r3, r4, r5, r6, r7, r8, r9, lr}
    17f6:	4604      	mov	r4, r0
    17f8:	460d      	mov	r5, r1
    17fa:	4616      	mov	r6, r2
    17fc:	4699      	mov	r9, r3
    17fe:	b143      	cbz	r3, 1812 <__cxa_vec_ctor+0x20>
    1800:	4680      	mov	r8, r0
    1802:	2700      	movs	r7, #0
    1804:	e003      	b.n	180e <__cxa_vec_ctor+0x1c>
    1806:	4640      	mov	r0, r8
    1808:	3701      	adds	r7, #1
    180a:	47c8      	blx	r9
    180c:	44b0      	add	r8, r6
    180e:	42af      	cmp	r7, r5
    1810:	d1f9      	bne.n	1806 <__cxa_vec_ctor+0x14>
    1812:	4620      	mov	r0, r4
    1814:	e8bd 83f8 	ldmia.w	sp!, {r3, r4, r5, r6, r7, r8, r9, pc}

00001818 <__aeabi_vec_ctor_nocookie_nodtor>:
    1818:	b513      	push	{r0, r1, r4, lr}
    181a:	460c      	mov	r4, r1
    181c:	2100      	movs	r1, #0
    181e:	9100      	str	r1, [sp, #0]
    1820:	4619      	mov	r1, r3
    1822:	4623      	mov	r3, r4
    1824:	f7ff ffe5 	bl	17f2 <__cxa_vec_ctor>
    1828:	bd1c      	pop	{r2, r3, r4, pc}

0000182a <_ZN10__cxxabiv112_GLOBAL__N_111contained_pENS_17__class_type_info10__sub_kindE>:
    182a:	2803      	cmp	r0, #3
    182c:	bf94      	ite	ls
    182e:	2000      	movls	r0, #0
    1830:	2001      	movhi	r0, #1
    1832:	4770      	bx	lr

00001834 <_ZN10__cxxabiv112_GLOBAL__N_19virtual_pENS_17__class_type_info10__sub_kindE>:
    1834:	f000 0001 	and.w	r0, r0, #1
    1838:	4770      	bx	lr

0000183a <_ZN10__cxxabiv112_GLOBAL__N_114adjust_pointerIvEEPKT_PKvi>:
    183a:	1840      	adds	r0, r0, r1
    183c:	4770      	bx	lr

0000183e <_ZN10__cxxabiv112_GLOBAL__N_115convert_to_baseEPKvbi>:
    183e:	b109      	cbz	r1, 1844 <_ZN10__cxxabiv112_GLOBAL__N_115convert_to_baseEPKvbi+0x6>
    1840:	6803      	ldr	r3, [r0, #0]
    1842:	589a      	ldr	r2, [r3, r2]
    1844:	4611      	mov	r1, r2
    1846:	f7ff bff8 	b.w	183a <_ZN10__cxxabiv112_GLOBAL__N_114adjust_pointerIvEEPKT_PKvi>
	...

0000184c <_ZN10__cxxabiv121__vmi_class_type_infoD1Ev>:
    184c:	4b03      	ldr	r3, [pc, #12]	; (185c <_ZN10__cxxabiv121__vmi_class_type_infoD1Ev+0x10>)
    184e:	b510      	push	{r4, lr}
    1850:	4604      	mov	r4, r0
    1852:	6003      	str	r3, [r0, #0]
    1854:	f7ff fe36 	bl	14c4 <_ZN10__cxxabiv117__class_type_infoD1Ev>
    1858:	4620      	mov	r0, r4
    185a:	bd10      	pop	{r4, pc}
    185c:	0000f2d8 	.word	0x0000f2d8

00001860 <_ZN10__cxxabiv121__vmi_class_type_infoD0Ev>:
    1860:	b510      	push	{r4, lr}
    1862:	4604      	mov	r4, r0
    1864:	f7ff fff2 	bl	184c <_ZN10__cxxabiv121__vmi_class_type_infoD1Ev>
    1868:	4620      	mov	r0, r4
    186a:	f7ff fe61 	bl	1530 <_ZdlPv>
    186e:	4620      	mov	r0, r4
    1870:	bd10      	pop	{r4, pc}

00001872 <_ZNK10__cxxabiv122__base_class_type_info14__is_virtual_pEv>:
    1872:	6840      	ldr	r0, [r0, #4]
    1874:	f000 0001 	and.w	r0, r0, #1
    1878:	4770      	bx	lr

0000187a <_ZNK10__cxxabiv122__base_class_type_info13__is_public_pEv>:
    187a:	6840      	ldr	r0, [r0, #4]
    187c:	f3c0 0040 	ubfx	r0, r0, #1, #1
    1880:	4770      	bx	lr

00001882 <_ZNK10__cxxabiv122__base_class_type_info8__offsetEv>:
    1882:	6840      	ldr	r0, [r0, #4]
    1884:	1200      	asrs	r0, r0, #8
    1886:	4770      	bx	lr

00001888 <_ZNK10__cxxabiv121__vmi_class_type_info20__do_find_public_srcEiPKvPKNS_17__class_type_infoES2_>:
    1888:	e92d 4ff7 	stmdb	sp!, {r0, r1, r2, r4, r5, r6, r7, r8, r9, sl, fp, lr}
    188c:	468b      	mov	fp, r1
    188e:	990c      	ldr	r1, [sp, #48]	; 0x30
    1890:	4605      	mov	r5, r0
    1892:	4692      	mov	sl, r2
    1894:	4699      	mov	r9, r3
    1896:	428a      	cmp	r2, r1
    1898:	d13b      	bne.n	1912 <_ZNK10__cxxabiv121__vmi_class_type_info20__do_find_public_srcEiPKvPKNS_17__class_type_infoES2_+0x8a>
    189a:	4619      	mov	r1, r3
    189c:	f7ff ff8d 	bl	17ba <_ZNKSt9type_infoeqERKS_>
    18a0:	2800      	cmp	r0, #0
    18a2:	d132      	bne.n	190a <_ZNK10__cxxabiv121__vmi_class_type_info20__do_find_public_srcEiPKvPKNS_17__class_type_infoES2_+0x82>
    18a4:	e035      	b.n	1912 <_ZNK10__cxxabiv121__vmi_class_type_info20__do_find_public_srcEiPKvPKNS_17__class_type_infoES2_+0x8a>
    18a6:	3c01      	subs	r4, #1
    18a8:	1ca6      	adds	r6, r4, #2
    18aa:	eb05 06c6 	add.w	r6, r5, r6, lsl #3
    18ae:	4630      	mov	r0, r6
    18b0:	f7ff ffe3 	bl	187a <_ZNK10__cxxabiv122__base_class_type_info13__is_public_pEv>
    18b4:	b318      	cbz	r0, 18fe <_ZNK10__cxxabiv121__vmi_class_type_info20__do_find_public_srcEiPKvPKNS_17__class_type_infoES2_+0x76>
    18b6:	4630      	mov	r0, r6
    18b8:	f7ff ffe3 	bl	1882 <_ZNK10__cxxabiv122__base_class_type_info8__offsetEv>
    18bc:	4607      	mov	r7, r0
    18be:	4630      	mov	r0, r6
    18c0:	f7ff ffd7 	bl	1872 <_ZNK10__cxxabiv122__base_class_type_info14__is_virtual_pEv>
    18c4:	4606      	mov	r6, r0
    18c6:	b110      	cbz	r0, 18ce <_ZNK10__cxxabiv121__vmi_class_type_info20__do_find_public_srcEiPKvPKNS_17__class_type_infoES2_+0x46>
    18c8:	f11b 0f03 	cmn.w	fp, #3
    18cc:	d017      	beq.n	18fe <_ZNK10__cxxabiv121__vmi_class_type_info20__do_find_public_srcEiPKvPKNS_17__class_type_infoES2_+0x76>
    18ce:	463a      	mov	r2, r7
    18d0:	4631      	mov	r1, r6
    18d2:	4650      	mov	r0, sl
    18d4:	f7ff ffb3 	bl	183e <_ZN10__cxxabiv112_GLOBAL__N_115convert_to_baseEPKvbi>
    18d8:	990c      	ldr	r1, [sp, #48]	; 0x30
    18da:	4602      	mov	r2, r0
    18dc:	f858 0c08 	ldr.w	r0, [r8, #-8]
    18e0:	6803      	ldr	r3, [r0, #0]
    18e2:	9100      	str	r1, [sp, #0]
    18e4:	4659      	mov	r1, fp
    18e6:	6a1f      	ldr	r7, [r3, #32]
    18e8:	464b      	mov	r3, r9
    18ea:	47b8      	blx	r7
    18ec:	4607      	mov	r7, r0
    18ee:	f7ff ff9c 	bl	182a <_ZN10__cxxabiv112_GLOBAL__N_111contained_pENS_17__class_type_info10__sub_kindE>
    18f2:	b120      	cbz	r0, 18fe <_ZNK10__cxxabiv121__vmi_class_type_info20__do_find_public_srcEiPKvPKNS_17__class_type_infoES2_+0x76>
    18f4:	b156      	cbz	r6, 190c <_ZNK10__cxxabiv121__vmi_class_type_info20__do_find_public_srcEiPKvPKNS_17__class_type_infoES2_+0x84>
    18f6:	f047 0701 	orr.w	r7, r7, #1
    18fa:	b2ff      	uxtb	r7, r7
    18fc:	e006      	b.n	190c <_ZNK10__cxxabiv121__vmi_class_type_info20__do_find_public_srcEiPKvPKNS_17__class_type_infoES2_+0x84>
    18fe:	f1a8 0808 	sub.w	r8, r8, #8
    1902:	2c00      	cmp	r4, #0
    1904:	d1cf      	bne.n	18a6 <_ZNK10__cxxabiv121__vmi_class_type_info20__do_find_public_srcEiPKvPKNS_17__class_type_infoES2_+0x1e>
    1906:	2701      	movs	r7, #1
    1908:	e000      	b.n	190c <_ZNK10__cxxabiv121__vmi_class_type_info20__do_find_public_srcEiPKvPKNS_17__class_type_infoES2_+0x84>
    190a:	2706      	movs	r7, #6
    190c:	4638      	mov	r0, r7
    190e:	e8bd 8ffe 	ldmia.w	sp!, {r1, r2, r3, r4, r5, r6, r7, r8, r9, sl, fp, pc}
    1912:	68ec      	ldr	r4, [r5, #12]
    1914:	f104 0802 	add.w	r8, r4, #2
    1918:	eb05 08c8 	add.w	r8, r5, r8, lsl #3
    191c:	e7f1      	b.n	1902 <_ZNK10__cxxabiv121__vmi_class_type_info20__do_find_public_srcEiPKvPKNS_17__class_type_infoES2_+0x7a>

0000191e <_ZNK10__cxxabiv121__vmi_class_type_info11__do_upcastEPKNS_17__class_type_infoEPKvRNS1_15__upcast_resultE>:
    191e:	e92d 4ff0 	stmdb	sp!, {r4, r5, r6, r7, r8, r9, sl, fp, lr}
    1922:	b089      	sub	sp, #36	; 0x24
    1924:	4605      	mov	r5, r0
    1926:	4692      	mov	sl, r2
    1928:	9103      	str	r1, [sp, #12]
    192a:	461c      	mov	r4, r3
    192c:	f7ff fd8b 	bl	1446 <_ZNK10__cxxabiv117__class_type_info11__do_upcastEPKS0_PKvRNS0_15__upcast_resultE>
    1930:	2800      	cmp	r0, #0
    1932:	f040 808d 	bne.w	1a50 <_ZNK10__cxxabiv121__vmi_class_type_info11__do_upcastEPKNS_17__class_type_infoEPKvRNS1_15__upcast_resultE+0x132>
    1936:	f8d4 9008 	ldr.w	r9, [r4, #8]
    193a:	f8d5 800c 	ldr.w	r8, [r5, #12]
    193e:	f019 0f10 	tst.w	r9, #16
    1942:	f108 0602 	add.w	r6, r8, #2
    1946:	bf18      	it	ne
    1948:	f8d5 9008 	ldrne.w	r9, [r5, #8]
    194c:	eb05 06c6 	add.w	r6, r5, r6, lsl #3
    1950:	e076      	b.n	1a40 <_ZNK10__cxxabiv121__vmi_class_type_info11__do_upcastEPKNS_17__class_type_infoEPKvRNS1_15__upcast_resultE+0x122>
    1952:	4649      	mov	r1, r9
    1954:	f108 38ff 	add.w	r8, r8, #4294967295
    1958:	a804      	add	r0, sp, #16
    195a:	f7ff fdc6 	bl	14ea <_ZN10__cxxabiv117__class_type_info15__upcast_resultC1Ei>
    195e:	f108 0302 	add.w	r3, r8, #2
    1962:	eb05 03c3 	add.w	r3, r5, r3, lsl #3
    1966:	9301      	str	r3, [sp, #4]
    1968:	4618      	mov	r0, r3
    196a:	f7ff ff8a 	bl	1882 <_ZNK10__cxxabiv122__base_class_type_info8__offsetEv>
    196e:	9b01      	ldr	r3, [sp, #4]
    1970:	4607      	mov	r7, r0
    1972:	4618      	mov	r0, r3
    1974:	f7ff ff7d 	bl	1872 <_ZNK10__cxxabiv122__base_class_type_info14__is_virtual_pEv>
    1978:	9b01      	ldr	r3, [sp, #4]
    197a:	4683      	mov	fp, r0
    197c:	4618      	mov	r0, r3
    197e:	f7ff ff7c 	bl	187a <_ZNK10__cxxabiv122__base_class_type_info13__is_public_pEv>
    1982:	9002      	str	r0, [sp, #8]
    1984:	b910      	cbnz	r0, 198c <_ZNK10__cxxabiv121__vmi_class_type_info11__do_upcastEPKNS_17__class_type_infoEPKvRNS1_15__upcast_resultE+0x6e>
    1986:	f019 0f01 	tst.w	r9, #1
    198a:	d058      	beq.n	1a3e <_ZNK10__cxxabiv121__vmi_class_type_info11__do_upcastEPKNS_17__class_type_infoEPKvRNS1_15__upcast_resultE+0x120>
    198c:	f1ba 0f00 	cmp.w	sl, #0
    1990:	d006      	beq.n	19a0 <_ZNK10__cxxabiv121__vmi_class_type_info11__do_upcastEPKNS_17__class_type_infoEPKvRNS1_15__upcast_resultE+0x82>
    1992:	463a      	mov	r2, r7
    1994:	4650      	mov	r0, sl
    1996:	4659      	mov	r1, fp
    1998:	f7ff ff51 	bl	183e <_ZN10__cxxabiv112_GLOBAL__N_115convert_to_baseEPKvbi>
    199c:	4602      	mov	r2, r0
    199e:	e000      	b.n	19a2 <_ZNK10__cxxabiv121__vmi_class_type_info11__do_upcastEPKNS_17__class_type_infoEPKvRNS1_15__upcast_resultE+0x84>
    19a0:	4652      	mov	r2, sl
    19a2:	f856 0c08 	ldr.w	r0, [r6, #-8]
    19a6:	9903      	ldr	r1, [sp, #12]
    19a8:	6803      	ldr	r3, [r0, #0]
    19aa:	699f      	ldr	r7, [r3, #24]
    19ac:	ab04      	add	r3, sp, #16
    19ae:	47b8      	blx	r7
    19b0:	2800      	cmp	r0, #0
    19b2:	d044      	beq.n	1a3e <_ZNK10__cxxabiv121__vmi_class_type_info11__do_upcastEPKNS_17__class_type_infoEPKvRNS1_15__upcast_resultE+0x120>
    19b4:	9b07      	ldr	r3, [sp, #28]
    19b6:	2b08      	cmp	r3, #8
    19b8:	d105      	bne.n	19c6 <_ZNK10__cxxabiv121__vmi_class_type_info11__do_upcastEPKNS_17__class_type_infoEPKvRNS1_15__upcast_resultE+0xa8>
    19ba:	f1bb 0f00 	cmp.w	fp, #0
    19be:	d002      	beq.n	19c6 <_ZNK10__cxxabiv121__vmi_class_type_info11__do_upcastEPKNS_17__class_type_infoEPKvRNS1_15__upcast_resultE+0xa8>
    19c0:	f856 3c08 	ldr.w	r3, [r6, #-8]
    19c4:	9307      	str	r3, [sp, #28]
    19c6:	f89d 7014 	ldrb.w	r7, [sp, #20]
    19ca:	4638      	mov	r0, r7
    19cc:	f7ff ff2d 	bl	182a <_ZN10__cxxabiv112_GLOBAL__N_111contained_pENS_17__class_type_info10__sub_kindE>
    19d0:	b128      	cbz	r0, 19de <_ZNK10__cxxabiv121__vmi_class_type_info11__do_upcastEPKNS_17__class_type_infoEPKvRNS1_15__upcast_resultE+0xc0>
    19d2:	9b02      	ldr	r3, [sp, #8]
    19d4:	b91b      	cbnz	r3, 19de <_ZNK10__cxxabiv121__vmi_class_type_info11__do_upcastEPKNS_17__class_type_infoEPKvRNS1_15__upcast_resultE+0xc0>
    19d6:	f027 0702 	bic.w	r7, r7, #2
    19da:	f88d 7014 	strb.w	r7, [sp, #20]
    19de:	68e1      	ldr	r1, [r4, #12]
    19e0:	b9c9      	cbnz	r1, 1a16 <_ZNK10__cxxabiv121__vmi_class_type_info11__do_upcastEPKNS_17__class_type_infoEPKvRNS1_15__upcast_resultE+0xf8>
    19e2:	ab04      	add	r3, sp, #16
    19e4:	cb0f      	ldmia	r3, {r0, r1, r2, r3}
    19e6:	e884 000f 	stmia.w	r4, {r0, r1, r2, r3}
    19ea:	7927      	ldrb	r7, [r4, #4]
    19ec:	4638      	mov	r0, r7
    19ee:	f7ff ff1c 	bl	182a <_ZN10__cxxabiv112_GLOBAL__N_111contained_pENS_17__class_type_info10__sub_kindE>
    19f2:	2800      	cmp	r0, #0
    19f4:	d02c      	beq.n	1a50 <_ZNK10__cxxabiv121__vmi_class_type_info11__do_upcastEPKNS_17__class_type_infoEPKvRNS1_15__upcast_resultE+0x132>
    19f6:	f017 0f02 	tst.w	r7, #2
    19fa:	d003      	beq.n	1a04 <_ZNK10__cxxabiv121__vmi_class_type_info11__do_upcastEPKNS_17__class_type_infoEPKvRNS1_15__upcast_resultE+0xe6>
    19fc:	68ab      	ldr	r3, [r5, #8]
    19fe:	f013 0f01 	tst.w	r3, #1
    1a02:	e006      	b.n	1a12 <_ZNK10__cxxabiv121__vmi_class_type_info11__do_upcastEPKNS_17__class_type_infoEPKvRNS1_15__upcast_resultE+0xf4>
    1a04:	4638      	mov	r0, r7
    1a06:	f7ff ff15 	bl	1834 <_ZN10__cxxabiv112_GLOBAL__N_19virtual_pENS_17__class_type_info10__sub_kindE>
    1a0a:	b308      	cbz	r0, 1a50 <_ZNK10__cxxabiv121__vmi_class_type_info11__do_upcastEPKNS_17__class_type_infoEPKvRNS1_15__upcast_resultE+0x132>
    1a0c:	68ab      	ldr	r3, [r5, #8]
    1a0e:	f013 0f02 	tst.w	r3, #2
    1a12:	d114      	bne.n	1a3e <_ZNK10__cxxabiv121__vmi_class_type_info11__do_upcastEPKNS_17__class_type_infoEPKvRNS1_15__upcast_resultE+0x120>
    1a14:	e01c      	b.n	1a50 <_ZNK10__cxxabiv121__vmi_class_type_info11__do_upcastEPKNS_17__class_type_infoEPKvRNS1_15__upcast_resultE+0x132>
    1a16:	6823      	ldr	r3, [r4, #0]
    1a18:	9a04      	ldr	r2, [sp, #16]
    1a1a:	4293      	cmp	r3, r2
    1a1c:	d003      	beq.n	1a26 <_ZNK10__cxxabiv121__vmi_class_type_info11__do_upcastEPKNS_17__class_type_infoEPKvRNS1_15__upcast_resultE+0x108>
    1a1e:	2300      	movs	r3, #0
    1a20:	6023      	str	r3, [r4, #0]
    1a22:	3302      	adds	r3, #2
    1a24:	e009      	b.n	1a3a <_ZNK10__cxxabiv121__vmi_class_type_info11__do_upcastEPKNS_17__class_type_infoEPKvRNS1_15__upcast_resultE+0x11c>
    1a26:	b9bb      	cbnz	r3, 1a58 <_ZNK10__cxxabiv121__vmi_class_type_info11__do_upcastEPKNS_17__class_type_infoEPKvRNS1_15__upcast_resultE+0x13a>
    1a28:	9807      	ldr	r0, [sp, #28]
    1a2a:	2808      	cmp	r0, #8
    1a2c:	d004      	beq.n	1a38 <_ZNK10__cxxabiv121__vmi_class_type_info11__do_upcastEPKNS_17__class_type_infoEPKvRNS1_15__upcast_resultE+0x11a>
    1a2e:	2908      	cmp	r1, #8
    1a30:	d002      	beq.n	1a38 <_ZNK10__cxxabiv121__vmi_class_type_info11__do_upcastEPKNS_17__class_type_infoEPKvRNS1_15__upcast_resultE+0x11a>
    1a32:	f7ff fec2 	bl	17ba <_ZNKSt9type_infoeqERKS_>
    1a36:	b978      	cbnz	r0, 1a58 <_ZNK10__cxxabiv121__vmi_class_type_info11__do_upcastEPKNS_17__class_type_infoEPKvRNS1_15__upcast_resultE+0x13a>
    1a38:	2302      	movs	r3, #2
    1a3a:	7123      	strb	r3, [r4, #4]
    1a3c:	e008      	b.n	1a50 <_ZNK10__cxxabiv121__vmi_class_type_info11__do_upcastEPKNS_17__class_type_infoEPKvRNS1_15__upcast_resultE+0x132>
    1a3e:	3e08      	subs	r6, #8
    1a40:	f1b8 0f00 	cmp.w	r8, #0
    1a44:	d185      	bne.n	1952 <_ZNK10__cxxabiv121__vmi_class_type_info11__do_upcastEPKNS_17__class_type_infoEPKvRNS1_15__upcast_resultE+0x34>
    1a46:	7920      	ldrb	r0, [r4, #4]
    1a48:	3800      	subs	r0, #0
    1a4a:	bf18      	it	ne
    1a4c:	2001      	movne	r0, #1
    1a4e:	e000      	b.n	1a52 <_ZNK10__cxxabiv121__vmi_class_type_info11__do_upcastEPKNS_17__class_type_infoEPKvRNS1_15__upcast_resultE+0x134>
    1a50:	2001      	movs	r0, #1
    1a52:	b009      	add	sp, #36	; 0x24
    1a54:	e8bd 8ff0 	ldmia.w	sp!, {r4, r5, r6, r7, r8, r9, sl, fp, pc}
    1a58:	7923      	ldrb	r3, [r4, #4]
    1a5a:	f89d 2014 	ldrb.w	r2, [sp, #20]
    1a5e:	ea42 0303 	orr.w	r3, r2, r3
    1a62:	7123      	strb	r3, [r4, #4]
    1a64:	e7eb      	b.n	1a3e <_ZNK10__cxxabiv121__vmi_class_type_info11__do_upcastEPKNS_17__class_type_infoEPKvRNS1_15__upcast_resultE+0x120>

00001a66 <_ZNK10__cxxabiv121__vmi_class_type_info12__do_dyncastEiNS_17__class_type_info10__sub_kindEPKS1_PKvS4_S6_RNS1_16__dyncast_resultE>:
    1a66:	e92d 4ff0 	stmdb	sp!, {r4, r5, r6, r7, r8, r9, sl, fp, lr}
    1a6a:	b091      	sub	sp, #68	; 0x44
    1a6c:	4607      	mov	r7, r0
    1a6e:	4689      	mov	r9, r1
    1a70:	9c1d      	ldr	r4, [sp, #116]	; 0x74
    1a72:	9307      	str	r3, [sp, #28]
    1a74:	9206      	str	r2, [sp, #24]
    1a76:	68a3      	ldr	r3, [r4, #8]
    1a78:	9a1a      	ldr	r2, [sp, #104]	; 0x68
    1a7a:	f013 0f10 	tst.w	r3, #16
    1a7e:	bf1c      	itt	ne
    1a80:	6883      	ldrne	r3, [r0, #8]
    1a82:	60a3      	strne	r3, [r4, #8]
    1a84:	9b1c      	ldr	r3, [sp, #112]	; 0x70
    1a86:	429a      	cmp	r2, r3
    1a88:	f040 813e 	bne.w	1d08 <_ZNK10__cxxabiv121__vmi_class_type_info12__do_dyncastEiNS_17__class_type_info10__sub_kindEPKS1_PKvS4_S6_RNS1_16__dyncast_resultE+0x2a2>
    1a8c:	991b      	ldr	r1, [sp, #108]	; 0x6c
    1a8e:	f7ff fe94 	bl	17ba <_ZNKSt9type_infoeqERKS_>
    1a92:	2800      	cmp	r0, #0
    1a94:	f000 8138 	beq.w	1d08 <_ZNK10__cxxabiv121__vmi_class_type_info12__do_dyncastEiNS_17__class_type_info10__sub_kindEPKS1_PKvS4_S6_RNS1_16__dyncast_resultE+0x2a2>
    1a98:	9a06      	ldr	r2, [sp, #24]
    1a9a:	7162      	strb	r2, [r4, #5]
    1a9c:	e12e      	b.n	1cfc <_ZNK10__cxxabiv121__vmi_class_type_info12__do_dyncastEiNS_17__class_type_info10__sub_kindEPKS1_PKvS4_S6_RNS1_16__dyncast_resultE+0x296>
    1a9e:	9b1a      	ldr	r3, [sp, #104]	; 0x68
    1aa0:	f1b9 0f00 	cmp.w	r9, #0
    1aa4:	9a06      	ldr	r2, [sp, #24]
    1aa6:	6023      	str	r3, [r4, #0]
    1aa8:	7122      	strb	r2, [r4, #4]
    1aaa:	db0a      	blt.n	1ac2 <_ZNK10__cxxabiv121__vmi_class_type_info12__do_dyncastEiNS_17__class_type_info10__sub_kindEPKS1_PKvS4_S6_RNS1_16__dyncast_resultE+0x5c>
    1aac:	4618      	mov	r0, r3
    1aae:	4649      	mov	r1, r9
    1ab0:	f7ff fec3 	bl	183a <_ZN10__cxxabiv112_GLOBAL__N_114adjust_pointerIvEEPKT_PKvi>
    1ab4:	9b1c      	ldr	r3, [sp, #112]	; 0x70
    1ab6:	4283      	cmp	r3, r0
    1ab8:	bf14      	ite	ne
    1aba:	2001      	movne	r0, #1
    1abc:	2006      	moveq	r0, #6
    1abe:	71a0      	strb	r0, [r4, #6]
    1ac0:	e11c      	b.n	1cfc <_ZNK10__cxxabiv121__vmi_class_type_info12__do_dyncastEiNS_17__class_type_info10__sub_kindEPKS1_PKvS4_S6_RNS1_16__dyncast_resultE+0x296>
    1ac2:	f119 0f02 	cmn.w	r9, #2
    1ac6:	f040 8119 	bne.w	1cfc <_ZNK10__cxxabiv121__vmi_class_type_info12__do_dyncastEiNS_17__class_type_info10__sub_kindEPKS1_PKvS4_S6_RNS1_16__dyncast_resultE+0x296>
    1aca:	2301      	movs	r3, #1
    1acc:	71a3      	strb	r3, [r4, #6]
    1ace:	e115      	b.n	1cfc <_ZNK10__cxxabiv121__vmi_class_type_info12__do_dyncastEiNS_17__class_type_info10__sub_kindEPKS1_PKvS4_S6_RNS1_16__dyncast_resultE+0x296>
    1ad0:	f1b9 0f00 	cmp.w	r9, #0
    1ad4:	db04      	blt.n	1ae0 <_ZNK10__cxxabiv121__vmi_class_type_info12__do_dyncastEiNS_17__class_type_info10__sub_kindEPKS1_PKvS4_S6_RNS1_16__dyncast_resultE+0x7a>
    1ad6:	981c      	ldr	r0, [sp, #112]	; 0x70
    1ad8:	f1c9 0100 	rsb	r1, r9, #0
    1adc:	f7ff fead 	bl	183a <_ZN10__cxxabiv112_GLOBAL__N_114adjust_pointerIvEEPKT_PKvi>
    1ae0:	f04f 0800 	mov.w	r8, #0
    1ae4:	2201      	movs	r2, #1
    1ae6:	9008      	str	r0, [sp, #32]
    1ae8:	f8cd 802c 	str.w	r8, [sp, #44]	; 0x2c
    1aec:	9209      	str	r2, [sp, #36]	; 0x24
    1aee:	e001      	b.n	1af4 <_ZNK10__cxxabiv121__vmi_class_type_info12__do_dyncastEiNS_17__class_type_info10__sub_kindEPKS1_PKvS4_S6_RNS1_16__dyncast_resultE+0x8e>
    1af0:	f8cd a024 	str.w	sl, [sp, #36]	; 0x24
    1af4:	f8d7 a00c 	ldr.w	sl, [r7, #12]
    1af8:	f10a 0302 	add.w	r3, sl, #2
    1afc:	eb07 03c3 	add.w	r3, r7, r3, lsl #3
    1b00:	930a      	str	r3, [sp, #40]	; 0x28
    1b02:	e0f0      	b.n	1ce6 <_ZNK10__cxxabiv121__vmi_class_type_info12__do_dyncastEiNS_17__class_type_info10__sub_kindEPKS1_PKvS4_S6_RNS1_16__dyncast_resultE+0x280>
    1b04:	f10a 3aff 	add.w	sl, sl, #4294967295
    1b08:	68a1      	ldr	r1, [r4, #8]
    1b0a:	f10a 0502 	add.w	r5, sl, #2
    1b0e:	a80d      	add	r0, sp, #52	; 0x34
    1b10:	f7ff fd1e 	bl	1550 <_ZN10__cxxabiv117__class_type_info16__dyncast_resultC1Ei>
    1b14:	eb07 05c5 	add.w	r5, r7, r5, lsl #3
    1b18:	4628      	mov	r0, r5
    1b1a:	f7ff feb2 	bl	1882 <_ZNK10__cxxabiv122__base_class_type_info8__offsetEv>
    1b1e:	4683      	mov	fp, r0
    1b20:	4628      	mov	r0, r5
    1b22:	f7ff fea6 	bl	1872 <_ZNK10__cxxabiv122__base_class_type_info14__is_virtual_pEv>
    1b26:	4601      	mov	r1, r0
    1b28:	b118      	cbz	r0, 1b32 <_ZNK10__cxxabiv121__vmi_class_type_info12__do_dyncastEiNS_17__class_type_info10__sub_kindEPKS1_PKvS4_S6_RNS1_16__dyncast_resultE+0xcc>
    1b2a:	9b06      	ldr	r3, [sp, #24]
    1b2c:	f043 0601 	orr.w	r6, r3, #1
    1b30:	e000      	b.n	1b34 <_ZNK10__cxxabiv121__vmi_class_type_info12__do_dyncastEiNS_17__class_type_info10__sub_kindEPKS1_PKvS4_S6_RNS1_16__dyncast_resultE+0xce>
    1b32:	9e06      	ldr	r6, [sp, #24]
    1b34:	465a      	mov	r2, fp
    1b36:	981a      	ldr	r0, [sp, #104]	; 0x68
    1b38:	f7ff fe81 	bl	183e <_ZN10__cxxabiv112_GLOBAL__N_115convert_to_baseEPKvbi>
    1b3c:	9a08      	ldr	r2, [sp, #32]
    1b3e:	4683      	mov	fp, r0
    1b40:	b13a      	cbz	r2, 1b52 <_ZNK10__cxxabiv121__vmi_class_type_info12__do_dyncastEiNS_17__class_type_info10__sub_kindEPKS1_PKvS4_S6_RNS1_16__dyncast_resultE+0xec>
    1b42:	4290      	cmp	r0, r2
    1b44:	9a09      	ldr	r2, [sp, #36]	; 0x24
    1b46:	bf94      	ite	ls
    1b48:	2300      	movls	r3, #0
    1b4a:	2301      	movhi	r3, #1
    1b4c:	4293      	cmp	r3, r2
    1b4e:	f000 80c5 	beq.w	1cdc <_ZNK10__cxxabiv121__vmi_class_type_info12__do_dyncastEiNS_17__class_type_info10__sub_kindEPKS1_PKvS4_S6_RNS1_16__dyncast_resultE+0x276>
    1b52:	4628      	mov	r0, r5
    1b54:	f7ff fe91 	bl	187a <_ZNK10__cxxabiv122__base_class_type_info13__is_public_pEv>
    1b58:	b948      	cbnz	r0, 1b6e <_ZNK10__cxxabiv121__vmi_class_type_info12__do_dyncastEiNS_17__class_type_info10__sub_kindEPKS1_PKvS4_S6_RNS1_16__dyncast_resultE+0x108>
    1b5a:	f119 0f02 	cmn.w	r9, #2
    1b5e:	d104      	bne.n	1b6a <_ZNK10__cxxabiv121__vmi_class_type_info12__do_dyncastEiNS_17__class_type_info10__sub_kindEPKS1_PKvS4_S6_RNS1_16__dyncast_resultE+0x104>
    1b60:	68a3      	ldr	r3, [r4, #8]
    1b62:	f013 0f03 	tst.w	r3, #3
    1b66:	f000 80bb 	beq.w	1ce0 <_ZNK10__cxxabiv121__vmi_class_type_info12__do_dyncastEiNS_17__class_type_info10__sub_kindEPKS1_PKvS4_S6_RNS1_16__dyncast_resultE+0x27a>
    1b6a:	f006 06fd 	and.w	r6, r6, #253	; 0xfd
    1b6e:	9b0a      	ldr	r3, [sp, #40]	; 0x28
    1b70:	4649      	mov	r1, r9
    1b72:	9a1b      	ldr	r2, [sp, #108]	; 0x6c
    1b74:	f853 0c08 	ldr.w	r0, [r3, #-8]
    1b78:	6803      	ldr	r3, [r0, #0]
    1b7a:	9201      	str	r2, [sp, #4]
    1b7c:	9a1c      	ldr	r2, [sp, #112]	; 0x70
    1b7e:	f8cd b000 	str.w	fp, [sp]
    1b82:	9202      	str	r2, [sp, #8]
    1b84:	aa0d      	add	r2, sp, #52	; 0x34
    1b86:	9203      	str	r2, [sp, #12]
    1b88:	4632      	mov	r2, r6
    1b8a:	69dd      	ldr	r5, [r3, #28]
    1b8c:	9b07      	ldr	r3, [sp, #28]
    1b8e:	47a8      	blx	r5
    1b90:	f89d 503a 	ldrb.w	r5, [sp, #58]	; 0x3a
    1b94:	7963      	ldrb	r3, [r4, #5]
    1b96:	f89d 2039 	ldrb.w	r2, [sp, #57]	; 0x39
    1b9a:	2d06      	cmp	r5, #6
    1b9c:	ea42 0303 	orr.w	r3, r2, r3
    1ba0:	7163      	strb	r3, [r4, #5]
    1ba2:	d001      	beq.n	1ba8 <_ZNK10__cxxabiv121__vmi_class_type_info12__do_dyncastEiNS_17__class_type_info10__sub_kindEPKS1_PKvS4_S6_RNS1_16__dyncast_resultE+0x142>
    1ba4:	2d02      	cmp	r5, #2
    1ba6:	d106      	bne.n	1bb6 <_ZNK10__cxxabiv121__vmi_class_type_info12__do_dyncastEiNS_17__class_type_info10__sub_kindEPKS1_PKvS4_S6_RNS1_16__dyncast_resultE+0x150>
    1ba8:	9b0d      	ldr	r3, [sp, #52]	; 0x34
    1baa:	71a5      	strb	r5, [r4, #6]
    1bac:	6023      	str	r3, [r4, #0]
    1bae:	f89d 3038 	ldrb.w	r3, [sp, #56]	; 0x38
    1bb2:	7123      	strb	r3, [r4, #4]
    1bb4:	e0a5      	b.n	1d02 <_ZNK10__cxxabiv121__vmi_class_type_info12__do_dyncastEiNS_17__class_type_info10__sub_kindEPKS1_PKvS4_S6_RNS1_16__dyncast_resultE+0x29c>
    1bb6:	f8d4 b000 	ldr.w	fp, [r4]
    1bba:	f1b8 0f00 	cmp.w	r8, #0
    1bbe:	d110      	bne.n	1be2 <_ZNK10__cxxabiv121__vmi_class_type_info12__do_dyncastEiNS_17__class_type_info10__sub_kindEPKS1_PKvS4_S6_RNS1_16__dyncast_resultE+0x17c>
    1bc0:	f1bb 0f00 	cmp.w	fp, #0
    1bc4:	d10d      	bne.n	1be2 <_ZNK10__cxxabiv121__vmi_class_type_info12__do_dyncastEiNS_17__class_type_info10__sub_kindEPKS1_PKvS4_S6_RNS1_16__dyncast_resultE+0x17c>
    1bc6:	9a0d      	ldr	r2, [sp, #52]	; 0x34
    1bc8:	f89d 1038 	ldrb.w	r1, [sp, #56]	; 0x38
    1bcc:	6022      	str	r2, [r4, #0]
    1bce:	7121      	strb	r1, [r4, #4]
    1bd0:	2a00      	cmp	r2, #0
    1bd2:	d07e      	beq.n	1cd2 <_ZNK10__cxxabiv121__vmi_class_type_info12__do_dyncastEiNS_17__class_type_info10__sub_kindEPKS1_PKvS4_S6_RNS1_16__dyncast_resultE+0x26c>
    1bd4:	2b00      	cmp	r3, #0
    1bd6:	d07c      	beq.n	1cd2 <_ZNK10__cxxabiv121__vmi_class_type_info12__do_dyncastEiNS_17__class_type_info10__sub_kindEPKS1_PKvS4_S6_RNS1_16__dyncast_resultE+0x26c>
    1bd8:	68bb      	ldr	r3, [r7, #8]
    1bda:	f013 0f01 	tst.w	r3, #1
    1bde:	d178      	bne.n	1cd2 <_ZNK10__cxxabiv121__vmi_class_type_info12__do_dyncastEiNS_17__class_type_info10__sub_kindEPKS1_PKvS4_S6_RNS1_16__dyncast_resultE+0x26c>
    1be0:	e08f      	b.n	1d02 <_ZNK10__cxxabiv121__vmi_class_type_info12__do_dyncastEiNS_17__class_type_info10__sub_kindEPKS1_PKvS4_S6_RNS1_16__dyncast_resultE+0x29c>
    1be2:	f1bb 0f00 	cmp.w	fp, #0
    1be6:	d00b      	beq.n	1c00 <_ZNK10__cxxabiv121__vmi_class_type_info12__do_dyncastEiNS_17__class_type_info10__sub_kindEPKS1_PKvS4_S6_RNS1_16__dyncast_resultE+0x19a>
    1be8:	9a0d      	ldr	r2, [sp, #52]	; 0x34
    1bea:	4593      	cmp	fp, r2
    1bec:	d106      	bne.n	1bfc <_ZNK10__cxxabiv121__vmi_class_type_info12__do_dyncastEiNS_17__class_type_info10__sub_kindEPKS1_PKvS4_S6_RNS1_16__dyncast_resultE+0x196>
    1bee:	7923      	ldrb	r3, [r4, #4]
    1bf0:	f89d 2038 	ldrb.w	r2, [sp, #56]	; 0x38
    1bf4:	ea42 0303 	orr.w	r3, r2, r3
    1bf8:	7123      	strb	r3, [r4, #4]
    1bfa:	e06b      	b.n	1cd4 <_ZNK10__cxxabiv121__vmi_class_type_info12__do_dyncastEiNS_17__class_type_info10__sub_kindEPKS1_PKvS4_S6_RNS1_16__dyncast_resultE+0x26e>
    1bfc:	b932      	cbnz	r2, 1c0c <_ZNK10__cxxabiv121__vmi_class_type_info12__do_dyncastEiNS_17__class_type_info10__sub_kindEPKS1_PKvS4_S6_RNS1_16__dyncast_resultE+0x1a6>
    1bfe:	b928      	cbnz	r0, 1c0c <_ZNK10__cxxabiv121__vmi_class_type_info12__do_dyncastEiNS_17__class_type_info10__sub_kindEPKS1_PKvS4_S6_RNS1_16__dyncast_resultE+0x1a6>
    1c00:	9a0d      	ldr	r2, [sp, #52]	; 0x34
    1c02:	2a00      	cmp	r2, #0
    1c04:	d066      	beq.n	1cd4 <_ZNK10__cxxabiv121__vmi_class_type_info12__do_dyncastEiNS_17__class_type_info10__sub_kindEPKS1_PKvS4_S6_RNS1_16__dyncast_resultE+0x26e>
    1c06:	f1b8 0f00 	cmp.w	r8, #0
    1c0a:	d063      	beq.n	1cd4 <_ZNK10__cxxabiv121__vmi_class_type_info12__do_dyncastEiNS_17__class_type_info10__sub_kindEPKS1_PKvS4_S6_RNS1_16__dyncast_resultE+0x26e>
    1c0c:	4618      	mov	r0, r3
    1c0e:	79a6      	ldrb	r6, [r4, #6]
    1c10:	9305      	str	r3, [sp, #20]
    1c12:	f7ff fe0a 	bl	182a <_ZN10__cxxabiv112_GLOBAL__N_111contained_pENS_17__class_type_info10__sub_kindE>
    1c16:	9b05      	ldr	r3, [sp, #20]
    1c18:	2800      	cmp	r0, #0
    1c1a:	d07d      	beq.n	1d18 <_ZNK10__cxxabiv121__vmi_class_type_info12__do_dyncastEiNS_17__class_type_info10__sub_kindEPKS1_PKvS4_S6_RNS1_16__dyncast_resultE+0x2b2>
    1c1c:	4618      	mov	r0, r3
    1c1e:	f7ff fe09 	bl	1834 <_ZN10__cxxabiv112_GLOBAL__N_19virtual_pENS_17__class_type_info10__sub_kindE>
    1c22:	b118      	cbz	r0, 1c2c <_ZNK10__cxxabiv121__vmi_class_type_info12__do_dyncastEiNS_17__class_type_info10__sub_kindEPKS1_PKvS4_S6_RNS1_16__dyncast_resultE+0x1c6>
    1c24:	68a3      	ldr	r3, [r4, #8]
    1c26:	f013 0f02 	tst.w	r3, #2
    1c2a:	d175      	bne.n	1d18 <_ZNK10__cxxabiv121__vmi_class_type_info12__do_dyncastEiNS_17__class_type_info10__sub_kindEPKS1_PKvS4_S6_RNS1_16__dyncast_resultE+0x2b2>
    1c2c:	2e00      	cmp	r6, #0
    1c2e:	bf08      	it	eq
    1c30:	2601      	moveq	r6, #1
    1c32:	2d00      	cmp	r5, #0
    1c34:	bf08      	it	eq
    1c36:	2501      	moveq	r5, #1
    1c38:	e01e      	b.n	1c78 <_ZNK10__cxxabiv121__vmi_class_type_info12__do_dyncastEiNS_17__class_type_info10__sub_kindEPKS1_PKvS4_S6_RNS1_16__dyncast_resultE+0x212>
    1c3a:	4628      	mov	r0, r5
    1c3c:	f7ff fdf5 	bl	182a <_ZN10__cxxabiv112_GLOBAL__N_111contained_pENS_17__class_type_info10__sub_kindE>
    1c40:	2800      	cmp	r0, #0
    1c42:	d06c      	beq.n	1d1e <_ZNK10__cxxabiv121__vmi_class_type_info12__do_dyncastEiNS_17__class_type_info10__sub_kindEPKS1_PKvS4_S6_RNS1_16__dyncast_resultE+0x2b8>
    1c44:	4628      	mov	r0, r5
    1c46:	f7ff fdf5 	bl	1834 <_ZN10__cxxabiv112_GLOBAL__N_19virtual_pENS_17__class_type_info10__sub_kindE>
    1c4a:	b118      	cbz	r0, 1c54 <_ZNK10__cxxabiv121__vmi_class_type_info12__do_dyncastEiNS_17__class_type_info10__sub_kindEPKS1_PKvS4_S6_RNS1_16__dyncast_resultE+0x1ee>
    1c4c:	68bb      	ldr	r3, [r7, #8]
    1c4e:	f013 0f02 	tst.w	r3, #2
    1c52:	d164      	bne.n	1d1e <_ZNK10__cxxabiv121__vmi_class_type_info12__do_dyncastEiNS_17__class_type_info10__sub_kindEPKS1_PKvS4_S6_RNS1_16__dyncast_resultE+0x2b8>
    1c54:	2601      	movs	r6, #1
    1c56:	b97d      	cbnz	r5, 1c78 <_ZNK10__cxxabiv121__vmi_class_type_info12__do_dyncastEiNS_17__class_type_info10__sub_kindEPKS1_PKvS4_S6_RNS1_16__dyncast_resultE+0x212>
    1c58:	4630      	mov	r0, r6
    1c5a:	f7ff fde6 	bl	182a <_ZN10__cxxabiv112_GLOBAL__N_111contained_pENS_17__class_type_info10__sub_kindE>
    1c5e:	2800      	cmp	r0, #0
    1c60:	d067      	beq.n	1d32 <_ZNK10__cxxabiv121__vmi_class_type_info12__do_dyncastEiNS_17__class_type_info10__sub_kindEPKS1_PKvS4_S6_RNS1_16__dyncast_resultE+0x2cc>
    1c62:	4630      	mov	r0, r6
    1c64:	f7ff fde6 	bl	1834 <_ZN10__cxxabiv112_GLOBAL__N_19virtual_pENS_17__class_type_info10__sub_kindE>
    1c68:	b128      	cbz	r0, 1c76 <_ZNK10__cxxabiv121__vmi_class_type_info12__do_dyncastEiNS_17__class_type_info10__sub_kindEPKS1_PKvS4_S6_RNS1_16__dyncast_resultE+0x210>
    1c6a:	68bb      	ldr	r3, [r7, #8]
    1c6c:	f013 0f02 	tst.w	r3, #2
    1c70:	d15f      	bne.n	1d32 <_ZNK10__cxxabiv121__vmi_class_type_info12__do_dyncastEiNS_17__class_type_info10__sub_kindEPKS1_PKvS4_S6_RNS1_16__dyncast_resultE+0x2cc>
    1c72:	3501      	adds	r5, #1
    1c74:	e000      	b.n	1c78 <_ZNK10__cxxabiv121__vmi_class_type_info12__do_dyncastEiNS_17__class_type_info10__sub_kindEPKS1_PKvS4_S6_RNS1_16__dyncast_resultE+0x212>
    1c76:	2501      	movs	r5, #1
    1c78:	ea86 0005 	eor.w	r0, r6, r5
    1c7c:	b2c0      	uxtb	r0, r0
    1c7e:	f7ff fdd4 	bl	182a <_ZN10__cxxabiv112_GLOBAL__N_111contained_pENS_17__class_type_info10__sub_kindE>
    1c82:	4683      	mov	fp, r0
    1c84:	b1a0      	cbz	r0, 1cb0 <_ZNK10__cxxabiv121__vmi_class_type_info12__do_dyncastEiNS_17__class_type_info10__sub_kindEPKS1_PKvS4_S6_RNS1_16__dyncast_resultE+0x24a>
    1c86:	4628      	mov	r0, r5
    1c88:	f7ff fdcf 	bl	182a <_ZN10__cxxabiv112_GLOBAL__N_111contained_pENS_17__class_type_info10__sub_kindE>
    1c8c:	b138      	cbz	r0, 1c9e <_ZNK10__cxxabiv121__vmi_class_type_info12__do_dyncastEiNS_17__class_type_info10__sub_kindEPKS1_PKvS4_S6_RNS1_16__dyncast_resultE+0x238>
    1c8e:	9b0d      	ldr	r3, [sp, #52]	; 0x34
    1c90:	462e      	mov	r6, r5
    1c92:	f04f 0800 	mov.w	r8, #0
    1c96:	6023      	str	r3, [r4, #0]
    1c98:	f89d 3038 	ldrb.w	r3, [sp, #56]	; 0x38
    1c9c:	7123      	strb	r3, [r4, #4]
    1c9e:	f016 0f02 	tst.w	r6, #2
    1ca2:	71a6      	strb	r6, [r4, #6]
    1ca4:	d12a      	bne.n	1cfc <_ZNK10__cxxabiv121__vmi_class_type_info12__do_dyncastEiNS_17__class_type_info10__sub_kindEPKS1_PKvS4_S6_RNS1_16__dyncast_resultE+0x296>
    1ca6:	4630      	mov	r0, r6
    1ca8:	f7ff fdc4 	bl	1834 <_ZN10__cxxabiv112_GLOBAL__N_19virtual_pENS_17__class_type_info10__sub_kindE>
    1cac:	b990      	cbnz	r0, 1cd4 <_ZNK10__cxxabiv121__vmi_class_type_info12__do_dyncastEiNS_17__class_type_info10__sub_kindEPKS1_PKvS4_S6_RNS1_16__dyncast_resultE+0x26e>
    1cae:	e028      	b.n	1d02 <_ZNK10__cxxabiv121__vmi_class_type_info12__do_dyncastEiNS_17__class_type_info10__sub_kindEPKS1_PKvS4_S6_RNS1_16__dyncast_resultE+0x29c>
    1cb0:	ea06 0505 	and.w	r5, r6, r5
    1cb4:	f04f 0801 	mov.w	r8, #1
    1cb8:	b2e8      	uxtb	r0, r5
    1cba:	f7ff fdb6 	bl	182a <_ZN10__cxxabiv112_GLOBAL__N_111contained_pENS_17__class_type_info10__sub_kindE>
    1cbe:	b120      	cbz	r0, 1cca <_ZNK10__cxxabiv121__vmi_class_type_info12__do_dyncastEiNS_17__class_type_info10__sub_kindEPKS1_PKvS4_S6_RNS1_16__dyncast_resultE+0x264>
    1cc0:	2302      	movs	r3, #2
    1cc2:	f8c4 b000 	str.w	fp, [r4]
    1cc6:	71a3      	strb	r3, [r4, #6]
    1cc8:	e01a      	b.n	1d00 <_ZNK10__cxxabiv121__vmi_class_type_info12__do_dyncastEiNS_17__class_type_info10__sub_kindEPKS1_PKvS4_S6_RNS1_16__dyncast_resultE+0x29a>
    1cca:	6020      	str	r0, [r4, #0]
    1ccc:	f884 8006 	strb.w	r8, [r4, #6]
    1cd0:	e000      	b.n	1cd4 <_ZNK10__cxxabiv121__vmi_class_type_info12__do_dyncastEiNS_17__class_type_info10__sub_kindEPKS1_PKvS4_S6_RNS1_16__dyncast_resultE+0x26e>
    1cd2:	4680      	mov	r8, r0
    1cd4:	7963      	ldrb	r3, [r4, #5]
    1cd6:	2b04      	cmp	r3, #4
    1cd8:	d102      	bne.n	1ce0 <_ZNK10__cxxabiv121__vmi_class_type_info12__do_dyncastEiNS_17__class_type_info10__sub_kindEPKS1_PKvS4_S6_RNS1_16__dyncast_resultE+0x27a>
    1cda:	e011      	b.n	1d00 <_ZNK10__cxxabiv121__vmi_class_type_info12__do_dyncastEiNS_17__class_type_info10__sub_kindEPKS1_PKvS4_S6_RNS1_16__dyncast_resultE+0x29a>
    1cdc:	2301      	movs	r3, #1
    1cde:	930b      	str	r3, [sp, #44]	; 0x2c
    1ce0:	9a0a      	ldr	r2, [sp, #40]	; 0x28
    1ce2:	3a08      	subs	r2, #8
    1ce4:	920a      	str	r2, [sp, #40]	; 0x28
    1ce6:	f1ba 0f00 	cmp.w	sl, #0
    1cea:	f47f af0b 	bne.w	1b04 <_ZNK10__cxxabiv121__vmi_class_type_info12__do_dyncastEiNS_17__class_type_info10__sub_kindEPKS1_PKvS4_S6_RNS1_16__dyncast_resultE+0x9e>
    1cee:	9b0b      	ldr	r3, [sp, #44]	; 0x2c
    1cf0:	b133      	cbz	r3, 1d00 <_ZNK10__cxxabiv121__vmi_class_type_info12__do_dyncastEiNS_17__class_type_info10__sub_kindEPKS1_PKvS4_S6_RNS1_16__dyncast_resultE+0x29a>
    1cf2:	9a09      	ldr	r2, [sp, #36]	; 0x24
    1cf4:	2a00      	cmp	r2, #0
    1cf6:	f47f aefb 	bne.w	1af0 <_ZNK10__cxxabiv121__vmi_class_type_info12__do_dyncastEiNS_17__class_type_info10__sub_kindEPKS1_PKvS4_S6_RNS1_16__dyncast_resultE+0x8a>
    1cfa:	e001      	b.n	1d00 <_ZNK10__cxxabiv121__vmi_class_type_info12__do_dyncastEiNS_17__class_type_info10__sub_kindEPKS1_PKvS4_S6_RNS1_16__dyncast_resultE+0x29a>
    1cfc:	2000      	movs	r0, #0
    1cfe:	e000      	b.n	1d02 <_ZNK10__cxxabiv121__vmi_class_type_info12__do_dyncastEiNS_17__class_type_info10__sub_kindEPKS1_PKvS4_S6_RNS1_16__dyncast_resultE+0x29c>
    1d00:	4640      	mov	r0, r8
    1d02:	b011      	add	sp, #68	; 0x44
    1d04:	e8bd 8ff0 	ldmia.w	sp!, {r4, r5, r6, r7, r8, r9, sl, fp, pc}
    1d08:	4638      	mov	r0, r7
    1d0a:	9907      	ldr	r1, [sp, #28]
    1d0c:	f7ff fd55 	bl	17ba <_ZNKSt9type_infoeqERKS_>
    1d10:	2800      	cmp	r0, #0
    1d12:	f47f aec4 	bne.w	1a9e <_ZNK10__cxxabiv121__vmi_class_type_info12__do_dyncastEiNS_17__class_type_info10__sub_kindEPKS1_PKvS4_S6_RNS1_16__dyncast_resultE+0x38>
    1d16:	e6db      	b.n	1ad0 <_ZNK10__cxxabiv121__vmi_class_type_info12__do_dyncastEiNS_17__class_type_info10__sub_kindEPKS1_PKvS4_S6_RNS1_16__dyncast_resultE+0x6a>
    1d18:	2e00      	cmp	r6, #0
    1d1a:	d19c      	bne.n	1c56 <_ZNK10__cxxabiv121__vmi_class_type_info12__do_dyncastEiNS_17__class_type_info10__sub_kindEPKS1_PKvS4_S6_RNS1_16__dyncast_resultE+0x1f0>
    1d1c:	e78d      	b.n	1c3a <_ZNK10__cxxabiv121__vmi_class_type_info12__do_dyncastEiNS_17__class_type_info10__sub_kindEPKS1_PKvS4_S6_RNS1_16__dyncast_resultE+0x1d4>
    1d1e:	9b1c      	ldr	r3, [sp, #112]	; 0x70
    1d20:	4649      	mov	r1, r9
    1d22:	9807      	ldr	r0, [sp, #28]
    1d24:	465a      	mov	r2, fp
    1d26:	9300      	str	r3, [sp, #0]
    1d28:	9b1b      	ldr	r3, [sp, #108]	; 0x6c
    1d2a:	f7ff fc18 	bl	155e <_ZNK10__cxxabiv117__class_type_info17__find_public_srcEiPKvPKS0_S2_>
    1d2e:	4606      	mov	r6, r0
    1d30:	e791      	b.n	1c56 <_ZNK10__cxxabiv121__vmi_class_type_info12__do_dyncastEiNS_17__class_type_info10__sub_kindEPKS1_PKvS4_S6_RNS1_16__dyncast_resultE+0x1f0>
    1d32:	9a1c      	ldr	r2, [sp, #112]	; 0x70
    1d34:	4649      	mov	r1, r9
    1d36:	9807      	ldr	r0, [sp, #28]
    1d38:	9b1b      	ldr	r3, [sp, #108]	; 0x6c
    1d3a:	9200      	str	r2, [sp, #0]
    1d3c:	9a0d      	ldr	r2, [sp, #52]	; 0x34
    1d3e:	f7ff fc0e 	bl	155e <_ZNK10__cxxabiv117__class_type_info17__find_public_srcEiPKvPKS0_S2_>
    1d42:	4605      	mov	r5, r0
    1d44:	e798      	b.n	1c78 <_ZNK10__cxxabiv121__vmi_class_type_info12__do_dyncastEiNS_17__class_type_info10__sub_kindEPKS1_PKvS4_S6_RNS1_16__dyncast_resultE+0x212>

00001d46 <_ZN10__cxxabiv111__terminateEPFvvE>:
    1d46:	b508      	push	{r3, lr}
    1d48:	4780      	blx	r0
    1d4a:	f003 fb4f 	bl	53ec <abort>
	...

00001d50 <_ZSt9terminatev>:
    1d50:	b508      	push	{r3, lr}
    1d52:	4b02      	ldr	r3, [pc, #8]	; (1d5c <_ZSt9terminatev+0xc>)
    1d54:	6818      	ldr	r0, [r3, #0]
    1d56:	f7ff fff6 	bl	1d46 <_ZN10__cxxabiv111__terminateEPFvvE>
    1d5a:	bf00      	nop
    1d5c:	100000e8 	.word	0x100000e8

00001d60 <_ZN9__gnu_cxx27__verbose_terminate_handlerEv>:
    1d60:	4b1d      	ldr	r3, [pc, #116]	; (1dd8 <_ZN9__gnu_cxx27__verbose_terminate_handlerEv+0x78>)
    1d62:	b573      	push	{r0, r1, r4, r5, r6, lr}
    1d64:	781e      	ldrb	r6, [r3, #0]
    1d66:	4c1d      	ldr	r4, [pc, #116]	; (1ddc <_ZN9__gnu_cxx27__verbose_terminate_handlerEv+0x7c>)
    1d68:	b116      	cbz	r6, 1d70 <_ZN9__gnu_cxx27__verbose_terminate_handlerEv+0x10>
    1d6a:	6823      	ldr	r3, [r4, #0]
    1d6c:	481c      	ldr	r0, [pc, #112]	; (1de0 <_ZN9__gnu_cxx27__verbose_terminate_handlerEv+0x80>)
    1d6e:	e02d      	b.n	1dcc <_ZN9__gnu_cxx27__verbose_terminate_handlerEv+0x6c>
    1d70:	2201      	movs	r2, #1
    1d72:	701a      	strb	r2, [r3, #0]
    1d74:	f002 fb8e 	bl	4494 <__cxa_current_exception_type>
    1d78:	b330      	cbz	r0, 1dc8 <_ZN9__gnu_cxx27__verbose_terminate_handlerEv+0x68>
    1d7a:	f7ff fd18 	bl	17ae <_ZNKSt9type_info4nameEv>
    1d7e:	ab02      	add	r3, sp, #8
    1d80:	4631      	mov	r1, r6
    1d82:	f04f 32ff 	mov.w	r2, #4294967295
    1d86:	f843 2d04 	str.w	r2, [r3, #-4]!
    1d8a:	4632      	mov	r2, r6
    1d8c:	4605      	mov	r5, r0
    1d8e:	f002 fb11 	bl	43b4 <__cxa_demangle>
    1d92:	6823      	ldr	r3, [r4, #0]
    1d94:	68d9      	ldr	r1, [r3, #12]
    1d96:	4606      	mov	r6, r0
    1d98:	4812      	ldr	r0, [pc, #72]	; (1de4 <_ZN9__gnu_cxx27__verbose_terminate_handlerEv+0x84>)
    1d9a:	f003 fe25 	bl	59e8 <fputs>
    1d9e:	9b01      	ldr	r3, [sp, #4]
    1da0:	b913      	cbnz	r3, 1da8 <_ZN9__gnu_cxx27__verbose_terminate_handlerEv+0x48>
    1da2:	6823      	ldr	r3, [r4, #0]
    1da4:	4630      	mov	r0, r6
    1da6:	e001      	b.n	1dac <_ZN9__gnu_cxx27__verbose_terminate_handlerEv+0x4c>
    1da8:	6823      	ldr	r3, [r4, #0]
    1daa:	4628      	mov	r0, r5
    1dac:	68d9      	ldr	r1, [r3, #12]
    1dae:	f003 fe1b 	bl	59e8 <fputs>
    1db2:	6823      	ldr	r3, [r4, #0]
    1db4:	480c      	ldr	r0, [pc, #48]	; (1de8 <_ZN9__gnu_cxx27__verbose_terminate_handlerEv+0x88>)
    1db6:	68d9      	ldr	r1, [r3, #12]
    1db8:	f003 fe16 	bl	59e8 <fputs>
    1dbc:	9b01      	ldr	r3, [sp, #4]
    1dbe:	b943      	cbnz	r3, 1dd2 <_ZN9__gnu_cxx27__verbose_terminate_handlerEv+0x72>
    1dc0:	4630      	mov	r0, r6
    1dc2:	f004 fb1f 	bl	6404 <free>
    1dc6:	e004      	b.n	1dd2 <_ZN9__gnu_cxx27__verbose_terminate_handlerEv+0x72>
    1dc8:	6823      	ldr	r3, [r4, #0]
    1dca:	4808      	ldr	r0, [pc, #32]	; (1dec <_ZN9__gnu_cxx27__verbose_terminate_handlerEv+0x8c>)
    1dcc:	68d9      	ldr	r1, [r3, #12]
    1dce:	f003 fe0b 	bl	59e8 <fputs>
    1dd2:	f003 fb0b 	bl	53ec <abort>
    1dd6:	bf00      	nop
    1dd8:	100009d4 	.word	0x100009d4
    1ddc:	100001dc 	.word	0x100001dc
    1de0:	0000f300 	.word	0x0000f300
    1de4:	0000f31e 	.word	0x0000f31e
    1de8:	0000f34f 	.word	0x0000f34f
    1dec:	0000f352 	.word	0x0000f352

00001df0 <d_make_empty>:
    1df0:	6942      	ldr	r2, [r0, #20]
    1df2:	4603      	mov	r3, r0
    1df4:	6981      	ldr	r1, [r0, #24]
    1df6:	428a      	cmp	r2, r1
    1df8:	da06      	bge.n	1e08 <d_make_empty+0x18>
    1dfa:	6901      	ldr	r1, [r0, #16]
    1dfc:	200c      	movs	r0, #12
    1dfe:	fb00 1002 	mla	r0, r0, r2, r1
    1e02:	3201      	adds	r2, #1
    1e04:	615a      	str	r2, [r3, #20]
    1e06:	4770      	bx	lr
    1e08:	2000      	movs	r0, #0
    1e0a:	4770      	bx	lr

00001e0c <d_make_comp>:
    1e0c:	b570      	push	{r4, r5, r6, lr}
    1e0e:	461e      	mov	r6, r3
    1e10:	1e4b      	subs	r3, r1, #1
    1e12:	460c      	mov	r4, r1
    1e14:	4615      	mov	r5, r2
    1e16:	2b40      	cmp	r3, #64	; 0x40
    1e18:	d82f      	bhi.n	1e7a <d_make_comp+0x6e>
    1e1a:	e8df f003 	tbb	[pc, r3]
    1e1e:	2121      	.short	0x2121
    1e20:	2e2e2121 	.word	0x2e2e2121
    1e24:	24242e2e 	.word	0x24242e2e
    1e28:	24242421 	.word	0x24242421
    1e2c:	24242424 	.word	0x24242424
    1e30:	2e242424 	.word	0x2e242424
    1e34:	27272727 	.word	0x27272727
    1e38:	24212727 	.word	0x24212727
    1e3c:	24242424 	.word	0x24242424
    1e40:	2627242e 	.word	0x2627242e
    1e44:	27212e21 	.word	0x27212e21
    1e48:	242e2e27 	.word	0x242e2e27
    1e4c:	21212121 	.word	0x21212121
    1e50:	21212121 	.word	0x21212121
    1e54:	2e2e2124 	.word	0x2e2e2124
    1e58:	2e242424 	.word	0x2e242424
    1e5c:	2e2e      	.short	0x2e2e
    1e5e:	24          	.byte	0x24
    1e5f:	00          	.byte	0x00
    1e60:	b17d      	cbz	r5, 1e82 <d_make_comp+0x76>
    1e62:	b91e      	cbnz	r6, 1e6c <d_make_comp+0x60>
    1e64:	e00b      	b.n	1e7e <d_make_comp+0x72>
    1e66:	b90d      	cbnz	r5, 1e6c <d_make_comp+0x60>
    1e68:	e00b      	b.n	1e82 <d_make_comp+0x76>
    1e6a:	b166      	cbz	r6, 1e86 <d_make_comp+0x7a>
    1e6c:	f7ff ffc0 	bl	1df0 <d_make_empty>
    1e70:	b150      	cbz	r0, 1e88 <d_make_comp+0x7c>
    1e72:	7004      	strb	r4, [r0, #0]
    1e74:	6045      	str	r5, [r0, #4]
    1e76:	6086      	str	r6, [r0, #8]
    1e78:	bd70      	pop	{r4, r5, r6, pc}
    1e7a:	2000      	movs	r0, #0
    1e7c:	bd70      	pop	{r4, r5, r6, pc}
    1e7e:	4630      	mov	r0, r6
    1e80:	bd70      	pop	{r4, r5, r6, pc}
    1e82:	4628      	mov	r0, r5
    1e84:	bd70      	pop	{r4, r5, r6, pc}
    1e86:	4630      	mov	r0, r6
    1e88:	bd70      	pop	{r4, r5, r6, pc}

00001e8a <d_make_name>:
    1e8a:	b538      	push	{r3, r4, r5, lr}
    1e8c:	460c      	mov	r4, r1
    1e8e:	4615      	mov	r5, r2
    1e90:	f7ff ffae 	bl	1df0 <d_make_empty>
    1e94:	b148      	cbz	r0, 1eaa <d_make_name+0x20>
    1e96:	b12c      	cbz	r4, 1ea4 <d_make_name+0x1a>
    1e98:	b135      	cbz	r5, 1ea8 <d_make_name+0x1e>
    1e9a:	2300      	movs	r3, #0
    1e9c:	6044      	str	r4, [r0, #4]
    1e9e:	7003      	strb	r3, [r0, #0]
    1ea0:	6085      	str	r5, [r0, #8]
    1ea2:	bd38      	pop	{r3, r4, r5, pc}
    1ea4:	4620      	mov	r0, r4
    1ea6:	bd38      	pop	{r3, r4, r5, pc}
    1ea8:	4628      	mov	r0, r5
    1eaa:	bd38      	pop	{r3, r4, r5, pc}

00001eac <d_make_builtin_type>:
    1eac:	b510      	push	{r4, lr}
    1eae:	460c      	mov	r4, r1
    1eb0:	b131      	cbz	r1, 1ec0 <d_make_builtin_type+0x14>
    1eb2:	f7ff ff9d 	bl	1df0 <d_make_empty>
    1eb6:	b120      	cbz	r0, 1ec2 <d_make_builtin_type+0x16>
    1eb8:	2323      	movs	r3, #35	; 0x23
    1eba:	6044      	str	r4, [r0, #4]
    1ebc:	7003      	strb	r3, [r0, #0]
    1ebe:	bd10      	pop	{r4, pc}
    1ec0:	4608      	mov	r0, r1
    1ec2:	bd10      	pop	{r4, pc}

00001ec4 <d_make_sub>:
    1ec4:	b538      	push	{r3, r4, r5, lr}
    1ec6:	460c      	mov	r4, r1
    1ec8:	4615      	mov	r5, r2
    1eca:	f7ff ff91 	bl	1df0 <d_make_empty>
    1ece:	b118      	cbz	r0, 1ed8 <d_make_sub+0x14>
    1ed0:	2316      	movs	r3, #22
    1ed2:	6044      	str	r4, [r0, #4]
    1ed4:	7003      	strb	r3, [r0, #0]
    1ed6:	6085      	str	r5, [r0, #8]
    1ed8:	bd38      	pop	{r3, r4, r5, pc}

00001eda <d_cv_qualifiers>:
    1eda:	b570      	push	{r4, r5, r6, lr}
    1edc:	4604      	mov	r4, r0
    1ede:	460d      	mov	r5, r1
    1ee0:	4616      	mov	r6, r2
    1ee2:	68c3      	ldr	r3, [r0, #12]
    1ee4:	e022      	b.n	1f2c <d_cv_qualifiers+0x52>
    1ee6:	68e2      	ldr	r2, [r4, #12]
    1ee8:	3201      	adds	r2, #1
    1eea:	2b72      	cmp	r3, #114	; 0x72
    1eec:	60e2      	str	r2, [r4, #12]
    1eee:	d105      	bne.n	1efc <d_cv_qualifiers+0x22>
    1ef0:	2e00      	cmp	r6, #0
    1ef2:	bf0c      	ite	eq
    1ef4:	2117      	moveq	r1, #23
    1ef6:	211a      	movne	r1, #26
    1ef8:	6b23      	ldr	r3, [r4, #48]	; 0x30
    1efa:	e006      	b.n	1f0a <d_cv_qualifiers+0x30>
    1efc:	2b56      	cmp	r3, #86	; 0x56
    1efe:	6b23      	ldr	r3, [r4, #48]	; 0x30
    1f00:	d105      	bne.n	1f0e <d_cv_qualifiers+0x34>
    1f02:	2e00      	cmp	r6, #0
    1f04:	bf0c      	ite	eq
    1f06:	2118      	moveq	r1, #24
    1f08:	211b      	movne	r1, #27
    1f0a:	3309      	adds	r3, #9
    1f0c:	e004      	b.n	1f18 <d_cv_qualifiers+0x3e>
    1f0e:	2e00      	cmp	r6, #0
    1f10:	bf0c      	ite	eq
    1f12:	2119      	moveq	r1, #25
    1f14:	211c      	movne	r1, #28
    1f16:	3306      	adds	r3, #6
    1f18:	2200      	movs	r2, #0
    1f1a:	6323      	str	r3, [r4, #48]	; 0x30
    1f1c:	4620      	mov	r0, r4
    1f1e:	4613      	mov	r3, r2
    1f20:	f7ff ff74 	bl	1e0c <d_make_comp>
    1f24:	6028      	str	r0, [r5, #0]
    1f26:	b148      	cbz	r0, 1f3c <d_cv_qualifiers+0x62>
    1f28:	68e3      	ldr	r3, [r4, #12]
    1f2a:	1d05      	adds	r5, r0, #4
    1f2c:	781b      	ldrb	r3, [r3, #0]
    1f2e:	2b56      	cmp	r3, #86	; 0x56
    1f30:	d0d9      	beq.n	1ee6 <d_cv_qualifiers+0xc>
    1f32:	2b72      	cmp	r3, #114	; 0x72
    1f34:	d0d7      	beq.n	1ee6 <d_cv_qualifiers+0xc>
    1f36:	2b4b      	cmp	r3, #75	; 0x4b
    1f38:	d101      	bne.n	1f3e <d_cv_qualifiers+0x64>
    1f3a:	e7d4      	b.n	1ee6 <d_cv_qualifiers+0xc>
    1f3c:	4605      	mov	r5, r0
    1f3e:	4628      	mov	r0, r5
    1f40:	bd70      	pop	{r4, r5, r6, pc}

00001f42 <d_add_substitution>:
    1f42:	b151      	cbz	r1, 1f5a <d_add_substitution+0x18>
    1f44:	6a03      	ldr	r3, [r0, #32]
    1f46:	6a42      	ldr	r2, [r0, #36]	; 0x24
    1f48:	4293      	cmp	r3, r2
    1f4a:	da08      	bge.n	1f5e <d_add_substitution+0x1c>
    1f4c:	69c2      	ldr	r2, [r0, #28]
    1f4e:	f842 1023 	str.w	r1, [r2, r3, lsl #2]
    1f52:	3301      	adds	r3, #1
    1f54:	6203      	str	r3, [r0, #32]
    1f56:	2001      	movs	r0, #1
    1f58:	4770      	bx	lr
    1f5a:	4608      	mov	r0, r1
    1f5c:	4770      	bx	lr
    1f5e:	2000      	movs	r0, #0
    1f60:	4770      	bx	lr

00001f62 <d_substitution>:
    1f62:	68c3      	ldr	r3, [r0, #12]
    1f64:	b570      	push	{r4, r5, r6, lr}
    1f66:	4604      	mov	r4, r0
    1f68:	781a      	ldrb	r2, [r3, #0]
    1f6a:	2a53      	cmp	r2, #83	; 0x53
    1f6c:	d16f      	bne.n	204e <d_substitution+0xec>
    1f6e:	1c5a      	adds	r2, r3, #1
    1f70:	60c2      	str	r2, [r0, #12]
    1f72:	785b      	ldrb	r3, [r3, #1]
    1f74:	b11b      	cbz	r3, 1f7e <d_substitution+0x1c>
    1f76:	3201      	adds	r2, #1
    1f78:	2b5f      	cmp	r3, #95	; 0x5f
    1f7a:	60c2      	str	r2, [r0, #12]
    1f7c:	d02e      	beq.n	1fdc <d_substitution+0x7a>
    1f7e:	f1a3 0230 	sub.w	r2, r3, #48	; 0x30
    1f82:	b2d2      	uxtb	r2, r2
    1f84:	2a09      	cmp	r2, #9
    1f86:	d801      	bhi.n	1f8c <d_substitution+0x2a>
    1f88:	2200      	movs	r2, #0
    1f8a:	e006      	b.n	1f9a <d_substitution+0x38>
    1f8c:	f1a3 0241 	sub.w	r2, r3, #65	; 0x41
    1f90:	b2d2      	uxtb	r2, r2
    1f92:	2a19      	cmp	r2, #25
    1f94:	d9f8      	bls.n	1f88 <d_substitution+0x26>
    1f96:	e02c      	b.n	1ff2 <d_substitution+0x90>
    1f98:	460a      	mov	r2, r1
    1f9a:	f1a3 0130 	sub.w	r1, r3, #48	; 0x30
    1f9e:	b2c9      	uxtb	r1, r1
    1fa0:	2909      	cmp	r1, #9
    1fa2:	d805      	bhi.n	1fb0 <d_substitution+0x4e>
    1fa4:	2124      	movs	r1, #36	; 0x24
    1fa6:	fb01 3302 	mla	r3, r1, r2, r3
    1faa:	f1a3 0130 	sub.w	r1, r3, #48	; 0x30
    1fae:	e009      	b.n	1fc4 <d_substitution+0x62>
    1fb0:	f1a3 0141 	sub.w	r1, r3, #65	; 0x41
    1fb4:	b2c9      	uxtb	r1, r1
    1fb6:	2919      	cmp	r1, #25
    1fb8:	d849      	bhi.n	204e <d_substitution+0xec>
    1fba:	2124      	movs	r1, #36	; 0x24
    1fbc:	fb01 3302 	mla	r3, r1, r2, r3
    1fc0:	f1a3 0137 	sub.w	r1, r3, #55	; 0x37
    1fc4:	4291      	cmp	r1, r2
    1fc6:	d342      	bcc.n	204e <d_substitution+0xec>
    1fc8:	68e2      	ldr	r2, [r4, #12]
    1fca:	7813      	ldrb	r3, [r2, #0]
    1fcc:	2b00      	cmp	r3, #0
    1fce:	d0e3      	beq.n	1f98 <d_substitution+0x36>
    1fd0:	3201      	adds	r2, #1
    1fd2:	2b5f      	cmp	r3, #95	; 0x5f
    1fd4:	60e2      	str	r2, [r4, #12]
    1fd6:	d1df      	bne.n	1f98 <d_substitution+0x36>
    1fd8:	3101      	adds	r1, #1
    1fda:	e000      	b.n	1fde <d_substitution+0x7c>
    1fdc:	2100      	movs	r1, #0
    1fde:	6a23      	ldr	r3, [r4, #32]
    1fe0:	4299      	cmp	r1, r3
    1fe2:	d236      	bcs.n	2052 <d_substitution+0xf0>
    1fe4:	6aa3      	ldr	r3, [r4, #40]	; 0x28
    1fe6:	3301      	adds	r3, #1
    1fe8:	62a3      	str	r3, [r4, #40]	; 0x28
    1fea:	69e3      	ldr	r3, [r4, #28]
    1fec:	f853 0021 	ldr.w	r0, [r3, r1, lsl #2]
    1ff0:	bd70      	pop	{r4, r5, r6, pc}
    1ff2:	68a2      	ldr	r2, [r4, #8]
    1ff4:	f012 0f08 	tst.w	r2, #8
    1ff8:	d109      	bne.n	200e <d_substitution+0xac>
    1ffa:	b151      	cbz	r1, 2012 <d_substitution+0xb0>
    1ffc:	68e2      	ldr	r2, [r4, #12]
    1ffe:	7816      	ldrb	r6, [r2, #0]
    2000:	3e43      	subs	r6, #67	; 0x43
    2002:	b2f6      	uxtb	r6, r6
    2004:	2e01      	cmp	r6, #1
    2006:	bf8c      	ite	hi
    2008:	2600      	movhi	r6, #0
    200a:	2601      	movls	r6, #1
    200c:	e002      	b.n	2014 <d_substitution+0xb2>
    200e:	2601      	movs	r6, #1
    2010:	e000      	b.n	2014 <d_substitution+0xb2>
    2012:	460e      	mov	r6, r1
    2014:	2200      	movs	r2, #0
    2016:	4910      	ldr	r1, [pc, #64]	; (2058 <d_substitution+0xf6>)
    2018:	188d      	adds	r5, r1, r2
    201a:	5c89      	ldrb	r1, [r1, r2]
    201c:	4299      	cmp	r1, r3
    201e:	d113      	bne.n	2048 <d_substitution+0xe6>
    2020:	6969      	ldr	r1, [r5, #20]
    2022:	b121      	cbz	r1, 202e <d_substitution+0xcc>
    2024:	4620      	mov	r0, r4
    2026:	69aa      	ldr	r2, [r5, #24]
    2028:	f7ff ff4c 	bl	1ec4 <d_make_sub>
    202c:	62e0      	str	r0, [r4, #44]	; 0x2c
    202e:	b116      	cbz	r6, 2036 <d_substitution+0xd4>
    2030:	68e9      	ldr	r1, [r5, #12]
    2032:	692a      	ldr	r2, [r5, #16]
    2034:	e001      	b.n	203a <d_substitution+0xd8>
    2036:	6869      	ldr	r1, [r5, #4]
    2038:	68aa      	ldr	r2, [r5, #8]
    203a:	6b23      	ldr	r3, [r4, #48]	; 0x30
    203c:	4620      	mov	r0, r4
    203e:	189b      	adds	r3, r3, r2
    2040:	6323      	str	r3, [r4, #48]	; 0x30
    2042:	e8bd 4070 	ldmia.w	sp!, {r4, r5, r6, lr}
    2046:	e73d      	b.n	1ec4 <d_make_sub>
    2048:	321c      	adds	r2, #28
    204a:	2ac4      	cmp	r2, #196	; 0xc4
    204c:	d1e3      	bne.n	2016 <d_substitution+0xb4>
    204e:	2000      	movs	r0, #0
    2050:	bd70      	pop	{r4, r5, r6, pc}
    2052:	2000      	movs	r0, #0
    2054:	bd70      	pop	{r4, r5, r6, pc}
    2056:	bf00      	nop
    2058:	0000f380 	.word	0x0000f380

0000205c <d_print_flush>:
    205c:	f8d0 1104 	ldr.w	r1, [r0, #260]	; 0x104
    2060:	b538      	push	{r3, r4, r5, lr}
    2062:	4604      	mov	r4, r0
    2064:	1843      	adds	r3, r0, r1
    2066:	2500      	movs	r5, #0
    2068:	f8d4 2110 	ldr.w	r2, [r4, #272]	; 0x110
    206c:	711d      	strb	r5, [r3, #4]
    206e:	f8d0 310c 	ldr.w	r3, [r0, #268]	; 0x10c
    2072:	3004      	adds	r0, #4
    2074:	4798      	blx	r3
    2076:	f8d4 3124 	ldr.w	r3, [r4, #292]	; 0x124
    207a:	f8c4 5104 	str.w	r5, [r4, #260]	; 0x104
    207e:	3301      	adds	r3, #1
    2080:	f8c4 3124 	str.w	r3, [r4, #292]	; 0x124
    2084:	bd38      	pop	{r3, r4, r5, pc}

00002086 <d_append_char>:
    2086:	b538      	push	{r3, r4, r5, lr}
    2088:	4604      	mov	r4, r0
    208a:	f8d0 3104 	ldr.w	r3, [r0, #260]	; 0x104
    208e:	460d      	mov	r5, r1
    2090:	2bff      	cmp	r3, #255	; 0xff
    2092:	d101      	bne.n	2098 <d_append_char+0x12>
    2094:	f7ff ffe2 	bl	205c <d_print_flush>
    2098:	f8d4 3104 	ldr.w	r3, [r4, #260]	; 0x104
    209c:	f884 5108 	strb.w	r5, [r4, #264]	; 0x108
    20a0:	18e2      	adds	r2, r4, r3
    20a2:	3301      	adds	r3, #1
    20a4:	f8c4 3104 	str.w	r3, [r4, #260]	; 0x104
    20a8:	7115      	strb	r5, [r2, #4]
    20aa:	bd38      	pop	{r3, r4, r5, pc}

000020ac <d_append_buffer>:
    20ac:	b5f8      	push	{r3, r4, r5, r6, r7, lr}
    20ae:	4605      	mov	r5, r0
    20b0:	460c      	mov	r4, r1
    20b2:	4617      	mov	r7, r2
    20b4:	2600      	movs	r6, #0
    20b6:	e004      	b.n	20c2 <d_append_buffer+0x16>
    20b8:	5da1      	ldrb	r1, [r4, r6]
    20ba:	4628      	mov	r0, r5
    20bc:	f7ff ffe3 	bl	2086 <d_append_char>
    20c0:	3601      	adds	r6, #1
    20c2:	42be      	cmp	r6, r7
    20c4:	d1f8      	bne.n	20b8 <d_append_buffer+0xc>
    20c6:	bdf8      	pop	{r3, r4, r5, r6, r7, pc}

000020c8 <d_index_template_argument>:
    20c8:	e006      	b.n	20d8 <d_index_template_argument+0x10>
    20ca:	7803      	ldrb	r3, [r0, #0]
    20cc:	2b2b      	cmp	r3, #43	; 0x2b
    20ce:	d109      	bne.n	20e4 <d_index_template_argument+0x1c>
    20d0:	2900      	cmp	r1, #0
    20d2:	dd03      	ble.n	20dc <d_index_template_argument+0x14>
    20d4:	6880      	ldr	r0, [r0, #8]
    20d6:	3901      	subs	r1, #1
    20d8:	2800      	cmp	r0, #0
    20da:	d1f6      	bne.n	20ca <d_index_template_argument+0x2>
    20dc:	b921      	cbnz	r1, 20e8 <d_index_template_argument+0x20>
    20de:	b120      	cbz	r0, 20ea <d_index_template_argument+0x22>
    20e0:	6840      	ldr	r0, [r0, #4]
    20e2:	4770      	bx	lr
    20e4:	2000      	movs	r0, #0
    20e6:	4770      	bx	lr
    20e8:	2000      	movs	r0, #0
    20ea:	4770      	bx	lr

000020ec <d_append_string>:
    20ec:	b570      	push	{r4, r5, r6, lr}
    20ee:	4604      	mov	r4, r0
    20f0:	4608      	mov	r0, r1
    20f2:	460d      	mov	r5, r1
    20f4:	f005 f852 	bl	719c <strlen>
    20f8:	4629      	mov	r1, r5
    20fa:	4602      	mov	r2, r0
    20fc:	4620      	mov	r0, r4
    20fe:	e8bd 4070 	ldmia.w	sp!, {r4, r5, r6, lr}
    2102:	e7d3      	b.n	20ac <d_append_buffer>

00002104 <d_append_num>:
    2104:	b510      	push	{r4, lr}
    2106:	b088      	sub	sp, #32
    2108:	4604      	mov	r4, r0
    210a:	460a      	mov	r2, r1
    210c:	a801      	add	r0, sp, #4
    210e:	4904      	ldr	r1, [pc, #16]	; (2120 <d_append_num+0x1c>)
    2110:	f004 ff9c 	bl	704c <sprintf>
    2114:	4620      	mov	r0, r4
    2116:	a901      	add	r1, sp, #4
    2118:	f7ff ffe8 	bl	20ec <d_append_string>
    211c:	b008      	add	sp, #32
    211e:	bd10      	pop	{r4, pc}
    2120:	00010125 	.word	0x00010125

00002124 <d_growable_string_resize>:
    2124:	68c3      	ldr	r3, [r0, #12]
    2126:	b570      	push	{r4, r5, r6, lr}
    2128:	4604      	mov	r4, r0
    212a:	b9c3      	cbnz	r3, 215e <d_growable_string_resize+0x3a>
    212c:	6885      	ldr	r5, [r0, #8]
    212e:	2d00      	cmp	r5, #0
    2130:	bf08      	it	eq
    2132:	2502      	moveq	r5, #2
    2134:	e000      	b.n	2138 <d_growable_string_resize+0x14>
    2136:	006d      	lsls	r5, r5, #1
    2138:	428d      	cmp	r5, r1
    213a:	d3fc      	bcc.n	2136 <d_growable_string_resize+0x12>
    213c:	6820      	ldr	r0, [r4, #0]
    213e:	4629      	mov	r1, r5
    2140:	f004 fc4a 	bl	69d8 <realloc>
    2144:	4606      	mov	r6, r0
    2146:	b940      	cbnz	r0, 215a <d_growable_string_resize+0x36>
    2148:	6820      	ldr	r0, [r4, #0]
    214a:	f004 f95b 	bl	6404 <free>
    214e:	2301      	movs	r3, #1
    2150:	6026      	str	r6, [r4, #0]
    2152:	6066      	str	r6, [r4, #4]
    2154:	60a6      	str	r6, [r4, #8]
    2156:	60e3      	str	r3, [r4, #12]
    2158:	bd70      	pop	{r4, r5, r6, pc}
    215a:	6020      	str	r0, [r4, #0]
    215c:	60a5      	str	r5, [r4, #8]
    215e:	bd70      	pop	{r4, r5, r6, pc}

00002160 <d_growable_string_callback_adapter>:
    2160:	b5f8      	push	{r3, r4, r5, r6, r7, lr}
    2162:	460d      	mov	r5, r1
    2164:	6851      	ldr	r1, [r2, #4]
    2166:	4607      	mov	r7, r0
    2168:	6893      	ldr	r3, [r2, #8]
    216a:	4614      	mov	r4, r2
    216c:	3101      	adds	r1, #1
    216e:	1949      	adds	r1, r1, r5
    2170:	4299      	cmp	r1, r3
    2172:	d902      	bls.n	217a <d_growable_string_callback_adapter+0x1a>
    2174:	4610      	mov	r0, r2
    2176:	f7ff ffd5 	bl	2124 <d_growable_string_resize>
    217a:	68e6      	ldr	r6, [r4, #12]
    217c:	b96e      	cbnz	r6, 219a <d_growable_string_callback_adapter+0x3a>
    217e:	6863      	ldr	r3, [r4, #4]
    2180:	462a      	mov	r2, r5
    2182:	6820      	ldr	r0, [r4, #0]
    2184:	4639      	mov	r1, r7
    2186:	18c0      	adds	r0, r0, r3
    2188:	f004 fb64 	bl	6854 <memcpy>
    218c:	6822      	ldr	r2, [r4, #0]
    218e:	6863      	ldr	r3, [r4, #4]
    2190:	1952      	adds	r2, r2, r5
    2192:	54d6      	strb	r6, [r2, r3]
    2194:	6863      	ldr	r3, [r4, #4]
    2196:	195d      	adds	r5, r3, r5
    2198:	6065      	str	r5, [r4, #4]
    219a:	bdf8      	pop	{r3, r4, r5, r6, r7, pc}

0000219c <d_number.clone.0>:
    219c:	6803      	ldr	r3, [r0, #0]
    219e:	b510      	push	{r4, lr}
    21a0:	781a      	ldrb	r2, [r3, #0]
    21a2:	2a6e      	cmp	r2, #110	; 0x6e
    21a4:	d104      	bne.n	21b0 <d_number.clone.0+0x14>
    21a6:	1c5a      	adds	r2, r3, #1
    21a8:	2101      	movs	r1, #1
    21aa:	6002      	str	r2, [r0, #0]
    21ac:	785a      	ldrb	r2, [r3, #1]
    21ae:	e000      	b.n	21b2 <d_number.clone.0+0x16>
    21b0:	2100      	movs	r1, #0
    21b2:	2300      	movs	r3, #0
    21b4:	f1a2 0430 	sub.w	r4, r2, #48	; 0x30
    21b8:	b2e4      	uxtb	r4, r4
    21ba:	2c09      	cmp	r4, #9
    21bc:	d903      	bls.n	21c6 <d_number.clone.0+0x2a>
    21be:	b101      	cbz	r1, 21c2 <d_number.clone.0+0x26>
    21c0:	425b      	negs	r3, r3
    21c2:	4618      	mov	r0, r3
    21c4:	bd10      	pop	{r4, pc}
    21c6:	240a      	movs	r4, #10
    21c8:	fb04 2303 	mla	r3, r4, r3, r2
    21cc:	6802      	ldr	r2, [r0, #0]
    21ce:	1c54      	adds	r4, r2, #1
    21d0:	6004      	str	r4, [r0, #0]
    21d2:	3b30      	subs	r3, #48	; 0x30
    21d4:	7852      	ldrb	r2, [r2, #1]
    21d6:	e7ed      	b.n	21b4 <d_number.clone.0+0x18>

000021d8 <d_call_offset>:
    21d8:	b538      	push	{r3, r4, r5, lr}
    21da:	4604      	mov	r4, r0
    21dc:	b929      	cbnz	r1, 21ea <d_call_offset+0x12>
    21de:	68c3      	ldr	r3, [r0, #12]
    21e0:	7818      	ldrb	r0, [r3, #0]
    21e2:	b310      	cbz	r0, 222a <d_call_offset+0x52>
    21e4:	4601      	mov	r1, r0
    21e6:	3301      	adds	r3, #1
    21e8:	60e3      	str	r3, [r4, #12]
    21ea:	2968      	cmp	r1, #104	; 0x68
    21ec:	d102      	bne.n	21f4 <d_call_offset+0x1c>
    21ee:	f104 000c 	add.w	r0, r4, #12
    21f2:	e00d      	b.n	2210 <d_call_offset+0x38>
    21f4:	2976      	cmp	r1, #118	; 0x76
    21f6:	d115      	bne.n	2224 <d_call_offset+0x4c>
    21f8:	f104 050c 	add.w	r5, r4, #12
    21fc:	4628      	mov	r0, r5
    21fe:	f7ff ffcd 	bl	219c <d_number.clone.0>
    2202:	68e3      	ldr	r3, [r4, #12]
    2204:	781a      	ldrb	r2, [r3, #0]
    2206:	2a5f      	cmp	r2, #95	; 0x5f
    2208:	d10c      	bne.n	2224 <d_call_offset+0x4c>
    220a:	4628      	mov	r0, r5
    220c:	3301      	adds	r3, #1
    220e:	60e3      	str	r3, [r4, #12]
    2210:	f7ff ffc4 	bl	219c <d_number.clone.0>
    2214:	68e3      	ldr	r3, [r4, #12]
    2216:	781a      	ldrb	r2, [r3, #0]
    2218:	2a5f      	cmp	r2, #95	; 0x5f
    221a:	d105      	bne.n	2228 <d_call_offset+0x50>
    221c:	3301      	adds	r3, #1
    221e:	2001      	movs	r0, #1
    2220:	60e3      	str	r3, [r4, #12]
    2222:	bd38      	pop	{r3, r4, r5, pc}
    2224:	2000      	movs	r0, #0
    2226:	bd38      	pop	{r3, r4, r5, pc}
    2228:	2000      	movs	r0, #0
    222a:	bd38      	pop	{r3, r4, r5, pc}

0000222c <d_compact_number>:
    222c:	68c3      	ldr	r3, [r0, #12]
    222e:	b510      	push	{r4, lr}
    2230:	4604      	mov	r4, r0
    2232:	781b      	ldrb	r3, [r3, #0]
    2234:	2b5f      	cmp	r3, #95	; 0x5f
    2236:	d006      	beq.n	2246 <d_compact_number+0x1a>
    2238:	2b6e      	cmp	r3, #110	; 0x6e
    223a:	d00c      	beq.n	2256 <d_compact_number+0x2a>
    223c:	300c      	adds	r0, #12
    223e:	f7ff ffad 	bl	219c <d_number.clone.0>
    2242:	3001      	adds	r0, #1
    2244:	e000      	b.n	2248 <d_compact_number+0x1c>
    2246:	2000      	movs	r0, #0
    2248:	68e3      	ldr	r3, [r4, #12]
    224a:	781a      	ldrb	r2, [r3, #0]
    224c:	2a5f      	cmp	r2, #95	; 0x5f
    224e:	d105      	bne.n	225c <d_compact_number+0x30>
    2250:	3301      	adds	r3, #1
    2252:	60e3      	str	r3, [r4, #12]
    2254:	bd10      	pop	{r4, pc}
    2256:	f04f 30ff 	mov.w	r0, #4294967295
    225a:	bd10      	pop	{r4, pc}
    225c:	f04f 30ff 	mov.w	r0, #4294967295
    2260:	bd10      	pop	{r4, pc}

00002262 <d_template_param>:
    2262:	b538      	push	{r3, r4, r5, lr}
    2264:	4604      	mov	r4, r0
    2266:	68c3      	ldr	r3, [r0, #12]
    2268:	781a      	ldrb	r2, [r3, #0]
    226a:	2a54      	cmp	r2, #84	; 0x54
    226c:	d110      	bne.n	2290 <d_template_param+0x2e>
    226e:	3301      	adds	r3, #1
    2270:	60c3      	str	r3, [r0, #12]
    2272:	f7ff ffdb 	bl	222c <d_compact_number>
    2276:	1e05      	subs	r5, r0, #0
    2278:	db0c      	blt.n	2294 <d_template_param+0x32>
    227a:	6aa3      	ldr	r3, [r4, #40]	; 0x28
    227c:	4620      	mov	r0, r4
    227e:	3301      	adds	r3, #1
    2280:	62a3      	str	r3, [r4, #40]	; 0x28
    2282:	f7ff fdb5 	bl	1df0 <d_make_empty>
    2286:	b130      	cbz	r0, 2296 <d_template_param+0x34>
    2288:	2305      	movs	r3, #5
    228a:	6045      	str	r5, [r0, #4]
    228c:	7003      	strb	r3, [r0, #0]
    228e:	bd38      	pop	{r3, r4, r5, pc}
    2290:	2000      	movs	r0, #0
    2292:	bd38      	pop	{r3, r4, r5, pc}
    2294:	2000      	movs	r0, #0
    2296:	bd38      	pop	{r3, r4, r5, pc}

00002298 <d_discriminator>:
    2298:	b508      	push	{r3, lr}
    229a:	68c3      	ldr	r3, [r0, #12]
    229c:	781a      	ldrb	r2, [r3, #0]
    229e:	2a5f      	cmp	r2, #95	; 0x5f
    22a0:	d107      	bne.n	22b2 <d_discriminator+0x1a>
    22a2:	3301      	adds	r3, #1
    22a4:	f840 3f0c 	str.w	r3, [r0, #12]!
    22a8:	f7ff ff78 	bl	219c <d_number.clone.0>
    22ac:	43c0      	mvns	r0, r0
    22ae:	0fc0      	lsrs	r0, r0, #31
    22b0:	bd08      	pop	{r3, pc}
    22b2:	2001      	movs	r0, #1
    22b4:	bd08      	pop	{r3, pc}

000022b6 <d_source_name>:
    22b6:	b570      	push	{r4, r5, r6, lr}
    22b8:	4604      	mov	r4, r0
    22ba:	300c      	adds	r0, #12
    22bc:	f7ff ff6e 	bl	219c <d_number.clone.0>
    22c0:	1e06      	subs	r6, r0, #0
    22c2:	dd34      	ble.n	232e <d_source_name+0x78>
    22c4:	68e5      	ldr	r5, [r4, #12]
    22c6:	6863      	ldr	r3, [r4, #4]
    22c8:	1b5b      	subs	r3, r3, r5
    22ca:	42b3      	cmp	r3, r6
    22cc:	db2c      	blt.n	2328 <d_source_name+0x72>
    22ce:	68a2      	ldr	r2, [r4, #8]
    22d0:	19ab      	adds	r3, r5, r6
    22d2:	60e3      	str	r3, [r4, #12]
    22d4:	f012 0f04 	tst.w	r2, #4
    22d8:	d004      	beq.n	22e4 <d_source_name+0x2e>
    22da:	5daa      	ldrb	r2, [r5, r6]
    22dc:	2a24      	cmp	r2, #36	; 0x24
    22de:	d101      	bne.n	22e4 <d_source_name+0x2e>
    22e0:	3301      	adds	r3, #1
    22e2:	60e3      	str	r3, [r4, #12]
    22e4:	2e09      	cmp	r6, #9
    22e6:	dd19      	ble.n	231c <d_source_name+0x66>
    22e8:	4628      	mov	r0, r5
    22ea:	4912      	ldr	r1, [pc, #72]	; (2334 <d_source_name+0x7e>)
    22ec:	2208      	movs	r2, #8
    22ee:	f004 faa3 	bl	6838 <memcmp>
    22f2:	b998      	cbnz	r0, 231c <d_source_name+0x66>
    22f4:	7a2b      	ldrb	r3, [r5, #8]
    22f6:	f105 0208 	add.w	r2, r5, #8
    22fa:	2b2e      	cmp	r3, #46	; 0x2e
    22fc:	d003      	beq.n	2306 <d_source_name+0x50>
    22fe:	2b5f      	cmp	r3, #95	; 0x5f
    2300:	d001      	beq.n	2306 <d_source_name+0x50>
    2302:	2b24      	cmp	r3, #36	; 0x24
    2304:	d10a      	bne.n	231c <d_source_name+0x66>
    2306:	7853      	ldrb	r3, [r2, #1]
    2308:	2b4e      	cmp	r3, #78	; 0x4e
    230a:	d107      	bne.n	231c <d_source_name+0x66>
    230c:	6b23      	ldr	r3, [r4, #48]	; 0x30
    230e:	4620      	mov	r0, r4
    2310:	4909      	ldr	r1, [pc, #36]	; (2338 <d_source_name+0x82>)
    2312:	2215      	movs	r2, #21
    2314:	3316      	adds	r3, #22
    2316:	1b9e      	subs	r6, r3, r6
    2318:	6326      	str	r6, [r4, #48]	; 0x30
    231a:	e002      	b.n	2322 <d_source_name+0x6c>
    231c:	4620      	mov	r0, r4
    231e:	4629      	mov	r1, r5
    2320:	4632      	mov	r2, r6
    2322:	f7ff fdb2 	bl	1e8a <d_make_name>
    2326:	e000      	b.n	232a <d_source_name+0x74>
    2328:	2000      	movs	r0, #0
    232a:	62e0      	str	r0, [r4, #44]	; 0x2c
    232c:	bd70      	pop	{r4, r5, r6, pc}
    232e:	2000      	movs	r0, #0
    2330:	bd70      	pop	{r4, r5, r6, pc}
    2332:	bf00      	nop
    2334:	0000fa14 	.word	0x0000fa14
    2338:	0000fa1d 	.word	0x0000fa1d

0000233c <d_encoding>:
    233c:	68c3      	ldr	r3, [r0, #12]
    233e:	e92d 41f0 	stmdb	sp!, {r4, r5, r6, r7, r8, lr}
    2342:	4604      	mov	r4, r0
    2344:	781a      	ldrb	r2, [r3, #0]
    2346:	460d      	mov	r5, r1
    2348:	2a47      	cmp	r2, #71	; 0x47
    234a:	d002      	beq.n	2352 <d_encoding+0x16>
    234c:	2a54      	cmp	r2, #84	; 0x54
    234e:	f040 8137 	bne.w	25c0 <d_encoding+0x284>
    2352:	6b22      	ldr	r2, [r4, #48]	; 0x30
    2354:	f102 0114 	add.w	r1, r2, #20
    2358:	6321      	str	r1, [r4, #48]	; 0x30
    235a:	7819      	ldrb	r1, [r3, #0]
    235c:	2954      	cmp	r1, #84	; 0x54
    235e:	d105      	bne.n	236c <d_encoding+0x30>
    2360:	1c58      	adds	r0, r3, #1
    2362:	60e0      	str	r0, [r4, #12]
    2364:	7859      	ldrb	r1, [r3, #1]
    2366:	b929      	cbnz	r1, 2374 <d_encoding+0x38>
    2368:	460e      	mov	r6, r1
    236a:	e17d      	b.n	2668 <d_encoding+0x32c>
    236c:	2947      	cmp	r1, #71	; 0x47
    236e:	f040 8125 	bne.w	25bc <d_encoding+0x280>
    2372:	e09e      	b.n	24b2 <d_encoding+0x176>
    2374:	3001      	adds	r0, #1
    2376:	2953      	cmp	r1, #83	; 0x53
    2378:	60e0      	str	r0, [r4, #12]
    237a:	d037      	beq.n	23ec <d_encoding+0xb0>
    237c:	d80d      	bhi.n	239a <d_encoding+0x5e>
    237e:	2946      	cmp	r1, #70	; 0x46
    2380:	f000 8089 	beq.w	2496 <d_encoding+0x15a>
    2384:	d803      	bhi.n	238e <d_encoding+0x52>
    2386:	2943      	cmp	r1, #67	; 0x43
    2388:	f040 8118 	bne.w	25bc <d_encoding+0x280>
    238c:	e067      	b.n	245e <d_encoding+0x122>
    238e:	2949      	cmp	r1, #73	; 0x49
    2390:	d025      	beq.n	23de <d_encoding+0xa2>
    2392:	294a      	cmp	r1, #74	; 0x4a
    2394:	f040 8112 	bne.w	25bc <d_encoding+0x280>
    2398:	e084      	b.n	24a4 <d_encoding+0x168>
    239a:	2963      	cmp	r1, #99	; 0x63
    239c:	d049      	beq.n	2432 <d_encoding+0xf6>
    239e:	d805      	bhi.n	23ac <d_encoding+0x70>
    23a0:	2954      	cmp	r1, #84	; 0x54
    23a2:	d012      	beq.n	23ca <d_encoding+0x8e>
    23a4:	2956      	cmp	r1, #86	; 0x56
    23a6:	f040 8109 	bne.w	25bc <d_encoding+0x280>
    23aa:	e005      	b.n	23b8 <d_encoding+0x7c>
    23ac:	2968      	cmp	r1, #104	; 0x68
    23ae:	d024      	beq.n	23fa <d_encoding+0xbe>
    23b0:	2976      	cmp	r1, #118	; 0x76
    23b2:	f040 8103 	bne.w	25bc <d_encoding+0x280>
    23b6:	e02e      	b.n	2416 <d_encoding+0xda>
    23b8:	320f      	adds	r2, #15
    23ba:	4620      	mov	r0, r4
    23bc:	6322      	str	r2, [r4, #48]	; 0x30
    23be:	f000 fb38 	bl	2a32 <d_type>
    23c2:	2109      	movs	r1, #9
    23c4:	4602      	mov	r2, r0
    23c6:	4620      	mov	r0, r4
    23c8:	e007      	b.n	23da <d_encoding+0x9e>
    23ca:	320a      	adds	r2, #10
    23cc:	4620      	mov	r0, r4
    23ce:	6322      	str	r2, [r4, #48]	; 0x30
    23d0:	f000 fb2f 	bl	2a32 <d_type>
    23d4:	210a      	movs	r1, #10
    23d6:	4602      	mov	r2, r0
    23d8:	4620      	mov	r0, r4
    23da:	2300      	movs	r3, #0
    23dc:	e140      	b.n	2660 <d_encoding+0x324>
    23de:	4620      	mov	r0, r4
    23e0:	f000 fb27 	bl	2a32 <d_type>
    23e4:	210c      	movs	r1, #12
    23e6:	4602      	mov	r2, r0
    23e8:	4620      	mov	r0, r4
    23ea:	e7f6      	b.n	23da <d_encoding+0x9e>
    23ec:	4620      	mov	r0, r4
    23ee:	f000 fb20 	bl	2a32 <d_type>
    23f2:	210d      	movs	r1, #13
    23f4:	4602      	mov	r2, r0
    23f6:	4620      	mov	r0, r4
    23f8:	e7ef      	b.n	23da <d_encoding+0x9e>
    23fa:	4620      	mov	r0, r4
    23fc:	f7ff feec 	bl	21d8 <d_call_offset>
    2400:	2800      	cmp	r0, #0
    2402:	f000 80d9 	beq.w	25b8 <d_encoding+0x27c>
    2406:	2100      	movs	r1, #0
    2408:	4620      	mov	r0, r4
    240a:	f7ff ff97 	bl	233c <d_encoding>
    240e:	210f      	movs	r1, #15
    2410:	4602      	mov	r2, r0
    2412:	4620      	mov	r0, r4
    2414:	e7e1      	b.n	23da <d_encoding+0x9e>
    2416:	4620      	mov	r0, r4
    2418:	f7ff fede 	bl	21d8 <d_call_offset>
    241c:	2800      	cmp	r0, #0
    241e:	f000 80cb 	beq.w	25b8 <d_encoding+0x27c>
    2422:	2100      	movs	r1, #0
    2424:	4620      	mov	r0, r4
    2426:	f7ff ff89 	bl	233c <d_encoding>
    242a:	2110      	movs	r1, #16
    242c:	4602      	mov	r2, r0
    242e:	4620      	mov	r0, r4
    2430:	e7d3      	b.n	23da <d_encoding+0x9e>
    2432:	4620      	mov	r0, r4
    2434:	2100      	movs	r1, #0
    2436:	f7ff fecf 	bl	21d8 <d_call_offset>
    243a:	2800      	cmp	r0, #0
    243c:	f000 80bc 	beq.w	25b8 <d_encoding+0x27c>
    2440:	4620      	mov	r0, r4
    2442:	2100      	movs	r1, #0
    2444:	f7ff fec8 	bl	21d8 <d_call_offset>
    2448:	2800      	cmp	r0, #0
    244a:	f000 80b5 	beq.w	25b8 <d_encoding+0x27c>
    244e:	2100      	movs	r1, #0
    2450:	4620      	mov	r0, r4
    2452:	f7ff ff73 	bl	233c <d_encoding>
    2456:	2111      	movs	r1, #17
    2458:	4602      	mov	r2, r0
    245a:	4620      	mov	r0, r4
    245c:	e7bd      	b.n	23da <d_encoding+0x9e>
    245e:	4620      	mov	r0, r4
    2460:	f000 fae7 	bl	2a32 <d_type>
    2464:	4605      	mov	r5, r0
    2466:	f104 000c 	add.w	r0, r4, #12
    246a:	f7ff fe97 	bl	219c <d_number.clone.0>
    246e:	2800      	cmp	r0, #0
    2470:	f2c0 80a4 	blt.w	25bc <d_encoding+0x280>
    2474:	68e3      	ldr	r3, [r4, #12]
    2476:	781a      	ldrb	r2, [r3, #0]
    2478:	2a5f      	cmp	r2, #95	; 0x5f
    247a:	f040 809f 	bne.w	25bc <d_encoding+0x280>
    247e:	3301      	adds	r3, #1
    2480:	4620      	mov	r0, r4
    2482:	60e3      	str	r3, [r4, #12]
    2484:	f000 fad5 	bl	2a32 <d_type>
    2488:	6b23      	ldr	r3, [r4, #48]	; 0x30
    248a:	210b      	movs	r1, #11
    248c:	3305      	adds	r3, #5
    248e:	6323      	str	r3, [r4, #48]	; 0x30
    2490:	4602      	mov	r2, r0
    2492:	4620      	mov	r0, r4
    2494:	e0e3      	b.n	265e <d_encoding+0x322>
    2496:	4620      	mov	r0, r4
    2498:	f000 facb 	bl	2a32 <d_type>
    249c:	210e      	movs	r1, #14
    249e:	4602      	mov	r2, r0
    24a0:	4620      	mov	r0, r4
    24a2:	e79a      	b.n	23da <d_encoding+0x9e>
    24a4:	4620      	mov	r0, r4
    24a6:	f000 fac4 	bl	2a32 <d_type>
    24aa:	2112      	movs	r1, #18
    24ac:	4602      	mov	r2, r0
    24ae:	4620      	mov	r0, r4
    24b0:	e793      	b.n	23da <d_encoding+0x9e>
    24b2:	1c5a      	adds	r2, r3, #1
    24b4:	60e2      	str	r2, [r4, #12]
    24b6:	785e      	ldrb	r6, [r3, #1]
    24b8:	2e00      	cmp	r6, #0
    24ba:	f000 80d5 	beq.w	2668 <d_encoding+0x32c>
    24be:	1c9a      	adds	r2, r3, #2
    24c0:	2e52      	cmp	r6, #82	; 0x52
    24c2:	60e2      	str	r2, [r4, #12]
    24c4:	d00f      	beq.n	24e6 <d_encoding+0x1aa>
    24c6:	d802      	bhi.n	24ce <d_encoding+0x192>
    24c8:	2e41      	cmp	r6, #65	; 0x41
    24ca:	d177      	bne.n	25bc <d_encoding+0x280>
    24cc:	e012      	b.n	24f4 <d_encoding+0x1b8>
    24ce:	2e56      	cmp	r6, #86	; 0x56
    24d0:	d002      	beq.n	24d8 <d_encoding+0x19c>
    24d2:	2e72      	cmp	r6, #114	; 0x72
    24d4:	d172      	bne.n	25bc <d_encoding+0x280>
    24d6:	e015      	b.n	2504 <d_encoding+0x1c8>
    24d8:	4620      	mov	r0, r4
    24da:	f000 f978 	bl	27ce <d_name>
    24de:	2113      	movs	r1, #19
    24e0:	4602      	mov	r2, r0
    24e2:	4620      	mov	r0, r4
    24e4:	e779      	b.n	23da <d_encoding+0x9e>
    24e6:	4620      	mov	r0, r4
    24e8:	f000 f971 	bl	27ce <d_name>
    24ec:	2114      	movs	r1, #20
    24ee:	4602      	mov	r2, r0
    24f0:	4620      	mov	r0, r4
    24f2:	e772      	b.n	23da <d_encoding+0x9e>
    24f4:	2100      	movs	r1, #0
    24f6:	4620      	mov	r0, r4
    24f8:	f7ff ff20 	bl	233c <d_encoding>
    24fc:	2115      	movs	r1, #21
    24fe:	4602      	mov	r2, r0
    2500:	4620      	mov	r0, r4
    2502:	e76a      	b.n	23da <d_encoding+0x9e>
    2504:	f104 000c 	add.w	r0, r4, #12
    2508:	f7ff fe48 	bl	219c <d_number.clone.0>
    250c:	2801      	cmp	r0, #1
    250e:	dd55      	ble.n	25bc <d_encoding+0x280>
    2510:	68e5      	ldr	r5, [r4, #12]
    2512:	782e      	ldrb	r6, [r5, #0]
    2514:	2e00      	cmp	r6, #0
    2516:	f000 80a7 	beq.w	2668 <d_encoding+0x32c>
    251a:	3501      	adds	r5, #1
    251c:	2e5f      	cmp	r6, #95	; 0x5f
    251e:	60e5      	str	r5, [r4, #12]
    2520:	d14c      	bne.n	25bc <d_encoding+0x280>
    2522:	1e46      	subs	r6, r0, #1
    2524:	f04f 0800 	mov.w	r8, #0
    2528:	e000      	b.n	252c <d_encoding+0x1f0>
    252a:	4698      	mov	r8, r3
    252c:	782f      	ldrb	r7, [r5, #0]
    252e:	2f00      	cmp	r7, #0
    2530:	d03e      	beq.n	25b0 <d_encoding+0x274>
    2532:	2f24      	cmp	r7, #36	; 0x24
    2534:	d11c      	bne.n	2570 <d_encoding+0x234>
    2536:	786b      	ldrb	r3, [r5, #1]
    2538:	2b53      	cmp	r3, #83	; 0x53
    253a:	d004      	beq.n	2546 <d_encoding+0x20a>
    253c:	2b5f      	cmp	r3, #95	; 0x5f
    253e:	d004      	beq.n	254a <d_encoding+0x20e>
    2540:	2b24      	cmp	r3, #36	; 0x24
    2542:	d13b      	bne.n	25bc <d_encoding+0x280>
    2544:	e002      	b.n	254c <d_encoding+0x210>
    2546:	272f      	movs	r7, #47	; 0x2f
    2548:	e000      	b.n	254c <d_encoding+0x210>
    254a:	272e      	movs	r7, #46	; 0x2e
    254c:	4620      	mov	r0, r4
    254e:	f7ff fc4f 	bl	1df0 <d_make_empty>
    2552:	4603      	mov	r3, r0
    2554:	b110      	cbz	r0, 255c <d_encoding+0x220>
    2556:	2239      	movs	r2, #57	; 0x39
    2558:	6047      	str	r7, [r0, #4]
    255a:	7002      	strb	r2, [r0, #0]
    255c:	68e5      	ldr	r5, [r4, #12]
    255e:	3502      	adds	r5, #2
    2560:	60e5      	str	r5, [r4, #12]
    2562:	b33b      	cbz	r3, 25b4 <d_encoding+0x278>
    2564:	3e02      	subs	r6, #2
    2566:	e013      	b.n	2590 <d_encoding+0x254>
    2568:	3701      	adds	r7, #1
    256a:	42b7      	cmp	r7, r6
    256c:	db01      	blt.n	2572 <d_encoding+0x236>
    256e:	e004      	b.n	257a <d_encoding+0x23e>
    2570:	2700      	movs	r7, #0
    2572:	5deb      	ldrb	r3, [r5, r7]
    2574:	b10b      	cbz	r3, 257a <d_encoding+0x23e>
    2576:	2b24      	cmp	r3, #36	; 0x24
    2578:	d1f6      	bne.n	2568 <d_encoding+0x22c>
    257a:	4629      	mov	r1, r5
    257c:	4620      	mov	r0, r4
    257e:	463a      	mov	r2, r7
    2580:	f7ff fc83 	bl	1e8a <d_make_name>
    2584:	68e5      	ldr	r5, [r4, #12]
    2586:	19ed      	adds	r5, r5, r7
    2588:	60e5      	str	r5, [r4, #12]
    258a:	4603      	mov	r3, r0
    258c:	b1a0      	cbz	r0, 25b8 <d_encoding+0x27c>
    258e:	1bf6      	subs	r6, r6, r7
    2590:	f1b8 0f00 	cmp.w	r8, #0
    2594:	d006      	beq.n	25a4 <d_encoding+0x268>
    2596:	4620      	mov	r0, r4
    2598:	2138      	movs	r1, #56	; 0x38
    259a:	4642      	mov	r2, r8
    259c:	f7ff fc36 	bl	1e0c <d_make_comp>
    25a0:	4603      	mov	r3, r0
    25a2:	b148      	cbz	r0, 25b8 <d_encoding+0x27c>
    25a4:	2e00      	cmp	r6, #0
    25a6:	dcc0      	bgt.n	252a <d_encoding+0x1ee>
    25a8:	4620      	mov	r0, r4
    25aa:	2137      	movs	r1, #55	; 0x37
    25ac:	461a      	mov	r2, r3
    25ae:	e714      	b.n	23da <d_encoding+0x9e>
    25b0:	463e      	mov	r6, r7
    25b2:	e059      	b.n	2668 <d_encoding+0x32c>
    25b4:	461e      	mov	r6, r3
    25b6:	e057      	b.n	2668 <d_encoding+0x32c>
    25b8:	4606      	mov	r6, r0
    25ba:	e055      	b.n	2668 <d_encoding+0x32c>
    25bc:	2600      	movs	r6, #0
    25be:	e053      	b.n	2668 <d_encoding+0x32c>
    25c0:	f000 f905 	bl	27ce <d_name>
    25c4:	4606      	mov	r6, r0
    25c6:	b1c0      	cbz	r0, 25fa <d_encoding+0x2be>
    25c8:	b1bd      	cbz	r5, 25fa <d_encoding+0x2be>
    25ca:	68a3      	ldr	r3, [r4, #8]
    25cc:	f013 0f01 	tst.w	r3, #1
    25d0:	d113      	bne.n	25fa <d_encoding+0x2be>
    25d2:	e000      	b.n	25d6 <d_encoding+0x29a>
    25d4:	6876      	ldr	r6, [r6, #4]
    25d6:	7833      	ldrb	r3, [r6, #0]
    25d8:	f1a3 021a 	sub.w	r2, r3, #26
    25dc:	b2d2      	uxtb	r2, r2
    25de:	2a02      	cmp	r2, #2
    25e0:	d9f8      	bls.n	25d4 <d_encoding+0x298>
    25e2:	2b02      	cmp	r3, #2
    25e4:	d140      	bne.n	2668 <d_encoding+0x32c>
    25e6:	68b3      	ldr	r3, [r6, #8]
    25e8:	e000      	b.n	25ec <d_encoding+0x2b0>
    25ea:	685b      	ldr	r3, [r3, #4]
    25ec:	781a      	ldrb	r2, [r3, #0]
    25ee:	3a1a      	subs	r2, #26
    25f0:	b2d2      	uxtb	r2, r2
    25f2:	2a02      	cmp	r2, #2
    25f4:	d9f9      	bls.n	25ea <d_encoding+0x2ae>
    25f6:	60b3      	str	r3, [r6, #8]
    25f8:	e036      	b.n	2668 <d_encoding+0x32c>
    25fa:	68e3      	ldr	r3, [r4, #12]
    25fc:	781b      	ldrb	r3, [r3, #0]
    25fe:	2e00      	cmp	r6, #0
    2600:	d032      	beq.n	2668 <d_encoding+0x32c>
    2602:	2b00      	cmp	r3, #0
    2604:	d030      	beq.n	2668 <d_encoding+0x32c>
    2606:	2b45      	cmp	r3, #69	; 0x45
    2608:	d02e      	beq.n	2668 <d_encoding+0x32c>
    260a:	4631      	mov	r1, r6
    260c:	780b      	ldrb	r3, [r1, #0]
    260e:	2b04      	cmp	r3, #4
    2610:	d004      	beq.n	261c <d_encoding+0x2e0>
    2612:	d31c      	bcc.n	264e <d_encoding+0x312>
    2614:	3b1a      	subs	r3, #26
    2616:	2b02      	cmp	r3, #2
    2618:	d819      	bhi.n	264e <d_encoding+0x312>
    261a:	e014      	b.n	2646 <d_encoding+0x30a>
    261c:	6849      	ldr	r1, [r1, #4]
    261e:	b179      	cbz	r1, 2640 <d_encoding+0x304>
    2620:	780b      	ldrb	r3, [r1, #0]
    2622:	2b08      	cmp	r3, #8
    2624:	d805      	bhi.n	2632 <d_encoding+0x2f6>
    2626:	2b07      	cmp	r3, #7
    2628:	d209      	bcs.n	263e <d_encoding+0x302>
    262a:	3b01      	subs	r3, #1
    262c:	2b01      	cmp	r3, #1
    262e:	d802      	bhi.n	2636 <d_encoding+0x2fa>
    2630:	e003      	b.n	263a <d_encoding+0x2fe>
    2632:	2b2e      	cmp	r3, #46	; 0x2e
    2634:	d003      	beq.n	263e <d_encoding+0x302>
    2636:	2100      	movs	r1, #0
    2638:	e002      	b.n	2640 <d_encoding+0x304>
    263a:	6889      	ldr	r1, [r1, #8]
    263c:	e7ef      	b.n	261e <d_encoding+0x2e2>
    263e:	2101      	movs	r1, #1
    2640:	f081 0101 	eor.w	r1, r1, #1
    2644:	e004      	b.n	2650 <d_encoding+0x314>
    2646:	6849      	ldr	r1, [r1, #4]
    2648:	2900      	cmp	r1, #0
    264a:	d1df      	bne.n	260c <d_encoding+0x2d0>
    264c:	e000      	b.n	2650 <d_encoding+0x314>
    264e:	2100      	movs	r1, #0
    2650:	4620      	mov	r0, r4
    2652:	f000 fc5e 	bl	2f12 <d_bare_function_type>
    2656:	2103      	movs	r1, #3
    2658:	4632      	mov	r2, r6
    265a:	4605      	mov	r5, r0
    265c:	4620      	mov	r0, r4
    265e:	462b      	mov	r3, r5
    2660:	e8bd 41f0 	ldmia.w	sp!, {r4, r5, r6, r7, r8, lr}
    2664:	f7ff bbd2 	b.w	1e0c <d_make_comp>
    2668:	4630      	mov	r0, r6
    266a:	e8bd 81f0 	ldmia.w	sp!, {r4, r5, r6, r7, r8, pc}

0000266e <d_mangled_name>:
    266e:	68c3      	ldr	r3, [r0, #12]
    2670:	781a      	ldrb	r2, [r3, #0]
    2672:	2a5f      	cmp	r2, #95	; 0x5f
    2674:	d10a      	bne.n	268c <d_mangled_name+0x1e>
    2676:	3301      	adds	r3, #1
    2678:	60c3      	str	r3, [r0, #12]
    267a:	68c3      	ldr	r3, [r0, #12]
    267c:	781a      	ldrb	r2, [r3, #0]
    267e:	2a5a      	cmp	r2, #90	; 0x5a
    2680:	d102      	bne.n	2688 <d_mangled_name+0x1a>
    2682:	3301      	adds	r3, #1
    2684:	60c3      	str	r3, [r0, #12]
    2686:	e659      	b.n	233c <d_encoding>
    2688:	2000      	movs	r0, #0
    268a:	4770      	bx	lr
    268c:	2900      	cmp	r1, #0
    268e:	d1fb      	bne.n	2688 <d_mangled_name+0x1a>
    2690:	e7f3      	b.n	267a <d_mangled_name+0xc>

00002692 <d_expr_primary>:
    2692:	68c3      	ldr	r3, [r0, #12]
    2694:	b570      	push	{r4, r5, r6, lr}
    2696:	4604      	mov	r4, r0
    2698:	781a      	ldrb	r2, [r3, #0]
    269a:	2a4c      	cmp	r2, #76	; 0x4c
    269c:	d13d      	bne.n	271a <d_expr_primary+0x88>
    269e:	1c5a      	adds	r2, r3, #1
    26a0:	60c2      	str	r2, [r0, #12]
    26a2:	785b      	ldrb	r3, [r3, #1]
    26a4:	2b5f      	cmp	r3, #95	; 0x5f
    26a6:	d001      	beq.n	26ac <d_expr_primary+0x1a>
    26a8:	2b5a      	cmp	r3, #90	; 0x5a
    26aa:	d104      	bne.n	26b6 <d_expr_primary+0x24>
    26ac:	4620      	mov	r0, r4
    26ae:	2100      	movs	r1, #0
    26b0:	f7ff ffdd 	bl	266e <d_mangled_name>
    26b4:	e02a      	b.n	270c <d_expr_primary+0x7a>
    26b6:	f000 f9bc 	bl	2a32 <d_type>
    26ba:	4605      	mov	r5, r0
    26bc:	2800      	cmp	r0, #0
    26be:	d02e      	beq.n	271e <d_expr_primary+0x8c>
    26c0:	7803      	ldrb	r3, [r0, #0]
    26c2:	2b23      	cmp	r3, #35	; 0x23
    26c4:	d106      	bne.n	26d4 <d_expr_primary+0x42>
    26c6:	6843      	ldr	r3, [r0, #4]
    26c8:	7c1a      	ldrb	r2, [r3, #16]
    26ca:	b11a      	cbz	r2, 26d4 <d_expr_primary+0x42>
    26cc:	6b22      	ldr	r2, [r4, #48]	; 0x30
    26ce:	685b      	ldr	r3, [r3, #4]
    26d0:	1ad3      	subs	r3, r2, r3
    26d2:	6323      	str	r3, [r4, #48]	; 0x30
    26d4:	68e3      	ldr	r3, [r4, #12]
    26d6:	781a      	ldrb	r2, [r3, #0]
    26d8:	2a6e      	cmp	r2, #110	; 0x6e
    26da:	d103      	bne.n	26e4 <d_expr_primary+0x52>
    26dc:	3301      	adds	r3, #1
    26de:	2636      	movs	r6, #54	; 0x36
    26e0:	60e3      	str	r3, [r4, #12]
    26e2:	e000      	b.n	26e6 <d_expr_primary+0x54>
    26e4:	2635      	movs	r6, #53	; 0x35
    26e6:	68e1      	ldr	r1, [r4, #12]
    26e8:	e002      	b.n	26f0 <d_expr_primary+0x5e>
    26ea:	b1d0      	cbz	r0, 2722 <d_expr_primary+0x90>
    26ec:	3201      	adds	r2, #1
    26ee:	60e2      	str	r2, [r4, #12]
    26f0:	68e2      	ldr	r2, [r4, #12]
    26f2:	7810      	ldrb	r0, [r2, #0]
    26f4:	2845      	cmp	r0, #69	; 0x45
    26f6:	d1f8      	bne.n	26ea <d_expr_primary+0x58>
    26f8:	1a52      	subs	r2, r2, r1
    26fa:	4620      	mov	r0, r4
    26fc:	f7ff fbc5 	bl	1e8a <d_make_name>
    2700:	4631      	mov	r1, r6
    2702:	462a      	mov	r2, r5
    2704:	4603      	mov	r3, r0
    2706:	4620      	mov	r0, r4
    2708:	f7ff fb80 	bl	1e0c <d_make_comp>
    270c:	68e3      	ldr	r3, [r4, #12]
    270e:	781a      	ldrb	r2, [r3, #0]
    2710:	2a45      	cmp	r2, #69	; 0x45
    2712:	d105      	bne.n	2720 <d_expr_primary+0x8e>
    2714:	3301      	adds	r3, #1
    2716:	60e3      	str	r3, [r4, #12]
    2718:	bd70      	pop	{r4, r5, r6, pc}
    271a:	2000      	movs	r0, #0
    271c:	bd70      	pop	{r4, r5, r6, pc}
    271e:	bd70      	pop	{r4, r5, r6, pc}
    2720:	2000      	movs	r0, #0
    2722:	bd70      	pop	{r4, r5, r6, pc}

00002724 <d_template_args>:
    2724:	68c3      	ldr	r3, [r0, #12]
    2726:	b573      	push	{r0, r1, r4, r5, r6, lr}
    2728:	4604      	mov	r4, r0
    272a:	781a      	ldrb	r2, [r3, #0]
    272c:	6ac6      	ldr	r6, [r0, #44]	; 0x2c
    272e:	2a49      	cmp	r2, #73	; 0x49
    2730:	d148      	bne.n	27c4 <d_template_args+0xa0>
    2732:	1c5a      	adds	r2, r3, #1
    2734:	60c2      	str	r2, [r0, #12]
    2736:	785b      	ldrb	r3, [r3, #1]
    2738:	2b45      	cmp	r3, #69	; 0x45
    273a:	d109      	bne.n	2750 <d_template_args+0x2c>
    273c:	3201      	adds	r2, #1
    273e:	60c2      	str	r2, [r0, #12]
    2740:	2200      	movs	r2, #0
    2742:	212b      	movs	r1, #43	; 0x2b
    2744:	4613      	mov	r3, r2
    2746:	b002      	add	sp, #8
    2748:	e8bd 4070 	ldmia.w	sp!, {r4, r5, r6, lr}
    274c:	f7ff bb5e 	b.w	1e0c <d_make_comp>
    2750:	ad02      	add	r5, sp, #8
    2752:	2300      	movs	r3, #0
    2754:	f845 3d04 	str.w	r3, [r5, #-4]!
    2758:	68e2      	ldr	r2, [r4, #12]
    275a:	7813      	ldrb	r3, [r2, #0]
    275c:	2b4c      	cmp	r3, #76	; 0x4c
    275e:	d011      	beq.n	2784 <d_template_args+0x60>
    2760:	2b58      	cmp	r3, #88	; 0x58
    2762:	d002      	beq.n	276a <d_template_args+0x46>
    2764:	2b49      	cmp	r3, #73	; 0x49
    2766:	d115      	bne.n	2794 <d_template_args+0x70>
    2768:	e010      	b.n	278c <d_template_args+0x68>
    276a:	3201      	adds	r2, #1
    276c:	4620      	mov	r0, r4
    276e:	60e2      	str	r2, [r4, #12]
    2770:	f000 fd15 	bl	319e <d_expression>
    2774:	68e3      	ldr	r3, [r4, #12]
    2776:	7819      	ldrb	r1, [r3, #0]
    2778:	2945      	cmp	r1, #69	; 0x45
    277a:	4602      	mov	r2, r0
    277c:	d122      	bne.n	27c4 <d_template_args+0xa0>
    277e:	3301      	adds	r3, #1
    2780:	60e3      	str	r3, [r4, #12]
    2782:	e00b      	b.n	279c <d_template_args+0x78>
    2784:	4620      	mov	r0, r4
    2786:	f7ff ff84 	bl	2692 <d_expr_primary>
    278a:	e006      	b.n	279a <d_template_args+0x76>
    278c:	4620      	mov	r0, r4
    278e:	f7ff ffc9 	bl	2724 <d_template_args>
    2792:	e002      	b.n	279a <d_template_args+0x76>
    2794:	4620      	mov	r0, r4
    2796:	f000 f94c 	bl	2a32 <d_type>
    279a:	4602      	mov	r2, r0
    279c:	b1a2      	cbz	r2, 27c8 <d_template_args+0xa4>
    279e:	4620      	mov	r0, r4
    27a0:	212b      	movs	r1, #43	; 0x2b
    27a2:	2300      	movs	r3, #0
    27a4:	f7ff fb32 	bl	1e0c <d_make_comp>
    27a8:	6028      	str	r0, [r5, #0]
    27aa:	b170      	cbz	r0, 27ca <d_template_args+0xa6>
    27ac:	68e3      	ldr	r3, [r4, #12]
    27ae:	781a      	ldrb	r2, [r3, #0]
    27b0:	2a45      	cmp	r2, #69	; 0x45
    27b2:	d002      	beq.n	27ba <d_template_args+0x96>
    27b4:	f100 0508 	add.w	r5, r0, #8
    27b8:	e7ce      	b.n	2758 <d_template_args+0x34>
    27ba:	3301      	adds	r3, #1
    27bc:	62e6      	str	r6, [r4, #44]	; 0x2c
    27be:	60e3      	str	r3, [r4, #12]
    27c0:	9801      	ldr	r0, [sp, #4]
    27c2:	e002      	b.n	27ca <d_template_args+0xa6>
    27c4:	2000      	movs	r0, #0
    27c6:	e000      	b.n	27ca <d_template_args+0xa6>
    27c8:	4610      	mov	r0, r2
    27ca:	b002      	add	sp, #8
    27cc:	bd70      	pop	{r4, r5, r6, pc}

000027ce <d_name>:
    27ce:	68c3      	ldr	r3, [r0, #12]
    27d0:	e92d 41f3 	stmdb	sp!, {r0, r1, r4, r5, r6, r7, r8, lr}
    27d4:	4604      	mov	r4, r0
    27d6:	781a      	ldrb	r2, [r3, #0]
    27d8:	3a4c      	subs	r2, #76	; 0x4c
    27da:	2a0e      	cmp	r2, #14
    27dc:	f200 8105 	bhi.w	29ea <d_name+0x21c>
    27e0:	e8df f012 	tbh	[pc, r2, lsl #1]
    27e4:	010300d7 	.word	0x010300d7
    27e8:	0103000f 	.word	0x0103000f
    27ec:	01030103 	.word	0x01030103
    27f0:	00da0103 	.word	0x00da0103
    27f4:	00d70103 	.word	0x00d70103
    27f8:	01030103 	.word	0x01030103
    27fc:	01030103 	.word	0x01030103
    2800:	0087      	.short	0x0087
    2802:	3301      	adds	r3, #1
    2804:	a901      	add	r1, sp, #4
    2806:	60c3      	str	r3, [r0, #12]
    2808:	2201      	movs	r2, #1
    280a:	f7ff fb66 	bl	1eda <d_cv_qualifiers>
    280e:	4606      	mov	r6, r0
    2810:	2800      	cmp	r0, #0
    2812:	f000 8103 	beq.w	2a1c <d_name+0x24e>
    2816:	f04f 0800 	mov.w	r8, #0
    281a:	e000      	b.n	281e <d_name+0x50>
    281c:	46b8      	mov	r8, r7
    281e:	68e3      	ldr	r3, [r4, #12]
    2820:	781d      	ldrb	r5, [r3, #0]
    2822:	2d00      	cmp	r5, #0
    2824:	d052      	beq.n	28cc <d_name+0xfe>
    2826:	f1a5 0230 	sub.w	r2, r5, #48	; 0x30
    282a:	b2d2      	uxtb	r2, r2
    282c:	2a09      	cmp	r2, #9
    282e:	d90d      	bls.n	284c <d_name+0x7e>
    2830:	f1a5 0261 	sub.w	r2, r5, #97	; 0x61
    2834:	b2d2      	uxtb	r2, r2
    2836:	2a19      	cmp	r2, #25
    2838:	d908      	bls.n	284c <d_name+0x7e>
    283a:	f1a5 0243 	sub.w	r2, r5, #67	; 0x43
    283e:	b2d1      	uxtb	r1, r2
    2840:	2912      	cmp	r1, #18
    2842:	d807      	bhi.n	2854 <d_name+0x86>
    2844:	4977      	ldr	r1, [pc, #476]	; (2a24 <d_name+0x256>)
    2846:	b252      	sxtb	r2, r2
    2848:	4091      	lsls	r1, r2
    284a:	d503      	bpl.n	2854 <d_name+0x86>
    284c:	4620      	mov	r0, r4
    284e:	f000 fbe1 	bl	3014 <d_unqualified_name>
    2852:	e016      	b.n	2882 <d_name+0xb4>
    2854:	2d53      	cmp	r5, #83	; 0x53
    2856:	d104      	bne.n	2862 <d_name+0x94>
    2858:	4620      	mov	r0, r4
    285a:	2101      	movs	r1, #1
    285c:	f7ff fb81 	bl	1f62 <d_substitution>
    2860:	e00f      	b.n	2882 <d_name+0xb4>
    2862:	2d49      	cmp	r5, #73	; 0x49
    2864:	d108      	bne.n	2878 <d_name+0xaa>
    2866:	f1b8 0f00 	cmp.w	r8, #0
    286a:	d033      	beq.n	28d4 <d_name+0x106>
    286c:	4620      	mov	r0, r4
    286e:	f7ff ff59 	bl	2724 <d_template_args>
    2872:	2104      	movs	r1, #4
    2874:	4607      	mov	r7, r0
    2876:	e015      	b.n	28a4 <d_name+0xd6>
    2878:	2d54      	cmp	r5, #84	; 0x54
    287a:	d107      	bne.n	288c <d_name+0xbe>
    287c:	4620      	mov	r0, r4
    287e:	f7ff fcf0 	bl	2262 <d_template_param>
    2882:	4607      	mov	r7, r0
    2884:	f1b8 0f00 	cmp.w	r8, #0
    2888:	d10b      	bne.n	28a2 <d_name+0xd4>
    288a:	e011      	b.n	28b0 <d_name+0xe2>
    288c:	2d45      	cmp	r5, #69	; 0x45
    288e:	d021      	beq.n	28d4 <d_name+0x106>
    2890:	2d4d      	cmp	r5, #77	; 0x4d
    2892:	d11d      	bne.n	28d0 <d_name+0x102>
    2894:	f1b8 0f00 	cmp.w	r8, #0
    2898:	d01c      	beq.n	28d4 <d_name+0x106>
    289a:	3301      	adds	r3, #1
    289c:	4647      	mov	r7, r8
    289e:	60e3      	str	r3, [r4, #12]
    28a0:	e7bc      	b.n	281c <d_name+0x4e>
    28a2:	2101      	movs	r1, #1
    28a4:	463b      	mov	r3, r7
    28a6:	4620      	mov	r0, r4
    28a8:	4642      	mov	r2, r8
    28aa:	f7ff faaf 	bl	1e0c <d_make_comp>
    28ae:	4607      	mov	r7, r0
    28b0:	2d53      	cmp	r5, #83	; 0x53
    28b2:	d0b3      	beq.n	281c <d_name+0x4e>
    28b4:	68e3      	ldr	r3, [r4, #12]
    28b6:	781b      	ldrb	r3, [r3, #0]
    28b8:	2b45      	cmp	r3, #69	; 0x45
    28ba:	d0af      	beq.n	281c <d_name+0x4e>
    28bc:	4620      	mov	r0, r4
    28be:	4639      	mov	r1, r7
    28c0:	f7ff fb3f 	bl	1f42 <d_add_substitution>
    28c4:	2800      	cmp	r0, #0
    28c6:	d1a9      	bne.n	281c <d_name+0x4e>
    28c8:	4680      	mov	r8, r0
    28ca:	e003      	b.n	28d4 <d_name+0x106>
    28cc:	46a8      	mov	r8, r5
    28ce:	e001      	b.n	28d4 <d_name+0x106>
    28d0:	f04f 0800 	mov.w	r8, #0
    28d4:	f8c6 8000 	str.w	r8, [r6]
    28d8:	f1b8 0f00 	cmp.w	r8, #0
    28dc:	d007      	beq.n	28ee <d_name+0x120>
    28de:	68e3      	ldr	r3, [r4, #12]
    28e0:	781a      	ldrb	r2, [r3, #0]
    28e2:	2a45      	cmp	r2, #69	; 0x45
    28e4:	d153      	bne.n	298e <d_name+0x1c0>
    28e6:	3301      	adds	r3, #1
    28e8:	9e01      	ldr	r6, [sp, #4]
    28ea:	60e3      	str	r3, [r4, #12]
    28ec:	e096      	b.n	2a1c <d_name+0x24e>
    28ee:	4646      	mov	r6, r8
    28f0:	e094      	b.n	2a1c <d_name+0x24e>
    28f2:	3301      	adds	r3, #1
    28f4:	2100      	movs	r1, #0
    28f6:	60c3      	str	r3, [r0, #12]
    28f8:	f7ff fd20 	bl	233c <d_encoding>
    28fc:	68e3      	ldr	r3, [r4, #12]
    28fe:	781a      	ldrb	r2, [r3, #0]
    2900:	2a45      	cmp	r2, #69	; 0x45
    2902:	4607      	mov	r7, r0
    2904:	d143      	bne.n	298e <d_name+0x1c0>
    2906:	1c5a      	adds	r2, r3, #1
    2908:	60e2      	str	r2, [r4, #12]
    290a:	785b      	ldrb	r3, [r3, #1]
    290c:	2b73      	cmp	r3, #115	; 0x73
    290e:	d110      	bne.n	2932 <d_name+0x164>
    2910:	3201      	adds	r2, #1
    2912:	4620      	mov	r0, r4
    2914:	60e2      	str	r2, [r4, #12]
    2916:	f7ff fcbf 	bl	2298 <d_discriminator>
    291a:	2800      	cmp	r0, #0
    291c:	d07d      	beq.n	2a1a <d_name+0x24c>
    291e:	4942      	ldr	r1, [pc, #264]	; (2a28 <d_name+0x25a>)
    2920:	220e      	movs	r2, #14
    2922:	4620      	mov	r0, r4
    2924:	f7ff fab1 	bl	1e8a <d_make_name>
    2928:	2102      	movs	r1, #2
    292a:	463a      	mov	r2, r7
    292c:	4603      	mov	r3, r0
    292e:	4620      	mov	r0, r4
    2930:	e06e      	b.n	2a10 <d_name+0x242>
    2932:	2b64      	cmp	r3, #100	; 0x64
    2934:	d108      	bne.n	2948 <d_name+0x17a>
    2936:	3201      	adds	r2, #1
    2938:	4620      	mov	r0, r4
    293a:	60e2      	str	r2, [r4, #12]
    293c:	f7ff fc76 	bl	222c <d_compact_number>
    2940:	f1b0 0800 	subs.w	r8, r0, #0
    2944:	da02      	bge.n	294c <d_name+0x17e>
    2946:	e022      	b.n	298e <d_name+0x1c0>
    2948:	f04f 38ff 	mov.w	r8, #4294967295
    294c:	4620      	mov	r0, r4
    294e:	f7ff ff3e 	bl	27ce <d_name>
    2952:	4605      	mov	r5, r0
    2954:	b148      	cbz	r0, 296a <d_name+0x19c>
    2956:	7803      	ldrb	r3, [r0, #0]
    2958:	2b3e      	cmp	r3, #62	; 0x3e
    295a:	d006      	beq.n	296a <d_name+0x19c>
    295c:	2b40      	cmp	r3, #64	; 0x40
    295e:	d004      	beq.n	296a <d_name+0x19c>
    2960:	4620      	mov	r0, r4
    2962:	f7ff fc99 	bl	2298 <d_discriminator>
    2966:	2800      	cmp	r0, #0
    2968:	d057      	beq.n	2a1a <d_name+0x24c>
    296a:	f1b8 3fff 	cmp.w	r8, #4294967295
    296e:	d009      	beq.n	2984 <d_name+0x1b6>
    2970:	4620      	mov	r0, r4
    2972:	f7ff fa3d 	bl	1df0 <d_make_empty>
    2976:	b120      	cbz	r0, 2982 <d_name+0x1b4>
    2978:	233f      	movs	r3, #63	; 0x3f
    297a:	f8c0 8008 	str.w	r8, [r0, #8]
    297e:	7003      	strb	r3, [r0, #0]
    2980:	6045      	str	r5, [r0, #4]
    2982:	4605      	mov	r5, r0
    2984:	4620      	mov	r0, r4
    2986:	2102      	movs	r1, #2
    2988:	463a      	mov	r2, r7
    298a:	462b      	mov	r3, r5
    298c:	e040      	b.n	2a10 <d_name+0x242>
    298e:	2600      	movs	r6, #0
    2990:	e044      	b.n	2a1c <d_name+0x24e>
    2992:	f000 fb3f 	bl	3014 <d_unqualified_name>
    2996:	e040      	b.n	2a1a <d_name+0x24c>
    2998:	785a      	ldrb	r2, [r3, #1]
    299a:	2a74      	cmp	r2, #116	; 0x74
    299c:	d005      	beq.n	29aa <d_name+0x1dc>
    299e:	2100      	movs	r1, #0
    29a0:	2501      	movs	r5, #1
    29a2:	f7ff fade 	bl	1f62 <d_substitution>
    29a6:	4606      	mov	r6, r0
    29a8:	e014      	b.n	29d4 <d_name+0x206>
    29aa:	3302      	adds	r3, #2
    29ac:	491f      	ldr	r1, [pc, #124]	; (2a2c <d_name+0x25e>)
    29ae:	60c3      	str	r3, [r0, #12]
    29b0:	2203      	movs	r2, #3
    29b2:	f7ff fa6a 	bl	1e8a <d_make_name>
    29b6:	4605      	mov	r5, r0
    29b8:	4620      	mov	r0, r4
    29ba:	f000 fb2b 	bl	3014 <d_unqualified_name>
    29be:	462a      	mov	r2, r5
    29c0:	2101      	movs	r1, #1
    29c2:	2500      	movs	r5, #0
    29c4:	4603      	mov	r3, r0
    29c6:	4620      	mov	r0, r4
    29c8:	f7ff fa20 	bl	1e0c <d_make_comp>
    29cc:	6b23      	ldr	r3, [r4, #48]	; 0x30
    29ce:	3303      	adds	r3, #3
    29d0:	6323      	str	r3, [r4, #48]	; 0x30
    29d2:	4606      	mov	r6, r0
    29d4:	68e3      	ldr	r3, [r4, #12]
    29d6:	781b      	ldrb	r3, [r3, #0]
    29d8:	2b49      	cmp	r3, #73	; 0x49
    29da:	d11f      	bne.n	2a1c <d_name+0x24e>
    29dc:	b98d      	cbnz	r5, 2a02 <d_name+0x234>
    29de:	4620      	mov	r0, r4
    29e0:	4631      	mov	r1, r6
    29e2:	f7ff faae 	bl	1f42 <d_add_substitution>
    29e6:	b960      	cbnz	r0, 2a02 <d_name+0x234>
    29e8:	e015      	b.n	2a16 <d_name+0x248>
    29ea:	f000 fb13 	bl	3014 <d_unqualified_name>
    29ee:	68e3      	ldr	r3, [r4, #12]
    29f0:	781b      	ldrb	r3, [r3, #0]
    29f2:	2b49      	cmp	r3, #73	; 0x49
    29f4:	4606      	mov	r6, r0
    29f6:	d111      	bne.n	2a1c <d_name+0x24e>
    29f8:	4620      	mov	r0, r4
    29fa:	4631      	mov	r1, r6
    29fc:	f7ff faa1 	bl	1f42 <d_add_substitution>
    2a00:	b158      	cbz	r0, 2a1a <d_name+0x24c>
    2a02:	4620      	mov	r0, r4
    2a04:	f7ff fe8e 	bl	2724 <d_template_args>
    2a08:	2104      	movs	r1, #4
    2a0a:	4632      	mov	r2, r6
    2a0c:	4603      	mov	r3, r0
    2a0e:	4620      	mov	r0, r4
    2a10:	f7ff f9fc 	bl	1e0c <d_make_comp>
    2a14:	e001      	b.n	2a1a <d_name+0x24c>
    2a16:	462e      	mov	r6, r5
    2a18:	e000      	b.n	2a1c <d_name+0x24e>
    2a1a:	4606      	mov	r6, r0
    2a1c:	4630      	mov	r0, r6
    2a1e:	e8bd 81fc 	ldmia.w	sp!, {r2, r3, r4, r5, r6, r7, r8, pc}
    2a22:	bf00      	nop
    2a24:	c0402000 	.word	0xc0402000
    2a28:	0000fa33 	.word	0x0000fa33
    2a2c:	0000fa42 	.word	0x0000fa42

00002a30 <d_class_enum_type>:
    2a30:	e6cd      	b.n	27ce <d_name>

00002a32 <d_type>:
    2a32:	b5f7      	push	{r0, r1, r2, r4, r5, r6, r7, lr}
    2a34:	4604      	mov	r4, r0
    2a36:	68c2      	ldr	r2, [r0, #12]
    2a38:	7813      	ldrb	r3, [r2, #0]
    2a3a:	2b56      	cmp	r3, #86	; 0x56
    2a3c:	d003      	beq.n	2a46 <d_type+0x14>
    2a3e:	2b72      	cmp	r3, #114	; 0x72
    2a40:	d001      	beq.n	2a46 <d_type+0x14>
    2a42:	2b4b      	cmp	r3, #75	; 0x4b
    2a44:	d110      	bne.n	2a68 <d_type+0x36>
    2a46:	4620      	mov	r0, r4
    2a48:	a901      	add	r1, sp, #4
    2a4a:	2200      	movs	r2, #0
    2a4c:	f7ff fa45 	bl	1eda <d_cv_qualifiers>
    2a50:	4605      	mov	r5, r0
    2a52:	2800      	cmp	r0, #0
    2a54:	f000 8219 	beq.w	2e8a <d_type+0x458>
    2a58:	4620      	mov	r0, r4
    2a5a:	f7ff ffea 	bl	2a32 <d_type>
    2a5e:	6028      	str	r0, [r5, #0]
    2a60:	2800      	cmp	r0, #0
    2a62:	f000 8211 	beq.w	2e88 <d_type+0x456>
    2a66:	e212      	b.n	2e8e <d_type+0x45c>
    2a68:	f1a3 0130 	sub.w	r1, r3, #48	; 0x30
    2a6c:	294a      	cmp	r1, #74	; 0x4a
    2a6e:	f200 8209 	bhi.w	2e84 <d_type+0x452>
    2a72:	e8df f011 	tbh	[pc, r1, lsl #1]
    2a76:	0077      	.short	0x0077
    2a78:	00770077 	.word	0x00770077
    2a7c:	00770077 	.word	0x00770077
    2a80:	00770077 	.word	0x00770077
    2a84:	00770077 	.word	0x00770077
    2a88:	02070077 	.word	0x02070077
    2a8c:	02070207 	.word	0x02070207
    2a90:	02070207 	.word	0x02070207
    2a94:	02070207 	.word	0x02070207
    2a98:	0207007b 	.word	0x0207007b
    2a9c:	01490125 	.word	0x01490125
    2aa0:	00650207 	.word	0x00650207
    2aa4:	0207012e 	.word	0x0207012e
    2aa8:	02070207 	.word	0x02070207
    2aac:	02070207 	.word	0x02070207
    2ab0:	007700a8 	.word	0x007700a8
    2ab4:	0113010a 	.word	0x0113010a
    2ab8:	011c0207 	.word	0x011c0207
    2abc:	00cd00df 	.word	0x00cd00df
    2ac0:	0207013b 	.word	0x0207013b
    2ac4:	02070207 	.word	0x02070207
    2ac8:	00770207 	.word	0x00770207
    2acc:	02070207 	.word	0x02070207
    2ad0:	02070207 	.word	0x02070207
    2ad4:	02070207 	.word	0x02070207
    2ad8:	004b004b 	.word	0x004b004b
    2adc:	004b004b 	.word	0x004b004b
    2ae0:	004b004b 	.word	0x004b004b
    2ae4:	004b004b 	.word	0x004b004b
    2ae8:	004b004b 	.word	0x004b004b
    2aec:	004b0207 	.word	0x004b0207
    2af0:	004b004b 	.word	0x004b004b
    2af4:	0207004b 	.word	0x0207004b
    2af8:	02070207 	.word	0x02070207
    2afc:	004b004b 	.word	0x004b004b
    2b00:	004b005c 	.word	0x004b005c
    2b04:	004b004b 	.word	0x004b004b
    2b08:	004b004b 	.word	0x004b004b
    2b0c:	4a93      	ldr	r2, [pc, #588]	; (2d5c <d_type+0x32a>)
    2b0e:	2114      	movs	r1, #20
    2b10:	4620      	mov	r0, r4
    2b12:	fb01 2103 	mla	r1, r1, r3, r2
    2b16:	f7ff f9c9 	bl	1eac <d_make_builtin_type>
    2b1a:	6b22      	ldr	r2, [r4, #48]	; 0x30
    2b1c:	6843      	ldr	r3, [r0, #4]
    2b1e:	9001      	str	r0, [sp, #4]
    2b20:	685b      	ldr	r3, [r3, #4]
    2b22:	18d3      	adds	r3, r2, r3
    2b24:	6323      	str	r3, [r4, #48]	; 0x30
    2b26:	68e3      	ldr	r3, [r4, #12]
    2b28:	3301      	adds	r3, #1
    2b2a:	60e3      	str	r3, [r4, #12]
    2b2c:	e1a8      	b.n	2e80 <d_type+0x44e>
    2b2e:	3201      	adds	r2, #1
    2b30:	4620      	mov	r0, r4
    2b32:	60e2      	str	r2, [r4, #12]
    2b34:	f7ff fbbf 	bl	22b6 <d_source_name>
    2b38:	2124      	movs	r1, #36	; 0x24
    2b3a:	4602      	mov	r2, r0
    2b3c:	4620      	mov	r0, r4
    2b3e:	e0d0      	b.n	2ce2 <d_type+0x2b0>
    2b40:	1c53      	adds	r3, r2, #1
    2b42:	60e3      	str	r3, [r4, #12]
    2b44:	7852      	ldrb	r2, [r2, #1]
    2b46:	2a59      	cmp	r2, #89	; 0x59
    2b48:	d101      	bne.n	2b4e <d_type+0x11c>
    2b4a:	3301      	adds	r3, #1
    2b4c:	60e3      	str	r3, [r4, #12]
    2b4e:	2101      	movs	r1, #1
    2b50:	4620      	mov	r0, r4
    2b52:	f000 f9de 	bl	2f12 <d_bare_function_type>
    2b56:	68e3      	ldr	r3, [r4, #12]
    2b58:	781a      	ldrb	r2, [r3, #0]
    2b5a:	2a45      	cmp	r2, #69	; 0x45
    2b5c:	d131      	bne.n	2bc2 <d_type+0x190>
    2b5e:	3301      	adds	r3, #1
    2b60:	60e3      	str	r3, [r4, #12]
    2b62:	e0c1      	b.n	2ce8 <d_type+0x2b6>
    2b64:	4620      	mov	r0, r4
    2b66:	f7ff ff63 	bl	2a30 <d_class_enum_type>
    2b6a:	e0bd      	b.n	2ce8 <d_type+0x2b6>
    2b6c:	1c51      	adds	r1, r2, #1
    2b6e:	60e1      	str	r1, [r4, #12]
    2b70:	7853      	ldrb	r3, [r2, #1]
    2b72:	2b5f      	cmp	r3, #95	; 0x5f
    2b74:	d017      	beq.n	2ba6 <d_type+0x174>
    2b76:	3b30      	subs	r3, #48	; 0x30
    2b78:	b2db      	uxtb	r3, r3
    2b7a:	2b09      	cmp	r3, #9
    2b7c:	d80c      	bhi.n	2b98 <d_type+0x166>
    2b7e:	68e3      	ldr	r3, [r4, #12]
    2b80:	1c5a      	adds	r2, r3, #1
    2b82:	60e2      	str	r2, [r4, #12]
    2b84:	785b      	ldrb	r3, [r3, #1]
    2b86:	3b30      	subs	r3, #48	; 0x30
    2b88:	b2db      	uxtb	r3, r3
    2b8a:	2b09      	cmp	r3, #9
    2b8c:	d9f7      	bls.n	2b7e <d_type+0x14c>
    2b8e:	4620      	mov	r0, r4
    2b90:	1a52      	subs	r2, r2, r1
    2b92:	f7ff f97a 	bl	1e8a <d_make_name>
    2b96:	e002      	b.n	2b9e <d_type+0x16c>
    2b98:	4620      	mov	r0, r4
    2b9a:	f000 fb00 	bl	319e <d_expression>
    2b9e:	4605      	mov	r5, r0
    2ba0:	2800      	cmp	r0, #0
    2ba2:	d034      	beq.n	2c0e <d_type+0x1dc>
    2ba4:	e000      	b.n	2ba8 <d_type+0x176>
    2ba6:	2500      	movs	r5, #0
    2ba8:	68e3      	ldr	r3, [r4, #12]
    2baa:	781a      	ldrb	r2, [r3, #0]
    2bac:	2a5f      	cmp	r2, #95	; 0x5f
    2bae:	d108      	bne.n	2bc2 <d_type+0x190>
    2bb0:	3301      	adds	r3, #1
    2bb2:	4620      	mov	r0, r4
    2bb4:	60e3      	str	r3, [r4, #12]
    2bb6:	f7ff ff3c 	bl	2a32 <d_type>
    2bba:	2126      	movs	r1, #38	; 0x26
    2bbc:	4603      	mov	r3, r0
    2bbe:	4620      	mov	r0, r4
    2bc0:	e055      	b.n	2c6e <d_type+0x23c>
    2bc2:	2000      	movs	r0, #0
    2bc4:	e090      	b.n	2ce8 <d_type+0x2b6>
    2bc6:	3201      	adds	r2, #1
    2bc8:	4620      	mov	r0, r4
    2bca:	60e2      	str	r2, [r4, #12]
    2bcc:	466d      	mov	r5, sp
    2bce:	f7ff ff30 	bl	2a32 <d_type>
    2bd2:	4669      	mov	r1, sp
    2bd4:	2201      	movs	r2, #1
    2bd6:	4606      	mov	r6, r0
    2bd8:	4620      	mov	r0, r4
    2bda:	f7ff f97e 	bl	1eda <d_cv_qualifiers>
    2bde:	4607      	mov	r7, r0
    2be0:	b1a8      	cbz	r0, 2c0e <d_type+0x1dc>
    2be2:	4620      	mov	r0, r4
    2be4:	f7ff ff25 	bl	2a32 <d_type>
    2be8:	6038      	str	r0, [r7, #0]
    2bea:	2800      	cmp	r0, #0
    2bec:	d07c      	beq.n	2ce8 <d_type+0x2b6>
    2bee:	42af      	cmp	r7, r5
    2bf0:	d008      	beq.n	2c04 <d_type+0x1d2>
    2bf2:	7803      	ldrb	r3, [r0, #0]
    2bf4:	2b25      	cmp	r3, #37	; 0x25
    2bf6:	d005      	beq.n	2c04 <d_type+0x1d2>
    2bf8:	4620      	mov	r0, r4
    2bfa:	9900      	ldr	r1, [sp, #0]
    2bfc:	f7ff f9a1 	bl	1f42 <d_add_substitution>
    2c00:	2800      	cmp	r0, #0
    2c02:	d071      	beq.n	2ce8 <d_type+0x2b6>
    2c04:	4620      	mov	r0, r4
    2c06:	2127      	movs	r1, #39	; 0x27
    2c08:	4632      	mov	r2, r6
    2c0a:	9b00      	ldr	r3, [sp, #0]
    2c0c:	e06a      	b.n	2ce4 <d_type+0x2b2>
    2c0e:	e06b      	b.n	2ce8 <d_type+0x2b6>
    2c10:	4620      	mov	r0, r4
    2c12:	f7ff fb26 	bl	2262 <d_template_param>
    2c16:	68e3      	ldr	r3, [r4, #12]
    2c18:	9001      	str	r0, [sp, #4]
    2c1a:	4601      	mov	r1, r0
    2c1c:	781b      	ldrb	r3, [r3, #0]
    2c1e:	2b49      	cmp	r3, #73	; 0x49
    2c20:	f040 8135 	bne.w	2e8e <d_type+0x45c>
    2c24:	4620      	mov	r0, r4
    2c26:	f7ff f98c 	bl	1f42 <d_add_substitution>
    2c2a:	2800      	cmp	r0, #0
    2c2c:	f000 812c 	beq.w	2e88 <d_type+0x456>
    2c30:	9d01      	ldr	r5, [sp, #4]
    2c32:	e016      	b.n	2c62 <d_type+0x230>
    2c34:	7853      	ldrb	r3, [r2, #1]
    2c36:	f1a3 0230 	sub.w	r2, r3, #48	; 0x30
    2c3a:	b2d2      	uxtb	r2, r2
    2c3c:	2a09      	cmp	r2, #9
    2c3e:	d905      	bls.n	2c4c <d_type+0x21a>
    2c40:	2b5f      	cmp	r3, #95	; 0x5f
    2c42:	d003      	beq.n	2c4c <d_type+0x21a>
    2c44:	3b41      	subs	r3, #65	; 0x41
    2c46:	b2db      	uxtb	r3, r3
    2c48:	2b19      	cmp	r3, #25
    2c4a:	d812      	bhi.n	2c72 <d_type+0x240>
    2c4c:	2100      	movs	r1, #0
    2c4e:	4620      	mov	r0, r4
    2c50:	f7ff f987 	bl	1f62 <d_substitution>
    2c54:	68e3      	ldr	r3, [r4, #12]
    2c56:	9001      	str	r0, [sp, #4]
    2c58:	4605      	mov	r5, r0
    2c5a:	781b      	ldrb	r3, [r3, #0]
    2c5c:	2b49      	cmp	r3, #73	; 0x49
    2c5e:	f040 810f 	bne.w	2e80 <d_type+0x44e>
    2c62:	4620      	mov	r0, r4
    2c64:	f7ff fd5e 	bl	2724 <d_template_args>
    2c68:	2104      	movs	r1, #4
    2c6a:	4603      	mov	r3, r0
    2c6c:	4620      	mov	r0, r4
    2c6e:	462a      	mov	r2, r5
    2c70:	e038      	b.n	2ce4 <d_type+0x2b2>
    2c72:	4620      	mov	r0, r4
    2c74:	f7ff fedc 	bl	2a30 <d_class_enum_type>
    2c78:	9001      	str	r0, [sp, #4]
    2c7a:	2800      	cmp	r0, #0
    2c7c:	f000 8107 	beq.w	2e8e <d_type+0x45c>
    2c80:	7803      	ldrb	r3, [r0, #0]
    2c82:	2b16      	cmp	r3, #22
    2c84:	f040 8103 	bne.w	2e8e <d_type+0x45c>
    2c88:	e0fa      	b.n	2e80 <d_type+0x44e>
    2c8a:	3201      	adds	r2, #1
    2c8c:	4620      	mov	r0, r4
    2c8e:	60e2      	str	r2, [r4, #12]
    2c90:	f7ff fecf 	bl	2a32 <d_type>
    2c94:	2120      	movs	r1, #32
    2c96:	4602      	mov	r2, r0
    2c98:	4620      	mov	r0, r4
    2c9a:	e022      	b.n	2ce2 <d_type+0x2b0>
    2c9c:	3201      	adds	r2, #1
    2c9e:	4620      	mov	r0, r4
    2ca0:	60e2      	str	r2, [r4, #12]
    2ca2:	f7ff fec6 	bl	2a32 <d_type>
    2ca6:	211e      	movs	r1, #30
    2ca8:	4602      	mov	r2, r0
    2caa:	4620      	mov	r0, r4
    2cac:	e019      	b.n	2ce2 <d_type+0x2b0>
    2cae:	3201      	adds	r2, #1
    2cb0:	4620      	mov	r0, r4
    2cb2:	60e2      	str	r2, [r4, #12]
    2cb4:	f7ff febd 	bl	2a32 <d_type>
    2cb8:	211f      	movs	r1, #31
    2cba:	4602      	mov	r2, r0
    2cbc:	4620      	mov	r0, r4
    2cbe:	e010      	b.n	2ce2 <d_type+0x2b0>
    2cc0:	3201      	adds	r2, #1
    2cc2:	4620      	mov	r0, r4
    2cc4:	60e2      	str	r2, [r4, #12]
    2cc6:	f7ff feb4 	bl	2a32 <d_type>
    2cca:	2121      	movs	r1, #33	; 0x21
    2ccc:	4602      	mov	r2, r0
    2cce:	4620      	mov	r0, r4
    2cd0:	e007      	b.n	2ce2 <d_type+0x2b0>
    2cd2:	3201      	adds	r2, #1
    2cd4:	4620      	mov	r0, r4
    2cd6:	60e2      	str	r2, [r4, #12]
    2cd8:	f7ff feab 	bl	2a32 <d_type>
    2cdc:	2122      	movs	r1, #34	; 0x22
    2cde:	4602      	mov	r2, r0
    2ce0:	4620      	mov	r0, r4
    2ce2:	2300      	movs	r3, #0
    2ce4:	f7ff f892 	bl	1e0c <d_make_comp>
    2ce8:	9001      	str	r0, [sp, #4]
    2cea:	e0d0      	b.n	2e8e <d_type+0x45c>
    2cec:	3201      	adds	r2, #1
    2cee:	4620      	mov	r0, r4
    2cf0:	60e2      	str	r2, [r4, #12]
    2cf2:	f7ff fae0 	bl	22b6 <d_source_name>
    2cf6:	9001      	str	r0, [sp, #4]
    2cf8:	4620      	mov	r0, r4
    2cfa:	f7ff fe9a 	bl	2a32 <d_type>
    2cfe:	211d      	movs	r1, #29
    2d00:	9b01      	ldr	r3, [sp, #4]
    2d02:	4602      	mov	r2, r0
    2d04:	4620      	mov	r0, r4
    2d06:	e7ed      	b.n	2ce4 <d_type+0x2b2>
    2d08:	1c53      	adds	r3, r2, #1
    2d0a:	60e3      	str	r3, [r4, #12]
    2d0c:	7855      	ldrb	r5, [r2, #1]
    2d0e:	2d00      	cmp	r5, #0
    2d10:	f000 80bb 	beq.w	2e8a <d_type+0x458>
    2d14:	1c5a      	adds	r2, r3, #1
    2d16:	2d68      	cmp	r5, #104	; 0x68
    2d18:	60e2      	str	r2, [r4, #12]
    2d1a:	d049      	beq.n	2db0 <d_type+0x37e>
    2d1c:	d80e      	bhi.n	2d3c <d_type+0x30a>
    2d1e:	2d64      	cmp	r5, #100	; 0x64
    2d20:	d040      	beq.n	2da4 <d_type+0x372>
    2d22:	d805      	bhi.n	2d30 <d_type+0x2fe>
    2d24:	2d46      	cmp	r5, #70	; 0x46
    2d26:	d054      	beq.n	2dd2 <d_type+0x3a0>
    2d28:	2d54      	cmp	r5, #84	; 0x54
    2d2a:	f040 80ab 	bne.w	2e84 <d_type+0x452>
    2d2e:	e017      	b.n	2d60 <d_type+0x32e>
    2d30:	2d65      	cmp	r5, #101	; 0x65
    2d32:	d03a      	beq.n	2daa <d_type+0x378>
    2d34:	2d66      	cmp	r5, #102	; 0x66
    2d36:	f040 80a5 	bne.w	2e84 <d_type+0x452>
    2d3a:	e030      	b.n	2d9e <d_type+0x36c>
    2d3c:	2d73      	cmp	r5, #115	; 0x73
    2d3e:	d03a      	beq.n	2db6 <d_type+0x384>
    2d40:	d805      	bhi.n	2d4e <d_type+0x31c>
    2d42:	2d69      	cmp	r5, #105	; 0x69
    2d44:	d03a      	beq.n	2dbc <d_type+0x38a>
    2d46:	2d70      	cmp	r5, #112	; 0x70
    2d48:	f040 809c 	bne.w	2e84 <d_type+0x452>
    2d4c:	e01f      	b.n	2d8e <d_type+0x35c>
    2d4e:	2d74      	cmp	r5, #116	; 0x74
    2d50:	d006      	beq.n	2d60 <d_type+0x32e>
    2d52:	2d76      	cmp	r5, #118	; 0x76
    2d54:	f040 8096 	bne.w	2e84 <d_type+0x452>
    2d58:	e069      	b.n	2e2e <d_type+0x3fc>
    2d5a:	bf00      	nop
    2d5c:	0000ecb0 	.word	0x0000ecb0
    2d60:	4620      	mov	r0, r4
    2d62:	f000 fa1c 	bl	319e <d_expression>
    2d66:	213b      	movs	r1, #59	; 0x3b
    2d68:	2300      	movs	r3, #0
    2d6a:	4602      	mov	r2, r0
    2d6c:	4620      	mov	r0, r4
    2d6e:	f7ff f84d 	bl	1e0c <d_make_comp>
    2d72:	9001      	str	r0, [sp, #4]
    2d74:	2800      	cmp	r0, #0
    2d76:	f000 8083 	beq.w	2e80 <d_type+0x44e>
    2d7a:	68e2      	ldr	r2, [r4, #12]
    2d7c:	7813      	ldrb	r3, [r2, #0]
    2d7e:	b11b      	cbz	r3, 2d88 <d_type+0x356>
    2d80:	3201      	adds	r2, #1
    2d82:	2b45      	cmp	r3, #69	; 0x45
    2d84:	60e2      	str	r2, [r4, #12]
    2d86:	d07b      	beq.n	2e80 <d_type+0x44e>
    2d88:	2300      	movs	r3, #0
    2d8a:	9301      	str	r3, [sp, #4]
    2d8c:	e078      	b.n	2e80 <d_type+0x44e>
    2d8e:	4620      	mov	r0, r4
    2d90:	f7ff fe4f 	bl	2a32 <d_type>
    2d94:	2141      	movs	r1, #65	; 0x41
    2d96:	2300      	movs	r3, #0
    2d98:	4602      	mov	r2, r0
    2d9a:	4620      	mov	r0, r4
    2d9c:	e06b      	b.n	2e76 <d_type+0x444>
    2d9e:	4620      	mov	r0, r4
    2da0:	493e      	ldr	r1, [pc, #248]	; (2e9c <d_type+0x46a>)
    2da2:	e00d      	b.n	2dc0 <d_type+0x38e>
    2da4:	4620      	mov	r0, r4
    2da6:	493e      	ldr	r1, [pc, #248]	; (2ea0 <d_type+0x46e>)
    2da8:	e00a      	b.n	2dc0 <d_type+0x38e>
    2daa:	4620      	mov	r0, r4
    2dac:	493d      	ldr	r1, [pc, #244]	; (2ea4 <d_type+0x472>)
    2dae:	e007      	b.n	2dc0 <d_type+0x38e>
    2db0:	4620      	mov	r0, r4
    2db2:	493d      	ldr	r1, [pc, #244]	; (2ea8 <d_type+0x476>)
    2db4:	e004      	b.n	2dc0 <d_type+0x38e>
    2db6:	4620      	mov	r0, r4
    2db8:	493c      	ldr	r1, [pc, #240]	; (2eac <d_type+0x47a>)
    2dba:	e001      	b.n	2dc0 <d_type+0x38e>
    2dbc:	493c      	ldr	r1, [pc, #240]	; (2eb0 <d_type+0x47e>)
    2dbe:	4620      	mov	r0, r4
    2dc0:	f7ff f874 	bl	1eac <d_make_builtin_type>
    2dc4:	6b22      	ldr	r2, [r4, #48]	; 0x30
    2dc6:	9001      	str	r0, [sp, #4]
    2dc8:	6843      	ldr	r3, [r0, #4]
    2dca:	685b      	ldr	r3, [r3, #4]
    2dcc:	18d3      	adds	r3, r2, r3
    2dce:	6323      	str	r3, [r4, #48]	; 0x30
    2dd0:	e056      	b.n	2e80 <d_type+0x44e>
    2dd2:	4620      	mov	r0, r4
    2dd4:	f7ff f80c 	bl	1df0 <d_make_empty>
    2dd8:	2328      	movs	r3, #40	; 0x28
    2dda:	9001      	str	r0, [sp, #4]
    2ddc:	7003      	strb	r3, [r0, #0]
    2dde:	68e3      	ldr	r3, [r4, #12]
    2de0:	781b      	ldrb	r3, [r3, #0]
    2de2:	3b30      	subs	r3, #48	; 0x30
    2de4:	b2db      	uxtb	r3, r3
    2de6:	2b09      	cmp	r3, #9
    2de8:	bf8c      	ite	hi
    2dea:	2300      	movhi	r3, #0
    2dec:	2301      	movls	r3, #1
    2dee:	8103      	strh	r3, [r0, #8]
    2df0:	b11b      	cbz	r3, 2dfa <d_type+0x3c8>
    2df2:	f104 000c 	add.w	r0, r4, #12
    2df6:	f7ff f9d1 	bl	219c <d_number.clone.0>
    2dfa:	4620      	mov	r0, r4
    2dfc:	9d01      	ldr	r5, [sp, #4]
    2dfe:	f7ff fe18 	bl	2a32 <d_type>
    2e02:	9b01      	ldr	r3, [sp, #4]
    2e04:	6068      	str	r0, [r5, #4]
    2e06:	685d      	ldr	r5, [r3, #4]
    2e08:	2d00      	cmp	r5, #0
    2e0a:	d03e      	beq.n	2e8a <d_type+0x458>
    2e0c:	f104 000c 	add.w	r0, r4, #12
    2e10:	f7ff f9c4 	bl	219c <d_number.clone.0>
    2e14:	68e2      	ldr	r2, [r4, #12]
    2e16:	7813      	ldrb	r3, [r2, #0]
    2e18:	b10b      	cbz	r3, 2e1e <d_type+0x3ec>
    2e1a:	3201      	adds	r2, #1
    2e1c:	60e2      	str	r2, [r4, #12]
    2e1e:	f1a3 0273 	sub.w	r2, r3, #115	; 0x73
    2e22:	4253      	negs	r3, r2
    2e24:	eb43 0302 	adc.w	r3, r3, r2
    2e28:	9a01      	ldr	r2, [sp, #4]
    2e2a:	8153      	strh	r3, [r2, #10]
    2e2c:	e028      	b.n	2e80 <d_type+0x44e>
    2e2e:	785b      	ldrb	r3, [r3, #1]
    2e30:	2b5f      	cmp	r3, #95	; 0x5f
    2e32:	d106      	bne.n	2e42 <d_type+0x410>
    2e34:	3201      	adds	r2, #1
    2e36:	4620      	mov	r0, r4
    2e38:	60e2      	str	r2, [r4, #12]
    2e3a:	f000 f9b0 	bl	319e <d_expression>
    2e3e:	4605      	mov	r5, r0
    2e40:	e00b      	b.n	2e5a <d_type+0x428>
    2e42:	4620      	mov	r0, r4
    2e44:	f7fe ffd4 	bl	1df0 <d_make_empty>
    2e48:	4605      	mov	r5, r0
    2e4a:	b1b8      	cbz	r0, 2e7c <d_type+0x44a>
    2e4c:	233a      	movs	r3, #58	; 0x3a
    2e4e:	7003      	strb	r3, [r0, #0]
    2e50:	f104 000c 	add.w	r0, r4, #12
    2e54:	f7ff f9a2 	bl	219c <d_number.clone.0>
    2e58:	6068      	str	r0, [r5, #4]
    2e5a:	b17d      	cbz	r5, 2e7c <d_type+0x44a>
    2e5c:	68e3      	ldr	r3, [r4, #12]
    2e5e:	781a      	ldrb	r2, [r3, #0]
    2e60:	2a5f      	cmp	r2, #95	; 0x5f
    2e62:	d10b      	bne.n	2e7c <d_type+0x44a>
    2e64:	3301      	adds	r3, #1
    2e66:	4620      	mov	r0, r4
    2e68:	60e3      	str	r3, [r4, #12]
    2e6a:	f7ff fde2 	bl	2a32 <d_type>
    2e6e:	2129      	movs	r1, #41	; 0x29
    2e70:	462a      	mov	r2, r5
    2e72:	4603      	mov	r3, r0
    2e74:	4620      	mov	r0, r4
    2e76:	f7fe ffc9 	bl	1e0c <d_make_comp>
    2e7a:	e000      	b.n	2e7e <d_type+0x44c>
    2e7c:	2000      	movs	r0, #0
    2e7e:	9001      	str	r0, [sp, #4]
    2e80:	9d01      	ldr	r5, [sp, #4]
    2e82:	e002      	b.n	2e8a <d_type+0x458>
    2e84:	2500      	movs	r5, #0
    2e86:	e000      	b.n	2e8a <d_type+0x458>
    2e88:	4605      	mov	r5, r0
    2e8a:	4628      	mov	r0, r5
    2e8c:	bdfe      	pop	{r1, r2, r3, r4, r5, r6, r7, pc}
    2e8e:	4620      	mov	r0, r4
    2e90:	9901      	ldr	r1, [sp, #4]
    2e92:	f7ff f856 	bl	1f42 <d_add_substitution>
    2e96:	2800      	cmp	r0, #0
    2e98:	d1f2      	bne.n	2e80 <d_type+0x44e>
    2e9a:	e7f5      	b.n	2e88 <d_type+0x456>
    2e9c:	0000f64c 	.word	0x0000f64c
    2ea0:	0000f660 	.word	0x0000f660
    2ea4:	0000f674 	.word	0x0000f674
    2ea8:	0000f688 	.word	0x0000f688
    2eac:	0000f69c 	.word	0x0000f69c
    2eb0:	0000f6b0 	.word	0x0000f6b0

00002eb4 <d_parmlist>:
    2eb4:	b537      	push	{r0, r1, r2, r4, r5, lr}
    2eb6:	4604      	mov	r4, r0
    2eb8:	ad02      	add	r5, sp, #8
    2eba:	2300      	movs	r3, #0
    2ebc:	f845 3d04 	str.w	r3, [r5, #-4]!
    2ec0:	68e3      	ldr	r3, [r4, #12]
    2ec2:	781b      	ldrb	r3, [r3, #0]
    2ec4:	b183      	cbz	r3, 2ee8 <d_parmlist+0x34>
    2ec6:	2b45      	cmp	r3, #69	; 0x45
    2ec8:	d00e      	beq.n	2ee8 <d_parmlist+0x34>
    2eca:	4620      	mov	r0, r4
    2ecc:	f7ff fdb1 	bl	2a32 <d_type>
    2ed0:	4602      	mov	r2, r0
    2ed2:	b1e0      	cbz	r0, 2f0e <d_parmlist+0x5a>
    2ed4:	4620      	mov	r0, r4
    2ed6:	212a      	movs	r1, #42	; 0x2a
    2ed8:	2300      	movs	r3, #0
    2eda:	f7fe ff97 	bl	1e0c <d_make_comp>
    2ede:	6028      	str	r0, [r5, #0]
    2ee0:	b1a0      	cbz	r0, 2f0c <d_parmlist+0x58>
    2ee2:	f100 0508 	add.w	r5, r0, #8
    2ee6:	e7eb      	b.n	2ec0 <d_parmlist+0xc>
    2ee8:	9a01      	ldr	r2, [sp, #4]
    2eea:	b182      	cbz	r2, 2f0e <d_parmlist+0x5a>
    2eec:	6893      	ldr	r3, [r2, #8]
    2eee:	b973      	cbnz	r3, 2f0e <d_parmlist+0x5a>
    2ef0:	6851      	ldr	r1, [r2, #4]
    2ef2:	7808      	ldrb	r0, [r1, #0]
    2ef4:	2823      	cmp	r0, #35	; 0x23
    2ef6:	d10a      	bne.n	2f0e <d_parmlist+0x5a>
    2ef8:	6849      	ldr	r1, [r1, #4]
    2efa:	7c08      	ldrb	r0, [r1, #16]
    2efc:	2809      	cmp	r0, #9
    2efe:	d106      	bne.n	2f0e <d_parmlist+0x5a>
    2f00:	6b20      	ldr	r0, [r4, #48]	; 0x30
    2f02:	6849      	ldr	r1, [r1, #4]
    2f04:	1a41      	subs	r1, r0, r1
    2f06:	6321      	str	r1, [r4, #48]	; 0x30
    2f08:	6053      	str	r3, [r2, #4]
    2f0a:	e000      	b.n	2f0e <d_parmlist+0x5a>
    2f0c:	4602      	mov	r2, r0
    2f0e:	4610      	mov	r0, r2
    2f10:	bd3e      	pop	{r1, r2, r3, r4, r5, pc}

00002f12 <d_bare_function_type>:
    2f12:	68c3      	ldr	r3, [r0, #12]
    2f14:	b570      	push	{r4, r5, r6, lr}
    2f16:	4604      	mov	r4, r0
    2f18:	781a      	ldrb	r2, [r3, #0]
    2f1a:	2a4a      	cmp	r2, #74	; 0x4a
    2f1c:	d102      	bne.n	2f24 <d_bare_function_type+0x12>
    2f1e:	3301      	adds	r3, #1
    2f20:	60c3      	str	r3, [r0, #12]
    2f22:	e000      	b.n	2f26 <d_bare_function_type+0x14>
    2f24:	b129      	cbz	r1, 2f32 <d_bare_function_type+0x20>
    2f26:	4620      	mov	r0, r4
    2f28:	f7ff fd83 	bl	2a32 <d_type>
    2f2c:	4605      	mov	r5, r0
    2f2e:	b168      	cbz	r0, 2f4c <d_bare_function_type+0x3a>
    2f30:	e000      	b.n	2f34 <d_bare_function_type+0x22>
    2f32:	460d      	mov	r5, r1
    2f34:	4620      	mov	r0, r4
    2f36:	f7ff ffbd 	bl	2eb4 <d_parmlist>
    2f3a:	4603      	mov	r3, r0
    2f3c:	b138      	cbz	r0, 2f4e <d_bare_function_type+0x3c>
    2f3e:	4620      	mov	r0, r4
    2f40:	2125      	movs	r1, #37	; 0x25
    2f42:	462a      	mov	r2, r5
    2f44:	e8bd 4070 	ldmia.w	sp!, {r4, r5, r6, lr}
    2f48:	f7fe bf60 	b.w	1e0c <d_make_comp>
    2f4c:	bd70      	pop	{r4, r5, r6, pc}
    2f4e:	bd70      	pop	{r4, r5, r6, pc}

00002f50 <d_operator_name>:
    2f50:	68c3      	ldr	r3, [r0, #12]
    2f52:	e92d 41f0 	stmdb	sp!, {r4, r5, r6, r7, r8, lr}
    2f56:	4604      	mov	r4, r0
    2f58:	7819      	ldrb	r1, [r3, #0]
    2f5a:	b109      	cbz	r1, 2f60 <d_operator_name+0x10>
    2f5c:	3301      	adds	r3, #1
    2f5e:	60c3      	str	r3, [r0, #12]
    2f60:	68e3      	ldr	r3, [r4, #12]
    2f62:	7818      	ldrb	r0, [r3, #0]
    2f64:	b108      	cbz	r0, 2f6a <d_operator_name+0x1a>
    2f66:	3301      	adds	r3, #1
    2f68:	60e3      	str	r3, [r4, #12]
    2f6a:	2976      	cmp	r1, #118	; 0x76
    2f6c:	d117      	bne.n	2f9e <d_operator_name+0x4e>
    2f6e:	f1a0 0630 	sub.w	r6, r0, #48	; 0x30
    2f72:	b2f3      	uxtb	r3, r6
    2f74:	2b09      	cmp	r3, #9
    2f76:	d821      	bhi.n	2fbc <d_operator_name+0x6c>
    2f78:	4620      	mov	r0, r4
    2f7a:	f7ff f99c 	bl	22b6 <d_source_name>
    2f7e:	4605      	mov	r5, r0
    2f80:	4620      	mov	r0, r4
    2f82:	f7fe ff35 	bl	1df0 <d_make_empty>
    2f86:	2800      	cmp	r0, #0
    2f88:	d03f      	beq.n	300a <d_operator_name+0xba>
    2f8a:	b12d      	cbz	r5, 2f98 <d_operator_name+0x48>
    2f8c:	232d      	movs	r3, #45	; 0x2d
    2f8e:	6046      	str	r6, [r0, #4]
    2f90:	7003      	strb	r3, [r0, #0]
    2f92:	6085      	str	r5, [r0, #8]
    2f94:	e8bd 81f0 	ldmia.w	sp!, {r4, r5, r6, r7, r8, pc}
    2f98:	4628      	mov	r0, r5
    2f9a:	e8bd 81f0 	ldmia.w	sp!, {r4, r5, r6, r7, r8, pc}
    2f9e:	2963      	cmp	r1, #99	; 0x63
    2fa0:	d10c      	bne.n	2fbc <d_operator_name+0x6c>
    2fa2:	2876      	cmp	r0, #118	; 0x76
    2fa4:	d10a      	bne.n	2fbc <d_operator_name+0x6c>
    2fa6:	4620      	mov	r0, r4
    2fa8:	f7ff fd43 	bl	2a32 <d_type>
    2fac:	212e      	movs	r1, #46	; 0x2e
    2fae:	2300      	movs	r3, #0
    2fb0:	4602      	mov	r2, r0
    2fb2:	4620      	mov	r0, r4
    2fb4:	e8bd 41f0 	ldmia.w	sp!, {r4, r5, r6, r7, r8, lr}
    2fb8:	f7fe bf28 	b.w	1e0c <d_make_comp>
    2fbc:	2234      	movs	r2, #52	; 0x34
    2fbe:	2300      	movs	r3, #0
    2fc0:	1ad6      	subs	r6, r2, r3
    2fc2:	f8df c04c 	ldr.w	ip, [pc, #76]	; 3010 <d_operator_name+0xc0>
    2fc6:	eb06 76d6 	add.w	r6, r6, r6, lsr #31
    2fca:	f50c 7551 	add.w	r5, ip, #836	; 0x344
    2fce:	eb03 0666 	add.w	r6, r3, r6, asr #1
    2fd2:	0137      	lsls	r7, r6, #4
    2fd4:	19ed      	adds	r5, r5, r7
    2fd6:	4467      	add	r7, ip
    2fd8:	f8d7 7344 	ldr.w	r7, [r7, #836]	; 0x344
    2fdc:	f897 c000 	ldrb.w	ip, [r7]
    2fe0:	4561      	cmp	r1, ip
    2fe2:	d10b      	bne.n	2ffc <d_operator_name+0xac>
    2fe4:	787f      	ldrb	r7, [r7, #1]
    2fe6:	42b8      	cmp	r0, r7
    2fe8:	d108      	bne.n	2ffc <d_operator_name+0xac>
    2fea:	4620      	mov	r0, r4
    2fec:	f7fe ff00 	bl	1df0 <d_make_empty>
    2ff0:	b158      	cbz	r0, 300a <d_operator_name+0xba>
    2ff2:	232c      	movs	r3, #44	; 0x2c
    2ff4:	6045      	str	r5, [r0, #4]
    2ff6:	7003      	strb	r3, [r0, #0]
    2ff8:	e8bd 81f0 	ldmia.w	sp!, {r4, r5, r6, r7, r8, pc}
    2ffc:	d301      	bcc.n	3002 <d_operator_name+0xb2>
    2ffe:	1c73      	adds	r3, r6, #1
    3000:	e000      	b.n	3004 <d_operator_name+0xb4>
    3002:	4632      	mov	r2, r6
    3004:	4293      	cmp	r3, r2
    3006:	d1db      	bne.n	2fc0 <d_operator_name+0x70>
    3008:	2000      	movs	r0, #0
    300a:	e8bd 81f0 	ldmia.w	sp!, {r4, r5, r6, r7, r8, pc}
    300e:	bf00      	nop
    3010:	0000f380 	.word	0x0000f380

00003014 <d_unqualified_name>:
    3014:	68c3      	ldr	r3, [r0, #12]
    3016:	e92d 41f0 	stmdb	sp!, {r4, r5, r6, r7, r8, lr}
    301a:	4605      	mov	r5, r0
    301c:	781a      	ldrb	r2, [r3, #0]
    301e:	f1a2 0130 	sub.w	r1, r2, #48	; 0x30
    3022:	b2c9      	uxtb	r1, r1
    3024:	2909      	cmp	r1, #9
    3026:	d803      	bhi.n	3030 <d_unqualified_name+0x1c>
    3028:	e8bd 41f0 	ldmia.w	sp!, {r4, r5, r6, r7, r8, lr}
    302c:	f7ff b943 	b.w	22b6 <d_source_name>
    3030:	f1a2 0161 	sub.w	r1, r2, #97	; 0x61
    3034:	b2c9      	uxtb	r1, r1
    3036:	2919      	cmp	r1, #25
    3038:	d810      	bhi.n	305c <d_unqualified_name+0x48>
    303a:	f7ff ff89 	bl	2f50 <d_operator_name>
    303e:	4604      	mov	r4, r0
    3040:	2800      	cmp	r0, #0
    3042:	f000 80a9 	beq.w	3198 <d_unqualified_name+0x184>
    3046:	7803      	ldrb	r3, [r0, #0]
    3048:	2b2c      	cmp	r3, #44	; 0x2c
    304a:	f040 80a5 	bne.w	3198 <d_unqualified_name+0x184>
    304e:	6843      	ldr	r3, [r0, #4]
    3050:	6b2a      	ldr	r2, [r5, #48]	; 0x30
    3052:	689b      	ldr	r3, [r3, #8]
    3054:	18d3      	adds	r3, r2, r3
    3056:	3307      	adds	r3, #7
    3058:	632b      	str	r3, [r5, #48]	; 0x30
    305a:	e09d      	b.n	3198 <d_unqualified_name+0x184>
    305c:	f1a2 0143 	sub.w	r1, r2, #67	; 0x43
    3060:	b2c9      	uxtb	r1, r1
    3062:	2901      	cmp	r1, #1
    3064:	d846      	bhi.n	30f4 <d_unqualified_name+0xe0>
    3066:	6ac3      	ldr	r3, [r0, #44]	; 0x2c
    3068:	b13b      	cbz	r3, 307a <d_unqualified_name+0x66>
    306a:	781a      	ldrb	r2, [r3, #0]
    306c:	b10a      	cbz	r2, 3072 <d_unqualified_name+0x5e>
    306e:	2a16      	cmp	r2, #22
    3070:	d103      	bne.n	307a <d_unqualified_name+0x66>
    3072:	6b02      	ldr	r2, [r0, #48]	; 0x30
    3074:	689b      	ldr	r3, [r3, #8]
    3076:	18d3      	adds	r3, r2, r3
    3078:	6303      	str	r3, [r0, #48]	; 0x30
    307a:	68eb      	ldr	r3, [r5, #12]
    307c:	781a      	ldrb	r2, [r3, #0]
    307e:	2a43      	cmp	r2, #67	; 0x43
    3080:	d003      	beq.n	308a <d_unqualified_name+0x76>
    3082:	2a44      	cmp	r2, #68	; 0x44
    3084:	f040 8087 	bne.w	3196 <d_unqualified_name+0x182>
    3088:	e017      	b.n	30ba <d_unqualified_name+0xa6>
    308a:	785a      	ldrb	r2, [r3, #1]
    308c:	2a32      	cmp	r2, #50	; 0x32
    308e:	d007      	beq.n	30a0 <d_unqualified_name+0x8c>
    3090:	2a33      	cmp	r2, #51	; 0x33
    3092:	d003      	beq.n	309c <d_unqualified_name+0x88>
    3094:	2a31      	cmp	r2, #49	; 0x31
    3096:	d17e      	bne.n	3196 <d_unqualified_name+0x182>
    3098:	2701      	movs	r7, #1
    309a:	e002      	b.n	30a2 <d_unqualified_name+0x8e>
    309c:	2703      	movs	r7, #3
    309e:	e000      	b.n	30a2 <d_unqualified_name+0x8e>
    30a0:	2702      	movs	r7, #2
    30a2:	3302      	adds	r3, #2
    30a4:	4628      	mov	r0, r5
    30a6:	60eb      	str	r3, [r5, #12]
    30a8:	6aee      	ldr	r6, [r5, #44]	; 0x2c
    30aa:	f7fe fea1 	bl	1df0 <d_make_empty>
    30ae:	4604      	mov	r4, r0
    30b0:	2800      	cmp	r0, #0
    30b2:	d071      	beq.n	3198 <d_unqualified_name+0x184>
    30b4:	b1e6      	cbz	r6, 30f0 <d_unqualified_name+0xdc>
    30b6:	2307      	movs	r3, #7
    30b8:	e016      	b.n	30e8 <d_unqualified_name+0xd4>
    30ba:	785a      	ldrb	r2, [r3, #1]
    30bc:	2a31      	cmp	r2, #49	; 0x31
    30be:	d007      	beq.n	30d0 <d_unqualified_name+0xbc>
    30c0:	2a32      	cmp	r2, #50	; 0x32
    30c2:	d003      	beq.n	30cc <d_unqualified_name+0xb8>
    30c4:	2a30      	cmp	r2, #48	; 0x30
    30c6:	d166      	bne.n	3196 <d_unqualified_name+0x182>
    30c8:	2701      	movs	r7, #1
    30ca:	e002      	b.n	30d2 <d_unqualified_name+0xbe>
    30cc:	2703      	movs	r7, #3
    30ce:	e000      	b.n	30d2 <d_unqualified_name+0xbe>
    30d0:	2702      	movs	r7, #2
    30d2:	3302      	adds	r3, #2
    30d4:	4628      	mov	r0, r5
    30d6:	60eb      	str	r3, [r5, #12]
    30d8:	6aee      	ldr	r6, [r5, #44]	; 0x2c
    30da:	f7fe fe89 	bl	1df0 <d_make_empty>
    30de:	4604      	mov	r4, r0
    30e0:	2800      	cmp	r0, #0
    30e2:	d059      	beq.n	3198 <d_unqualified_name+0x184>
    30e4:	b126      	cbz	r6, 30f0 <d_unqualified_name+0xdc>
    30e6:	2308      	movs	r3, #8
    30e8:	7003      	strb	r3, [r0, #0]
    30ea:	7107      	strb	r7, [r0, #4]
    30ec:	6086      	str	r6, [r0, #8]
    30ee:	e053      	b.n	3198 <d_unqualified_name+0x184>
    30f0:	4634      	mov	r4, r6
    30f2:	e051      	b.n	3198 <d_unqualified_name+0x184>
    30f4:	2a4c      	cmp	r2, #76	; 0x4c
    30f6:	d10a      	bne.n	310e <d_unqualified_name+0xfa>
    30f8:	3301      	adds	r3, #1
    30fa:	60c3      	str	r3, [r0, #12]
    30fc:	f7ff f8db 	bl	22b6 <d_source_name>
    3100:	4604      	mov	r4, r0
    3102:	2800      	cmp	r0, #0
    3104:	d048      	beq.n	3198 <d_unqualified_name+0x184>
    3106:	4628      	mov	r0, r5
    3108:	f7ff f8c6 	bl	2298 <d_discriminator>
    310c:	e03f      	b.n	318e <d_unqualified_name+0x17a>
    310e:	2a55      	cmp	r2, #85	; 0x55
    3110:	d141      	bne.n	3196 <d_unqualified_name+0x182>
    3112:	7859      	ldrb	r1, [r3, #1]
    3114:	1c5a      	adds	r2, r3, #1
    3116:	296c      	cmp	r1, #108	; 0x6c
    3118:	d002      	beq.n	3120 <d_unqualified_name+0x10c>
    311a:	2974      	cmp	r1, #116	; 0x74
    311c:	d13b      	bne.n	3196 <d_unqualified_name+0x182>
    311e:	e020      	b.n	3162 <d_unqualified_name+0x14e>
    3120:	60c2      	str	r2, [r0, #12]
    3122:	785b      	ldrb	r3, [r3, #1]
    3124:	2b6c      	cmp	r3, #108	; 0x6c
    3126:	d136      	bne.n	3196 <d_unqualified_name+0x182>
    3128:	3201      	adds	r2, #1
    312a:	60c2      	str	r2, [r0, #12]
    312c:	f7ff fec2 	bl	2eb4 <d_parmlist>
    3130:	4606      	mov	r6, r0
    3132:	b1a0      	cbz	r0, 315e <d_unqualified_name+0x14a>
    3134:	68eb      	ldr	r3, [r5, #12]
    3136:	781a      	ldrb	r2, [r3, #0]
    3138:	2a45      	cmp	r2, #69	; 0x45
    313a:	d12c      	bne.n	3196 <d_unqualified_name+0x182>
    313c:	3301      	adds	r3, #1
    313e:	4628      	mov	r0, r5
    3140:	60eb      	str	r3, [r5, #12]
    3142:	f7ff f873 	bl	222c <d_compact_number>
    3146:	1e07      	subs	r7, r0, #0
    3148:	db25      	blt.n	3196 <d_unqualified_name+0x182>
    314a:	4628      	mov	r0, r5
    314c:	f7fe fe50 	bl	1df0 <d_make_empty>
    3150:	4604      	mov	r4, r0
    3152:	b1c0      	cbz	r0, 3186 <d_unqualified_name+0x172>
    3154:	233e      	movs	r3, #62	; 0x3e
    3156:	6046      	str	r6, [r0, #4]
    3158:	7003      	strb	r3, [r0, #0]
    315a:	6087      	str	r7, [r0, #8]
    315c:	e013      	b.n	3186 <d_unqualified_name+0x172>
    315e:	4604      	mov	r4, r0
    3160:	e01a      	b.n	3198 <d_unqualified_name+0x184>
    3162:	60c2      	str	r2, [r0, #12]
    3164:	785b      	ldrb	r3, [r3, #1]
    3166:	2b74      	cmp	r3, #116	; 0x74
    3168:	d115      	bne.n	3196 <d_unqualified_name+0x182>
    316a:	3201      	adds	r2, #1
    316c:	60c2      	str	r2, [r0, #12]
    316e:	f7ff f85d 	bl	222c <d_compact_number>
    3172:	1e06      	subs	r6, r0, #0
    3174:	db0f      	blt.n	3196 <d_unqualified_name+0x182>
    3176:	4628      	mov	r0, r5
    3178:	f7fe fe3a 	bl	1df0 <d_make_empty>
    317c:	4604      	mov	r4, r0
    317e:	b110      	cbz	r0, 3186 <d_unqualified_name+0x172>
    3180:	2340      	movs	r3, #64	; 0x40
    3182:	6046      	str	r6, [r0, #4]
    3184:	7003      	strb	r3, [r0, #0]
    3186:	4628      	mov	r0, r5
    3188:	4621      	mov	r1, r4
    318a:	f7fe feda 	bl	1f42 <d_add_substitution>
    318e:	2800      	cmp	r0, #0
    3190:	bf08      	it	eq
    3192:	2400      	moveq	r4, #0
    3194:	e000      	b.n	3198 <d_unqualified_name+0x184>
    3196:	2400      	movs	r4, #0
    3198:	4620      	mov	r0, r4
    319a:	e8bd 81f0 	ldmia.w	sp!, {r4, r5, r6, r7, r8, pc}

0000319e <d_expression>:
    319e:	68c3      	ldr	r3, [r0, #12]
    31a0:	e92d 41f0 	stmdb	sp!, {r4, r5, r6, r7, r8, lr}
    31a4:	4604      	mov	r4, r0
    31a6:	781a      	ldrb	r2, [r3, #0]
    31a8:	2a4c      	cmp	r2, #76	; 0x4c
    31aa:	d103      	bne.n	31b4 <d_expression+0x16>
    31ac:	e8bd 41f0 	ldmia.w	sp!, {r4, r5, r6, r7, r8, lr}
    31b0:	f7ff ba6f 	b.w	2692 <d_expr_primary>
    31b4:	2a54      	cmp	r2, #84	; 0x54
    31b6:	d103      	bne.n	31c0 <d_expression+0x22>
    31b8:	e8bd 41f0 	ldmia.w	sp!, {r4, r5, r6, r7, r8, lr}
    31bc:	f7ff b851 	b.w	2262 <d_template_param>
    31c0:	2a73      	cmp	r2, #115	; 0x73
    31c2:	d12c      	bne.n	321e <d_expression+0x80>
    31c4:	7859      	ldrb	r1, [r3, #1]
    31c6:	2972      	cmp	r1, #114	; 0x72
    31c8:	d11e      	bne.n	3208 <d_expression+0x6a>
    31ca:	3302      	adds	r3, #2
    31cc:	60c3      	str	r3, [r0, #12]
    31ce:	f7ff fc30 	bl	2a32 <d_type>
    31d2:	4605      	mov	r5, r0
    31d4:	4620      	mov	r0, r4
    31d6:	f7ff ff1d 	bl	3014 <d_unqualified_name>
    31da:	68e3      	ldr	r3, [r4, #12]
    31dc:	781b      	ldrb	r3, [r3, #0]
    31de:	2b49      	cmp	r3, #73	; 0x49
    31e0:	4606      	mov	r6, r0
    31e2:	d004      	beq.n	31ee <d_expression+0x50>
    31e4:	4620      	mov	r0, r4
    31e6:	2101      	movs	r1, #1
    31e8:	462a      	mov	r2, r5
    31ea:	4633      	mov	r3, r6
    31ec:	e0dd      	b.n	33aa <d_expression+0x20c>
    31ee:	4620      	mov	r0, r4
    31f0:	f7ff fa98 	bl	2724 <d_template_args>
    31f4:	2104      	movs	r1, #4
    31f6:	4632      	mov	r2, r6
    31f8:	4603      	mov	r3, r0
    31fa:	4620      	mov	r0, r4
    31fc:	f7fe fe06 	bl	1e0c <d_make_comp>
    3200:	2101      	movs	r1, #1
    3202:	4603      	mov	r3, r0
    3204:	4620      	mov	r0, r4
    3206:	e0cf      	b.n	33a8 <d_expression+0x20a>
    3208:	2970      	cmp	r1, #112	; 0x70
    320a:	d11f      	bne.n	324c <d_expression+0xae>
    320c:	3302      	adds	r3, #2
    320e:	60c3      	str	r3, [r0, #12]
    3210:	f7ff ffc5 	bl	319e <d_expression>
    3214:	2141      	movs	r1, #65	; 0x41
    3216:	2300      	movs	r3, #0
    3218:	4602      	mov	r2, r0
    321a:	4620      	mov	r0, r4
    321c:	e0c5      	b.n	33aa <d_expression+0x20c>
    321e:	2a66      	cmp	r2, #102	; 0x66
    3220:	d114      	bne.n	324c <d_expression+0xae>
    3222:	7859      	ldrb	r1, [r3, #1]
    3224:	2970      	cmp	r1, #112	; 0x70
    3226:	d111      	bne.n	324c <d_expression+0xae>
    3228:	3302      	adds	r3, #2
    322a:	60c3      	str	r3, [r0, #12]
    322c:	f7fe fffe 	bl	222c <d_compact_number>
    3230:	1e06      	subs	r6, r0, #0
    3232:	f2c0 80be 	blt.w	33b2 <d_expression+0x214>
    3236:	4620      	mov	r0, r4
    3238:	f7fe fdda 	bl	1df0 <d_make_empty>
    323c:	4605      	mov	r5, r0
    323e:	2800      	cmp	r0, #0
    3240:	f000 80b8 	beq.w	33b4 <d_expression+0x216>
    3244:	2306      	movs	r3, #6
    3246:	6046      	str	r6, [r0, #4]
    3248:	7003      	strb	r3, [r0, #0]
    324a:	e0b3      	b.n	33b4 <d_expression+0x216>
    324c:	f1a2 0130 	sub.w	r1, r2, #48	; 0x30
    3250:	b2c9      	uxtb	r1, r1
    3252:	2909      	cmp	r1, #9
    3254:	d906      	bls.n	3264 <d_expression+0xc6>
    3256:	2a6f      	cmp	r2, #111	; 0x6f
    3258:	d117      	bne.n	328a <d_expression+0xec>
    325a:	785a      	ldrb	r2, [r3, #1]
    325c:	2a6e      	cmp	r2, #110	; 0x6e
    325e:	d114      	bne.n	328a <d_expression+0xec>
    3260:	3302      	adds	r3, #2
    3262:	60e3      	str	r3, [r4, #12]
    3264:	4620      	mov	r0, r4
    3266:	f7ff fed5 	bl	3014 <d_unqualified_name>
    326a:	4605      	mov	r5, r0
    326c:	2800      	cmp	r0, #0
    326e:	f000 80a1 	beq.w	33b4 <d_expression+0x216>
    3272:	68e3      	ldr	r3, [r4, #12]
    3274:	781b      	ldrb	r3, [r3, #0]
    3276:	2b49      	cmp	r3, #73	; 0x49
    3278:	f040 809c 	bne.w	33b4 <d_expression+0x216>
    327c:	4620      	mov	r0, r4
    327e:	f7ff fa51 	bl	2724 <d_template_args>
    3282:	2104      	movs	r1, #4
    3284:	4603      	mov	r3, r0
    3286:	4620      	mov	r0, r4
    3288:	e08e      	b.n	33a8 <d_expression+0x20a>
    328a:	4620      	mov	r0, r4
    328c:	f7ff fe60 	bl	2f50 <d_operator_name>
    3290:	4605      	mov	r5, r0
    3292:	2800      	cmp	r0, #0
    3294:	f000 808e 	beq.w	33b4 <d_expression+0x216>
    3298:	7806      	ldrb	r6, [r0, #0]
    329a:	2e2c      	cmp	r6, #44	; 0x2c
    329c:	d10e      	bne.n	32bc <d_expression+0x11e>
    329e:	6843      	ldr	r3, [r0, #4]
    32a0:	6b21      	ldr	r1, [r4, #48]	; 0x30
    32a2:	689a      	ldr	r2, [r3, #8]
    32a4:	6818      	ldr	r0, [r3, #0]
    32a6:	188a      	adds	r2, r1, r2
    32a8:	4944      	ldr	r1, [pc, #272]	; (33bc <d_expression+0x21e>)
    32aa:	3a02      	subs	r2, #2
    32ac:	6322      	str	r2, [r4, #48]	; 0x30
    32ae:	f003 ff62 	bl	7176 <strcmp>
    32b2:	b948      	cbnz	r0, 32c8 <d_expression+0x12a>
    32b4:	4620      	mov	r0, r4
    32b6:	f7ff fbbc 	bl	2a32 <d_type>
    32ba:	e01e      	b.n	32fa <d_expression+0x15c>
    32bc:	2e2d      	cmp	r6, #45	; 0x2d
    32be:	d006      	beq.n	32ce <d_expression+0x130>
    32c0:	2e2e      	cmp	r6, #46	; 0x2e
    32c2:	d00d      	beq.n	32e0 <d_expression+0x142>
    32c4:	2e2c      	cmp	r6, #44	; 0x2c
    32c6:	d174      	bne.n	33b2 <d_expression+0x214>
    32c8:	686b      	ldr	r3, [r5, #4]
    32ca:	68db      	ldr	r3, [r3, #12]
    32cc:	e000      	b.n	32d0 <d_expression+0x132>
    32ce:	6843      	ldr	r3, [r0, #4]
    32d0:	2b02      	cmp	r3, #2
    32d2:	d016      	beq.n	3302 <d_expression+0x164>
    32d4:	2b03      	cmp	r3, #3
    32d6:	d04d      	beq.n	3374 <d_expression+0x1d6>
    32d8:	2b01      	cmp	r3, #1
    32da:	d16a      	bne.n	33b2 <d_expression+0x214>
    32dc:	2e2e      	cmp	r6, #46	; 0x2e
    32de:	d109      	bne.n	32f4 <d_expression+0x156>
    32e0:	68e3      	ldr	r3, [r4, #12]
    32e2:	781a      	ldrb	r2, [r3, #0]
    32e4:	2a5f      	cmp	r2, #95	; 0x5f
    32e6:	d105      	bne.n	32f4 <d_expression+0x156>
    32e8:	3301      	adds	r3, #1
    32ea:	4620      	mov	r0, r4
    32ec:	60e3      	str	r3, [r4, #12]
    32ee:	f000 f86d 	bl	33cc <d_exprlist>
    32f2:	e002      	b.n	32fa <d_expression+0x15c>
    32f4:	4620      	mov	r0, r4
    32f6:	f7ff ff52 	bl	319e <d_expression>
    32fa:	4603      	mov	r3, r0
    32fc:	212f      	movs	r1, #47	; 0x2f
    32fe:	4620      	mov	r0, r4
    3300:	e052      	b.n	33a8 <d_expression+0x20a>
    3302:	686b      	ldr	r3, [r5, #4]
    3304:	4620      	mov	r0, r4
    3306:	681f      	ldr	r7, [r3, #0]
    3308:	f7ff ff49 	bl	319e <d_expression>
    330c:	492c      	ldr	r1, [pc, #176]	; (33c0 <d_expression+0x222>)
    330e:	4606      	mov	r6, r0
    3310:	4638      	mov	r0, r7
    3312:	f003 ff30 	bl	7176 <strcmp>
    3316:	b918      	cbnz	r0, 3320 <d_expression+0x182>
    3318:	4620      	mov	r0, r4
    331a:	f000 f857 	bl	33cc <d_exprlist>
    331e:	e01e      	b.n	335e <d_expression+0x1c0>
    3320:	4638      	mov	r0, r7
    3322:	4928      	ldr	r1, [pc, #160]	; (33c4 <d_expression+0x226>)
    3324:	f003 ff27 	bl	7176 <strcmp>
    3328:	b120      	cbz	r0, 3334 <d_expression+0x196>
    332a:	4638      	mov	r0, r7
    332c:	4926      	ldr	r1, [pc, #152]	; (33c8 <d_expression+0x22a>)
    332e:	f003 ff22 	bl	7176 <strcmp>
    3332:	b988      	cbnz	r0, 3358 <d_expression+0x1ba>
    3334:	4620      	mov	r0, r4
    3336:	f7ff fe6d 	bl	3014 <d_unqualified_name>
    333a:	68e3      	ldr	r3, [r4, #12]
    333c:	781b      	ldrb	r3, [r3, #0]
    333e:	2b49      	cmp	r3, #73	; 0x49
    3340:	4607      	mov	r7, r0
    3342:	d10d      	bne.n	3360 <d_expression+0x1c2>
    3344:	4620      	mov	r0, r4
    3346:	f7ff f9ed 	bl	2724 <d_template_args>
    334a:	2104      	movs	r1, #4
    334c:	463a      	mov	r2, r7
    334e:	4603      	mov	r3, r0
    3350:	4620      	mov	r0, r4
    3352:	f7fe fd5b 	bl	1e0c <d_make_comp>
    3356:	e002      	b.n	335e <d_expression+0x1c0>
    3358:	4620      	mov	r0, r4
    335a:	f7ff ff20 	bl	319e <d_expression>
    335e:	4607      	mov	r7, r0
    3360:	2131      	movs	r1, #49	; 0x31
    3362:	463b      	mov	r3, r7
    3364:	4620      	mov	r0, r4
    3366:	4632      	mov	r2, r6
    3368:	f7fe fd50 	bl	1e0c <d_make_comp>
    336c:	2130      	movs	r1, #48	; 0x30
    336e:	4603      	mov	r3, r0
    3370:	4620      	mov	r0, r4
    3372:	e019      	b.n	33a8 <d_expression+0x20a>
    3374:	4620      	mov	r0, r4
    3376:	f7ff ff12 	bl	319e <d_expression>
    337a:	4606      	mov	r6, r0
    337c:	4620      	mov	r0, r4
    337e:	f7ff ff0e 	bl	319e <d_expression>
    3382:	4607      	mov	r7, r0
    3384:	4620      	mov	r0, r4
    3386:	f7ff ff0a 	bl	319e <d_expression>
    338a:	2134      	movs	r1, #52	; 0x34
    338c:	463a      	mov	r2, r7
    338e:	4603      	mov	r3, r0
    3390:	4620      	mov	r0, r4
    3392:	f7fe fd3b 	bl	1e0c <d_make_comp>
    3396:	2133      	movs	r1, #51	; 0x33
    3398:	4632      	mov	r2, r6
    339a:	4603      	mov	r3, r0
    339c:	4620      	mov	r0, r4
    339e:	f7fe fd35 	bl	1e0c <d_make_comp>
    33a2:	2132      	movs	r1, #50	; 0x32
    33a4:	4603      	mov	r3, r0
    33a6:	4620      	mov	r0, r4
    33a8:	462a      	mov	r2, r5
    33aa:	e8bd 41f0 	ldmia.w	sp!, {r4, r5, r6, r7, r8, lr}
    33ae:	f7fe bd2d 	b.w	1e0c <d_make_comp>
    33b2:	2500      	movs	r5, #0
    33b4:	4628      	mov	r0, r5
    33b6:	e8bd 81f0 	ldmia.w	sp!, {r4, r5, r6, r7, r8, pc}
    33ba:	bf00      	nop
    33bc:	0000fc05 	.word	0x0000fc05
    33c0:	0000fa46 	.word	0x0000fa46
    33c4:	0000fa49 	.word	0x0000fa49
    33c8:	0000fa4c 	.word	0x0000fa4c

000033cc <d_exprlist>:
    33cc:	68c3      	ldr	r3, [r0, #12]
    33ce:	b537      	push	{r0, r1, r2, r4, r5, lr}
    33d0:	2200      	movs	r2, #0
    33d2:	9201      	str	r2, [sp, #4]
    33d4:	4604      	mov	r4, r0
    33d6:	7819      	ldrb	r1, [r3, #0]
    33d8:	2945      	cmp	r1, #69	; 0x45
    33da:	d001      	beq.n	33e0 <d_exprlist+0x14>
    33dc:	ad01      	add	r5, sp, #4
    33de:	e008      	b.n	33f2 <d_exprlist+0x26>
    33e0:	3301      	adds	r3, #1
    33e2:	212a      	movs	r1, #42	; 0x2a
    33e4:	60c3      	str	r3, [r0, #12]
    33e6:	4613      	mov	r3, r2
    33e8:	b003      	add	sp, #12
    33ea:	e8bd 4030 	ldmia.w	sp!, {r4, r5, lr}
    33ee:	f7fe bd0d 	b.w	1e0c <d_make_comp>
    33f2:	4620      	mov	r0, r4
    33f4:	f7ff fed3 	bl	319e <d_expression>
    33f8:	4602      	mov	r2, r0
    33fa:	b188      	cbz	r0, 3420 <d_exprlist+0x54>
    33fc:	4620      	mov	r0, r4
    33fe:	212a      	movs	r1, #42	; 0x2a
    3400:	2300      	movs	r3, #0
    3402:	f7fe fd03 	bl	1e0c <d_make_comp>
    3406:	6028      	str	r0, [r5, #0]
    3408:	b150      	cbz	r0, 3420 <d_exprlist+0x54>
    340a:	68e3      	ldr	r3, [r4, #12]
    340c:	781a      	ldrb	r2, [r3, #0]
    340e:	2a45      	cmp	r2, #69	; 0x45
    3410:	d002      	beq.n	3418 <d_exprlist+0x4c>
    3412:	f100 0508 	add.w	r5, r0, #8
    3416:	e7ec      	b.n	33f2 <d_exprlist+0x26>
    3418:	3301      	adds	r3, #1
    341a:	9801      	ldr	r0, [sp, #4]
    341c:	60e3      	str	r3, [r4, #12]
    341e:	e7ff      	b.n	3420 <d_exprlist+0x54>
    3420:	b003      	add	sp, #12
    3422:	bd30      	pop	{r4, r5, pc}

00003424 <d_print_error.clone.1>:
    3424:	2301      	movs	r3, #1
    3426:	6003      	str	r3, [r0, #0]
    3428:	4770      	bx	lr

0000342a <d_print_saw_error.clone.2>:
    342a:	3800      	subs	r0, #0
    342c:	bf18      	it	ne
    342e:	2001      	movne	r0, #1
    3430:	4770      	bx	lr

00003432 <d_lookup_template_argument.clone.4>:
    3432:	b510      	push	{r4, lr}
    3434:	f8d0 4114 	ldr.w	r4, [r0, #276]	; 0x114
    3438:	b92c      	cbnz	r4, 3446 <d_lookup_template_argument.clone.4+0x14>
    343a:	f500 708e 	add.w	r0, r0, #284	; 0x11c
    343e:	f7ff fff1 	bl	3424 <d_print_error.clone.1>
    3442:	4620      	mov	r0, r4
    3444:	bd10      	pop	{r4, pc}
    3446:	6863      	ldr	r3, [r4, #4]
    3448:	6809      	ldr	r1, [r1, #0]
    344a:	6898      	ldr	r0, [r3, #8]
    344c:	e8bd 4010 	ldmia.w	sp!, {r4, lr}
    3450:	f7fe be3a 	b.w	20c8 <d_index_template_argument>

00003454 <d_find_pack>:
    3454:	b538      	push	{r3, r4, r5, lr}
    3456:	4605      	mov	r5, r0
    3458:	460c      	mov	r4, r1
    345a:	2c00      	cmp	r4, #0
    345c:	d02d      	beq.n	34ba <d_find_pack+0x66>
    345e:	7823      	ldrb	r3, [r4, #0]
    3460:	2b16      	cmp	r3, #22
    3462:	d02c      	beq.n	34be <d_find_pack+0x6a>
    3464:	d80c      	bhi.n	3480 <d_find_pack+0x2c>
    3466:	2b06      	cmp	r3, #6
    3468:	d029      	beq.n	34be <d_find_pack+0x6a>
    346a:	d804      	bhi.n	3476 <d_find_pack+0x22>
    346c:	2b00      	cmp	r3, #0
    346e:	d026      	beq.n	34be <d_find_pack+0x6a>
    3470:	2b05      	cmp	r3, #5
    3472:	d11b      	bne.n	34ac <d_find_pack+0x58>
    3474:	e010      	b.n	3498 <d_find_pack+0x44>
    3476:	2b07      	cmp	r3, #7
    3478:	d01d      	beq.n	34b6 <d_find_pack+0x62>
    347a:	2b08      	cmp	r3, #8
    347c:	d116      	bne.n	34ac <d_find_pack+0x58>
    347e:	e01a      	b.n	34b6 <d_find_pack+0x62>
    3480:	2b2d      	cmp	r3, #45	; 0x2d
    3482:	d018      	beq.n	34b6 <d_find_pack+0x62>
    3484:	d803      	bhi.n	348e <d_find_pack+0x3a>
    3486:	2b23      	cmp	r3, #35	; 0x23
    3488:	d019      	beq.n	34be <d_find_pack+0x6a>
    348a:	2b2c      	cmp	r3, #44	; 0x2c
    348c:	e002      	b.n	3494 <d_find_pack+0x40>
    348e:	2b39      	cmp	r3, #57	; 0x39
    3490:	d015      	beq.n	34be <d_find_pack+0x6a>
    3492:	2b41      	cmp	r3, #65	; 0x41
    3494:	d10a      	bne.n	34ac <d_find_pack+0x58>
    3496:	e012      	b.n	34be <d_find_pack+0x6a>
    3498:	4628      	mov	r0, r5
    349a:	1d21      	adds	r1, r4, #4
    349c:	f7ff ffc9 	bl	3432 <d_lookup_template_argument.clone.4>
    34a0:	b170      	cbz	r0, 34c0 <d_find_pack+0x6c>
    34a2:	7803      	ldrb	r3, [r0, #0]
    34a4:	2b2b      	cmp	r3, #43	; 0x2b
    34a6:	bf18      	it	ne
    34a8:	2000      	movne	r0, #0
    34aa:	bd38      	pop	{r3, r4, r5, pc}
    34ac:	4628      	mov	r0, r5
    34ae:	6861      	ldr	r1, [r4, #4]
    34b0:	f7ff ffd0 	bl	3454 <d_find_pack>
