Archive member included because of file (symbol)

../../mri/mri.ar(mri.o)       ../../src/gcc4mbed.o (MriInit)
../../mri/mri.ar(mriasm.o)    ../../mri/mri.ar(mri.o) (MriDisableMbed)
../../external/mbed/LPC1768/mbed.ar(DigitalOut.LPC1768.o)
                              ./main.o (_ZTVN4mbed10DigitalOutE)
../../external/mbed/LPC1768/mbed.ar(Base.LPC1768.o)
                              ../../external/mbed/LPC1768/mbed.ar(DigitalOut.LPC1768.o) (_ZTIN4mbed4BaseE)
../../external/mbed/LPC1768/mbed.ar(Ticker.LPC1768.o)
                              ./main.o (_ZTVN4mbed6TickerE)
../../external/mbed/LPC1768/mbed.ar(stdio.LPC1768.o)
                              ../../external/mbed/LPC1768/mbed.ar(Base.LPC1768.o) (_ZTIN4mbed8FileLikeE)
../../external/mbed/LPC1768/mbed.ar(FunctionPointer.LPC1768.o)
                              ../../external/mbed/LPC1768/mbed.ar(Ticker.LPC1768.o) (_ZN4mbed15FunctionPointer4callEv)
../../external/mbed/LPC1768/mbed.ar(Serial.LPC1768.o)
                              ../../mri/mri.ar(mri.o) (_ZTVN4mbed6SerialE)
../../external/mbed/LPC1768/mbed.ar(TimerEvent.LPC1768.o)
                              ../../external/mbed/LPC1768/mbed.ar(Ticker.LPC1768.o) (_ZTIN4mbed10TimerEventE)
../../external/mbed/LPC1768/mbed.ar(Stream.LPC1768.o)
                              ../../external/mbed/LPC1768/mbed.ar(Serial.LPC1768.o) (_ZTIN4mbed6StreamE)
../../external/mbed/LPC1768/capi.ar(cmsis_nvic.LPC1768.o)
                              ../../external/mbed/LPC1768/mbed.ar(Serial.LPC1768.o) (NVIC_SetVector)
../../external/mbed/LPC1768/capi.ar(startup_LPC17xx.LPC1768.o)
                              (Reset_Handler)
../../external/mbed/LPC1768/capi.ar(system_LPC17xx.LPC1768.o)
                              ../../external/mbed/LPC1768/capi.ar(startup_LPC17xx.LPC1768.o) (SystemInit)
../../external/mbed/LPC1768/capi.ar(core_cm3.LPC1768.o)
                              ../../src/syscalls.o (__get_MSP)
../../external/mbed/LPC1768/capi.ar(serial_api.LPC1768.o)
                              ../../external/mbed/LPC1768/mbed.ar(stdio.LPC1768.o) (serial_baud)
../../external/mbed/LPC1768/capi.ar(exit.LPC1768.o)
                              ../../src/gcc4mbed.o (exit)
../../external/mbed/LPC1768/capi.ar(pinmap.LPC1768.o)
                              ../../external/mbed/LPC1768/capi.ar(serial_api.LPC1768.o) (pinmap_merge)
../../external/mbed/LPC1768/capi.ar(wait_api.LPC1768.o)
                              ./main.o (wait)
../../external/mbed/LPC1768/capi.ar(gpio_api.LPC1768.o)
                              ../../external/mbed/LPC1768/mbed.ar(DigitalOut.LPC1768.o) (gpio_output)
../../external/mbed/LPC1768/capi.ar(semihost_api.LPC1768.o)
                              ../../external/mbed/LPC1768/capi.ar(exit.LPC1768.o) (semihost_exit)
../../external/mbed/LPC1768/capi.ar(us_ticker_api.LPC1768.o)
                              ../../external/mbed/LPC1768/mbed.ar(TimerEvent.LPC1768.o) (us_ticker_read)
../../external/mbed/LPC1768/capi.ar(utils_api.LPC1768.o)
                              ../../external/mbed/LPC1768/capi.ar(exit.LPC1768.o) (mbed_die)
../../external/mbed/LPC1768/capi.ar(timer_api.LPC1768.o)
                              ../../external/mbed/LPC1768/capi.ar(us_ticker_api.LPC1768.o) (timer_frequency)
../../external/gcc/LPC1768/libstdc++.a(atexit_arm.o)
                              ./main.o (__aeabi_atexit)
../../external/gcc/LPC1768/libstdc++.a(class_type_info.o)
                              ../../external/mbed/LPC1768/mbed.ar(Base.LPC1768.o) (_ZTVN10__cxxabiv117__class_type_infoE)
../../external/gcc/LPC1768/libstdc++.a(del_op.o)
                              ./main.o (_ZdlPv)
../../external/gcc/LPC1768/libstdc++.a(del_opv.o)
                              ../../external/mbed/LPC1768/mbed.ar(Base.LPC1768.o) (_ZdaPv)
../../external/gcc/LPC1768/libstdc++.a(dyncast.o)
                              ../../external/mbed/LPC1768/mbed.ar(Base.LPC1768.o) (__dynamic_cast)
../../external/gcc/LPC1768/libstdc++.a(new_op.o)
                              ../../external/mbed/LPC1768/mbed.ar(DigitalOut.LPC1768.o) (_Znwj)
../../external/gcc/LPC1768/libstdc++.a(new_opv.o)
                              ../../external/mbed/LPC1768/mbed.ar(DigitalOut.LPC1768.o) (_Znaj)
../../external/gcc/LPC1768/libstdc++.a(pure.o)
                              ../../external/mbed/LPC1768/mbed.ar(stdio.LPC1768.o) (__cxa_pure_virtual)
../../external/gcc/LPC1768/libstdc++.a(si_class_type_info.o)
                              ../../external/mbed/LPC1768/mbed.ar(DigitalOut.LPC1768.o) (_ZTVN10__cxxabiv120__si_class_type_infoE)
../../external/gcc/LPC1768/libstdc++.a(tinfo.o)
                              ../../external/gcc/LPC1768/libstdc++.a(class_type_info.o) (_ZNSt9type_infoD2Ev)
../../external/gcc/LPC1768/libstdc++.a(vec.o)
                              ../../external/mbed/LPC1768/mbed.ar(Serial.LPC1768.o) (__aeabi_vec_ctor_nocookie_nodtor)
../../external/gcc/LPC1768/libstdc++.a(vmi_class_type_info.o)
                              ../../external/mbed/LPC1768/mbed.ar(stdio.LPC1768.o) (_ZTVN10__cxxabiv121__vmi_class_type_infoE)
../../external/gcc/LPC1768/libstdc++.a(eh_terminate.o)
                              ../../external/gcc/LPC1768/libstdc++.a(pure.o) (_ZSt9terminatev)
../../external/gcc/LPC1768/libstdc++.a(eh_unex_handler.o)
                              ../../external/gcc/LPC1768/libstdc++.a(eh_terminate.o) (_ZN10__cxxabiv120__unexpected_handlerE)
../../external/gcc/LPC1768/libstdc++.a(new_handler.o)
                              ../../external/gcc/LPC1768/libstdc++.a(new_op.o) (__new_handler)
../../external/gcc/LPC1768/libstdc++.a(eh_exception.o)
                              ../../external/gcc/LPC1768/libstdc++.a(new_handler.o) (_ZNSt9exceptionD2Ev)
../../external/gcc/LPC1768/libstdc++.a(eh_term_handler.o)
                              ../../external/gcc/LPC1768/libstdc++.a(eh_terminate.o) (_ZN10__cxxabiv119__terminate_handlerE)
../../external/gcc/LPC1768/libstdc++.a(vterminate.o)
                              ../../external/gcc/LPC1768/libstdc++.a(eh_term_handler.o) (_ZN9__gnu_cxx27__verbose_terminate_handlerEv)
../../external/gcc/LPC1768/libstdc++.a(cp-demangle.o)
                              ../../external/gcc/LPC1768/libstdc++.a(vterminate.o) (__cxa_demangle)
../../external/gcc/LPC1768/libstdc++.a(eh_type.o)
                              ../../external/gcc/LPC1768/libstdc++.a(vterminate.o) (__cxa_current_exception_type)
../../external/gcc/LPC1768/libstdc++.a(eh_globals.o)
                              ../../external/gcc/LPC1768/libstdc++.a(eh_type.o) (__cxa_get_globals)
../../external/gcc/LPC1768/libm.a(lib_a-s_scalbn.o)
                              ../../external/mbed/LPC1768/capi.ar(serial_api.LPC1768.o) (scalbn)
../../external/gcc/LPC1768/libm.a(lib_a-s_copysign.o)
                              ../../external/gcc/LPC1768/libm.a(lib_a-s_scalbn.o) (copysign)
/media/6aafac43-5450-453e-a142-f588400933c0/Sandbox/arm/bin/../lib/gcc/arm-none-eabi/4.5.2/thumb2/libgcc.a(_arm_addsubdf3.o)
                              ../../external/gcc/LPC1768/libm.a(lib_a-s_scalbn.o) (__aeabi_dadd)
/media/6aafac43-5450-453e-a142-f588400933c0/Sandbox/arm/bin/../lib/gcc/arm-none-eabi/4.5.2/thumb2/libgcc.a(_arm_muldivdf3.o)
                              ../../external/mbed/LPC1768/capi.ar(serial_api.LPC1768.o) (__aeabi_dmul)
/media/6aafac43-5450-453e-a142-f588400933c0/Sandbox/arm/bin/../lib/gcc/arm-none-eabi/4.5.2/thumb2/libgcc.a(_arm_fixdfsi.o)
                              ../../external/mbed/LPC1768/capi.ar(wait_api.LPC1768.o) (__aeabi_d2iz)
/media/6aafac43-5450-453e-a142-f588400933c0/Sandbox/arm/bin/../lib/gcc/arm-none-eabi/4.5.2/thumb2/libgcc.a(_arm_truncdfsf2.o)
                              ../../external/mbed/LPC1768/capi.ar(serial_api.LPC1768.o) (__aeabi_d2f)
/media/6aafac43-5450-453e-a142-f588400933c0/Sandbox/arm/bin/../lib/gcc/arm-none-eabi/4.5.2/thumb2/libgcc.a(_arm_addsubsf3.o)
                              ../../external/mbed/LPC1768/capi.ar(serial_api.LPC1768.o) (__aeabi_fsub)
/media/6aafac43-5450-453e-a142-f588400933c0/Sandbox/arm/bin/../lib/gcc/arm-none-eabi/4.5.2/thumb2/libgcc.a(_arm_muldivsf3.o)
                              ../../external/mbed/LPC1768/capi.ar(serial_api.LPC1768.o) (__aeabi_fdiv)
/media/6aafac43-5450-453e-a142-f588400933c0/Sandbox/arm/bin/../lib/gcc/arm-none-eabi/4.5.2/thumb2/libgcc.a(_arm_cmpsf2.o)
                              ../../external/mbed/LPC1768/capi.ar(serial_api.LPC1768.o) (__aeabi_cfcmple)
../../external/gcc/LPC1768/libc.a(lib_a-abort.o)
                              ../../src/syscalls.o (abort)
../../external/gcc/LPC1768/libc.a(lib_a-aeabi_memcpy.o)
                              ../../external/mbed/LPC1768/mbed.ar(DigitalOut.LPC1768.o) (__aeabi_memcpy)
../../external/gcc/LPC1768/libc.a(lib_a-clibabi_assert.o)
                              ../../external/mbed/LPC1768/capi.ar(serial_api.LPC1768.o) (__aeabi_assert)
../../external/gcc/LPC1768/libc.a(lib_a-clibabi_ctype.o)
                              ../../external/mbed/LPC1768/mbed.ar(DigitalOut.LPC1768.o) (__aeabi_ctype_table_)
../../external/gcc/LPC1768/libc.a(lib_a-clibabi_stdio.o)
                              ../../external/mbed/LPC1768/capi.ar(serial_api.LPC1768.o) (__aeabi_stderr)
../../external/gcc/LPC1768/libc.a(lib_a-cxa_atexit.o)
                              ../../external/gcc/LPC1768/libstdc++.a(atexit_arm.o) (__cxa_atexit)
../../external/gcc/LPC1768/libc.a(lib_a-fclose.o)
                              ../../external/mbed/LPC1768/mbed.ar(Stream.LPC1768.o) (fclose)
../../external/gcc/LPC1768/libc.a(lib_a-fflush.o)
                              ../../external/gcc/LPC1768/libc.a(lib_a-fclose.o) (_fflush_r)
../../external/gcc/LPC1768/libc.a(lib_a-fgetc.o)
                              ../../mri/mri.ar(mri.o) (fgetc)
../../external/gcc/LPC1768/libc.a(lib_a-findfp.o)
                              ../../external/gcc/LPC1768/libc.a(lib_a-fclose.o) (__sinit)
../../external/gcc/LPC1768/libc.a(lib_a-fopen.o)
                              ../../external/mbed/LPC1768/mbed.ar(Stream.LPC1768.o) (fopen)
../../external/gcc/LPC1768/libc.a(lib_a-fprintf.o)
                              ../../external/mbed/LPC1768/capi.ar(serial_api.LPC1768.o) (fprintf)
../../external/gcc/LPC1768/libc.a(lib_a-fputc.o)
                              ../../mri/mri.ar(mri.o) (fputc)
../../external/gcc/LPC1768/libc.a(lib_a-fputs.o)
                              ../../external/mbed/LPC1768/mbed.ar(Stream.LPC1768.o) (fputs)
../../external/gcc/LPC1768/libc.a(lib_a-freer.o)
                              ../../external/gcc/LPC1768/libc.a(lib_a-fclose.o) (_free_r)
../../external/gcc/LPC1768/libc.a(lib_a-fseek.o)
                              ../../external/gcc/LPC1768/libc.a(lib_a-fopen.o) (_fseek_r)
../../external/gcc/LPC1768/libc.a(lib_a-fstatr.o)
                              ../../external/gcc/LPC1768/libc.a(lib_a-fseek.o) (_fstat_r)
../../external/gcc/LPC1768/libc.a(lib_a-fvwrite.o)
                              ../../external/gcc/LPC1768/libc.a(lib_a-fputs.o) (__sfvwrite_r)
../../external/gcc/LPC1768/libc.a(lib_a-fwalk.o)
                              ../../external/gcc/LPC1768/libc.a(lib_a-findfp.o) (_fwalk)
../../external/gcc/LPC1768/libc.a(lib_a-fwrite.o)
                              ../../src/syscalls.o (fwrite)
../../external/gcc/LPC1768/libc.a(lib_a-impure.o)
                              ../../src/syscalls.o (_impure_ptr)
../../external/gcc/LPC1768/libc.a(lib_a-init.o)
                              ../../src/gcc4mbed.o (__libc_init_array)
../../external/gcc/LPC1768/libc.a(lib_a-makebuf.o)
                              ../../external/gcc/LPC1768/libc.a(lib_a-fseek.o) (__smakebuf_r)
../../external/gcc/LPC1768/libc.a(lib_a-malloc.o)
                              ../../external/gcc/LPC1768/libstdc++.a(new_op.o) (malloc)
../../external/gcc/LPC1768/libc.a(lib_a-mallocr.o)
                              ../../external/gcc/LPC1768/libc.a(lib_a-findfp.o) (_malloc_r)
../../external/gcc/LPC1768/libc.a(lib_a-memchr.o)
                              ../../external/gcc/LPC1768/libc.a(lib_a-fvwrite.o) (memchr)
../../external/gcc/LPC1768/libc.a(lib_a-memcmp.o)
                              ../../external/gcc/LPC1768/libstdc++.a(cp-demangle.o) (memcmp)
../../external/gcc/LPC1768/libc.a(lib_a-memcpy.o)
                              ../../mri/mri.ar(mri.o) (memcpy)
../../external/gcc/LPC1768/libc.a(lib_a-memmove.o)
                              ../../external/gcc/LPC1768/libc.a(lib_a-fvwrite.o) (memmove)
../../external/gcc/LPC1768/libc.a(lib_a-memset.o)
                              ../../mri/mri.ar(mri.o) (memset)
../../external/gcc/LPC1768/libc.a(lib_a-mlock.o)
                              ../../external/gcc/LPC1768/libc.a(lib_a-freer.o) (__malloc_lock)
../../external/gcc/LPC1768/libc.a(lib_a-openr.o)
                              ../../external/gcc/LPC1768/libc.a(lib_a-fopen.o) (_open_r)
../../external/gcc/LPC1768/libc.a(lib_a-putc.o)
                              ../../external/gcc/LPC1768/libc.a(lib_a-fputc.o) (_putc_r)
../../external/gcc/LPC1768/libc.a(lib_a-puts.o)
                              ../../mri/mri.ar(mri.o) (puts)
../../external/gcc/LPC1768/libc.a(lib_a-realloc.o)
                              ../../external/gcc/LPC1768/libstdc++.a(cp-demangle.o) (realloc)
../../external/gcc/LPC1768/libc.a(lib_a-reallocr.o)
                              ../../external/gcc/LPC1768/libc.a(lib_a-fvwrite.o) (_realloc_r)
../../external/gcc/LPC1768/libc.a(lib_a-reent.o)
                              ../../src/syscalls.o (errno)
../../external/gcc/LPC1768/libc.a(lib_a-refill.o)
                              ../../external/gcc/LPC1768/libc.a(lib_a-fseek.o) (__srefill_r)
../../external/gcc/LPC1768/libc.a(lib_a-rget.o)
                              ../../external/gcc/LPC1768/libc.a(lib_a-fgetc.o) (__srget_r)
../../external/gcc/LPC1768/libc.a(lib_a-sbrkr.o)
                              ../../external/gcc/LPC1768/libc.a(lib_a-freer.o) (_sbrk_r)
../../external/gcc/LPC1768/libc.a(lib_a-setbuf.o)
                              ../../external/mbed/LPC1768/mbed.ar(Stream.LPC1768.o) (setbuf)
../../external/gcc/LPC1768/libc.a(lib_a-setvbuf.o)
                              ../../external/gcc/LPC1768/libc.a(lib_a-setbuf.o) (setvbuf)
../../external/gcc/LPC1768/libc.a(lib_a-signal.o)
                              ../../external/gcc/LPC1768/libc.a(lib_a-abort.o) (raise)
../../external/gcc/LPC1768/libc.a(lib_a-signalr.o)
                              ../../external/gcc/LPC1768/libc.a(lib_a-signal.o) (_kill_r)
../../external/gcc/LPC1768/libc.a(lib_a-sprintf.o)
                              ../../external/mbed/LPC1768/mbed.ar(DigitalOut.LPC1768.o) (sprintf)
../../external/gcc/LPC1768/libc.a(lib_a-sscanf.o)
                              ../../external/mbed/LPC1768/mbed.ar(stdio.LPC1768.o) (sscanf)
../../external/gcc/LPC1768/libc.a(lib_a-stdio.o)
                              ../../external/gcc/LPC1768/libc.a(lib_a-findfp.o) (__sread)
../../external/gcc/LPC1768/libc.a(lib_a-strcmp.o)
                              ../../external/mbed/LPC1768/mbed.ar(Base.LPC1768.o) (strcmp)
../../external/gcc/LPC1768/libc.a(lib_a-strcpy.o)
                              ../../external/mbed/LPC1768/mbed.ar(DigitalOut.LPC1768.o) (strcpy)
../../external/gcc/LPC1768/libc.a(lib_a-strlen.o)
                              ../../mri/mri.ar(mri.o) (strlen)
../../external/gcc/LPC1768/libc.a(lib_a-strncmp.o)
                              ../../mri/mri.ar(mri.o) (strncmp)
../../external/gcc/LPC1768/libc.a(lib_a-strncpy.o)
                              ../../external/mbed/LPC1768/mbed.ar(Base.LPC1768.o) (strncpy)
../../external/gcc/LPC1768/libc.a(lib_a-strtol.o)
                              ../../external/mbed/LPC1768/mbed.ar(DigitalOut.LPC1768.o) (strtol)
../../external/gcc/LPC1768/libc.a(lib_a-svfprintf.o)
                              ../../external/gcc/LPC1768/libc.a(lib_a-sprintf.o) (_svfprintf_r)
../../external/gcc/LPC1768/libc.a(lib_a-svfscanf.o)
                              ../../external/gcc/LPC1768/libc.a(lib_a-sscanf.o) (__ssvfscanf_r)
../../external/gcc/LPC1768/libc.a(lib_a-syswrite.o)
                              ../../external/gcc/LPC1768/libstdc++.a(pure.o) (write)
../../external/gcc/LPC1768/libc.a(lib_a-vfprintf.o)
                              ../../external/gcc/LPC1768/libc.a(lib_a-fprintf.o) (_vfprintf_r)
../../external/gcc/LPC1768/libc.a(lib_a-vfscanf.o)
                              ../../external/mbed/LPC1768/mbed.ar(Stream.LPC1768.o) (vfscanf)
../../external/gcc/LPC1768/libc.a(lib_a-wbuf.o)
                              ../../external/gcc/LPC1768/libc.a(lib_a-putc.o) (__swbuf_r)
../../external/gcc/LPC1768/libc.a(lib_a-writer.o)
                              ../../external/gcc/LPC1768/libc.a(lib_a-stdio.o) (_write_r)
../../external/gcc/LPC1768/libc.a(lib_a-wsetup.o)
                              ../../external/gcc/LPC1768/libc.a(lib_a-fvwrite.o) (__swsetup_r)
../../external/gcc/LPC1768/libc.a(lib_a-__atexit.o)
                              ../../external/gcc/LPC1768/libc.a(lib_a-cxa_atexit.o) (__register_exitproc)
../../external/gcc/LPC1768/libc.a(lib_a-assert.o)
                              ../../external/gcc/LPC1768/libc.a(lib_a-clibabi_assert.o) (__assert)
../../external/gcc/LPC1768/libc.a(lib_a-closer.o)
                              ../../external/gcc/LPC1768/libc.a(lib_a-stdio.o) (_close_r)
../../external/gcc/LPC1768/libc.a(lib_a-ctype_.o)
                              ../../external/gcc/LPC1768/libc.a(lib_a-strtol.o) (__ctype_ptr__)
../../external/gcc/LPC1768/libc.a(lib_a-dtoa.o)
                              ../../external/gcc/LPC1768/libc.a(lib_a-svfprintf.o) (_dtoa_r)
../../external/gcc/LPC1768/libc.a(lib_a-fiprintf.o)
                              ../../external/gcc/LPC1768/libc.a(lib_a-assert.o) (fiprintf)
../../external/gcc/LPC1768/libc.a(lib_a-flags.o)
                              ../../external/gcc/LPC1768/libc.a(lib_a-fopen.o) (__sflags)
../../external/gcc/LPC1768/libc.a(lib_a-fread.o)
                              ../../external/gcc/LPC1768/libc.a(lib_a-vfscanf.o) (_fread_r)
../../external/gcc/LPC1768/libc.a(lib_a-isattyr.o)
                              ../../external/gcc/LPC1768/libc.a(lib_a-makebuf.o) (_isatty_r)
../../external/gcc/LPC1768/libc.a(lib_a-iswspace.o)
                              ../../external/gcc/LPC1768/libc.a(lib_a-svfscanf.o) (iswspace)
../../external/gcc/LPC1768/libc.a(lib_a-locale.o)
                              ../../external/gcc/LPC1768/libc.a(lib_a-svfscanf.o) (__locale_mb_cur_max)
../../external/gcc/LPC1768/libc.a(lib_a-lseekr.o)
                              ../../external/gcc/LPC1768/libc.a(lib_a-stdio.o) (_lseek_r)
../../external/gcc/LPC1768/libc.a(lib_a-mbrtowc.o)
                              ../../external/gcc/LPC1768/libc.a(lib_a-svfscanf.o) (_mbrtowc_r)
../../external/gcc/LPC1768/libc.a(lib_a-mbtowc_r.o)
                              ../../external/gcc/LPC1768/libc.a(lib_a-mbrtowc.o) (__mbtowc)
../../external/gcc/LPC1768/libc.a(lib_a-mprec.o)
                              ../../external/gcc/LPC1768/libc.a(lib_a-dtoa.o) (_Balloc)
../../external/gcc/LPC1768/libc.a(lib_a-readr.o)
                              ../../external/gcc/LPC1768/libc.a(lib_a-stdio.o) (_read_r)
../../external/gcc/LPC1768/libc.a(lib_a-s_fpclassify.o)
                              ../../external/gcc/LPC1768/libc.a(lib_a-svfprintf.o) (__fpclassifyd)
../../external/gcc/LPC1768/libc.a(lib_a-sccl.o)
                              ../../external/gcc/LPC1768/libc.a(lib_a-svfscanf.o) (__sccl)
../../external/gcc/LPC1768/libc.a(lib_a-sf_nan.o)
                              ../../external/gcc/LPC1768/libc.a(lib_a-svfscanf.o) (nanf)
../../external/gcc/LPC1768/libc.a(lib_a-strtod.o)
                              ../../external/gcc/LPC1768/libc.a(lib_a-svfscanf.o) (_strtod_r)
../../external/gcc/LPC1768/libc.a(lib_a-strtoll_r.o)
                              ../../external/gcc/LPC1768/libc.a(lib_a-svfscanf.o) (_strtoll_r)
../../external/gcc/LPC1768/libc.a(lib_a-strtoul.o)
                              ../../external/gcc/LPC1768/libc.a(lib_a-svfscanf.o) (_strtoul_r)
../../external/gcc/LPC1768/libc.a(lib_a-strtoull_r.o)
                              ../../external/gcc/LPC1768/libc.a(lib_a-svfscanf.o) (_strtoull_r)
../../external/gcc/LPC1768/libc.a(lib_a-svfiprintf.o)
                              ../../external/gcc/LPC1768/libc.a(lib_a-svfprintf.o) (__ssprint_r)
../../external/gcc/LPC1768/libc.a(lib_a-svfiscanf.o)
                              ../../external/gcc/LPC1768/libc.a(lib_a-svfscanf.o) (_sungetc_r)
../../external/gcc/LPC1768/libc.a(lib_a-ungetc.o)
                              ../../external/gcc/LPC1768/libc.a(lib_a-svfiscanf.o) (__submore)
../../external/gcc/LPC1768/libc.a(lib_a-vfiprintf.o)
                              ../../external/gcc/LPC1768/libc.a(lib_a-vfprintf.o) (__sprint_r)
../../external/gcc/LPC1768/libc.a(lib_a-callocr.o)
                              ../../external/gcc/LPC1768/libc.a(lib_a-mprec.o) (_calloc_r)
../../external/gcc/LPC1768/libc.a(lib_a-fputwc.o)
                              ../../external/gcc/LPC1768/libc.a(lib_a-vfiprintf.o) (_fputwc_r)
../../external/gcc/LPC1768/libc.a(lib_a-gdtoa-gethex.o)
                              ../../external/gcc/LPC1768/libc.a(lib_a-strtod.o) (__gethex)
../../external/gcc/LPC1768/libc.a(lib_a-gdtoa-hexnan.o)
                              ../../external/gcc/LPC1768/libc.a(lib_a-strtod.o) (__hexnan)
../../external/gcc/LPC1768/libc.a(lib_a-wcrtomb.o)
                              ../../external/gcc/LPC1768/libc.a(lib_a-fputwc.o) (_wcrtomb_r)
../../external/gcc/LPC1768/libc.a(lib_a-wctomb_r.o)
                              ../../external/gcc/LPC1768/libc.a(lib_a-wcrtomb.o) (__wctomb)
/media/6aafac43-5450-453e-a142-f588400933c0/Sandbox/arm/bin/../lib/gcc/arm-none-eabi/4.5.2/thumb2/libgcc.a(_udivsi3.o)
                              ../../external/gcc/LPC1768/libc.a(lib_a-fwrite.o) (__aeabi_uidiv)
/media/6aafac43-5450-453e-a142-f588400933c0/Sandbox/arm/bin/../lib/gcc/arm-none-eabi/4.5.2/thumb2/libgcc.a(_divsi3.o)
                              ../../external/gcc/LPC1768/libc.a(lib_a-svfprintf.o) (__aeabi_idiv)
/media/6aafac43-5450-453e-a142-f588400933c0/Sandbox/arm/bin/../lib/gcc/arm-none-eabi/4.5.2/thumb2/libgcc.a(_dvmd_tls.o)
                              /media/6aafac43-5450-453e-a142-f588400933c0/Sandbox/arm/bin/../lib/gcc/arm-none-eabi/4.5.2/thumb2/libgcc.a(_udivsi3.o) (__aeabi_idiv0)
/media/6aafac43-5450-453e-a142-f588400933c0/Sandbox/arm/bin/../lib/gcc/arm-none-eabi/4.5.2/thumb2/libgcc.a(_arm_cmpdf2.o)
                              ../../external/gcc/LPC1768/libc.a(lib_a-svfprintf.o) (__aeabi_dcmpeq)
/media/6aafac43-5450-453e-a142-f588400933c0/Sandbox/arm/bin/../lib/gcc/arm-none-eabi/4.5.2/thumb2/libgcc.a(_arm_fixunsdfsi.o)
                              ../../external/gcc/LPC1768/libc.a(lib_a-strtod.o) (__aeabi_d2uiz)
/media/6aafac43-5450-453e-a142-f588400933c0/Sandbox/arm/bin/../lib/gcc/arm-none-eabi/4.5.2/thumb2/libgcc.a(_aeabi_uldivmod.o)
                              ../../external/gcc/LPC1768/libc.a(lib_a-svfprintf.o) (__aeabi_uldivmod)
/media/6aafac43-5450-453e-a142-f588400933c0/Sandbox/arm/bin/../lib/gcc/arm-none-eabi/4.5.2/thumb2/libgcc.a(bpabi.o)
                              /media/6aafac43-5450-453e-a142-f588400933c0/Sandbox/arm/bin/../lib/gcc/arm-none-eabi/4.5.2/thumb2/libgcc.a(_aeabi_uldivmod.o) (__gnu_uldivmod_helper)
/media/6aafac43-5450-453e-a142-f588400933c0/Sandbox/arm/bin/../lib/gcc/arm-none-eabi/4.5.2/thumb2/libgcc.a(_divdi3.o)
                              /media/6aafac43-5450-453e-a142-f588400933c0/Sandbox/arm/bin/../lib/gcc/arm-none-eabi/4.5.2/thumb2/libgcc.a(bpabi.o) (__divdi3)
/media/6aafac43-5450-453e-a142-f588400933c0/Sandbox/arm/bin/../lib/gcc/arm-none-eabi/4.5.2/thumb2/libgcc.a(_udivdi3.o)
                              /media/6aafac43-5450-453e-a142-f588400933c0/Sandbox/arm/bin/../lib/gcc/arm-none-eabi/4.5.2/thumb2/libgcc.a(bpabi.o) (__udivdi3)

Allocating common symbols
Common symbol       size              file

errno               0x4               ../../external/gcc/LPC1768/libc.a(lib_a-reent.o)
__aeabi_stdin       0x4               ../../external/gcc/LPC1768/libc.a(lib_a-clibabi_stdio.o)
__hexdig            0x100             ../../external/gcc/LPC1768/libc.a(lib_a-gdtoa-gethex.o)
__aeabi_stdout      0x4               ../../external/gcc/LPC1768/libc.a(lib_a-clibabi_stdio.o)
__aeabi_stderr      0x4               ../../external/gcc/LPC1768/libc.a(lib_a-clibabi_stdio.o)

Discarded input sections

 .text          0x00000000        0x0 /media/6aafac43-5450-453e-a142-f588400933c0/Sandbox/arm/bin/../lib/gcc/arm-none-eabi/4.5.2/thumb2/crti.o
 .data          0x00000000        0x0 /media/6aafac43-5450-453e-a142-f588400933c0/Sandbox/arm/bin/../lib/gcc/arm-none-eabi/4.5.2/thumb2/crti.o
 .bss           0x00000000        0x0 /media/6aafac43-5450-453e-a142-f588400933c0/Sandbox/arm/bin/../lib/gcc/arm-none-eabi/4.5.2/thumb2/crti.o
 .text          0x00000000        0x0 ../../src/gcc4mbed.o
 .data          0x00000000        0x0 ../../src/gcc4mbed.o
 .bss           0x00000000        0x0 ../../src/gcc4mbed.o
 .text          0x00000000        0x0 ../../src/syscalls.o
 .data          0x00000000        0x0 ../../src/syscalls.o
 .bss           0x00000000        0x0 ../../src/syscalls.o
 .text._system  0x00000000       0x14 ../../src/syscalls.o
 .group         0x00000000        0xc ./main.o
 .group         0x00000000        0xc ./main.o
 .text          0x00000000        0x0 ./main.o
 .data          0x00000000        0x0 ./main.o
 .bss           0x00000000        0x0 ./main.o
 .text._ZN4mbed10DigitalOutD2Ev
                0x00000000       0x14 ./main.o
 .text._ZN4mbed6TickerD2Ev
                0x00000000       0x14 ./main.o
 .text._ZN4mbed6TickerD0Ev
                0x00000000       0x1c ./main.o
 .text._ZN4mbed10DigitalOutD0Ev
                0x00000000       0x1c ./main.o
 .group         0x00000000        0xc ../../mri/mri.ar(mri.o)
 .group         0x00000000        0x8 ../../mri/mri.ar(mri.o)
 .group         0x00000000        0x8 ../../mri/mri.ar(mri.o)
 .text          0x00000000        0x0 ../../mri/mri.ar(mri.o)
 .data          0x00000000        0x0 ../../mri/mri.ar(mri.o)
 .bss           0x00000000        0x0 ../../mri/mri.ar(mri.o)
 .text._ZN4mbed6SerialD2Ev
                0x00000000       0x18 ../../mri/mri.ar(mri.o)
 .text._ZN4mbed6SerialD0Ev
                0x00000000       0x12 ../../mri/mri.ar(mri.o)
 .data          0x00000000        0x0 ../../mri/mri.ar(mriasm.o)
 .bss           0x00000000        0x0 ../../mri/mri.ar(mriasm.o)
 _ZTVN4mbed10DigitalOutE
                0x00000000        0xc ../../external/mbed/LPC1768/mbed.ar(DigitalOut.LPC1768.o)
 __ARM__ZN4mbed10parse_pinsEPKc_anon0
                0x00000000        0x8 ../../external/mbed/LPC1768/mbed.ar(DigitalOut.LPC1768.o)
 __ARM__ZN4mbed12write_resultIiEEvT_Pc_anon0
                0x00000000        0x8 ../../external/mbed/LPC1768/mbed.ar(DigitalOut.LPC1768.o)
 _ZN4mbed10DigitalOutD1Ev
                0x00000000        0xc ../../external/mbed/LPC1768/mbed.ar(DigitalOut.LPC1768.o)
 _ZN4mbed17rpc_method_callerINS_10DigitalOutEiXadL_ZNS1_5writeEiEEEEvPNS_4BaseEPKcPc
                0x00000000        0xc ../../external/mbed/LPC1768/mbed.ar(DigitalOut.LPC1768.o)
 _ZN4mbed17rpc_method_callerIiNS_10DigitalOutEXadL_ZNS1_4readEvEEEEvPNS_4BaseEPKcPc
                0x00000000        0xc ../../external/mbed/LPC1768/mbed.ar(DigitalOut.LPC1768.o)
 _ZN4mbed9rpc_superINS_4BaseEEEPKNS_10rpc_methodEPS1_
                0x00000000        0xc ../../external/mbed/LPC1768/mbed.ar(DigitalOut.LPC1768.o)
 _ZN4mbed19rpc_function_callerIPKc7PinNameS2_XadL_ZNS_4Base9constructINS_10DigitalOutES3_S2_EES2_T0_T1_EEEEvS2_Pc
                0x00000000        0xc ../../external/mbed/LPC1768/mbed.ar(DigitalOut.LPC1768.o)
 _ZN4mbed10DigitalOut5writeEi
                0x00000000        0xc ../../external/mbed/LPC1768/mbed.ar(DigitalOut.LPC1768.o)
 _ZN4mbed10DigitalOut4readEv
                0x00000000        0xc ../../external/mbed/LPC1768/mbed.ar(DigitalOut.LPC1768.o)
 _ZN4mbed10DigitalOutD0Ev
                0x00000000        0xc ../../external/mbed/LPC1768/mbed.ar(DigitalOut.LPC1768.o)
 _ZN4mbed10parse_charEPKcPS1_
                0x00000000        0xc ../../external/mbed/LPC1768/mbed.ar(DigitalOut.LPC1768.o)
 _ZTIN4mbed10DigitalOutE
                0x00000000        0x8 ../../external/mbed/LPC1768/mbed.ar(DigitalOut.LPC1768.o)
 _ZTSN4mbed10DigitalOutE
                0x00000000        0x8 ../../external/mbed/LPC1768/mbed.ar(DigitalOut.LPC1768.o)
 i._ZN4mbed10DigitalOut13get_rpc_classEv
                0x00000000        0x8 ../../external/mbed/LPC1768/mbed.ar(DigitalOut.LPC1768.o)
 .ARM.exidx     0x00000000        0x8 ../../external/mbed/LPC1768/mbed.ar(DigitalOut.LPC1768.o)
 .constdata     0x00000000       0x10 ../../external/mbed/LPC1768/mbed.ar(DigitalOut.LPC1768.o)
 .conststring   0x00000000        0x4 ../../external/mbed/LPC1768/mbed.ar(DigitalOut.LPC1768.o)
 .data          0x00000000        0xc ../../external/mbed/LPC1768/mbed.ar(DigitalOut.LPC1768.o)
 .constdata___ARM__ZN4mbed10parse_pinsEPKc_anon0
                0x00000000       0x68 ../../external/mbed/LPC1768/mbed.ar(DigitalOut.LPC1768.o)
 t._ZN4mbed19rpc_function_callerIPKc7PinNameS2_XadL_ZNS_4Base9constructINS_10DigitalOutES3_S2_EES2_T0_T1_EEEEvS2_Pc
                0x00000000      0x2c0 ../../external/mbed/LPC1768/mbed.ar(DigitalOut.LPC1768.o)
 .ARM.exidx     0x00000000        0x8 ../../external/mbed/LPC1768/mbed.ar(DigitalOut.LPC1768.o)
 _ZTVN4mbed4BaseE
                0x00000000        0xc ../../external/mbed/LPC1768/mbed.ar(Base.LPC1768.o)
 _ZN4mbed17rpc_method_callerINS_4BaseEXadL_ZNS1_11delete_selfEvEEEEvPS1_PKcPc
                0x00000000        0xc ../../external/mbed/LPC1768/mbed.ar(Base.LPC1768.o)
 _ZTIN4mbed4BaseE
                0x00000000        0x8 ../../external/mbed/LPC1768/mbed.ar(Base.LPC1768.o)
 _ZTVN4mbed13BaseDirHandleE
                0x00000000        0xc ../../external/mbed/LPC1768/mbed.ar(Base.LPC1768.o)
 _ZTIN4mbed13BaseDirHandleE
                0x00000000        0x8 ../../external/mbed/LPC1768/mbed.ar(Base.LPC1768.o)
 _ZTSN4mbed4BaseE
                0x00000000        0x8 ../../external/mbed/LPC1768/mbed.ar(Base.LPC1768.o)
 _ZTIN4mbed9DirHandleE
                0x00000000        0x8 ../../external/mbed/LPC1768/mbed.ar(Base.LPC1768.o)
 _ZTSN4mbed13BaseDirHandleE
                0x00000000        0x8 ../../external/mbed/LPC1768/mbed.ar(Base.LPC1768.o)
 _ZTSN4mbed9DirHandleE
                0x00000000        0x8 ../../external/mbed/LPC1768/mbed.ar(Base.LPC1768.o)
 _ZN4mbed13BaseDirHandle8closedirEv
                0x00000000        0xc ../../external/mbed/LPC1768/mbed.ar(Base.LPC1768.o)
 _ZN4mbed13BaseDirHandle7readdirEv
                0x00000000        0xc ../../external/mbed/LPC1768/mbed.ar(Base.LPC1768.o)
 _ZN4mbed13BaseDirHandle7telldirEv
                0x00000000        0xc ../../external/mbed/LPC1768/mbed.ar(Base.LPC1768.o)
 _ZN4mbed13BaseDirHandle7seekdirEl
                0x00000000        0xc ../../external/mbed/LPC1768/mbed.ar(Base.LPC1768.o)
 _ZN4mbed13BaseDirHandle9rewinddirEv
                0x00000000        0xc ../../external/mbed/LPC1768/mbed.ar(Base.LPC1768.o)
 _ZTIN4mbed14FileSystemLikeE
                0x00000000        0x8 ../../external/mbed/LPC1768/mbed.ar(Base.LPC1768.o)
 _ZTSN4mbed14FileSystemLikeE
                0x00000000        0x8 ../../external/mbed/LPC1768/mbed.ar(Base.LPC1768.o)
 i._ZN4mbed4Base15register_objectEPKc
                0x00000000       0x1c ../../external/mbed/LPC1768/mbed.ar(Base.LPC1768.o)
 i._ZN4mbed4Base3rpcEPKcS2_S2_Pc
                0x00000000      0x150 ../../external/mbed/LPC1768/mbed.ar(Base.LPC1768.o)
 i._ZN4mbed4Base4nameEv
                0x00000000        0x4 ../../external/mbed/LPC1768/mbed.ar(Base.LPC1768.o)
 i._ZN4mbed4Base7opendirEv
                0x00000000       0x18 ../../external/mbed/LPC1768/mbed.ar(Base.LPC1768.o)
 i._ZN4mbed4Base8new_nameEPS0_
                0x00000000       0x20 ../../external/mbed/LPC1768/mbed.ar(Base.LPC1768.o)
 .ARM.exidx     0x00000000        0x8 ../../external/mbed/LPC1768/mbed.ar(Base.LPC1768.o)
 .ARM.exidx     0x00000000        0x8 ../../external/mbed/LPC1768/mbed.ar(Base.LPC1768.o)
 .ARM.exidx     0x00000000        0x8 ../../external/mbed/LPC1768/mbed.ar(Base.LPC1768.o)
 .ARM.exidx     0x00000000        0x8 ../../external/mbed/LPC1768/mbed.ar(Base.LPC1768.o)
 .ARM.exidx     0x00000000        0x8 ../../external/mbed/LPC1768/mbed.ar(Base.LPC1768.o)
 .arm_vfe_vcallinfoi._ZN4mbed4Base11delete_selfEv
                0x00000000       0x24 ../../external/mbed/LPC1768/mbed.ar(Base.LPC1768.o)
 .arm_vfe_vcallinfoi._ZN4mbed4Base3rpcEPKcS2_Pc
                0x00000000       0x24 ../../external/mbed/LPC1768/mbed.ar(Base.LPC1768.o)
 .arm_vfe_vcallinfoi._ZN4mbed4Base3rpcEPKcS2_S2_Pc
                0x00000000       0x24 ../../external/mbed/LPC1768/mbed.ar(Base.LPC1768.o)
 .arm_vfe_vcallinfoi._ZN4mbed4Base5clearEPKcPc
                0x00000000       0x24 ../../external/mbed/LPC1768/mbed.ar(Base.LPC1768.o)
 .arm_vfe_vtableinfo_ZTVN4mbed13BaseDirHandleE
                0x00000000       0x38 ../../external/mbed/LPC1768/mbed.ar(Base.LPC1768.o)
 .constdata__ZTVN4mbed13BaseDirHandleE
                0x00000000       0x1c ../../external/mbed/LPC1768/mbed.ar(Base.LPC1768.o)
 .constdata__ZTIN4mbed13BaseDirHandleE
                0x00000000        0xc ../../external/mbed/LPC1768/mbed.ar(Base.LPC1768.o)
 .constdata__ZTIN4mbed9DirHandleE
                0x00000000        0x8 ../../external/mbed/LPC1768/mbed.ar(Base.LPC1768.o)
 .constdata__ZTSN4mbed13BaseDirHandleE
                0x00000000       0x17 ../../external/mbed/LPC1768/mbed.ar(Base.LPC1768.o)
 .constdata__ZTSN4mbed9DirHandleE
                0x00000000       0x12 ../../external/mbed/LPC1768/mbed.ar(Base.LPC1768.o)
 i._ZN4mbed13BaseDirHandle8closedirEv
                0x00000000        0xa ../../external/mbed/LPC1768/mbed.ar(Base.LPC1768.o)
 .ARM.exidx     0x00000000        0x8 ../../external/mbed/LPC1768/mbed.ar(Base.LPC1768.o)
 i._ZN4mbed13BaseDirHandle7readdirEv
                0x00000000       0x64 ../../external/mbed/LPC1768/mbed.ar(Base.LPC1768.o)
 .ARM.exidx     0x00000000        0x8 ../../external/mbed/LPC1768/mbed.ar(Base.LPC1768.o)
 i._ZN4mbed13BaseDirHandle7telldirEv
                0x00000000        0x4 ../../external/mbed/LPC1768/mbed.ar(Base.LPC1768.o)
 .ARM.exidx     0x00000000        0x8 ../../external/mbed/LPC1768/mbed.ar(Base.LPC1768.o)
 i._ZN4mbed13BaseDirHandle7seekdirEl
                0x00000000        0x4 ../../external/mbed/LPC1768/mbed.ar(Base.LPC1768.o)
 .ARM.exidx     0x00000000        0x8 ../../external/mbed/LPC1768/mbed.ar(Base.LPC1768.o)
 i._ZN4mbed13BaseDirHandle9rewinddirEv
                0x00000000        0x6 ../../external/mbed/LPC1768/mbed.ar(Base.LPC1768.o)
 .ARM.exidx     0x00000000        0x8 ../../external/mbed/LPC1768/mbed.ar(Base.LPC1768.o)
 _ZTVN4mbed6TickerE
                0x00000000        0xc ../../external/mbed/LPC1768/mbed.ar(Ticker.LPC1768.o)
 _ZN4mbed6TickerD1Ev
                0x00000000        0xc ../../external/mbed/LPC1768/mbed.ar(Ticker.LPC1768.o)
 _ZN4mbed6TickerD0Ev
                0x00000000        0xc ../../external/mbed/LPC1768/mbed.ar(Ticker.LPC1768.o)
 _ZTIN4mbed6TickerE
                0x00000000        0x8 ../../external/mbed/LPC1768/mbed.ar(Ticker.LPC1768.o)
 _ZTSN4mbed6TickerE
                0x00000000        0x8 ../../external/mbed/LPC1768/mbed.ar(Ticker.LPC1768.o)
 i._ZN4mbed6Ticker6detachEv
                0x00000000       0x16 ../../external/mbed/LPC1768/mbed.ar(Ticker.LPC1768.o)
 .ARM.exidx     0x00000000        0x8 ../../external/mbed/LPC1768/mbed.ar(Ticker.LPC1768.o)
 _ZTVN4mbed8FileLikeE
                0x00000000        0xc ../../external/mbed/LPC1768/mbed.ar(stdio.LPC1768.o)
 _ZN4mbed10FileHandle4flenEv
                0x00000000       0x10 ../../external/mbed/LPC1768/mbed.ar(stdio.LPC1768.o)
 _ZTIN4mbed8FileLikeE
                0x00000000        0x8 ../../external/mbed/LPC1768/mbed.ar(stdio.LPC1768.o)
 _ZTIN4mbed14FileSystemLikeE
                0x00000000        0x8 ../../external/mbed/LPC1768/mbed.ar(stdio.LPC1768.o)
 _ZTIN4mbed10FileHandleE
                0x00000000        0x8 ../../external/mbed/LPC1768/mbed.ar(stdio.LPC1768.o)
 _ZTSN4mbed8FileLikeE
                0x00000000        0x8 ../../external/mbed/LPC1768/mbed.ar(stdio.LPC1768.o)
 _ZTSN4mbed14FileSystemLikeE
                0x00000000        0x8 ../../external/mbed/LPC1768/mbed.ar(stdio.LPC1768.o)
 _ZTSN4mbed10FileHandleE
                0x00000000        0x8 ../../external/mbed/LPC1768/mbed.ar(stdio.LPC1768.o)
 i._sys_command_string
                0x00000000        0x4 ../../external/mbed/LPC1768/mbed.ar(stdio.LPC1768.o)
 i._sys_ensure  0x00000000       0x28 ../../external/mbed/LPC1768/mbed.ar(stdio.LPC1768.o)
 i._sys_flen    0x00000000       0x28 ../../external/mbed/LPC1768/mbed.ar(stdio.LPC1768.o)
 i.closedir     0x00000000        0x6 ../../external/mbed/LPC1768/mbed.ar(stdio.LPC1768.o)
 i.mkdir        0x00000000       0x54 ../../external/mbed/LPC1768/mbed.ar(stdio.LPC1768.o)
 i.opendir      0x00000000       0x54 ../../external/mbed/LPC1768/mbed.ar(stdio.LPC1768.o)
 i.readdir      0x00000000        0x6 ../../external/mbed/LPC1768/mbed.ar(stdio.LPC1768.o)
 i.remove       0x00000000       0x50 ../../external/mbed/LPC1768/mbed.ar(stdio.LPC1768.o)
 i.rename       0x00000000        0x6 ../../external/mbed/LPC1768/mbed.ar(stdio.LPC1768.o)
 i.rewinddir    0x00000000        0x6 ../../external/mbed/LPC1768/mbed.ar(stdio.LPC1768.o)
 i.seekdir      0x00000000        0x6 ../../external/mbed/LPC1768/mbed.ar(stdio.LPC1768.o)
 i.telldir      0x00000000        0x6 ../../external/mbed/LPC1768/mbed.ar(stdio.LPC1768.o)
 i.tmpfile      0x00000000        0x4 ../../external/mbed/LPC1768/mbed.ar(stdio.LPC1768.o)
 i.tmpnam       0x00000000        0x4 ../../external/mbed/LPC1768/mbed.ar(stdio.LPC1768.o)
 .ARM.exidx     0x00000000        0x8 ../../external/mbed/LPC1768/mbed.ar(stdio.LPC1768.o)
 .ARM.exidx     0x00000000        0x8 ../../external/mbed/LPC1768/mbed.ar(stdio.LPC1768.o)
 .ARM.exidx     0x00000000        0x8 ../../external/mbed/LPC1768/mbed.ar(stdio.LPC1768.o)
 .ARM.exidx     0x00000000        0x8 ../../external/mbed/LPC1768/mbed.ar(stdio.LPC1768.o)
 .ARM.exidx     0x00000000        0x8 ../../external/mbed/LPC1768/mbed.ar(stdio.LPC1768.o)
 .ARM.exidx     0x00000000        0x8 ../../external/mbed/LPC1768/mbed.ar(stdio.LPC1768.o)
 .ARM.exidx     0x00000000        0x8 ../../external/mbed/LPC1768/mbed.ar(stdio.LPC1768.o)
 .ARM.exidx     0x00000000        0x8 ../../external/mbed/LPC1768/mbed.ar(stdio.LPC1768.o)
 .ARM.exidx     0x00000000        0x8 ../../external/mbed/LPC1768/mbed.ar(stdio.LPC1768.o)
 .ARM.exidx     0x00000000        0x8 ../../external/mbed/LPC1768/mbed.ar(stdio.LPC1768.o)
 .ARM.exidx     0x00000000        0x8 ../../external/mbed/LPC1768/mbed.ar(stdio.LPC1768.o)
 .ARM.exidx     0x00000000        0x8 ../../external/mbed/LPC1768/mbed.ar(stdio.LPC1768.o)
 .ARM.exidx     0x00000000        0x8 ../../external/mbed/LPC1768/mbed.ar(stdio.LPC1768.o)
 .ARM.exidx     0x00000000        0x8 ../../external/mbed/LPC1768/mbed.ar(stdio.LPC1768.o)
 .arm_vfe_vcallinfoi._sys_close
                0x00000000       0x24 ../../external/mbed/LPC1768/mbed.ar(stdio.LPC1768.o)
 .arm_vfe_vcallinfoi._sys_ensure
                0x00000000       0x24 ../../external/mbed/LPC1768/mbed.ar(stdio.LPC1768.o)
 .arm_vfe_vcallinfoi._sys_flen
                0x00000000       0x24 ../../external/mbed/LPC1768/mbed.ar(stdio.LPC1768.o)
 .arm_vfe_vcallinfoi._sys_istty
                0x00000000       0x24 ../../external/mbed/LPC1768/mbed.ar(stdio.LPC1768.o)
 .arm_vfe_vcallinfoi._sys_open
                0x00000000       0x38 ../../external/mbed/LPC1768/mbed.ar(stdio.LPC1768.o)
 .arm_vfe_vcallinfoi._sys_read
                0x00000000       0x24 ../../external/mbed/LPC1768/mbed.ar(stdio.LPC1768.o)
 .arm_vfe_vcallinfoi._sys_seek
                0x00000000       0x24 ../../external/mbed/LPC1768/mbed.ar(stdio.LPC1768.o)
 .arm_vfe_vcallinfoi._sys_write
                0x00000000       0x24 ../../external/mbed/LPC1768/mbed.ar(stdio.LPC1768.o)
 .arm_vfe_vcallinfoi.closedir
                0x00000000       0x24 ../../external/mbed/LPC1768/mbed.ar(stdio.LPC1768.o)
 .arm_vfe_vcallinfoi.mkdir
                0x00000000       0x38 ../../external/mbed/LPC1768/mbed.ar(stdio.LPC1768.o)
 .arm_vfe_vcallinfoi.opendir
                0x00000000       0x38 ../../external/mbed/LPC1768/mbed.ar(stdio.LPC1768.o)
 .arm_vfe_vcallinfoi.readdir
                0x00000000       0x24 ../../external/mbed/LPC1768/mbed.ar(stdio.LPC1768.o)
 .arm_vfe_vcallinfoi.remove
                0x00000000       0x38 ../../external/mbed/LPC1768/mbed.ar(stdio.LPC1768.o)
 .arm_vfe_vcallinfoi.rewinddir
                0x00000000       0x24 ../../external/mbed/LPC1768/mbed.ar(stdio.LPC1768.o)
 .arm_vfe_vcallinfoi.seekdir
                0x00000000       0x24 ../../external/mbed/LPC1768/mbed.ar(stdio.LPC1768.o)
 .arm_vfe_vcallinfoi.telldir
                0x00000000       0x24 ../../external/mbed/LPC1768/mbed.ar(stdio.LPC1768.o)
 .constdata__ZTIN4mbed14FileSystemLikeE
                0x00000000        0xc ../../external/mbed/LPC1768/mbed.ar(stdio.LPC1768.o)
 .constdata__ZTSN4mbed14FileSystemLikeE
                0x00000000       0x18 ../../external/mbed/LPC1768/mbed.ar(stdio.LPC1768.o)
 _ZTVN4mbed6SerialE
                0x00000000        0xc ../../external/mbed/LPC1768/mbed.ar(Serial.LPC1768.o)
 __ARM__ZN4mbed10parse_pinsEPKc_anon0
                0x00000000        0x8 ../../external/mbed/LPC1768/mbed.ar(Serial.LPC1768.o)
 __ARM__ZN4mbed12write_resultIiEEvT_Pc_anon0
                0x00000000        0x8 ../../external/mbed/LPC1768/mbed.ar(Serial.LPC1768.o)
 _ZN4mbed6SerialD1Ev
                0x00000000        0xc ../../external/mbed/LPC1768/mbed.ar(Serial.LPC1768.o)
 _ZN4mbed17rpc_method_callerINS_6SerialEiXadL_ZNS1_4baudEiEEEEvPNS_4BaseEPKcPc
                0x00000000        0xc ../../external/mbed/LPC1768/mbed.ar(Serial.LPC1768.o)
 _ZN4mbed17rpc_method_callerIiNS_6SerialEXadL_ZNS1_8readableEvEEEEvPNS_4BaseEPKcPc
                0x00000000        0xc ../../external/mbed/LPC1768/mbed.ar(Serial.LPC1768.o)
 _ZN4mbed17rpc_method_callerIiNS_6SerialEXadL_ZNS1_9writeableEvEEEEvPNS_4BaseEPKcPc
                0x00000000        0xc ../../external/mbed/LPC1768/mbed.ar(Serial.LPC1768.o)
 _ZN4mbed9rpc_superINS_6StreamEEEPKNS_10rpc_methodEPNS_4BaseE
                0x00000000        0xc ../../external/mbed/LPC1768/mbed.ar(Serial.LPC1768.o)
 _ZN4mbed19rpc_function_callerIPKc7PinNameS3_S2_XadL_ZNS_4Base9constructINS_6SerialES3_S3_S2_EES2_T0_T1_T2_EEEEvS2_Pc
                0x00000000        0xc ../../external/mbed/LPC1768/mbed.ar(Serial.LPC1768.o)
 _ZN4mbed6SerialD0Ev
                0x00000000        0xc ../../external/mbed/LPC1768/mbed.ar(Serial.LPC1768.o)
 _ZN4mbed10parse_charEPKcPS1_
                0x00000000        0xc ../../external/mbed/LPC1768/mbed.ar(Serial.LPC1768.o)
 _ZN4mbed9parse_argI7PinNameEET_PKcPS4_
                0x00000000        0xc ../../external/mbed/LPC1768/mbed.ar(Serial.LPC1768.o)
 _ZTIN4mbed6SerialE
                0x00000000        0x8 ../../external/mbed/LPC1768/mbed.ar(Serial.LPC1768.o)
 _ZTSN4mbed6SerialE
                0x00000000        0x8 ../../external/mbed/LPC1768/mbed.ar(Serial.LPC1768.o)
 i._ZN4mbed6Serial13get_rpc_classEv
                0x00000000        0x8 ../../external/mbed/LPC1768/mbed.ar(Serial.LPC1768.o)
 i._ZN4mbed6Serial15setup_interruptENS0_7IrqTypeE
                0x00000000       0x9c ../../external/mbed/LPC1768/mbed.ar(Serial.LPC1768.o)
 i._ZN4mbed6Serial16remove_interruptENS0_7IrqTypeE
                0x00000000       0x74 ../../external/mbed/LPC1768/mbed.ar(Serial.LPC1768.o)
 i._ZN4mbed6Serial6attachEPFvvENS0_7IrqTypeE
                0x00000000       0x30 ../../external/mbed/LPC1768/mbed.ar(Serial.LPC1768.o)
 i._ZN4mbed6Serial6formatEiNS0_6ParityEi
                0x00000000        0x6 ../../external/mbed/LPC1768/mbed.ar(Serial.LPC1768.o)
 i._ZN4mbed9uart0_irqEv
                0x00000000       0x28 ../../external/mbed/LPC1768/mbed.ar(Serial.LPC1768.o)
 i._ZN4mbed9uart1_irqEv
                0x00000000       0x28 ../../external/mbed/LPC1768/mbed.ar(Serial.LPC1768.o)
 i._ZN4mbed9uart2_irqEv
                0x00000000       0x28 ../../external/mbed/LPC1768/mbed.ar(Serial.LPC1768.o)
 i._ZN4mbed9uart3_irqEv
                0x00000000       0x28 ../../external/mbed/LPC1768/mbed.ar(Serial.LPC1768.o)
 .ARM.exidx     0x00000000        0x8 ../../external/mbed/LPC1768/mbed.ar(Serial.LPC1768.o)
 .ARM.exidx     0x00000000        0x8 ../../external/mbed/LPC1768/mbed.ar(Serial.LPC1768.o)
 .ARM.exidx     0x00000000        0x8 ../../external/mbed/LPC1768/mbed.ar(Serial.LPC1768.o)
 .ARM.exidx     0x00000000        0x8 ../../external/mbed/LPC1768/mbed.ar(Serial.LPC1768.o)
 .ARM.exidx     0x00000000        0x8 ../../external/mbed/LPC1768/mbed.ar(Serial.LPC1768.o)
 .ARM.exidx     0x00000000        0x8 ../../external/mbed/LPC1768/mbed.ar(Serial.LPC1768.o)
 .ARM.exidx     0x00000000        0x8 ../../external/mbed/LPC1768/mbed.ar(Serial.LPC1768.o)
 .ARM.exidx     0x00000000        0x8 ../../external/mbed/LPC1768/mbed.ar(Serial.LPC1768.o)
 .ARM.exidx     0x00000000        0x8 ../../external/mbed/LPC1768/mbed.ar(Serial.LPC1768.o)
 .bss           0x00000000       0x20 ../../external/mbed/LPC1768/mbed.ar(Serial.LPC1768.o)
 .constdata     0x00000000       0x10 ../../external/mbed/LPC1768/mbed.ar(Serial.LPC1768.o)
 .conststring   0x00000000        0x4 ../../external/mbed/LPC1768/mbed.ar(Serial.LPC1768.o)
 .data          0x00000000        0xc ../../external/mbed/LPC1768/mbed.ar(Serial.LPC1768.o)
 .constdata___ARM__ZN4mbed10parse_pinsEPKc_anon0
                0x00000000       0x68 ../../external/mbed/LPC1768/mbed.ar(Serial.LPC1768.o)
 .constdata___ARM__ZN4mbed12write_resultIiEEvT_Pc_anon0
                0x00000000        0x3 ../../external/mbed/LPC1768/mbed.ar(Serial.LPC1768.o)
 t._ZN4mbed19rpc_function_callerIPKc7PinNameS3_S2_XadL_ZNS_4Base9constructINS_6SerialES3_S3_S2_EES2_T0_T1_T2_EEEEvS2_Pc
                0x00000000      0x1f4 ../../external/mbed/LPC1768/mbed.ar(Serial.LPC1768.o)
 .ARM.exidx     0x00000000        0x8 ../../external/mbed/LPC1768/mbed.ar(Serial.LPC1768.o)
 i._ZN4mbed10parse_charEPKcPS1_
                0x00000000       0xa2 ../../external/mbed/LPC1768/mbed.ar(Serial.LPC1768.o)
 .ARM.exidx     0x00000000        0x8 ../../external/mbed/LPC1768/mbed.ar(Serial.LPC1768.o)
 i._ZN4mbed9parse_argI7PinNameEET_PKcPS4_
                0x00000000       0xf0 ../../external/mbed/LPC1768/mbed.ar(Serial.LPC1768.o)
 .ARM.exidx     0x00000000        0x8 ../../external/mbed/LPC1768/mbed.ar(Serial.LPC1768.o)
 _ZTVN4mbed10TimerEventE
                0x00000000        0xc ../../external/mbed/LPC1768/mbed.ar(TimerEvent.LPC1768.o)
 _ZTIN4mbed10TimerEventE
                0x00000000        0x8 ../../external/mbed/LPC1768/mbed.ar(TimerEvent.LPC1768.o)
 _ZTSN4mbed10TimerEventE
                0x00000000        0x8 ../../external/mbed/LPC1768/mbed.ar(TimerEvent.LPC1768.o)
 .arm_vfe_vcallinfoi._ZN4mbed10TimerEvent3irqEv
                0x00000000       0x24 ../../external/mbed/LPC1768/mbed.ar(TimerEvent.LPC1768.o)
 _ZTVN4mbed6StreamE
                0x00000000        0xc ../../external/mbed/LPC1768/mbed.ar(Stream.LPC1768.o)
 __ARM__ZN4mbed12write_resultIiEEvT_Pc_anon0
                0x00000000        0x8 ../../external/mbed/LPC1768/mbed.ar(Stream.LPC1768.o)
 _ZN4mbed17rpc_method_callerIiNS_6StreamEiXadL_ZNS1_4putcEiEEEEvPNS_4BaseEPKcPc
                0x00000000        0xc ../../external/mbed/LPC1768/mbed.ar(Stream.LPC1768.o)
 _ZN4mbed17rpc_method_callerIiNS_6StreamEXadL_ZNS1_4getcEvEEEEvPNS_4BaseEPKcPc
                0x00000000        0xc ../../external/mbed/LPC1768/mbed.ar(Stream.LPC1768.o)
 _ZN4mbed17rpc_method_callerIiNS_6StreamEPKcXadL_ZNS1_4putsES3_EEEEvPNS_4BaseES3_Pc
                0x00000000        0xc ../../external/mbed/LPC1768/mbed.ar(Stream.LPC1768.o)
 _ZN4mbed9rpc_superINS_4BaseEEEPKNS_10rpc_methodEPS1_
                0x00000000        0xc ../../external/mbed/LPC1768/mbed.ar(Stream.LPC1768.o)
 _ZN4mbed6Stream4putcEi
                0x00000000        0xc ../../external/mbed/LPC1768/mbed.ar(Stream.LPC1768.o)
 _ZN4mbed6Stream4putsEPKc
                0x00000000        0xc ../../external/mbed/LPC1768/mbed.ar(Stream.LPC1768.o)
 _ZN4mbed6Stream4getcEv
                0x00000000        0xc ../../external/mbed/LPC1768/mbed.ar(Stream.LPC1768.o)
 _ZN4mbed10parse_charEPKcPS1_
                0x00000000        0xc ../../external/mbed/LPC1768/mbed.ar(Stream.LPC1768.o)
 _ZTIN4mbed6StreamE
                0x00000000        0x8 ../../external/mbed/LPC1768/mbed.ar(Stream.LPC1768.o)
 _ZTSN4mbed6StreamE
                0x00000000        0x8 ../../external/mbed/LPC1768/mbed.ar(Stream.LPC1768.o)
 i._ZN4mbed6Stream5scanfEPKcz
                0x00000000       0x1e ../../external/mbed/LPC1768/mbed.ar(Stream.LPC1768.o)
 i._ZN4mbed6Stream6printfEPKcz
                0x00000000       0x1e ../../external/mbed/LPC1768/mbed.ar(Stream.LPC1768.o)
 .ARM.exidx     0x00000000        0x8 ../../external/mbed/LPC1768/mbed.ar(Stream.LPC1768.o)
 .ARM.exidx     0x00000000        0x8 ../../external/mbed/LPC1768/mbed.ar(Stream.LPC1768.o)
 .arm_vfe_vcallinfoi._ZN4mbed6Stream4readEPvj
                0x00000000       0x24 ../../external/mbed/LPC1768/mbed.ar(Stream.LPC1768.o)
 .arm_vfe_vcallinfoi._ZN4mbed6Stream5writeEPKvj
                0x00000000       0x24 ../../external/mbed/LPC1768/mbed.ar(Stream.LPC1768.o)
 .arm_vfe_vcallinfoi._ZThn16_N4mbed6Stream4readEPvj
                0x00000000       0x24 ../../external/mbed/LPC1768/mbed.ar(Stream.LPC1768.o)
 .arm_vfe_vcallinfoi._ZThn16_N4mbed6Stream5writeEPKvj
                0x00000000       0x24 ../../external/mbed/LPC1768/mbed.ar(Stream.LPC1768.o)
 .constdata___ARM__ZN4mbed12write_resultIiEEvT_Pc_anon0
                0x00000000        0x3 ../../external/mbed/LPC1768/mbed.ar(Stream.LPC1768.o)
 t._ZN4mbed9rpc_superINS_4BaseEEEPKNS_10rpc_methodEPS1_
                0x00000000        0x4 ../../external/mbed/LPC1768/mbed.ar(Stream.LPC1768.o)
 .ARM.exidx     0x00000000        0x8 ../../external/mbed/LPC1768/mbed.ar(Stream.LPC1768.o)
 i._ZN4mbed6Stream4putcEi
                0x00000000       0x18 ../../external/mbed/LPC1768/mbed.ar(Stream.LPC1768.o)
 .ARM.exidx     0x00000000        0x8 ../../external/mbed/LPC1768/mbed.ar(Stream.LPC1768.o)
 i._ZN4mbed6Stream4getcEv
                0x00000000       0x14 ../../external/mbed/LPC1768/mbed.ar(Stream.LPC1768.o)
 .ARM.exidx     0x00000000        0x8 ../../external/mbed/LPC1768/mbed.ar(Stream.LPC1768.o)
 i._ZN4mbed10parse_charEPKcPS1_
                0x00000000       0xa2 ../../external/mbed/LPC1768/mbed.ar(Stream.LPC1768.o)
 .ARM.exidx     0x00000000        0x8 ../../external/mbed/LPC1768/mbed.ar(Stream.LPC1768.o)
 i.NVIC_GetVector
                0x00000000       0x10 ../../external/mbed/LPC1768/capi.ar(cmsis_nvic.LPC1768.o)
 .ARM.__at_0x02FC
                0x00000000        0x4 ../../external/mbed/LPC1768/capi.ar(startup_LPC17xx.LPC1768.o)
 i.SystemCoreClockUpdate
                0x00000000      0x100 ../../external/mbed/LPC1768/capi.ar(system_LPC17xx.LPC1768.o)
 i.serial_clear
                0x00000000        0x6 ../../external/mbed/LPC1768/capi.ar(serial_api.LPC1768.o)
 i.serial_free  0x00000000        0x2 ../../external/mbed/LPC1768/capi.ar(serial_api.LPC1768.o)
 i.serial_interrupt
                0x00000000        0x2 ../../external/mbed/LPC1768/capi.ar(serial_api.LPC1768.o)
 i.wait_us      0x00000000       0x16 ../../external/mbed/LPC1768/capi.ar(wait_api.LPC1768.o)
 i.gpio_input   0x00000000       0x30 ../../external/mbed/LPC1768/capi.ar(gpio_api.LPC1768.o)
 i.gpio_mode    0x00000000        0x4 ../../external/mbed/LPC1768/capi.ar(gpio_api.LPC1768.o)
 i.gpio_read    0x00000000       0x18 ../../external/mbed/LPC1768/capi.ar(gpio_api.LPC1768.o)
 i.semihost_close
                0x00000000        0xc ../../external/mbed/LPC1768/capi.ar(semihost_api.LPC1768.o)
 i.semihost_ensure
                0x00000000        0xc ../../external/mbed/LPC1768/capi.ar(semihost_api.LPC1768.o)
 i.semihost_flen
                0x00000000        0xc ../../external/mbed/LPC1768/capi.ar(semihost_api.LPC1768.o)
 i.semihost_istty
                0x00000000        0xc ../../external/mbed/LPC1768/capi.ar(semihost_api.LPC1768.o)
 i.semihost_open
                0x00000000       0x18 ../../external/mbed/LPC1768/capi.ar(semihost_api.LPC1768.o)
 i.semihost_read
                0x00000000       0x12 ../../external/mbed/LPC1768/capi.ar(semihost_api.LPC1768.o)
 i.semihost_remove
                0x00000000       0x16 ../../external/mbed/LPC1768/capi.ar(semihost_api.LPC1768.o)
 i.semihost_rename
                0x00000000       0x22 ../../external/mbed/LPC1768/capi.ar(semihost_api.LPC1768.o)
 i.semihost_reset
                0x00000000        0xa ../../external/mbed/LPC1768/capi.ar(semihost_api.LPC1768.o)
 i.semihost_seek
                0x00000000       0x10 ../../external/mbed/LPC1768/capi.ar(semihost_api.LPC1768.o)
 i.semihost_write
                0x00000000       0x12 ../../external/mbed/LPC1768/capi.ar(semihost_api.LPC1768.o)
 i.FunctionalityNotSupported
                0x00000000       0x34 ../../external/mbed/LPC1768/capi.ar(utils_api.LPC1768.o)
 i.mbed_mac_address
                0x00000000       0x48 ../../external/mbed/LPC1768/capi.ar(utils_api.LPC1768.o)
 i.mbed_reset   0x00000000       0x34 ../../external/mbed/LPC1768/capi.ar(utils_api.LPC1768.o)
 i.mbed_uid     0x00000000        0x4 ../../external/mbed/LPC1768/capi.ar(utils_api.LPC1768.o)
 i.timer_free   0x00000000        0x2 ../../external/mbed/LPC1768/capi.ar(timer_api.LPC1768.o)
 i.timer_stop   0x00000000        0xa ../../external/mbed/LPC1768/capi.ar(timer_api.LPC1768.o)
 i.timer_write  0x00000000       0x12 ../../external/mbed/LPC1768/capi.ar(timer_api.LPC1768.o)
 .text          0x00000000        0x0 ../../external/gcc/LPC1768/libstdc++.a(atexit_arm.o)
 .data          0x00000000        0x0 ../../external/gcc/LPC1768/libstdc++.a(atexit_arm.o)
 .bss           0x00000000        0x0 ../../external/gcc/LPC1768/libstdc++.a(atexit_arm.o)
 .group         0x00000000        0x8 ../../external/gcc/LPC1768/libstdc++.a(class_type_info.o)
 .text          0x00000000        0x0 ../../external/gcc/LPC1768/libstdc++.a(class_type_info.o)
 .data          0x00000000        0x0 ../../external/gcc/LPC1768/libstdc++.a(class_type_info.o)
 .bss           0x00000000        0x0 ../../external/gcc/LPC1768/libstdc++.a(class_type_info.o)
 .text          0x00000000        0x0 ../../external/gcc/LPC1768/libstdc++.a(del_op.o)
 .data          0x00000000        0x0 ../../external/gcc/LPC1768/libstdc++.a(del_op.o)
 .bss           0x00000000        0x0 ../../external/gcc/LPC1768/libstdc++.a(del_op.o)
 .text          0x00000000        0x0 ../../external/gcc/LPC1768/libstdc++.a(del_opv.o)
 .data          0x00000000        0x0 ../../external/gcc/LPC1768/libstdc++.a(del_opv.o)
 .bss           0x00000000        0x0 ../../external/gcc/LPC1768/libstdc++.a(del_opv.o)
 .group         0x00000000        0x8 ../../external/gcc/LPC1768/libstdc++.a(dyncast.o)
 .group         0x00000000        0x8 ../../external/gcc/LPC1768/libstdc++.a(dyncast.o)
 .text          0x00000000        0x0 ../../external/gcc/LPC1768/libstdc++.a(dyncast.o)
 .data          0x00000000        0x0 ../../external/gcc/LPC1768/libstdc++.a(dyncast.o)
 .bss           0x00000000        0x0 ../../external/gcc/LPC1768/libstdc++.a(dyncast.o)
 .text          0x00000000        0x0 ../../external/gcc/LPC1768/libstdc++.a(new_op.o)
 .data          0x00000000        0x0 ../../external/gcc/LPC1768/libstdc++.a(new_op.o)
 .bss           0x00000000        0x0 ../../external/gcc/LPC1768/libstdc++.a(new_op.o)
 .text          0x00000000        0x0 ../../external/gcc/LPC1768/libstdc++.a(new_opv.o)
 .data          0x00000000        0x0 ../../external/gcc/LPC1768/libstdc++.a(new_opv.o)
 .bss           0x00000000        0x0 ../../external/gcc/LPC1768/libstdc++.a(new_opv.o)
 .text          0x00000000        0x0 ../../external/gcc/LPC1768/libstdc++.a(pure.o)
 .data          0x00000000        0x0 ../../external/gcc/LPC1768/libstdc++.a(pure.o)
 .bss           0x00000000        0x0 ../../external/gcc/LPC1768/libstdc++.a(pure.o)
 .text          0x00000000        0x0 ../../external/gcc/LPC1768/libstdc++.a(si_class_type_info.o)
 .data          0x00000000        0x0 ../../external/gcc/LPC1768/libstdc++.a(si_class_type_info.o)
 .bss           0x00000000        0x0 ../../external/gcc/LPC1768/libstdc++.a(si_class_type_info.o)
 .group         0x00000000        0x8 ../../external/gcc/LPC1768/libstdc++.a(tinfo.o)
 .text          0x00000000        0x0 ../../external/gcc/LPC1768/libstdc++.a(tinfo.o)
 .data          0x00000000        0x0 ../../external/gcc/LPC1768/libstdc++.a(tinfo.o)
 .bss           0x00000000        0x0 ../../external/gcc/LPC1768/libstdc++.a(tinfo.o)
 .text          0x00000000        0x0 ../../external/gcc/LPC1768/libstdc++.a(vec.o)
 .data          0x00000000        0x0 ../../external/gcc/LPC1768/libstdc++.a(vec.o)
 .bss           0x00000000        0x0 ../../external/gcc/LPC1768/libstdc++.a(vec.o)
 .text.__cxa_vec_new3
                0x00000000       0x40 ../../external/gcc/LPC1768/libstdc++.a(vec.o)
 .text.__cxa_vec_new2
                0x00000000       0x40 ../../external/gcc/LPC1768/libstdc++.a(vec.o)
 .text.__cxa_vec_new
                0x00000000       0x20 ../../external/gcc/LPC1768/libstdc++.a(vec.o)
 .text.__cxa_vec_cctor
                0x00000000       0x38 ../../external/gcc/LPC1768/libstdc++.a(vec.o)
 .text.__cxa_vec_dtor
                0x00000000       0x1c ../../external/gcc/LPC1768/libstdc++.a(vec.o)
 .text.__cxa_vec_cleanup
                0x00000000       0x1c ../../external/gcc/LPC1768/libstdc++.a(vec.o)
 .text.__cxa_vec_delete2
                0x00000000       0x1e ../../external/gcc/LPC1768/libstdc++.a(vec.o)
 .text.__cxa_vec_delete
                0x00000000       0x10 ../../external/gcc/LPC1768/libstdc++.a(vec.o)
 .text.__cxa_vec_delete3
                0x00000000       0x28 ../../external/gcc/LPC1768/libstdc++.a(vec.o)
 .text.__aeabi_vec_ctor_cookie_nodtor
                0x00000000       0x1e ../../external/gcc/LPC1768/libstdc++.a(vec.o)
 .text.__aeabi_vec_cctor_nocookie_nodtor
                0x00000000       0x16 ../../external/gcc/LPC1768/libstdc++.a(vec.o)
 .text.__aeabi_vec_new_cookie_noctor
                0x00000000       0x14 ../../external/gcc/LPC1768/libstdc++.a(vec.o)
 .text.__aeabi_vec_new_nocookie
                0x00000000       0x14 ../../external/gcc/LPC1768/libstdc++.a(vec.o)
 .text.__aeabi_vec_new_cookie_nodtor
                0x00000000       0x16 ../../external/gcc/LPC1768/libstdc++.a(vec.o)
 .text.__aeabi_vec_new_cookie
                0x00000000       0x16 ../../external/gcc/LPC1768/libstdc++.a(vec.o)
 .text.__aeabi_vec_dtor
                0x00000000       0x14 ../../external/gcc/LPC1768/libstdc++.a(vec.o)
 .text.__aeabi_vec_dtor_cookie
                0x00000000       0x1c ../../external/gcc/LPC1768/libstdc++.a(vec.o)
 .text.__aeabi_vec_delete
                0x00000000       0x10 ../../external/gcc/LPC1768/libstdc++.a(vec.o)
 .text.__aeabi_vec_delete3
                0x00000000       0x14 ../../external/gcc/LPC1768/libstdc++.a(vec.o)
 .text.__aeabi_vec_delete3_nodtor
                0x00000000       0x14 ../../external/gcc/LPC1768/libstdc++.a(vec.o)
 .group         0x00000000        0x8 ../../external/gcc/LPC1768/libstdc++.a(vmi_class_type_info.o)
 .group         0x00000000        0x8 ../../external/gcc/LPC1768/libstdc++.a(vmi_class_type_info.o)
 .group         0x00000000        0x8 ../../external/gcc/LPC1768/libstdc++.a(vmi_class_type_info.o)
 .group         0x00000000        0x8 ../../external/gcc/LPC1768/libstdc++.a(vmi_class_type_info.o)
 .group         0x00000000        0x8 ../../external/gcc/LPC1768/libstdc++.a(vmi_class_type_info.o)
 .group         0x00000000        0x8 ../../external/gcc/LPC1768/libstdc++.a(vmi_class_type_info.o)
 .text          0x00000000        0x0 ../../external/gcc/LPC1768/libstdc++.a(vmi_class_type_info.o)
 .data          0x00000000        0x0 ../../external/gcc/LPC1768/libstdc++.a(vmi_class_type_info.o)
 .bss           0x00000000        0x0 ../../external/gcc/LPC1768/libstdc++.a(vmi_class_type_info.o)
 .text._ZN10__cxxabiv117__class_type_info15__upcast_resultC2Ei
                0x00000000        0xc ../../external/gcc/LPC1768/libstdc++.a(vmi_class_type_info.o)
 .text._ZN10__cxxabiv117__class_type_info16__dyncast_resultC2Ei
                0x00000000        0xe ../../external/gcc/LPC1768/libstdc++.a(vmi_class_type_info.o)
 .text._ZNK10__cxxabiv117__class_type_info17__find_public_srcEiPKvPKS0_S2_
                0x00000000       0x2c ../../external/gcc/LPC1768/libstdc++.a(vmi_class_type_info.o)
 .text          0x00000000        0x0 ../../external/gcc/LPC1768/libstdc++.a(eh_terminate.o)
 .data          0x00000000        0x0 ../../external/gcc/LPC1768/libstdc++.a(eh_terminate.o)
 .bss           0x00000000        0x0 ../../external/gcc/LPC1768/libstdc++.a(eh_terminate.o)
 .text._ZN10__cxxabiv112__unexpectedEPFvvE
                0x00000000        0x8 ../../external/gcc/LPC1768/libstdc++.a(eh_terminate.o)
 .text._ZSt10unexpectedv
                0x00000000       0x10 ../../external/gcc/LPC1768/libstdc++.a(eh_terminate.o)
 .text._ZSt13set_terminatePFvvE
                0x00000000       0x10 ../../external/gcc/LPC1768/libstdc++.a(eh_terminate.o)
 .text._ZSt14set_unexpectedPFvvE
                0x00000000       0x10 ../../external/gcc/LPC1768/libstdc++.a(eh_terminate.o)
 .text          0x00000000        0x0 ../../external/gcc/LPC1768/libstdc++.a(eh_unex_handler.o)
 .data          0x00000000        0x0 ../../external/gcc/LPC1768/libstdc++.a(eh_unex_handler.o)
 .bss           0x00000000        0x0 ../../external/gcc/LPC1768/libstdc++.a(eh_unex_handler.o)
 .data._ZN10__cxxabiv120__unexpected_handlerE
                0x00000000        0x4 ../../external/gcc/LPC1768/libstdc++.a(eh_unex_handler.o)
 .text          0x00000000        0x0 ../../external/gcc/LPC1768/libstdc++.a(new_handler.o)
 .data          0x00000000        0x0 ../../external/gcc/LPC1768/libstdc++.a(new_handler.o)
 .bss           0x00000000        0x0 ../../external/gcc/LPC1768/libstdc++.a(new_handler.o)
 .text._ZNKSt9bad_alloc4whatEv
                0x00000000        0x8 ../../external/gcc/LPC1768/libstdc++.a(new_handler.o)
 .text._ZNSt9bad_allocD2Ev
                0x00000000       0x14 ../../external/gcc/LPC1768/libstdc++.a(new_handler.o)
 .text._ZNSt9bad_allocD0Ev
                0x00000000       0x12 ../../external/gcc/LPC1768/libstdc++.a(new_handler.o)
 .text._ZSt15set_new_handlerPFvvE
                0x00000000       0x10 ../../external/gcc/LPC1768/libstdc++.a(new_handler.o)
 .rodata._ZTVSt9bad_alloc
                0x00000000       0x18 ../../external/gcc/LPC1768/libstdc++.a(new_handler.o)
 .rodata._ZTSSt9bad_alloc
                0x00000000        0xd ../../external/gcc/LPC1768/libstdc++.a(new_handler.o)
 .rodata.str1.1
                0x00000000        0xf ../../external/gcc/LPC1768/libstdc++.a(new_handler.o)
 .rodata._ZTISt9bad_alloc
                0x00000000        0xc ../../external/gcc/LPC1768/libstdc++.a(new_handler.o)
 .rodata._ZSt7nothrow
                0x00000000        0x1 ../../external/gcc/LPC1768/libstdc++.a(new_handler.o)
 .text          0x00000000        0x0 ../../external/gcc/LPC1768/libstdc++.a(eh_exception.o)
 .data          0x00000000        0x0 ../../external/gcc/LPC1768/libstdc++.a(eh_exception.o)
 .bss           0x00000000        0x0 ../../external/gcc/LPC1768/libstdc++.a(eh_exception.o)
 .text._ZNSt9exceptionD2Ev
                0x00000000        0xc ../../external/gcc/LPC1768/libstdc++.a(eh_exception.o)
 .text._ZNSt13bad_exceptionD2Ev
                0x00000000       0x14 ../../external/gcc/LPC1768/libstdc++.a(eh_exception.o)
 .text._ZN10__cxxabiv115__forced_unwindD2Ev
                0x00000000        0xc ../../external/gcc/LPC1768/libstdc++.a(eh_exception.o)
 .text._ZN10__cxxabiv119__foreign_exceptionD2Ev
                0x00000000        0xc ../../external/gcc/LPC1768/libstdc++.a(eh_exception.o)
 .text._ZNKSt9exception4whatEv
                0x00000000        0x8 ../../external/gcc/LPC1768/libstdc++.a(eh_exception.o)
 .text._ZNKSt13bad_exception4whatEv
                0x00000000        0x8 ../../external/gcc/LPC1768/libstdc++.a(eh_exception.o)
 .text._ZN10__cxxabiv119__foreign_exceptionD0Ev
                0x00000000       0x12 ../../external/gcc/LPC1768/libstdc++.a(eh_exception.o)
 .text._ZN10__cxxabiv115__forced_unwindD0Ev
                0x00000000       0x12 ../../external/gcc/LPC1768/libstdc++.a(eh_exception.o)
 .text._ZNSt13bad_exceptionD0Ev
                0x00000000       0x12 ../../external/gcc/LPC1768/libstdc++.a(eh_exception.o)
 .text._ZNSt9exceptionD0Ev
                0x00000000       0x12 ../../external/gcc/LPC1768/libstdc++.a(eh_exception.o)
 .rodata._ZTVN10__cxxabiv115__forced_unwindE
                0x00000000       0x18 ../../external/gcc/LPC1768/libstdc++.a(eh_exception.o)
 .rodata._ZTVSt9exception
                0x00000000       0x18 ../../external/gcc/LPC1768/libstdc++.a(eh_exception.o)
 .rodata._ZTIN10__cxxabiv115__forced_unwindE
                0x00000000        0x8 ../../external/gcc/LPC1768/libstdc++.a(eh_exception.o)
 .rodata._ZTSSt13bad_exception
                0x00000000       0x12 ../../external/gcc/LPC1768/libstdc++.a(eh_exception.o)
 .rodata._ZTSN10__cxxabiv119__foreign_exceptionE
                0x00000000       0x24 ../../external/gcc/LPC1768/libstdc++.a(eh_exception.o)
 .rodata.str1.1
                0x00000000       0x22 ../../external/gcc/LPC1768/libstdc++.a(eh_exception.o)
 .rodata._ZTISt9exception
                0x00000000        0x8 ../../external/gcc/LPC1768/libstdc++.a(eh_exception.o)
 .rodata._ZTIN10__cxxabiv119__foreign_exceptionE
                0x00000000        0x8 ../../external/gcc/LPC1768/libstdc++.a(eh_exception.o)
 .rodata._ZTVSt13bad_exception
                0x00000000       0x18 ../../external/gcc/LPC1768/libstdc++.a(eh_exception.o)
 .rodata._ZTSSt9exception
                0x00000000        0xd ../../external/gcc/LPC1768/libstdc++.a(eh_exception.o)
 .rodata._ZTVN10__cxxabiv119__foreign_exceptionE
                0x00000000       0x18 ../../external/gcc/LPC1768/libstdc++.a(eh_exception.o)
 .rodata._ZTSN10__cxxabiv115__forced_unwindE
                0x00000000       0x20 ../../external/gcc/LPC1768/libstdc++.a(eh_exception.o)
 .rodata._ZTISt13bad_exception
                0x00000000        0xc ../../external/gcc/LPC1768/libstdc++.a(eh_exception.o)
 .text          0x00000000        0x0 ../../external/gcc/LPC1768/libstdc++.a(eh_term_handler.o)
 .data          0x00000000        0x0 ../../external/gcc/LPC1768/libstdc++.a(eh_term_handler.o)
 .bss           0x00000000        0x0 ../../external/gcc/LPC1768/libstdc++.a(eh_term_handler.o)
 .group         0x00000000        0x8 ../../external/gcc/LPC1768/libstdc++.a(vterminate.o)
 .text          0x00000000        0x0 ../../external/gcc/LPC1768/libstdc++.a(vterminate.o)
 .data          0x00000000        0x0 ../../external/gcc/LPC1768/libstdc++.a(vterminate.o)
 .bss           0x00000000        0x0 ../../external/gcc/LPC1768/libstdc++.a(vterminate.o)
 .text._ZNKSt9type_info4nameEv
                0x00000000        0xc ../../external/gcc/LPC1768/libstdc++.a(vterminate.o)
 .data          0x00000000        0x0 ../../external/gcc/LPC1768/libstdc++.a(cp-demangle.o)
 .bss           0x00000000        0x0 ../../external/gcc/LPC1768/libstdc++.a(cp-demangle.o)
 .text          0x00000000        0x0 ../../external/gcc/LPC1768/libstdc++.a(eh_type.o)
 .data          0x00000000        0x0 ../../external/gcc/LPC1768/libstdc++.a(eh_type.o)
 .bss           0x00000000        0x0 ../../external/gcc/LPC1768/libstdc++.a(eh_type.o)
 .text          0x00000000        0x0 ../../external/gcc/LPC1768/libstdc++.a(eh_globals.o)
 .data          0x00000000        0x0 ../../external/gcc/LPC1768/libstdc++.a(eh_globals.o)
 .bss           0x00000000        0x0 ../../external/gcc/LPC1768/libstdc++.a(eh_globals.o)
 .text.__cxa_get_globals_fast
                0x00000000        0x8 ../../external/gcc/LPC1768/libstdc++.a(eh_globals.o)
 .text          0x00000000        0x0 ../../external/gcc/LPC1768/libm.a(lib_a-s_scalbn.o)
 .data          0x00000000        0x0 ../../external/gcc/LPC1768/libm.a(lib_a-s_scalbn.o)
 .bss           0x00000000        0x0 ../../external/gcc/LPC1768/libm.a(lib_a-s_scalbn.o)
 .text          0x00000000        0x0 ../../external/gcc/LPC1768/libm.a(lib_a-s_copysign.o)
 .data          0x00000000        0x0 ../../external/gcc/LPC1768/libm.a(lib_a-s_copysign.o)
 .bss           0x00000000        0x0 ../../external/gcc/LPC1768/libm.a(lib_a-s_copysign.o)
 .data          0x00000000        0x0 /media/6aafac43-5450-453e-a142-f588400933c0/Sandbox/arm/bin/../lib/gcc/arm-none-eabi/4.5.2/thumb2/libgcc.a(_arm_addsubdf3.o)
 .bss           0x00000000        0x0 /media/6aafac43-5450-453e-a142-f588400933c0/Sandbox/arm/bin/../lib/gcc/arm-none-eabi/4.5.2/thumb2/libgcc.a(_arm_addsubdf3.o)
 .data          0x00000000        0x0 /media/6aafac43-5450-453e-a142-f588400933c0/Sandbox/arm/bin/../lib/gcc/arm-none-eabi/4.5.2/thumb2/libgcc.a(_arm_muldivdf3.o)
 .bss           0x00000000        0x0 /media/6aafac43-5450-453e-a142-f588400933c0/Sandbox/arm/bin/../lib/gcc/arm-none-eabi/4.5.2/thumb2/libgcc.a(_arm_muldivdf3.o)
 .data          0x00000000        0x0 /media/6aafac43-5450-453e-a142-f588400933c0/Sandbox/arm/bin/../lib/gcc/arm-none-eabi/4.5.2/thumb2/libgcc.a(_arm_fixdfsi.o)
 .bss           0x00000000        0x0 /media/6aafac43-5450-453e-a142-f588400933c0/Sandbox/arm/bin/../lib/gcc/arm-none-eabi/4.5.2/thumb2/libgcc.a(_arm_fixdfsi.o)
 .data          0x00000000        0x0 /media/6aafac43-5450-453e-a142-f588400933c0/Sandbox/arm/bin/../lib/gcc/arm-none-eabi/4.5.2/thumb2/libgcc.a(_arm_truncdfsf2.o)
 .bss           0x00000000        0x0 /media/6aafac43-5450-453e-a142-f588400933c0/Sandbox/arm/bin/../lib/gcc/arm-none-eabi/4.5.2/thumb2/libgcc.a(_arm_truncdfsf2.o)
 .data          0x00000000        0x0 /media/6aafac43-5450-453e-a142-f588400933c0/Sandbox/arm/bin/../lib/gcc/arm-none-eabi/4.5.2/thumb2/libgcc.a(_arm_addsubsf3.o)
 .bss           0x00000000        0x0 /media/6aafac43-5450-453e-a142-f588400933c0/Sandbox/arm/bin/../lib/gcc/arm-none-eabi/4.5.2/thumb2/libgcc.a(_arm_addsubsf3.o)
 .data          0x00000000        0x0 /media/6aafac43-5450-453e-a142-f588400933c0/Sandbox/arm/bin/../lib/gcc/arm-none-eabi/4.5.2/thumb2/libgcc.a(_arm_muldivsf3.o)
 .bss           0x00000000        0x0 /media/6aafac43-5450-453e-a142-f588400933c0/Sandbox/arm/bin/../lib/gcc/arm-none-eabi/4.5.2/thumb2/libgcc.a(_arm_muldivsf3.o)
 .data          0x00000000        0x0 /media/6aafac43-5450-453e-a142-f588400933c0/Sandbox/arm/bin/../lib/gcc/arm-none-eabi/4.5.2/thumb2/libgcc.a(_arm_cmpsf2.o)
 .bss           0x00000000        0x0 /media/6aafac43-5450-453e-a142-f588400933c0/Sandbox/arm/bin/../lib/gcc/arm-none-eabi/4.5.2/thumb2/libgcc.a(_arm_cmpsf2.o)
 .text          0x00000000        0x0 ../../external/gcc/LPC1768/libc.a(lib_a-abort.o)
 .data          0x00000000        0x0 ../../external/gcc/LPC1768/libc.a(lib_a-abort.o)
 .bss           0x00000000        0x0 ../../external/gcc/LPC1768/libc.a(lib_a-abort.o)
 .text          0x00000000        0x0 ../../external/gcc/LPC1768/libc.a(lib_a-aeabi_memcpy.o)
 .data          0x00000000        0x0 ../../external/gcc/LPC1768/libc.a(lib_a-aeabi_memcpy.o)
 .bss           0x00000000        0x0 ../../external/gcc/LPC1768/libc.a(lib_a-aeabi_memcpy.o)
 .text          0x00000000        0x0 ../../external/gcc/LPC1768/libc.a(lib_a-clibabi_assert.o)
 .data          0x00000000        0x0 ../../external/gcc/LPC1768/libc.a(lib_a-clibabi_assert.o)
 .bss           0x00000000        0x0 ../../external/gcc/LPC1768/libc.a(lib_a-clibabi_assert.o)
 .text          0x00000000        0x0 ../../external/gcc/LPC1768/libc.a(lib_a-clibabi_ctype.o)
 .data          0x00000000        0x0 ../../external/gcc/LPC1768/libc.a(lib_a-clibabi_ctype.o)
 .bss           0x00000000        0x0 ../../external/gcc/LPC1768/libc.a(lib_a-clibabi_ctype.o)
 .text          0x00000000        0x0 ../../external/gcc/LPC1768/libc.a(lib_a-clibabi_stdio.o)
 .data          0x00000000        0x0 ../../external/gcc/LPC1768/libc.a(lib_a-clibabi_stdio.o)
 .bss           0x00000000        0x0 ../../external/gcc/LPC1768/libc.a(lib_a-clibabi_stdio.o)
 .rodata.__aeabi_L_tmpnam
                0x00000000        0x4 ../../external/gcc/LPC1768/libc.a(lib_a-clibabi_stdio.o)
 .rodata.__aeabi_BUFSIZ
                0x00000000        0x4 ../../external/gcc/LPC1768/libc.a(lib_a-clibabi_stdio.o)
 .rodata.__aeabi_IOLBF
                0x00000000        0x4 ../../external/gcc/LPC1768/libc.a(lib_a-clibabi_stdio.o)
 .rodata.__aeabi_FILENAME_MAX
                0x00000000        0x4 ../../external/gcc/LPC1768/libc.a(lib_a-clibabi_stdio.o)
 .rodata.__aeabi_IOFBF
                0x00000000        0x4 ../../external/gcc/LPC1768/libc.a(lib_a-clibabi_stdio.o)
 .rodata.__aeabi_FOPEN_MAX
                0x00000000        0x4 ../../external/gcc/LPC1768/libc.a(lib_a-clibabi_stdio.o)
 .rodata.__aeabi_TMP_MAX
                0x00000000        0x4 ../../external/gcc/LPC1768/libc.a(lib_a-clibabi_stdio.o)
 .rodata.__aeabi_IONBF
                0x00000000        0x4 ../../external/gcc/LPC1768/libc.a(lib_a-clibabi_stdio.o)
 .text          0x00000000        0x0 ../../external/gcc/LPC1768/libc.a(lib_a-cxa_atexit.o)
 .data          0x00000000        0x0 ../../external/gcc/LPC1768/libc.a(lib_a-cxa_atexit.o)
 .bss           0x00000000        0x0 ../../external/gcc/LPC1768/libc.a(lib_a-cxa_atexit.o)
 .text          0x00000000        0x0 ../../external/gcc/LPC1768/libc.a(lib_a-fclose.o)
 .data          0x00000000        0x0 ../../external/gcc/LPC1768/libc.a(lib_a-fclose.o)
 .bss           0x00000000        0x0 ../../external/gcc/LPC1768/libc.a(lib_a-fclose.o)
 .text          0x00000000        0x0 ../../external/gcc/LPC1768/libc.a(lib_a-fflush.o)
 .data          0x00000000        0x0 ../../external/gcc/LPC1768/libc.a(lib_a-fflush.o)
 .bss           0x00000000        0x0 ../../external/gcc/LPC1768/libc.a(lib_a-fflush.o)
 .text          0x00000000        0x0 ../../external/gcc/LPC1768/libc.a(lib_a-fgetc.o)
 .data          0x00000000        0x0 ../../external/gcc/LPC1768/libc.a(lib_a-fgetc.o)
 .bss           0x00000000        0x0 ../../external/gcc/LPC1768/libc.a(lib_a-fgetc.o)
 .text          0x00000000        0x0 ../../external/gcc/LPC1768/libc.a(lib_a-findfp.o)
 .data          0x00000000        0x0 ../../external/gcc/LPC1768/libc.a(lib_a-findfp.o)
 .bss           0x00000000        0x0 ../../external/gcc/LPC1768/libc.a(lib_a-findfp.o)
 .text.__fp_lock
                0x00000000        0x4 ../../external/gcc/LPC1768/libc.a(lib_a-findfp.o)
 .text.__fp_unlock
                0x00000000        0x4 ../../external/gcc/LPC1768/libc.a(lib_a-findfp.o)
 .text._cleanup
                0x00000000        0xc ../../external/gcc/LPC1768/libc.a(lib_a-findfp.o)
 .text.__sinit_lock_acquire
                0x00000000        0x2 ../../external/gcc/LPC1768/libc.a(lib_a-findfp.o)
 .text.__sinit_lock_release
                0x00000000        0x2 ../../external/gcc/LPC1768/libc.a(lib_a-findfp.o)
 .text.__fp_lock_all
                0x00000000       0x14 ../../external/gcc/LPC1768/libc.a(lib_a-findfp.o)
 .text.__fp_unlock_all
                0x00000000       0x14 ../../external/gcc/LPC1768/libc.a(lib_a-findfp.o)
 .text          0x00000000        0x0 ../../external/gcc/LPC1768/libc.a(lib_a-fopen.o)
 .data          0x00000000        0x0 ../../external/gcc/LPC1768/libc.a(lib_a-fopen.o)
 .bss           0x00000000        0x0 ../../external/gcc/LPC1768/libc.a(lib_a-fopen.o)
 .text          0x00000000        0x0 ../../external/gcc/LPC1768/libc.a(lib_a-fprintf.o)
 .data          0x00000000        0x0 ../../external/gcc/LPC1768/libc.a(lib_a-fprintf.o)
 .bss           0x00000000        0x0 ../../external/gcc/LPC1768/libc.a(lib_a-fprintf.o)
 .text._fprintf_r
                0x00000000       0x18 ../../external/gcc/LPC1768/libc.a(lib_a-fprintf.o)
 .text          0x00000000        0x0 ../../external/gcc/LPC1768/libc.a(lib_a-fputc.o)
 .data          0x00000000        0x0 ../../external/gcc/LPC1768/libc.a(lib_a-fputc.o)
 .bss           0x00000000        0x0 ../../external/gcc/LPC1768/libc.a(lib_a-fputc.o)
 .text          0x00000000        0x0 ../../external/gcc/LPC1768/libc.a(lib_a-fputs.o)
 .data          0x00000000        0x0 ../../external/gcc/LPC1768/libc.a(lib_a-fputs.o)
 .bss           0x00000000        0x0 ../../external/gcc/LPC1768/libc.a(lib_a-fputs.o)
 .text          0x00000000        0x0 ../../external/gcc/LPC1768/libc.a(lib_a-freer.o)
 .data          0x00000000        0x0 ../../external/gcc/LPC1768/libc.a(lib_a-freer.o)
 .bss           0x00000000        0x0 ../../external/gcc/LPC1768/libc.a(lib_a-freer.o)
 .text          0x00000000        0x0 ../../external/gcc/LPC1768/libc.a(lib_a-fseek.o)
 .data          0x00000000        0x0 ../../external/gcc/LPC1768/libc.a(lib_a-fseek.o)
 .bss           0x00000000        0x0 ../../external/gcc/LPC1768/libc.a(lib_a-fseek.o)
 .text.fseek    0x00000000       0x1c ../../external/gcc/LPC1768/libc.a(lib_a-fseek.o)
 .text          0x00000000        0x0 ../../external/gcc/LPC1768/libc.a(lib_a-fstatr.o)
 .data          0x00000000        0x0 ../../external/gcc/LPC1768/libc.a(lib_a-fstatr.o)
 .bss           0x00000000        0x0 ../../external/gcc/LPC1768/libc.a(lib_a-fstatr.o)
 .text          0x00000000        0x0 ../../external/gcc/LPC1768/libc.a(lib_a-fvwrite.o)
 .data          0x00000000        0x0 ../../external/gcc/LPC1768/libc.a(lib_a-fvwrite.o)
 .bss           0x00000000        0x0 ../../external/gcc/LPC1768/libc.a(lib_a-fvwrite.o)
 .text          0x00000000        0x0 ../../external/gcc/LPC1768/libc.a(lib_a-fwalk.o)
 .data          0x00000000        0x0 ../../external/gcc/LPC1768/libc.a(lib_a-fwalk.o)
 .bss           0x00000000        0x0 ../../external/gcc/LPC1768/libc.a(lib_a-fwalk.o)
 .text          0x00000000        0x0 ../../external/gcc/LPC1768/libc.a(lib_a-fwrite.o)
 .data          0x00000000        0x0 ../../external/gcc/LPC1768/libc.a(lib_a-fwrite.o)
 .bss           0x00000000        0x0 ../../external/gcc/LPC1768/libc.a(lib_a-fwrite.o)
 .text          0x00000000        0x0 ../../external/gcc/LPC1768/libc.a(lib_a-impure.o)
 .data          0x00000000        0x0 ../../external/gcc/LPC1768/libc.a(lib_a-impure.o)
 .bss           0x00000000        0x0 ../../external/gcc/LPC1768/libc.a(lib_a-impure.o)
 .text          0x00000000        0x0 ../../external/gcc/LPC1768/libc.a(lib_a-init.o)
 .data          0x00000000        0x0 ../../external/gcc/LPC1768/libc.a(lib_a-init.o)
 .bss           0x00000000        0x0 ../../external/gcc/LPC1768/libc.a(lib_a-init.o)
 .text          0x00000000        0x0 ../../external/gcc/LPC1768/libc.a(lib_a-makebuf.o)
 .data          0x00000000        0x0 ../../external/gcc/LPC1768/libc.a(lib_a-makebuf.o)
 .bss           0x00000000        0x0 ../../external/gcc/LPC1768/libc.a(lib_a-makebuf.o)
 .text          0x00000000        0x0 ../../external/gcc/LPC1768/libc.a(lib_a-malloc.o)
 .data          0x00000000        0x0 ../../external/gcc/LPC1768/libc.a(lib_a-malloc.o)
 .bss           0x00000000        0x0 ../../external/gcc/LPC1768/libc.a(lib_a-malloc.o)
 .text          0x00000000        0x0 ../../external/gcc/LPC1768/libc.a(lib_a-mallocr.o)
 .data          0x00000000        0x0 ../../external/gcc/LPC1768/libc.a(lib_a-mallocr.o)
 .bss           0x00000000        0x0 ../../external/gcc/LPC1768/libc.a(lib_a-mallocr.o)
 .text          0x00000000        0x0 ../../external/gcc/LPC1768/libc.a(lib_a-memchr.o)
 .data          0x00000000        0x0 ../../external/gcc/LPC1768/libc.a(lib_a-memchr.o)
 .bss           0x00000000        0x0 ../../external/gcc/LPC1768/libc.a(lib_a-memchr.o)
 .text          0x00000000        0x0 ../../external/gcc/LPC1768/libc.a(lib_a-memcmp.o)
 .data          0x00000000        0x0 ../../external/gcc/LPC1768/libc.a(lib_a-memcmp.o)
 .bss           0x00000000        0x0 ../../external/gcc/LPC1768/libc.a(lib_a-memcmp.o)
 .text          0x00000000        0x0 ../../external/gcc/LPC1768/libc.a(lib_a-memcpy.o)
 .data          0x00000000        0x0 ../../external/gcc/LPC1768/libc.a(lib_a-memcpy.o)
 .bss           0x00000000        0x0 ../../external/gcc/LPC1768/libc.a(lib_a-memcpy.o)
 .text          0x00000000        0x0 ../../external/gcc/LPC1768/libc.a(lib_a-memmove.o)
 .data          0x00000000        0x0 ../../external/gcc/LPC1768/libc.a(lib_a-memmove.o)
 .bss           0x00000000        0x0 ../../external/gcc/LPC1768/libc.a(lib_a-memmove.o)
 .text          0x00000000        0x0 ../../external/gcc/LPC1768/libc.a(lib_a-memset.o)
 .data          0x00000000        0x0 ../../external/gcc/LPC1768/libc.a(lib_a-memset.o)
 .bss           0x00000000        0x0 ../../external/gcc/LPC1768/libc.a(lib_a-memset.o)
 .text          0x00000000        0x0 ../../external/gcc/LPC1768/libc.a(lib_a-mlock.o)
 .data          0x00000000        0x0 ../../external/gcc/LPC1768/libc.a(lib_a-mlock.o)
 .bss           0x00000000        0x0 ../../external/gcc/LPC1768/libc.a(lib_a-mlock.o)
 .text          0x00000000        0x0 ../../external/gcc/LPC1768/libc.a(lib_a-openr.o)
 .data          0x00000000        0x0 ../../external/gcc/LPC1768/libc.a(lib_a-openr.o)
 .bss           0x00000000        0x0 ../../external/gcc/LPC1768/libc.a(lib_a-openr.o)
 .text          0x00000000        0x0 ../../external/gcc/LPC1768/libc.a(lib_a-putc.o)
 .data          0x00000000        0x0 ../../external/gcc/LPC1768/libc.a(lib_a-putc.o)
 .bss           0x00000000        0x0 ../../external/gcc/LPC1768/libc.a(lib_a-putc.o)
 .text.putc     0x00000000       0x14 ../../external/gcc/LPC1768/libc.a(lib_a-putc.o)
 .text          0x00000000        0x0 ../../external/gcc/LPC1768/libc.a(lib_a-puts.o)
 .data          0x00000000        0x0 ../../external/gcc/LPC1768/libc.a(lib_a-puts.o)
 .bss           0x00000000        0x0 ../../external/gcc/LPC1768/libc.a(lib_a-puts.o)
 .text          0x00000000        0x0 ../../external/gcc/LPC1768/libc.a(lib_a-realloc.o)
 .data          0x00000000        0x0 ../../external/gcc/LPC1768/libc.a(lib_a-realloc.o)
 .bss           0x00000000        0x0 ../../external/gcc/LPC1768/libc.a(lib_a-realloc.o)
 .text          0x00000000        0x0 ../../external/gcc/LPC1768/libc.a(lib_a-reallocr.o)
 .data          0x00000000        0x0 ../../external/gcc/LPC1768/libc.a(lib_a-reallocr.o)
 .bss           0x00000000        0x0 ../../external/gcc/LPC1768/libc.a(lib_a-reallocr.o)
 .text          0x00000000        0x0 ../../external/gcc/LPC1768/libc.a(lib_a-reent.o)
 .data          0x00000000        0x0 ../../external/gcc/LPC1768/libc.a(lib_a-reent.o)
 .bss           0x00000000        0x0 ../../external/gcc/LPC1768/libc.a(lib_a-reent.o)
 .text.cleanup_glue
                0x00000000       0x1a ../../external/gcc/LPC1768/libc.a(lib_a-reent.o)
 .text._reclaim_reent
                0x00000000       0xb4 ../../external/gcc/LPC1768/libc.a(lib_a-reent.o)
 .text._wrapup_reent
                0x00000000       0x34 ../../external/gcc/LPC1768/libc.a(lib_a-reent.o)
 .text          0x00000000        0x0 ../../external/gcc/LPC1768/libc.a(lib_a-refill.o)
 .data          0x00000000        0x0 ../../external/gcc/LPC1768/libc.a(lib_a-refill.o)
 .bss           0x00000000        0x0 ../../external/gcc/LPC1768/libc.a(lib_a-refill.o)
 .text          0x00000000        0x0 ../../external/gcc/LPC1768/libc.a(lib_a-rget.o)
 .data          0x00000000        0x0 ../../external/gcc/LPC1768/libc.a(lib_a-rget.o)
 .bss           0x00000000        0x0 ../../external/gcc/LPC1768/libc.a(lib_a-rget.o)
 .text.__srget  0x00000000       0x10 ../../external/gcc/LPC1768/libc.a(lib_a-rget.o)
 .text          0x00000000        0x0 ../../external/gcc/LPC1768/libc.a(lib_a-sbrkr.o)
 .data          0x00000000        0x0 ../../external/gcc/LPC1768/libc.a(lib_a-sbrkr.o)
 .bss           0x00000000        0x0 ../../external/gcc/LPC1768/libc.a(lib_a-sbrkr.o)
 .text          0x00000000        0x0 ../../external/gcc/LPC1768/libc.a(lib_a-setbuf.o)
 .data          0x00000000        0x0 ../../external/gcc/LPC1768/libc.a(lib_a-setbuf.o)
 .bss           0x00000000        0x0 ../../external/gcc/LPC1768/libc.a(lib_a-setbuf.o)
 .text          0x00000000        0x0 ../../external/gcc/LPC1768/libc.a(lib_a-setvbuf.o)
 .data          0x00000000        0x0 ../../external/gcc/LPC1768/libc.a(lib_a-setvbuf.o)
 .bss           0x00000000        0x0 ../../external/gcc/LPC1768/libc.a(lib_a-setvbuf.o)
 .text          0x00000000        0x0 ../../external/gcc/LPC1768/libc.a(lib_a-signal.o)
 .data          0x00000000        0x0 ../../external/gcc/LPC1768/libc.a(lib_a-signal.o)
 .bss           0x00000000        0x0 ../../external/gcc/LPC1768/libc.a(lib_a-signal.o)
 .text._init_signal_r
                0x00000000       0x2a ../../external/gcc/LPC1768/libc.a(lib_a-signal.o)
 .text._signal_r
                0x00000000       0x32 ../../external/gcc/LPC1768/libc.a(lib_a-signal.o)
 .text.__sigtramp_r
                0x00000000       0x46 ../../external/gcc/LPC1768/libc.a(lib_a-signal.o)
 .text.signal   0x00000000       0x14 ../../external/gcc/LPC1768/libc.a(lib_a-signal.o)
 .text._init_signal
                0x00000000        0xc ../../external/gcc/LPC1768/libc.a(lib_a-signal.o)
 .text.__sigtramp
                0x00000000       0x10 ../../external/gcc/LPC1768/libc.a(lib_a-signal.o)
 .text          0x00000000        0x0 ../../external/gcc/LPC1768/libc.a(lib_a-signalr.o)
 .data          0x00000000        0x0 ../../external/gcc/LPC1768/libc.a(lib_a-signalr.o)
 .bss           0x00000000        0x0 ../../external/gcc/LPC1768/libc.a(lib_a-signalr.o)
 .text          0x00000000        0x0 ../../external/gcc/LPC1768/libc.a(lib_a-sprintf.o)
 .data          0x00000000        0x0 ../../external/gcc/LPC1768/libc.a(lib_a-sprintf.o)
 .bss           0x00000000        0x0 ../../external/gcc/LPC1768/libc.a(lib_a-sprintf.o)
 .text._sprintf_r
                0x00000000       0x40 ../../external/gcc/LPC1768/libc.a(lib_a-sprintf.o)
 .text          0x00000000        0x0 ../../external/gcc/LPC1768/libc.a(lib_a-sscanf.o)
 .data          0x00000000        0x0 ../../external/gcc/LPC1768/libc.a(lib_a-sscanf.o)
 .bss           0x00000000        0x0 ../../external/gcc/LPC1768/libc.a(lib_a-sscanf.o)
 .text._sscanf_r
                0x00000000       0x54 ../../external/gcc/LPC1768/libc.a(lib_a-sscanf.o)
 .text          0x00000000        0x0 ../../external/gcc/LPC1768/libc.a(lib_a-stdio.o)
 .data          0x00000000        0x0 ../../external/gcc/LPC1768/libc.a(lib_a-stdio.o)
 .bss           0x00000000        0x0 ../../external/gcc/LPC1768/libc.a(lib_a-stdio.o)
 .text          0x00000000        0x0 ../../external/gcc/LPC1768/libc.a(lib_a-strcmp.o)
 .data          0x00000000        0x0 ../../external/gcc/LPC1768/libc.a(lib_a-strcmp.o)
 .bss           0x00000000        0x0 ../../external/gcc/LPC1768/libc.a(lib_a-strcmp.o)
 .text          0x00000000        0x0 ../../external/gcc/LPC1768/libc.a(lib_a-strcpy.o)
 .data          0x00000000        0x0 ../../external/gcc/LPC1768/libc.a(lib_a-strcpy.o)
 .bss           0x00000000        0x0 ../../external/gcc/LPC1768/libc.a(lib_a-strcpy.o)
 .text          0x00000000        0x0 ../../external/gcc/LPC1768/libc.a(lib_a-strlen.o)
 .data          0x00000000        0x0 ../../external/gcc/LPC1768/libc.a(lib_a-strlen.o)
 .bss           0x00000000        0x0 ../../external/gcc/LPC1768/libc.a(lib_a-strlen.o)
 .text          0x00000000        0x0 ../../external/gcc/LPC1768/libc.a(lib_a-strncmp.o)
 .data          0x00000000        0x0 ../../external/gcc/LPC1768/libc.a(lib_a-strncmp.o)
 .bss           0x00000000        0x0 ../../external/gcc/LPC1768/libc.a(lib_a-strncmp.o)
 .text          0x00000000        0x0 ../../external/gcc/LPC1768/libc.a(lib_a-strncpy.o)
 .data          0x00000000        0x0 ../../external/gcc/LPC1768/libc.a(lib_a-strncpy.o)
 .bss           0x00000000        0x0 ../../external/gcc/LPC1768/libc.a(lib_a-strncpy.o)
 .text.strncpy  0x00000000       0x28 ../../external/gcc/LPC1768/libc.a(lib_a-strncpy.o)
 .text          0x00000000        0x0 ../../external/gcc/LPC1768/libc.a(lib_a-strtol.o)
 .data          0x00000000        0x0 ../../external/gcc/LPC1768/libc.a(lib_a-strtol.o)
 .bss           0x00000000        0x0 ../../external/gcc/LPC1768/libc.a(lib_a-strtol.o)
 .text          0x00000000        0x0 ../../external/gcc/LPC1768/libc.a(lib_a-svfprintf.o)
 .data          0x00000000        0x0 ../../external/gcc/LPC1768/libc.a(lib_a-svfprintf.o)
 .bss           0x00000000        0x0 ../../external/gcc/LPC1768/libc.a(lib_a-svfprintf.o)
 .text          0x00000000        0x0 ../../external/gcc/LPC1768/libc.a(lib_a-svfscanf.o)
 .data          0x00000000        0x0 ../../external/gcc/LPC1768/libc.a(lib_a-svfscanf.o)
 .bss           0x00000000        0x0 ../../external/gcc/LPC1768/libc.a(lib_a-svfscanf.o)
 .text          0x00000000        0x0 ../../external/gcc/LPC1768/libc.a(lib_a-syswrite.o)
 .data          0x00000000        0x0 ../../external/gcc/LPC1768/libc.a(lib_a-syswrite.o)
 .bss           0x00000000        0x0 ../../external/gcc/LPC1768/libc.a(lib_a-syswrite.o)
 .text          0x00000000        0x0 ../../external/gcc/LPC1768/libc.a(lib_a-vfprintf.o)
 .data          0x00000000        0x0 ../../external/gcc/LPC1768/libc.a(lib_a-vfprintf.o)
 .bss           0x00000000        0x0 ../../external/gcc/LPC1768/libc.a(lib_a-vfprintf.o)
 .text.vfprintf
                0x00000000       0x1c ../../external/gcc/LPC1768/libc.a(lib_a-vfprintf.o)
 .text          0x00000000        0x0 ../../external/gcc/LPC1768/libc.a(lib_a-vfscanf.o)
 .data          0x00000000        0x0 ../../external/gcc/LPC1768/libc.a(lib_a-vfscanf.o)
 .bss           0x00000000        0x0 ../../external/gcc/LPC1768/libc.a(lib_a-vfscanf.o)
 .text.__svfscanf_r
                0x00000000      0xbdc ../../external/gcc/LPC1768/libc.a(lib_a-vfscanf.o)
 .text._vfscanf_r
                0x00000000       0x50 ../../external/gcc/LPC1768/libc.a(lib_a-vfscanf.o)
 .text.__svfscanf
                0x00000000       0x1c ../../external/gcc/LPC1768/libc.a(lib_a-vfscanf.o)
 .text.vfscanf  0x00000000       0x5c ../../external/gcc/LPC1768/libc.a(lib_a-vfscanf.o)
 .rodata.basefix.6535
                0x00000000       0x22 ../../external/gcc/LPC1768/libc.a(lib_a-vfscanf.o)
 .rodata.str1.1
                0x00000000        0x5 ../../external/gcc/LPC1768/libc.a(lib_a-vfscanf.o)
 .text          0x00000000        0x0 ../../external/gcc/LPC1768/libc.a(lib_a-wbuf.o)
 .data          0x00000000        0x0 ../../external/gcc/LPC1768/libc.a(lib_a-wbuf.o)
 .bss           0x00000000        0x0 ../../external/gcc/LPC1768/libc.a(lib_a-wbuf.o)
 .text.__swbuf  0x00000000       0x14 ../../external/gcc/LPC1768/libc.a(lib_a-wbuf.o)
 .text          0x00000000        0x0 ../../external/gcc/LPC1768/libc.a(lib_a-writer.o)
 .data          0x00000000        0x0 ../../external/gcc/LPC1768/libc.a(lib_a-writer.o)
 .bss           0x00000000        0x0 ../../external/gcc/LPC1768/libc.a(lib_a-writer.o)
 .text          0x00000000        0x0 ../../external/gcc/LPC1768/libc.a(lib_a-wsetup.o)
 .data          0x00000000        0x0 ../../external/gcc/LPC1768/libc.a(lib_a-wsetup.o)
 .bss           0x00000000        0x0 ../../external/gcc/LPC1768/libc.a(lib_a-wsetup.o)
 .text          0x00000000        0x0 ../../external/gcc/LPC1768/libc.a(lib_a-__atexit.o)
 .data          0x00000000        0x0 ../../external/gcc/LPC1768/libc.a(lib_a-__atexit.o)
 .bss           0x00000000        0x0 ../../external/gcc/LPC1768/libc.a(lib_a-__atexit.o)
 .text          0x00000000        0x0 ../../external/gcc/LPC1768/libc.a(lib_a-assert.o)
 .data          0x00000000        0x0 ../../external/gcc/LPC1768/libc.a(lib_a-assert.o)
 .bss           0x00000000        0x0 ../../external/gcc/LPC1768/libc.a(lib_a-assert.o)
 .text          0x00000000        0x0 ../../external/gcc/LPC1768/libc.a(lib_a-closer.o)
 .data          0x00000000        0x0 ../../external/gcc/LPC1768/libc.a(lib_a-closer.o)
 .bss           0x00000000        0x0 ../../external/gcc/LPC1768/libc.a(lib_a-closer.o)
 .text          0x00000000        0x0 ../../external/gcc/LPC1768/libc.a(lib_a-ctype_.o)
 .data          0x00000000        0x0 ../../external/gcc/LPC1768/libc.a(lib_a-ctype_.o)
 .bss           0x00000000        0x0 ../../external/gcc/LPC1768/libc.a(lib_a-ctype_.o)
 .text          0x00000000        0x0 ../../external/gcc/LPC1768/libc.a(lib_a-dtoa.o)
 .data          0x00000000        0x0 ../../external/gcc/LPC1768/libc.a(lib_a-dtoa.o)
 .bss           0x00000000        0x0 ../../external/gcc/LPC1768/libc.a(lib_a-dtoa.o)
 .text          0x00000000        0x0 ../../external/gcc/LPC1768/libc.a(lib_a-fiprintf.o)
 .data          0x00000000        0x0 ../../external/gcc/LPC1768/libc.a(lib_a-fiprintf.o)
 .bss           0x00000000        0x0 ../../external/gcc/LPC1768/libc.a(lib_a-fiprintf.o)
 .text._fiprintf_r
                0x00000000       0x18 ../../external/gcc/LPC1768/libc.a(lib_a-fiprintf.o)
 .text          0x00000000        0x0 ../../external/gcc/LPC1768/libc.a(lib_a-flags.o)
 .data          0x00000000        0x0 ../../external/gcc/LPC1768/libc.a(lib_a-flags.o)
 .bss           0x00000000        0x0 ../../external/gcc/LPC1768/libc.a(lib_a-flags.o)
 .text          0x00000000        0x0 ../../external/gcc/LPC1768/libc.a(lib_a-fread.o)
 .data          0x00000000        0x0 ../../external/gcc/LPC1768/libc.a(lib_a-fread.o)
 .bss           0x00000000        0x0 ../../external/gcc/LPC1768/libc.a(lib_a-fread.o)
 .text._fread_r
                0x00000000       0xd0 ../../external/gcc/LPC1768/libc.a(lib_a-fread.o)
 .text.fread    0x00000000       0x20 ../../external/gcc/LPC1768/libc.a(lib_a-fread.o)
 .text          0x00000000        0x0 ../../external/gcc/LPC1768/libc.a(lib_a-isattyr.o)
 .data          0x00000000        0x0 ../../external/gcc/LPC1768/libc.a(lib_a-isattyr.o)
 .bss           0x00000000        0x0 ../../external/gcc/LPC1768/libc.a(lib_a-isattyr.o)
 .text          0x00000000        0x0 ../../external/gcc/LPC1768/libc.a(lib_a-iswspace.o)
 .data          0x00000000        0x0 ../../external/gcc/LPC1768/libc.a(lib_a-iswspace.o)
 .bss           0x00000000        0x0 ../../external/gcc/LPC1768/libc.a(lib_a-iswspace.o)
 .text          0x00000000        0x0 ../../external/gcc/LPC1768/libc.a(lib_a-locale.o)
 .data          0x00000000        0x0 ../../external/gcc/LPC1768/libc.a(lib_a-locale.o)
 .bss           0x00000000        0x0 ../../external/gcc/LPC1768/libc.a(lib_a-locale.o)
 .text._setlocale_r
                0x00000000       0x44 ../../external/gcc/LPC1768/libc.a(lib_a-locale.o)
 .text.__locale_msgcharset
                0x00000000        0x8 ../../external/gcc/LPC1768/libc.a(lib_a-locale.o)
 .text.__locale_cjk_lang
                0x00000000        0x4 ../../external/gcc/LPC1768/libc.a(lib_a-locale.o)
 .text.setlocale
                0x00000000       0x14 ../../external/gcc/LPC1768/libc.a(lib_a-locale.o)
 .text.localeconv
                0x00000000        0x8 ../../external/gcc/LPC1768/libc.a(lib_a-locale.o)
 .data.lc_message_charset
                0x00000000       0x20 ../../external/gcc/LPC1768/libc.a(lib_a-locale.o)
 .bss._PathLocale
                0x00000000        0x4 ../../external/gcc/LPC1768/libc.a(lib_a-locale.o)
 .bss.__nlocale_changed
                0x00000000        0x4 ../../external/gcc/LPC1768/libc.a(lib_a-locale.o)
 .bss.__mlocale_changed
                0x00000000        0x4 ../../external/gcc/LPC1768/libc.a(lib_a-locale.o)
 .text          0x00000000        0x0 ../../external/gcc/LPC1768/libc.a(lib_a-lseekr.o)
 .data          0x00000000        0x0 ../../external/gcc/LPC1768/libc.a(lib_a-lseekr.o)
 .bss           0x00000000        0x0 ../../external/gcc/LPC1768/libc.a(lib_a-lseekr.o)
 .text          0x00000000        0x0 ../../external/gcc/LPC1768/libc.a(lib_a-mbrtowc.o)
 .data          0x00000000        0x0 ../../external/gcc/LPC1768/libc.a(lib_a-mbrtowc.o)
 .bss           0x00000000        0x0 ../../external/gcc/LPC1768/libc.a(lib_a-mbrtowc.o)
 .text.mbrtowc  0x00000000       0x20 ../../external/gcc/LPC1768/libc.a(lib_a-mbrtowc.o)
 .text          0x00000000        0x0 ../../external/gcc/LPC1768/libc.a(lib_a-mbtowc_r.o)
 .data          0x00000000        0x0 ../../external/gcc/LPC1768/libc.a(lib_a-mbtowc_r.o)
 .bss           0x00000000        0x0 ../../external/gcc/LPC1768/libc.a(lib_a-mbtowc_r.o)
 .text._mbtowc_r
                0x00000000       0x2c ../../external/gcc/LPC1768/libc.a(lib_a-mbtowc_r.o)
 .text          0x00000000        0x0 ../../external/gcc/LPC1768/libc.a(lib_a-mprec.o)
 .data          0x00000000        0x0 ../../external/gcc/LPC1768/libc.a(lib_a-mprec.o)
 .bss           0x00000000        0x0 ../../external/gcc/LPC1768/libc.a(lib_a-mprec.o)
 .text._mprec_log10
                0x00000000       0x34 ../../external/gcc/LPC1768/libc.a(lib_a-mprec.o)
 .rodata.__mprec_tinytens
                0x00000000       0x28 ../../external/gcc/LPC1768/libc.a(lib_a-mprec.o)
 .text          0x00000000        0x0 ../../external/gcc/LPC1768/libc.a(lib_a-readr.o)
 .data          0x00000000        0x0 ../../external/gcc/LPC1768/libc.a(lib_a-readr.o)
 .bss           0x00000000        0x0 ../../external/gcc/LPC1768/libc.a(lib_a-readr.o)
 .text          0x00000000        0x0 ../../external/gcc/LPC1768/libc.a(lib_a-s_fpclassify.o)
 .data          0x00000000        0x0 ../../external/gcc/LPC1768/libc.a(lib_a-s_fpclassify.o)
 .bss           0x00000000        0x0 ../../external/gcc/LPC1768/libc.a(lib_a-s_fpclassify.o)
 .text          0x00000000        0x0 ../../external/gcc/LPC1768/libc.a(lib_a-sccl.o)
 .data          0x00000000        0x0 ../../external/gcc/LPC1768/libc.a(lib_a-sccl.o)
 .bss           0x00000000        0x0 ../../external/gcc/LPC1768/libc.a(lib_a-sccl.o)
 .text          0x00000000        0x0 ../../external/gcc/LPC1768/libc.a(lib_a-sf_nan.o)
 .data          0x00000000        0x0 ../../external/gcc/LPC1768/libc.a(lib_a-sf_nan.o)
 .bss           0x00000000        0x0 ../../external/gcc/LPC1768/libc.a(lib_a-sf_nan.o)
 .text          0x00000000        0x0 ../../external/gcc/LPC1768/libc.a(lib_a-strtod.o)
 .data          0x00000000        0x0 ../../external/gcc/LPC1768/libc.a(lib_a-strtod.o)
 .bss           0x00000000        0x0 ../../external/gcc/LPC1768/libc.a(lib_a-strtod.o)
 .text.strtod   0x00000000       0x14 ../../external/gcc/LPC1768/libc.a(lib_a-strtod.o)
 .text.strtof   0x00000000       0xa8 ../../external/gcc/LPC1768/libc.a(lib_a-strtod.o)
 .text          0x00000000        0x0 ../../external/gcc/LPC1768/libc.a(lib_a-strtoll_r.o)
 .data          0x00000000        0x0 ../../external/gcc/LPC1768/libc.a(lib_a-strtoll_r.o)
 .bss           0x00000000        0x0 ../../external/gcc/LPC1768/libc.a(lib_a-strtoll_r.o)
 .text          0x00000000        0x0 ../../external/gcc/LPC1768/libc.a(lib_a-strtoul.o)
 .data          0x00000000        0x0 ../../external/gcc/LPC1768/libc.a(lib_a-strtoul.o)
 .bss           0x00000000        0x0 ../../external/gcc/LPC1768/libc.a(lib_a-strtoul.o)
 .text.strtoul  0x00000000       0x1c ../../external/gcc/LPC1768/libc.a(lib_a-strtoul.o)
 .text          0x00000000        0x0 ../../external/gcc/LPC1768/libc.a(lib_a-strtoull_r.o)
 .data          0x00000000        0x0 ../../external/gcc/LPC1768/libc.a(lib_a-strtoull_r.o)
 .bss           0x00000000        0x0 ../../external/gcc/LPC1768/libc.a(lib_a-strtoull_r.o)
 .text          0x00000000        0x0 ../../external/gcc/LPC1768/libc.a(lib_a-svfiprintf.o)
 .data          0x00000000        0x0 ../../external/gcc/LPC1768/libc.a(lib_a-svfiprintf.o)
 .bss           0x00000000        0x0 ../../external/gcc/LPC1768/libc.a(lib_a-svfiprintf.o)
 .text._svfiprintf_r
                0x00000000      0x81c ../../external/gcc/LPC1768/libc.a(lib_a-svfiprintf.o)
 .rodata.zeroes.6543
                0x00000000       0x10 ../../external/gcc/LPC1768/libc.a(lib_a-svfiprintf.o)
 .rodata.str1.1
                0x00000000       0x22 ../../external/gcc/LPC1768/libc.a(lib_a-svfiprintf.o)
 .rodata.blanks.6542
                0x00000000       0x10 ../../external/gcc/LPC1768/libc.a(lib_a-svfiprintf.o)
 .text          0x00000000        0x0 ../../external/gcc/LPC1768/libc.a(lib_a-svfiscanf.o)
 .data          0x00000000        0x0 ../../external/gcc/LPC1768/libc.a(lib_a-svfiscanf.o)
 .bss           0x00000000        0x0 ../../external/gcc/LPC1768/libc.a(lib_a-svfiscanf.o)
 .text.__ssvfiscanf_r
                0x00000000      0x80c ../../external/gcc/LPC1768/libc.a(lib_a-svfiscanf.o)
 .rodata.basefix.6017
                0x00000000       0x22 ../../external/gcc/LPC1768/libc.a(lib_a-svfiscanf.o)
 .text          0x00000000        0x0 ../../external/gcc/LPC1768/libc.a(lib_a-ungetc.o)
 .data          0x00000000        0x0 ../../external/gcc/LPC1768/libc.a(lib_a-ungetc.o)
 .bss           0x00000000        0x0 ../../external/gcc/LPC1768/libc.a(lib_a-ungetc.o)
 .text._ungetc_r
                0x00000000      0x100 ../../external/gcc/LPC1768/libc.a(lib_a-ungetc.o)
 .text.ungetc   0x00000000       0x14 ../../external/gcc/LPC1768/libc.a(lib_a-ungetc.o)
 .text          0x00000000        0x0 ../../external/gcc/LPC1768/libc.a(lib_a-vfiprintf.o)
 .data          0x00000000        0x0 ../../external/gcc/LPC1768/libc.a(lib_a-vfiprintf.o)
 .bss           0x00000000        0x0 ../../external/gcc/LPC1768/libc.a(lib_a-vfiprintf.o)
 .text.vfiprintf
                0x00000000       0x1c ../../external/gcc/LPC1768/libc.a(lib_a-vfiprintf.o)
 .text          0x00000000        0x0 ../../external/gcc/LPC1768/libc.a(lib_a-callocr.o)
 .data          0x00000000        0x0 ../../external/gcc/LPC1768/libc.a(lib_a-callocr.o)
 .bss           0x00000000        0x0 ../../external/gcc/LPC1768/libc.a(lib_a-callocr.o)
 .text          0x00000000        0x0 ../../external/gcc/LPC1768/libc.a(lib_a-fputwc.o)
 .data          0x00000000        0x0 ../../external/gcc/LPC1768/libc.a(lib_a-fputwc.o)
 .bss           0x00000000        0x0 ../../external/gcc/LPC1768/libc.a(lib_a-fputwc.o)
 .text.fputwc   0x00000000       0x54 ../../external/gcc/LPC1768/libc.a(lib_a-fputwc.o)
 .text          0x00000000        0x0 ../../external/gcc/LPC1768/libc.a(lib_a-gdtoa-gethex.o)
 .data          0x00000000        0x0 ../../external/gcc/LPC1768/libc.a(lib_a-gdtoa-gethex.o)
 .bss           0x00000000        0x0 ../../external/gcc/LPC1768/libc.a(lib_a-gdtoa-gethex.o)
 .text          0x00000000        0x0 ../../external/gcc/LPC1768/libc.a(lib_a-gdtoa-hexnan.o)
 .data          0x00000000        0x0 ../../external/gcc/LPC1768/libc.a(lib_a-gdtoa-hexnan.o)
 .bss           0x00000000        0x0 ../../external/gcc/LPC1768/libc.a(lib_a-gdtoa-hexnan.o)
 .text          0x00000000        0x0 ../../external/gcc/LPC1768/libc.a(lib_a-wcrtomb.o)
 .data          0x00000000        0x0 ../../external/gcc/LPC1768/libc.a(lib_a-wcrtomb.o)
 .bss           0x00000000        0x0 ../../external/gcc/LPC1768/libc.a(lib_a-wcrtomb.o)
 .text.wcrtomb  0x00000000       0x1c ../../external/gcc/LPC1768/libc.a(lib_a-wcrtomb.o)
 .text          0x00000000        0x0 ../../external/gcc/LPC1768/libc.a(lib_a-wctomb_r.o)
 .data          0x00000000        0x0 ../../external/gcc/LPC1768/libc.a(lib_a-wctomb_r.o)
 .bss           0x00000000        0x0 ../../external/gcc/LPC1768/libc.a(lib_a-wctomb_r.o)
 .text._wctomb_r
                0x00000000       0x2c ../../external/gcc/LPC1768/libc.a(lib_a-wctomb_r.o)
 .data          0x00000000        0x0 /media/6aafac43-5450-453e-a142-f588400933c0/Sandbox/arm/bin/../lib/gcc/arm-none-eabi/4.5.2/thumb2/libgcc.a(_udivsi3.o)
 .bss           0x00000000        0x0 /media/6aafac43-5450-453e-a142-f588400933c0/Sandbox/arm/bin/../lib/gcc/arm-none-eabi/4.5.2/thumb2/libgcc.a(_udivsi3.o)
 .data          0x00000000        0x0 /media/6aafac43-5450-453e-a142-f588400933c0/Sandbox/arm/bin/../lib/gcc/arm-none-eabi/4.5.2/thumb2/libgcc.a(_divsi3.o)
 .bss           0x00000000        0x0 /media/6aafac43-5450-453e-a142-f588400933c0/Sandbox/arm/bin/../lib/gcc/arm-none-eabi/4.5.2/thumb2/libgcc.a(_divsi3.o)
 .data          0x00000000        0x0 /media/6aafac43-5450-453e-a142-f588400933c0/Sandbox/arm/bin/../lib/gcc/arm-none-eabi/4.5.2/thumb2/libgcc.a(_dvmd_tls.o)
 .bss           0x00000000        0x0 /media/6aafac43-5450-453e-a142-f588400933c0/Sandbox/arm/bin/../lib/gcc/arm-none-eabi/4.5.2/thumb2/libgcc.a(_dvmd_tls.o)
 .data          0x00000000        0x0 /media/6aafac43-5450-453e-a142-f588400933c0/Sandbox/arm/bin/../lib/gcc/arm-none-eabi/4.5.2/thumb2/libgcc.a(_arm_cmpdf2.o)
 .bss           0x00000000        0x0 /media/6aafac43-5450-453e-a142-f588400933c0/Sandbox/arm/bin/../lib/gcc/arm-none-eabi/4.5.2/thumb2/libgcc.a(_arm_cmpdf2.o)
 .data          0x00000000        0x0 /media/6aafac43-5450-453e-a142-f588400933c0/Sandbox/arm/bin/../lib/gcc/arm-none-eabi/4.5.2/thumb2/libgcc.a(_arm_fixunsdfsi.o)
 .bss           0x00000000        0x0 /media/6aafac43-5450-453e-a142-f588400933c0/Sandbox/arm/bin/../lib/gcc/arm-none-eabi/4.5.2/thumb2/libgcc.a(_arm_fixunsdfsi.o)
 .data          0x00000000        0x0 /media/6aafac43-5450-453e-a142-f588400933c0/Sandbox/arm/bin/../lib/gcc/arm-none-eabi/4.5.2/thumb2/libgcc.a(_aeabi_uldivmod.o)
 .bss           0x00000000        0x0 /media/6aafac43-5450-453e-a142-f588400933c0/Sandbox/arm/bin/../lib/gcc/arm-none-eabi/4.5.2/thumb2/libgcc.a(_aeabi_uldivmod.o)
 .data          0x00000000        0x0 /media/6aafac43-5450-453e-a142-f588400933c0/Sandbox/arm/bin/../lib/gcc/arm-none-eabi/4.5.2/thumb2/libgcc.a(bpabi.o)
 .bss           0x00000000        0x0 /media/6aafac43-5450-453e-a142-f588400933c0/Sandbox/arm/bin/../lib/gcc/arm-none-eabi/4.5.2/thumb2/libgcc.a(bpabi.o)
 .data          0x00000000        0x0 /media/6aafac43-5450-453e-a142-f588400933c0/Sandbox/arm/bin/../lib/gcc/arm-none-eabi/4.5.2/thumb2/libgcc.a(_divdi3.o)
 .bss           0x00000000        0x0 /media/6aafac43-5450-453e-a142-f588400933c0/Sandbox/arm/bin/../lib/gcc/arm-none-eabi/4.5.2/thumb2/libgcc.a(_divdi3.o)
 .ARM.extab     0x00000000        0x0 /media/6aafac43-5450-453e-a142-f588400933c0/Sandbox/arm/bin/../lib/gcc/arm-none-eabi/4.5.2/thumb2/libgcc.a(_divdi3.o)
 .data          0x00000000        0x0 /media/6aafac43-5450-453e-a142-f588400933c0/Sandbox/arm/bin/../lib/gcc/arm-none-eabi/4.5.2/thumb2/libgcc.a(_udivdi3.o)
 .bss           0x00000000        0x0 /media/6aafac43-5450-453e-a142-f588400933c0/Sandbox/arm/bin/../lib/gcc/arm-none-eabi/4.5.2/thumb2/libgcc.a(_udivdi3.o)
 .ARM.extab     0x00000000        0x0 /media/6aafac43-5450-453e-a142-f588400933c0/Sandbox/arm/bin/../lib/gcc/arm-none-eabi/4.5.2/thumb2/libgcc.a(_udivdi3.o)
 .text          0x00000000        0x0 /media/6aafac43-5450-453e-a142-f588400933c0/Sandbox/arm/bin/../lib/gcc/arm-none-eabi/4.5.2/thumb2/crtend.o
 .data          0x00000000        0x0 /media/6aafac43-5450-453e-a142-f588400933c0/Sandbox/arm/bin/../lib/gcc/arm-none-eabi/4.5.2/thumb2/crtend.o
 .bss           0x00000000        0x0 /media/6aafac43-5450-453e-a142-f588400933c0/Sandbox/arm/bin/../lib/gcc/arm-none-eabi/4.5.2/thumb2/crtend.o
 .jcr           0x00000000        0x4 /media/6aafac43-5450-453e-a142-f588400933c0/Sandbox/arm/bin/../lib/gcc/arm-none-eabi/4.5.2/thumb2/crtend.o
 .text          0x00000000        0x0 /media/6aafac43-5450-453e-a142-f588400933c0/Sandbox/arm/bin/../lib/gcc/arm-none-eabi/4.5.2/thumb2/crtn.o
 .data          0x00000000        0x0 /media/6aafac43-5450-453e-a142-f588400933c0/Sandbox/arm/bin/../lib/gcc/arm-none-eabi/4.5.2/thumb2/crtn.o
 .bss           0x00000000        0x0 /media/6aafac43-5450-453e-a142-f588400933c0/Sandbox/arm/bin/../lib/gcc/arm-none-eabi/4.5.2/thumb2/crtn.o

Memory Configuration

Name             Origin             Length             Attributes
IROM             0x00000000         0x00080000         xr
IRAM0            0x10000000         0x00008000         xrw
IRAM1            0x2007c000         0x00004000         xrw
IRAM2            0x20080000         0x00004000         xrw
*default*        0x00000000         0xffffffff

Linker script and memory map

LOAD /media/6aafac43-5450-453e-a142-f588400933c0/Sandbox/arm/bin/../lib/gcc/arm-none-eabi/4.5.2/thumb2/crti.o
LOAD /media/6aafac43-5450-453e-a142-f588400933c0/Sandbox/arm/bin/../lib/gcc/arm-none-eabi/4.5.2/thumb2/crtbegin.o
LOAD ../../src/gcc4mbed.o
LOAD ../../src/syscalls.o
LOAD ./main.o
LOAD ../../mri/mri.ar
LOAD ../../external/mbed/LPC1768/mbed.ar
LOAD ../../external/mbed/LPC1768/capi.ar
LOAD ../../external/FATFileSystem/LPC1768/FATFileSystem.ar
LOAD ../../external/gcc/LPC1768/libstdc++.a
LOAD ../../external/gcc/LPC1768/libm.a
START GROUP
LOAD /media/6aafac43-5450-453e-a142-f588400933c0/Sandbox/arm/bin/../lib/gcc/arm-none-eabi/4.5.2/thumb2/libgcc.a
LOAD ../../external/gcc/LPC1768/libc.a
END GROUP
LOAD /media/6aafac43-5450-453e-a142-f588400933c0/Sandbox/arm/bin/../lib/gcc/arm-none-eabi/4.5.2/thumb2/crtend.o
LOAD /media/6aafac43-5450-453e-a142-f588400933c0/Sandbox/arm/bin/../lib/gcc/arm-none-eabi/4.5.2/thumb2/crtn.o

.text           0x00000000    0x10438
 *(RESET)
 RESET          0x00000000       0xc4 ../../external/mbed/LPC1768/capi.ar(startup_LPC17xx.LPC1768.o)
                0x00000000                __Vectors
 *(.mbed_init)
 .mbed_init     0x000000c4      0x10c ../../src/gcc4mbed.o
                0x000000c4                __main
 *(i.SystemInit)
 i.SystemInit   0x000001d0       0x78 ../../external/mbed/LPC1768/capi.ar(system_LPC17xx.LPC1768.o)
                0x000001d0                SystemInit
                0x000002fc                . = 0x2fc
 *fill*         0x00000248       0xb4 00
 *(.crp)
                0x00000300                . = 0x300
 *fill*         0x000002fc        0x4 00
 *(.text .text.*)
 .text          0x00000300       0x30 /media/6aafac43-5450-453e-a142-f588400933c0/Sandbox/arm/bin/../lib/gcc/arm-none-eabi/4.5.2/thumb2/crtbegin.o
 .text.__GCC4MBEDOpenStandardHandles
                0x00000330       0x34 ../../src/syscalls.o
                0x00000330                __GCC4MBEDOpenStandardHandles
 .text._kill    0x00000364       0x10 ../../src/syscalls.o
                0x00000364                _kill
 .text._exit    0x00000374        0x8 ../../src/syscalls.o
                0x00000374                _exit
 .text._getpid  0x0000037c        0x4 ../../src/syscalls.o
                0x0000037c                _getpid
 .text._sbrk    0x00000380       0x30 ../../src/syscalls.o
                0x00000380                _sbrk
 .text._open    0x000003b0       0x20 ../../src/syscalls.o
                0x000003b0                _open
 .text._close   0x000003d0        0x4 ../../src/syscalls.o
                0x000003d0                _close
 .text._isatty  0x000003d4        0xc ../../src/syscalls.o
                0x000003d4                _isatty
 .text._lseek   0x000003e0      0x120 ../../src/syscalls.o
                0x000003e0                _lseek
 .text._read    0x00000500       0x34 ../../src/syscalls.o
                0x00000500                _read
 .text._write   0x00000534       0x38 ../../src/syscalls.o
                0x00000534                _write
 .text._fstat   0x0000056c        0xc ../../src/syscalls.o
                0x0000056c                _fstat
 .text._Z4flipv
                0x00000578       0x18 ./main.o
                0x00000578                _Z4flipv
 .text.main     0x00000590       0x50 ./main.o
                0x00000590                main
 .text._GLOBAL__I_flipper
                0x000005e0       0x7c ./main.o
 .text._ZL18IsDebuggerAttachedv
                0x0000065c       0x10 ../../mri/mri.ar(mri.o)
 .text._ZL17DisableSingleStepv
                0x0000066c       0x10 ../../mri/mri.ar(mri.o)
 .text._ZL19ClearMonitorPendingv
                0x0000067c       0x10 ../../mri/mri.ar(mri.o)
 .text._ZL25GetFPBCodeComparatorCountv
                0x0000068c       0x18 ../../mri/mri.ar(mri.o)
 .text._ZL18ClearFPBComparatorPm
                0x000006a4        0x6 ../../mri/mri.ar(mri.o)
 *fill*         0x000006aa        0x2 00
 .text._ZL27CalculateFPBComparatorValueml
                0x000006ac       0x44 ../../mri/mri.ar(mri.o)
 .text._ZL27FindFPBBreakpointComparatorml
                0x000006f0       0x34 ../../mri/mri.ar(mri.o)
 .text._ZL15HexCharToNibbleh
                0x00000724       0x2a ../../mri/mri.ar(mri.o)
 .text._ZL12SBuffer_InitP7SBufferPcj
                0x0000074e        0xe ../../mri/mri.ar(mri.o)
 .text._ZL17SBuffer_BytesLeftP7SBuffer
                0x0000075c       0x14 ../../mri/mri.ar(mri.o)
 .text._ZL17SBuffer_WriteCharP7SBufferc
                0x00000770       0x1e ../../mri/mri.ar(mri.o)
 .text._ZL16SBuffer_ReadCharP7SBufferPc
                0x0000078e       0x22 ../../mri/mri.ar(mri.o)
 .text._ZL22SBuffer_WriteByteAsHexP7SBufferh
                0x000007b0       0x38 ../../mri/mri.ar(mri.o)
 .text._ZL21SBuffer_ReadByteAsHexP7SBufferPh
                0x000007e8       0x40 ../../mri/mri.ar(mri.o)
 .text._ZL19SBuffer_WriteStringP7SBufferPKc
                0x00000828       0x1c ../../mri/mri.ar(mri.o)
 .text._ZL25SBuffer_ReadUIntegerAsHexP7SBufferPj
                0x00000844       0x40 ../../mri/mri.ar(mri.o)
 .text._ZL25SBuffer_IsNextCharEqualToP7SBufferc
                0x00000884       0x1c ../../mri/mri.ar(mri.o)
 .text._ZL20SMriState_InitBufferP9SMriState
                0x000008a0        0xc ../../mri/mri.ar(mri.o)
 .text._ZL31SMriState_PrepareStringResponseP9SMriStatePKc
                0x000008ac       0x16 ../../mri/mri.ar(mri.o)
 *fill*         0x000008c2        0x2 00
 .text._ZL24AdvanceToNextInstructionv
                0x000008c4       0x30 ../../mri/mri.ar(mri.o)
 .text._ZL23ClearDebuggerActiveFlagv
                0x000008f4       0x10 ../../mri/mri.ar(mri.o)
 .text._ZL23ClearFaultDetectionFlagv
                0x00000904       0x10 ../../mri/mri.ar(mri.o)
 .text._ZL16WasFaultDetectedv
                0x00000914       0x10 ../../mri/mri.ar(mri.o)
 .text._ZL23ReadMemoryIntoHexBufferP7SBufferPKvi
                0x00000924       0x2e ../../mri/mri.ar(mri.o)
 .text._ZL22WriteHexBufferToMemoryP7SBufferPvi
                0x00000952       0x36 ../../mri/mri.ar(mri.o)
 .text._ZL26SendRegisterFor_T_ResponseP7SBufferhj
                0x00000988       0x2a ../../mri/mri.ar(mri.o)
 .text._ZL37PrepareEmptyResponseForUnknownCommandP9SMriState
                0x000009b2        0x4 ../../mri/mri.ar(mri.o)
 *fill*         0x000009b6        0x2 00
 .text._ZL25HandleRegisterReadCommandP9SMriState
                0x000009b8       0x1c ../../mri/mri.ar(mri.o)
 .text._ZL26HandleRegisterWriteCommandP9SMriState
                0x000009d4       0x48 ../../mri/mri.ar(mri.o)
 .text._ZL23HandleMemoryReadCommandP9SMriState
                0x00000a1c       0x4c ../../mri/mri.ar(mri.o)
 .text._ZL24HandleMemoryWriteCommandP9SMriState
                0x00000a68       0x5c ../../mri/mri.ar(mri.o)
 .text._ZL41ParseBreakpointWatchpointCommandArgumentsP9SMriStateP30SBreakpointWatchpointArguments
                0x00000ac4       0x74 ../../mri/mri.ar(mri.o)
 .text._ZL36HandleBreakpointWatchpointSetCommandP9SMriState
                0x00000b38       0x80 ../../mri/mri.ar(mri.o)
 .text._ZL39HandleBreakpointWatchpointRemoveCommandP9SMriState
                0x00000bb8       0x3c ../../mri/mri.ar(mri.o)
 .text._ZL36GetCurrentlyExecutingExceptionNumberv
                0x00000bf4        0xa ../../mri/mri.ar(mri.o)
 .text._ZL21SBuffer_MatchesStringP7SBufferPKcj
                0x00000bfe       0x42 ../../mri/mri.ar(mri.o)
 .text._ZL21HandleContinueCommandP9SMriState
                0x00000c40       0x30 ../../mri/mri.ar(mri.o)
 .text._ZL23HandleSingleStepCommandP9SMriState
                0x00000c70       0x18 ../../mri/mri.ar(mri.o)
 .text._ZL27SMriState_PrepareForRestartP9SMriState.clone.4
                0x00000c88        0xc ../../mri/mri.ar(mri.o)
 .text.NVIC_SetPriority.clone.7
                0x00000c94       0x28 ../../mri/mri.ar(mri.o)
 .text._ZL18HandleQueryCommandP9SMriState
                0x00000cbc      0x144 ../../mri/mri.ar(mri.o)
 .text._ZN4mbed6Stream4putcEi
                0x00000e00       0x18 ../../mri/mri.ar(mri.o)
                0x00000e00                _ZN4mbed6Stream4putcEi
 .text._ZN4mbed6Stream4getcEv
                0x00000e18       0x14 ../../mri/mri.ar(mri.o)
                0x00000e18                _ZN4mbed6Stream4getcEv
 .text._Z17MriTargetSendChari
                0x00000e2c        0xc ../../mri/mri.ar(mri.o)
                0x00000e2c                _Z17MriTargetSendChari
 .text._Z20MriTargetReceiveCharv
                0x00000e38        0xc ../../mri/mri.ar(mri.o)
                0x00000e38                _Z20MriTargetReceiveCharv
 .text._ZL25SMriState_SendPacketToGDBP9SMriState
                0x00000e44       0x68 ../../mri/mri.ar(mri.o)
 .text._ZL19Send_T_StopResponseP9SMriState
                0x00000eac       0x50 ../../mri/mri.ar(mri.o)
 .text._Z16ControlCDetectedv
                0x00000efc       0x24 ../../mri/mri.ar(mri.o)
                0x00000efc                _Z16ControlCDetectedv
 .text.MriInit  0x00000f20      0x118 ../../mri/mri.ar(mri.o)
                0x00000f20                MriInit
 .text.MriDebugException
                0x00001038      0x260 ../../mri/mri.ar(mri.o)
                0x00001038                MriDebugException
 .text._GLOBAL__I_g_MriContext
                0x00001298       0x34 ../../mri/mri.ar(mri.o)
 .text          0x000012cc      0x140 ../../mri/mri.ar(mriasm.o)
                0x000012cc                MriDisableMbed
                0x000012e4                MriGetIPSR
                0x000013ac                HardFault_Handler
                0x000013ae                MemManage_Handler
                0x000013b0                BusFault_Handler
                0x000013b2                UsageFault_Handler
                0x000013b4                DebugMon_Handler
                0x000013b6                UART0_IRQHandler
                0x000013b8                __MriTestRegisters
 .text          0x0000140c       0x24 ../../external/mbed/LPC1768/capi.ar(startup_LPC17xx.LPC1768.o)
                0x0000140c                Reset_Handler
                0x00001414                NMI_Handler
                0x0000141e                SVC_Handler
                0x00001422                PendSV_Handler
                0x00001424                SysTick_Handler
                0x00001426                TIMER2_IRQHandler
                0x00001426                RIT_IRQHandler
                0x00001426                I2C0_IRQHandler
                0x00001426                PWM1_IRQHandler
                0x00001426                I2C1_IRQHandler
                0x00001426                EINT2_IRQHandler
                0x00001426                UART1_IRQHandler
                0x00001426                EINT3_IRQHandler
                0x00001426                TIMER3_IRQHandler
                0x00001426                PLL0_IRQHandler
                0x00001426                CAN_IRQHandler
                0x00001426                PLL1_IRQHandler
                0x00001426                SSP0_IRQHandler
                0x00001426                I2S_IRQHandler
                0x00001426                I2C2_IRQHandler
                0x00001426                RTC_IRQHandler
                0x00001426                TIMER0_IRQHandler
                0x00001426                SPI_IRQHandler
                0x00001426                EINT1_IRQHandler
                0x00001426                TIMER1_IRQHandler
                0x00001426                UART2_IRQHandler
                0x00001426                ADC_IRQHandler
                0x00001426                SSP1_IRQHandler
                0x00001426                USB_IRQHandler
                0x00001426                BOD_IRQHandler
                0x00001426                WDT_IRQHandler
                0x00001426                QEI_IRQHandler
                0x00001426                EINT0_IRQHandler
                0x00001426                DMA_IRQHandler
                0x00001426                UART3_IRQHandler
                0x00001426                MCPWM_IRQHandler
                0x00001426                ENET_IRQHandler
 .text.__aeabi_atexit
                0x00001430        0xa ../../external/gcc/LPC1768/libstdc++.a(atexit_arm.o)
                0x00001430                __aeabi_atexit
 .text._ZNK10__cxxabiv117__class_type_info20__do_find_public_srcEiPKvPKS0_S2_
                0x0000143a        0xc ../../external/gcc/LPC1768/libstdc++.a(class_type_info.o)
                0x0000143a                _ZNK10__cxxabiv117__class_type_info20__do_find_public_srcEiPKvPKS0_S2_
 .text._ZNK10__cxxabiv117__class_type_info11__do_upcastEPKS0_PKvRNS0_15__upcast_resultE
                0x00001446       0x1a ../../external/gcc/LPC1768/libstdc++.a(class_type_info.o)
                0x00001446                _ZNK10__cxxabiv117__class_type_info11__do_upcastEPKS0_PKvRNS0_15__upcast_resultE
 .text._ZNK10__cxxabiv117__class_type_info12__do_dyncastEiNS0_10__sub_kindEPKS0_PKvS3_S5_RNS0_16__dyncast_resultE
                0x00001460       0x3c ../../external/gcc/LPC1768/libstdc++.a(class_type_info.o)
                0x00001460                _ZNK10__cxxabiv117__class_type_info12__do_dyncastEiNS0_10__sub_kindEPKS0_PKvS3_S5_RNS0_16__dyncast_resultE
 .text._ZNK10__cxxabiv117__class_type_info10__do_catchEPKSt9type_infoPPvj
                0x0000149c       0x26 ../../external/gcc/LPC1768/libstdc++.a(class_type_info.o)
                0x0000149c                _ZNK10__cxxabiv117__class_type_info10__do_catchEPKSt9type_infoPPvj
 *fill*         0x000014c2        0x2 00
 .text._ZN10__cxxabiv117__class_type_infoD2Ev
                0x000014c4       0x14 ../../external/gcc/LPC1768/libstdc++.a(class_type_info.o)
                0x000014c4                _ZN10__cxxabiv117__class_type_infoD1Ev
                0x000014c4                _ZN10__cxxabiv117__class_type_infoD2Ev
 .text._ZN10__cxxabiv117__class_type_infoD0Ev
                0x000014d8       0x12 ../../external/gcc/LPC1768/libstdc++.a(class_type_info.o)
                0x000014d8                _ZN10__cxxabiv117__class_type_infoD0Ev
 .text._ZN10__cxxabiv117__class_type_info15__upcast_resultC2Ei
                0x000014ea        0xc ../../external/gcc/LPC1768/libstdc++.a(class_type_info.o)
                0x000014ea                _ZN10__cxxabiv117__class_type_info15__upcast_resultC2Ei
                0x000014ea                _ZN10__cxxabiv117__class_type_info15__upcast_resultC1Ei
 .text._ZNK10__cxxabiv117__class_type_info11__do_upcastEPKS0_PPv
                0x000014f6       0x3a ../../external/gcc/LPC1768/libstdc++.a(class_type_info.o)
                0x000014f6                _ZNK10__cxxabiv117__class_type_info11__do_upcastEPKS0_PPv
 .text._ZdlPv   0x00001530        0x8 ../../external/gcc/LPC1768/libstdc++.a(del_op.o)
                0x00001530                _ZdlPv
 .text._ZdaPv   0x00001538        0x4 ../../external/gcc/LPC1768/libstdc++.a(del_opv.o)
                0x00001538                _ZdaPv
 .text._ZN10__cxxabiv112_GLOBAL__N_118contained_public_pENS_17__class_type_info10__sub_kindE
                0x0000153c       0x10 ../../external/gcc/LPC1768/libstdc++.a(dyncast.o)
 .text._ZN10__cxxabiv112_GLOBAL__N_114adjust_pointerIvEEPKT_PKvi
                0x0000154c        0x4 ../../external/gcc/LPC1768/libstdc++.a(dyncast.o)
 .text._ZN10__cxxabiv117__class_type_info16__dyncast_resultC2Ei
                0x00001550        0xe ../../external/gcc/LPC1768/libstdc++.a(dyncast.o)
                0x00001550                _ZN10__cxxabiv117__class_type_info16__dyncast_resultC2Ei
                0x00001550                _ZN10__cxxabiv117__class_type_info16__dyncast_resultC1Ei
 .text._ZNK10__cxxabiv117__class_type_info17__find_public_srcEiPKvPKS0_S2_
                0x0000155e       0x2c ../../external/gcc/LPC1768/libstdc++.a(dyncast.o)
                0x0000155e                _ZNK10__cxxabiv117__class_type_info17__find_public_srcEiPKvPKS0_S2_
 .text.__dynamic_cast
                0x0000158a       0xa4 ../../external/gcc/LPC1768/libstdc++.a(dyncast.o)
                0x0000158a                __dynamic_cast
 *fill*         0x0000162e        0x2 00
 .text._Znwj    0x00001630       0x28 ../../external/gcc/LPC1768/libstdc++.a(new_op.o)
                0x00001630                _Znwj
 .text._Znaj    0x00001658        0x4 ../../external/gcc/LPC1768/libstdc++.a(new_opv.o)
                0x00001658                _Znaj
 .text.__cxa_pure_virtual
                0x0000165c       0x14 ../../external/gcc/LPC1768/libstdc++.a(pure.o)
                0x0000165c                __cxa_pure_virtual
 .text._ZNK10__cxxabiv120__si_class_type_info11__do_upcastEPKNS_17__class_type_infoEPKvRNS1_15__upcast_resultE
                0x00001670       0x24 ../../external/gcc/LPC1768/libstdc++.a(si_class_type_info.o)
                0x00001670                _ZNK10__cxxabiv120__si_class_type_info11__do_upcastEPKNS_17__class_type_infoEPKvRNS1_15__upcast_resultE
 .text._ZNK10__cxxabiv120__si_class_type_info12__do_dyncastEiNS_17__class_type_info10__sub_kindEPKS1_PKvS4_S6_RNS1_16__dyncast_resultE
                0x00001694       0x90 ../../external/gcc/LPC1768/libstdc++.a(si_class_type_info.o)
                0x00001694                _ZNK10__cxxabiv120__si_class_type_info12__do_dyncastEiNS_17__class_type_info10__sub_kindEPKS1_PKvS4_S6_RNS1_16__dyncast_resultE
 .text._ZNK10__cxxabiv120__si_class_type_info20__do_find_public_srcEiPKvPKNS_17__class_type_infoES2_
                0x00001724       0x36 ../../external/gcc/LPC1768/libstdc++.a(si_class_type_info.o)
                0x00001724                _ZNK10__cxxabiv120__si_class_type_info20__do_find_public_srcEiPKvPKNS_17__class_type_infoES2_
 *fill*         0x0000175a        0x2 00
 .text._ZN10__cxxabiv120__si_class_type_infoD2Ev
                0x0000175c       0x14 ../../external/gcc/LPC1768/libstdc++.a(si_class_type_info.o)
                0x0000175c                _ZN10__cxxabiv120__si_class_type_infoD2Ev
                0x0000175c                _ZN10__cxxabiv120__si_class_type_infoD1Ev
 .text._ZN10__cxxabiv120__si_class_type_infoD0Ev
                0x00001770       0x12 ../../external/gcc/LPC1768/libstdc++.a(si_class_type_info.o)
                0x00001770                _ZN10__cxxabiv120__si_class_type_infoD0Ev
 *fill*         0x00001782        0x2 00
 .text._ZNSt9type_infoD2Ev
                0x00001784        0xc ../../external/gcc/LPC1768/libstdc++.a(tinfo.o)
                0x00001784                _ZNSt9type_infoD1Ev
                0x00001784                _ZNSt9type_infoD2Ev
 .text._ZNKSt9type_info14__is_pointer_pEv
                0x00001790        0x4 ../../external/gcc/LPC1768/libstdc++.a(tinfo.o)
                0x00001790                _ZNKSt9type_info14__is_pointer_pEv
 .text._ZNKSt9type_info15__is_function_pEv
                0x00001794        0x4 ../../external/gcc/LPC1768/libstdc++.a(tinfo.o)
                0x00001794                _ZNKSt9type_info15__is_function_pEv
 .text._ZNKSt9type_info11__do_upcastEPKN10__cxxabiv117__class_type_infoEPPv
                0x00001798        0x4 ../../external/gcc/LPC1768/libstdc++.a(tinfo.o)
                0x00001798                _ZNKSt9type_info11__do_upcastEPKN10__cxxabiv117__class_type_infoEPPv
 .text._ZNSt9type_infoD0Ev
                0x0000179c       0x12 ../../external/gcc/LPC1768/libstdc++.a(tinfo.o)
                0x0000179c                _ZNSt9type_infoD0Ev
 .text._ZNKSt9type_info4nameEv
                0x000017ae        0xc ../../external/gcc/LPC1768/libstdc++.a(tinfo.o)
                0x000017ae                _ZNKSt9type_info4nameEv
 .text._ZNKSt9type_infoeqERKS_
                0x000017ba       0x34 ../../external/gcc/LPC1768/libstdc++.a(tinfo.o)
                0x000017ba                _ZNKSt9type_infoeqERKS_
 .text._ZNKSt9type_info10__do_catchEPKS_PPvj
                0x000017ee        0x4 ../../external/gcc/LPC1768/libstdc++.a(tinfo.o)
                0x000017ee                _ZNKSt9type_info10__do_catchEPKS_PPvj
 .text.__cxa_vec_ctor
                0x000017f2       0x26 ../../external/gcc/LPC1768/libstdc++.a(vec.o)
                0x000017f2                __cxa_vec_ctor
 .text.__aeabi_vec_ctor_nocookie_nodtor
                0x00001818       0x12 ../../external/gcc/LPC1768/libstdc++.a(vec.o)
                0x00001818                __aeabi_vec_ctor_nocookie_nodtor
 .text._ZN10__cxxabiv112_GLOBAL__N_111contained_pENS_17__class_type_info10__sub_kindE
                0x0000182a        0xa ../../external/gcc/LPC1768/libstdc++.a(vmi_class_type_info.o)
 .text._ZN10__cxxabiv112_GLOBAL__N_19virtual_pENS_17__class_type_info10__sub_kindE
                0x00001834        0x6 ../../external/gcc/LPC1768/libstdc++.a(vmi_class_type_info.o)
 .text._ZN10__cxxabiv112_GLOBAL__N_114adjust_pointerIvEEPKT_PKvi
                0x0000183a        0x4 ../../external/gcc/LPC1768/libstdc++.a(vmi_class_type_info.o)
 .text._ZN10__cxxabiv112_GLOBAL__N_115convert_to_baseEPKvbi
                0x0000183e        0xc ../../external/gcc/LPC1768/libstdc++.a(vmi_class_type_info.o)
 *fill*         0x0000184a        0x2 00
 .text._ZN10__cxxabiv121__vmi_class_type_infoD2Ev
                0x0000184c       0x14 ../../external/gcc/LPC1768/libstdc++.a(vmi_class_type_info.o)
                0x0000184c                _ZN10__cxxabiv121__vmi_class_type_infoD1Ev
                0x0000184c                _ZN10__cxxabiv121__vmi_class_type_infoD2Ev
 .text._ZN10__cxxabiv121__vmi_class_type_infoD0Ev
                0x00001860       0x12 ../../external/gcc/LPC1768/libstdc++.a(vmi_class_type_info.o)
                0x00001860                _ZN10__cxxabiv121__vmi_class_type_infoD0Ev
 .text._ZNK10__cxxabiv122__base_class_type_info14__is_virtual_pEv
                0x00001872        0x8 ../../external/gcc/LPC1768/libstdc++.a(vmi_class_type_info.o)
                0x00001872                _ZNK10__cxxabiv122__base_class_type_info14__is_virtual_pEv
 .text._ZNK10__cxxabiv122__base_class_type_info13__is_public_pEv
                0x0000187a        0x8 ../../external/gcc/LPC1768/libstdc++.a(vmi_class_type_info.o)
                0x0000187a                _ZNK10__cxxabiv122__base_class_type_info13__is_public_pEv
 .text._ZNK10__cxxabiv122__base_class_type_info8__offsetEv
                0x00001882        0x6 ../../external/gcc/LPC1768/libstdc++.a(vmi_class_type_info.o)
                0x00001882                _ZNK10__cxxabiv122__base_class_type_info8__offsetEv
 .text._ZNK10__cxxabiv121__vmi_class_type_info20__do_find_public_srcEiPKvPKNS_17__class_type_infoES2_
                0x00001888       0x96 ../../external/gcc/LPC1768/libstdc++.a(vmi_class_type_info.o)
                0x00001888                _ZNK10__cxxabiv121__vmi_class_type_info20__do_find_public_srcEiPKvPKNS_17__class_type_infoES2_
 .text._ZNK10__cxxabiv121__vmi_class_type_info11__do_upcastEPKNS_17__class_type_infoEPKvRNS1_15__upcast_resultE
                0x0000191e      0x148 ../../external/gcc/LPC1768/libstdc++.a(vmi_class_type_info.o)
                0x0000191e                _ZNK10__cxxabiv121__vmi_class_type_info11__do_upcastEPKNS_17__class_type_infoEPKvRNS1_15__upcast_resultE
 .text._ZNK10__cxxabiv121__vmi_class_type_info12__do_dyncastEiNS_17__class_type_info10__sub_kindEPKS1_PKvS4_S6_RNS1_16__dyncast_resultE
                0x00001a66      0x2e0 ../../external/gcc/LPC1768/libstdc++.a(vmi_class_type_info.o)
                0x00001a66                _ZNK10__cxxabiv121__vmi_class_type_info12__do_dyncastEiNS_17__class_type_info10__sub_kindEPKS1_PKvS4_S6_RNS1_16__dyncast_resultE
 .text._ZN10__cxxabiv111__terminateEPFvvE
                0x00001d46        0x8 ../../external/gcc/LPC1768/libstdc++.a(eh_terminate.o)
                0x00001d46                _ZN10__cxxabiv111__terminateEPFvvE
 *fill*         0x00001d4e        0x2 00
 .text._ZSt9terminatev
                0x00001d50       0x10 ../../external/gcc/LPC1768/libstdc++.a(eh_terminate.o)
                0x00001d50                _ZSt9terminatev
 .text._ZN9__gnu_cxx27__verbose_terminate_handlerEv
                0x00001d60       0x90 ../../external/gcc/LPC1768/libstdc++.a(vterminate.o)
                0x00001d60                _ZN9__gnu_cxx27__verbose_terminate_handlerEv
 .text          0x00001df0     0x26a4 ../../external/gcc/LPC1768/libstdc++.a(cp-demangle.o)
                0x000043b4                __cxa_demangle
                0x00004470                __gcclibcxx_demangle_callback
 .text.__cxa_current_exception_type
                0x00004494       0x1a ../../external/gcc/LPC1768/libstdc++.a(eh_type.o)
                0x00004494                __cxa_current_exception_type
 *fill*         0x000044ae        0x2 00
 .text.__cxa_get_globals
                0x000044b0        0x8 ../../external/gcc/LPC1768/libstdc++.a(eh_globals.o)
                0x000044b0                __cxa_get_globals
 .text.scalbn   0x000044b8       0xf8 ../../external/gcc/LPC1768/libm.a(lib_a-s_scalbn.o)
                0x000044b8                scalbn
 .text.copysign
                0x000045b0       0x10 ../../external/gcc/LPC1768/libm.a(lib_a-s_copysign.o)
                0x000045b0                copysign
 .text          0x000045c0      0x370 /media/6aafac43-5450-453e-a142-f588400933c0/Sandbox/arm/bin/../lib/gcc/arm-none-eabi/4.5.2/thumb2/libgcc.a(_arm_addsubdf3.o)
                0x000045c0                __aeabi_drsub
                0x000045c8                __aeabi_dsub
                0x000045c8                __subdf3
                0x000045cc                __adddf3
                0x000045cc                __aeabi_dadd
                0x00004844                __aeabi_ui2d
                0x00004844                __floatunsidf
                0x00004864                __floatsidf
                0x00004864                __aeabi_i2d
                0x00004888                __extendsfdf2
                0x00004888                __aeabi_f2d
                0x000048c4                __aeabi_ul2d
                0x000048c4                __floatundidf
                0x000048d4                __floatdidf
                0x000048d4                __aeabi_l2d
 .text          0x00004930      0x424 /media/6aafac43-5450-453e-a142-f588400933c0/Sandbox/arm/bin/../lib/gcc/arm-none-eabi/4.5.2/thumb2/libgcc.a(_arm_muldivdf3.o)
                0x00004930                __aeabi_dmul
                0x00004930                __muldf3
                0x00004b84                __aeabi_ddiv
                0x00004b84                __divdf3
 .text          0x00004d54       0x50 /media/6aafac43-5450-453e-a142-f588400933c0/Sandbox/arm/bin/../lib/gcc/arm-none-eabi/4.5.2/thumb2/libgcc.a(_arm_fixdfsi.o)
                0x00004d54                __fixdfsi
                0x00004d54                __aeabi_d2iz
 .text          0x00004da4       0xa0 /media/6aafac43-5450-453e-a142-f588400933c0/Sandbox/arm/bin/../lib/gcc/arm-none-eabi/4.5.2/thumb2/libgcc.a(_arm_truncdfsf2.o)
                0x00004da4                __aeabi_d2f
                0x00004da4                __truncdfsf2
 .text          0x00004e44      0x21c /media/6aafac43-5450-453e-a142-f588400933c0/Sandbox/arm/bin/../lib/gcc/arm-none-eabi/4.5.2/thumb2/libgcc.a(_arm_addsubsf3.o)
                0x00004e44                __aeabi_frsub
                0x00004e4c                __subsf3
                0x00004e4c                __aeabi_fsub
                0x00004e50                __aeabi_fadd
                0x00004e50                __addsf3
                0x00004fb0                __aeabi_ui2f
                0x00004fb0                __floatunsisf
                0x00004fb8                __aeabi_i2f
                0x00004fb8                __floatsisf
                0x00004fd4                __floatundisf
                0x00004fd4                __aeabi_ul2f
                0x00004fe4                __floatdisf
                0x00004fe4                __aeabi_l2f
 .text          0x00005060      0x2a0 /media/6aafac43-5450-453e-a142-f588400933c0/Sandbox/arm/bin/../lib/gcc/arm-none-eabi/4.5.2/thumb2/libgcc.a(_arm_muldivsf3.o)
                0x00005060                __mulsf3
                0x00005060                __aeabi_fmul
                0x000051c8                __divsf3
                0x000051c8                __aeabi_fdiv
 .text          0x00005300       0xec /media/6aafac43-5450-453e-a142-f588400933c0/Sandbox/arm/bin/../lib/gcc/arm-none-eabi/4.5.2/thumb2/libgcc.a(_arm_cmpsf2.o)
                0x00005300                __gtsf2
                0x00005300                __gesf2
                0x00005308                __lesf2
                0x00005308                __ltsf2
                0x00005310                __nesf2
                0x00005310                __eqsf2
                0x00005310                __cmpsf2
                0x00005370                __aeabi_cfrcmple
                0x00005378                __aeabi_cfcmple
                0x00005378                __aeabi_cfcmpeq
                0x00005388                __aeabi_fcmpeq
                0x0000539c                __aeabi_fcmplt
                0x000053b0                __aeabi_fcmple
                0x000053c4                __aeabi_fcmpge
                0x000053d8                __aeabi_fcmpgt
 .text.abort    0x000053ec        0xe ../../external/gcc/LPC1768/libc.a(lib_a-abort.o)
                0x000053ec                abort
 .text.__aeabi_memcpy
                0x000053fa        0x4 ../../external/gcc/LPC1768/libc.a(lib_a-aeabi_memcpy.o)
                0x000053fa                __aeabi_memcpy
                0x000053fa                __aeabi_memcpy4
                0x000053fa                __aeabi_memcpy8
 .text.__aeabi_assert
                0x000053fe        0xe ../../external/gcc/LPC1768/libc.a(lib_a-clibabi_assert.o)
                0x000053fe                __aeabi_assert
 .text.setup_aeabi_stdio
                0x0000540c       0x28 ../../external/gcc/LPC1768/libc.a(lib_a-clibabi_stdio.o)
 .text.__cxa_atexit
                0x00005434       0x16 ../../external/gcc/LPC1768/libc.a(lib_a-cxa_atexit.o)
                0x00005434                __cxa_atexit
 *fill*         0x0000544a        0x2 00
 .text._fclose_r
                0x0000544c       0xac ../../external/gcc/LPC1768/libc.a(lib_a-fclose.o)
                0x0000544c                _fclose_r
 .text.fclose   0x000054f8       0x10 ../../external/gcc/LPC1768/libc.a(lib_a-fclose.o)
                0x000054f8                fclose
 .text._fflush_r
                0x00005508      0x174 ../../external/gcc/LPC1768/libc.a(lib_a-fflush.o)
                0x00005508                _fflush_r
 .text.fflush   0x0000567c       0x24 ../../external/gcc/LPC1768/libc.a(lib_a-fflush.o)
                0x0000567c                fflush
 .text._fgetc_r
                0x000056a0       0x58 ../../external/gcc/LPC1768/libc.a(lib_a-fgetc.o)
                0x000056a0                _fgetc_r
 .text.fgetc    0x000056f8       0x10 ../../external/gcc/LPC1768/libc.a(lib_a-fgetc.o)
                0x000056f8                fgetc
 .text._cleanup_r
                0x00005708        0xc ../../external/gcc/LPC1768/libc.a(lib_a-findfp.o)
                0x00005708                _cleanup_r
 .text.std.clone.0
                0x00005714       0x48 ../../external/gcc/LPC1768/libc.a(lib_a-findfp.o)
 .text.__sfmoreglue
                0x0000575c       0x28 ../../external/gcc/LPC1768/libc.a(lib_a-findfp.o)
                0x0000575c                __sfmoreglue
 .text.__sinit  0x00005784       0x5c ../../external/gcc/LPC1768/libc.a(lib_a-findfp.o)
                0x00005784                __sinit
 .text.__sfp    0x000057e0       0x78 ../../external/gcc/LPC1768/libc.a(lib_a-findfp.o)
                0x000057e0                __sfp
 .text.__sfp_lock_acquire
                0x00005858        0x2 ../../external/gcc/LPC1768/libc.a(lib_a-findfp.o)
                0x00005858                __sfp_lock_acquire
 .text.__sfp_lock_release
                0x0000585a        0x2 ../../external/gcc/LPC1768/libc.a(lib_a-findfp.o)
                0x0000585a                __sfp_lock_release
 .text._fopen_r
                0x0000585c       0x84 ../../external/gcc/LPC1768/libc.a(lib_a-fopen.o)
                0x0000585c                _fopen_r
 .text.fopen    0x000058e0       0x14 ../../external/gcc/LPC1768/libc.a(lib_a-fopen.o)
                0x000058e0                fopen
 .text.fprintf  0x000058f4       0x24 ../../external/gcc/LPC1768/libc.a(lib_a-fprintf.o)
                0x000058f4                fprintf
 .text._fputc_r
                0x00005918       0x48 ../../external/gcc/LPC1768/libc.a(lib_a-fputc.o)
                0x00005918                _fputc_r
 .text.fputc    0x00005960       0x14 ../../external/gcc/LPC1768/libc.a(lib_a-fputc.o)
                0x00005960                fputc
 .text._fputs_r
                0x00005974       0x74 ../../external/gcc/LPC1768/libc.a(lib_a-fputs.o)
                0x00005974                _fputs_r
 .text.fputs    0x000059e8       0x14 ../../external/gcc/LPC1768/libc.a(lib_a-fputs.o)
                0x000059e8                fputs
 .text._malloc_trim_r
                0x000059fc       0x94 ../../external/gcc/LPC1768/libc.a(lib_a-freer.o)
                0x000059fc                _malloc_trim_r
 .text._free_r  0x00005a90      0x180 ../../external/gcc/LPC1768/libc.a(lib_a-freer.o)
                0x00005a90                _free_r
 .text._fseek_r
                0x00005c10      0x2cc ../../external/gcc/LPC1768/libc.a(lib_a-fseek.o)
                0x00005c10                _fseek_r
 .text._fstat_r
                0x00005edc       0x24 ../../external/gcc/LPC1768/libc.a(lib_a-fstatr.o)
                0x00005edc                _fstat_r
 .text.__sfvwrite_r
                0x00005f00      0x294 ../../external/gcc/LPC1768/libc.a(lib_a-fvwrite.o)
                0x00005f00                __sfvwrite_r
 .text._fwalk   0x00006194       0x44 ../../external/gcc/LPC1768/libc.a(lib_a-fwalk.o)
                0x00006194                _fwalk
 .text._fwalk_reent
                0x000061d8       0x48 ../../external/gcc/LPC1768/libc.a(lib_a-fwalk.o)
                0x000061d8                _fwalk_reent
 .text._fwrite_r
                0x00006220       0x90 ../../external/gcc/LPC1768/libc.a(lib_a-fwrite.o)
                0x00006220                _fwrite_r
 .text.fwrite   0x000062b0       0x20 ../../external/gcc/LPC1768/libc.a(lib_a-fwrite.o)
                0x000062b0                fwrite
 .text.__libc_init_array
                0x000062d0       0x48 ../../external/gcc/LPC1768/libc.a(lib_a-init.o)
                0x000062d0                __libc_init_array
 .text.__smakebuf_r
                0x00006318       0xdc ../../external/gcc/LPC1768/libc.a(lib_a-makebuf.o)
                0x00006318                __smakebuf_r
 .text.malloc   0x000063f4       0x10 ../../external/gcc/LPC1768/libc.a(lib_a-malloc.o)
                0x000063f4                malloc
 .text.free     0x00006404       0x10 ../../external/gcc/LPC1768/libc.a(lib_a-malloc.o)
                0x00006404                free
 .text._malloc_r
                0x00006414      0x408 ../../external/gcc/LPC1768/libc.a(lib_a-mallocr.o)
                0x00006414                _malloc_r
 .text.memchr   0x0000681c       0x1c ../../external/gcc/LPC1768/libc.a(lib_a-memchr.o)
                0x0000681c                memchr
 .text.memcmp   0x00006838       0x1c ../../external/gcc/LPC1768/libc.a(lib_a-memcmp.o)
                0x00006838                memcmp
 .text.memcpy   0x00006854       0x16 ../../external/gcc/LPC1768/libc.a(lib_a-memcpy.o)
                0x00006854                memcpy
 .text.memmove  0x0000686a       0x30 ../../external/gcc/LPC1768/libc.a(lib_a-memmove.o)
                0x0000686a                memmove
 .text.memset   0x0000689a       0x10 ../../external/gcc/LPC1768/libc.a(lib_a-memset.o)
                0x0000689a                memset
 .text.__malloc_lock
                0x000068aa        0x2 ../../external/gcc/LPC1768/libc.a(lib_a-mlock.o)
                0x000068aa                __malloc_lock
 .text.__malloc_unlock
                0x000068ac        0x2 ../../external/gcc/LPC1768/libc.a(lib_a-mlock.o)
                0x000068ac                __malloc_unlock
 *fill*         0x000068ae        0x2 00
 .text._open_r  0x000068b0       0x28 ../../external/gcc/LPC1768/libc.a(lib_a-openr.o)
                0x000068b0                _open_r
 .text._putc_r  0x000068d8       0x80 ../../external/gcc/LPC1768/libc.a(lib_a-putc.o)
                0x000068d8                _putc_r
 .text._puts_r  0x00006958       0x70 ../../external/gcc/LPC1768/libc.a(lib_a-puts.o)
                0x00006958                _puts_r
 .text.puts     0x000069c8       0x10 ../../external/gcc/LPC1768/libc.a(lib_a-puts.o)
                0x000069c8                puts
 .text.realloc  0x000069d8       0x14 ../../external/gcc/LPC1768/libc.a(lib_a-realloc.o)
                0x000069d8                realloc
 .text._realloc_r
                0x000069ec      0x2f8 ../../external/gcc/LPC1768/libc.a(lib_a-reallocr.o)
                0x000069ec                _realloc_r
 .text.lflush   0x00006ce4       0x12 ../../external/gcc/LPC1768/libc.a(lib_a-refill.o)
 *fill*         0x00006cf6        0x2 00
 .text.__srefill_r
                0x00006cf8      0x118 ../../external/gcc/LPC1768/libc.a(lib_a-refill.o)
                0x00006cf8                __srefill_r
 .text.__srget_r
                0x00006e10       0x58 ../../external/gcc/LPC1768/libc.a(lib_a-rget.o)
                0x00006e10                __srget_r
 .text._sbrk_r  0x00006e68       0x24 ../../external/gcc/LPC1768/libc.a(lib_a-sbrkr.o)
                0x00006e68                _sbrk_r
 .text.setbuf   0x00006e8c        0xe ../../external/gcc/LPC1768/libc.a(lib_a-setbuf.o)
                0x00006e8c                setbuf
 *fill*         0x00006e9a        0x2 00
 .text.setvbuf  0x00006e9c      0x120 ../../external/gcc/LPC1768/libc.a(lib_a-setvbuf.o)
                0x00006e9c                setvbuf
 .text._raise_r
                0x00006fbc       0x56 ../../external/gcc/LPC1768/libc.a(lib_a-signal.o)
                0x00006fbc                _raise_r
 *fill*         0x00007012        0x2 00
 .text.raise    0x00007014       0x10 ../../external/gcc/LPC1768/libc.a(lib_a-signal.o)
                0x00007014                raise
 .text._kill_r  0x00007024       0x24 ../../external/gcc/LPC1768/libc.a(lib_a-signalr.o)
                0x00007024                _kill_r
 .text._getpid_r
                0x00007048        0x4 ../../external/gcc/LPC1768/libc.a(lib_a-signalr.o)
                0x00007048                _getpid_r
 .text.sprintf  0x0000704c       0x48 ../../external/gcc/LPC1768/libc.a(lib_a-sprintf.o)
                0x0000704c                sprintf
 .text.sscanf   0x00007094       0x54 ../../external/gcc/LPC1768/libc.a(lib_a-sscanf.o)
                0x00007094                sscanf
 .text.__sread  0x000070e8       0x22 ../../external/gcc/LPC1768/libc.a(lib_a-stdio.o)
                0x000070e8                __sread
 .text.__seofread
                0x0000710a        0x4 ../../external/gcc/LPC1768/libc.a(lib_a-stdio.o)
                0x0000710a                __seofread
 .text.__swrite
                0x0000710e       0x3a ../../external/gcc/LPC1768/libc.a(lib_a-stdio.o)
                0x0000710e                __swrite
 .text.__sseek  0x00007148       0x26 ../../external/gcc/LPC1768/libc.a(lib_a-stdio.o)
                0x00007148                __sseek
 .text.__sclose
                0x0000716e        0x8 ../../external/gcc/LPC1768/libc.a(lib_a-stdio.o)
                0x0000716e                __sclose
 .text.strcmp   0x00007176       0x16 ../../external/gcc/LPC1768/libc.a(lib_a-strcmp.o)
                0x00007176                strcmp
 .text.strcpy   0x0000718c       0x10 ../../external/gcc/LPC1768/libc.a(lib_a-strcpy.o)
                0x0000718c                strcpy
 .text.strlen   0x0000719c       0x10 ../../external/gcc/LPC1768/libc.a(lib_a-strlen.o)
                0x0000719c                strlen
 .text.strncmp  0x000071ac       0x2a ../../external/gcc/LPC1768/libc.a(lib_a-strncmp.o)
                0x000071ac                strncmp
 *fill*         0x000071d6        0x2 00
 .text._strtol_r
                0x000071d8      0x124 ../../external/gcc/LPC1768/libc.a(lib_a-strtol.o)
                0x000071d8                _strtol_r
 .text.strtol   0x000072fc       0x1c ../../external/gcc/LPC1768/libc.a(lib_a-strtol.o)
                0x000072fc                strtol
 .text._svfprintf_r
                0x00007318     0x1100 ../../external/gcc/LPC1768/libc.a(lib_a-svfprintf.o)
                0x00007318                _svfprintf_r
 .text.__ssvfscanf_r
                0x00008418      0xbdc ../../external/gcc/LPC1768/libc.a(lib_a-svfscanf.o)
                0x00008418                __ssvfscanf_r
 .text.write    0x00008ff4       0x1c ../../external/gcc/LPC1768/libc.a(lib_a-syswrite.o)
                0x00008ff4                write
 .text._vfprintf_r
                0x00009010     0x11cc ../../external/gcc/LPC1768/libc.a(lib_a-vfprintf.o)
                0x00009010                _vfprintf_r
 .text.__swbuf_r
                0x0000a1dc       0xcc ../../external/gcc/LPC1768/libc.a(lib_a-wbuf.o)
                0x0000a1dc                __swbuf_r
 .text._write_r
                0x0000a2a8       0x28 ../../external/gcc/LPC1768/libc.a(lib_a-writer.o)
                0x0000a2a8                _write_r
 .text.__swsetup_r
                0x0000a2d0       0xdc ../../external/gcc/LPC1768/libc.a(lib_a-wsetup.o)
                0x0000a2d0                __swsetup_r
 .text.__register_exitproc
                0x0000a3ac       0xc0 ../../external/gcc/LPC1768/libc.a(lib_a-__atexit.o)
                0x0000a3ac                __register_exitproc
 .text.__assert_func
                0x0000a46c       0x38 ../../external/gcc/LPC1768/libc.a(lib_a-assert.o)
                0x0000a46c                __assert_func
 .text.__assert
                0x0000a4a4        0xa ../../external/gcc/LPC1768/libc.a(lib_a-assert.o)
                0x0000a4a4                __assert
 *fill*         0x0000a4ae        0x2 00
 .text._close_r
                0x0000a4b0       0x24 ../../external/gcc/LPC1768/libc.a(lib_a-closer.o)
                0x0000a4b0                _close_r
 .text.quorem   0x0000a4d4      0x124 ../../external/gcc/LPC1768/libc.a(lib_a-dtoa.o)
 .text._dtoa_r  0x0000a5f8      0xc08 ../../external/gcc/LPC1768/libc.a(lib_a-dtoa.o)
                0x0000a5f8                _dtoa_r
 .text.fiprintf
                0x0000b200       0x24 ../../external/gcc/LPC1768/libc.a(lib_a-fiprintf.o)
                0x0000b200                fiprintf
 .text.__sflags
                0x0000b224       0x64 ../../external/gcc/LPC1768/libc.a(lib_a-flags.o)
                0x0000b224                __sflags
 .text._isatty_r
                0x0000b288       0x24 ../../external/gcc/LPC1768/libc.a(lib_a-isattyr.o)
                0x0000b288                _isatty_r
 .text.iswspace
                0x0000b2ac       0x1c ../../external/gcc/LPC1768/libc.a(lib_a-iswspace.o)
                0x0000b2ac                iswspace
 .text.__locale_charset
                0x0000b2c8        0x8 ../../external/gcc/LPC1768/libc.a(lib_a-locale.o)
                0x0000b2c8                __locale_charset
 .text.__locale_mb_cur_max
                0x0000b2d0        0xc ../../external/gcc/LPC1768/libc.a(lib_a-locale.o)
                0x0000b2d0                __locale_mb_cur_max
 .text._localeconv_r
                0x0000b2dc        0x8 ../../external/gcc/LPC1768/libc.a(lib_a-locale.o)
                0x0000b2dc                _localeconv_r
 .text._lseek_r
                0x0000b2e4       0x28 ../../external/gcc/LPC1768/libc.a(lib_a-lseekr.o)
                0x0000b2e4                _lseek_r
 .text._mbrtowc_r
                0x0000b30c       0x54 ../../external/gcc/LPC1768/libc.a(lib_a-mbrtowc.o)
                0x0000b30c                _mbrtowc_r
 .text.__ascii_mbtowc
                0x0000b360       0x26 ../../external/gcc/LPC1768/libc.a(lib_a-mbtowc_r.o)
                0x0000b360                __ascii_mbtowc
 .text._Balloc  0x0000b386       0x62 ../../external/gcc/LPC1768/libc.a(lib_a-mprec.o)
                0x0000b386                _Balloc
 .text._Bfree   0x0000b3e8       0x2e ../../external/gcc/LPC1768/libc.a(lib_a-mprec.o)
                0x0000b3e8                _Bfree
 .text.__multadd
                0x0000b416       0x7c ../../external/gcc/LPC1768/libc.a(lib_a-mprec.o)
                0x0000b416                __multadd
 .text.__s2b    0x0000b492       0x7c ../../external/gcc/LPC1768/libc.a(lib_a-mprec.o)
                0x0000b492                __s2b
 .text.__hi0bits
                0x0000b50e       0x40 ../../external/gcc/LPC1768/libc.a(lib_a-mprec.o)
                0x0000b50e                __hi0bits
 .text.__lo0bits
                0x0000b54e       0x64 ../../external/gcc/LPC1768/libc.a(lib_a-mprec.o)
                0x0000b54e                __lo0bits
 .text.__i2b    0x0000b5b2       0x12 ../../external/gcc/LPC1768/libc.a(lib_a-mprec.o)
                0x0000b5b2                __i2b
 .text.__multiply
                0x0000b5c4      0x124 ../../external/gcc/LPC1768/libc.a(lib_a-mprec.o)
                0x0000b5c4                __multiply
 .text.__pow5mult
                0x0000b6e8       0xa4 ../../external/gcc/LPC1768/libc.a(lib_a-mprec.o)
                0x0000b6e8                __pow5mult
 .text.__lshift
                0x0000b78c       0x98 ../../external/gcc/LPC1768/libc.a(lib_a-mprec.o)
                0x0000b78c                __lshift
 .text.__mcmp   0x0000b824       0x3a ../../external/gcc/LPC1768/libc.a(lib_a-mprec.o)
                0x0000b824                __mcmp
 .text.__mdiff  0x0000b85e       0xc6 ../../external/gcc/LPC1768/libc.a(lib_a-mprec.o)
                0x0000b85e                __mdiff
 .text.__ulp    0x0000b924       0x40 ../../external/gcc/LPC1768/libc.a(lib_a-mprec.o)
                0x0000b924                __ulp
 .text.__b2d    0x0000b964       0xa4 ../../external/gcc/LPC1768/libc.a(lib_a-mprec.o)
                0x0000b964                __b2d
 .text.__d2b    0x0000ba08       0xbc ../../external/gcc/LPC1768/libc.a(lib_a-mprec.o)
                0x0000ba08                __d2b
 .text.__ratio  0x0000bac4       0x46 ../../external/gcc/LPC1768/libc.a(lib_a-mprec.o)
                0x0000bac4                __ratio
 .text.__copybits
                0x0000bb0a       0x32 ../../external/gcc/LPC1768/libc.a(lib_a-mprec.o)
                0x0000bb0a                __copybits
 .text.__any_on
                0x0000bb3c       0x4a ../../external/gcc/LPC1768/libc.a(lib_a-mprec.o)
                0x0000bb3c                __any_on
 *fill*         0x0000bb86        0x2 00
 .text._read_r  0x0000bb88       0x28 ../../external/gcc/LPC1768/libc.a(lib_a-readr.o)
                0x0000bb88                _read_r
 .text.__fpclassifyd
                0x0000bbb0       0x64 ../../external/gcc/LPC1768/libc.a(lib_a-s_fpclassify.o)
                0x0000bbb0                __fpclassifyd
 .text.__sccl   0x0000bc14       0x64 ../../external/gcc/LPC1768/libc.a(lib_a-sccl.o)
                0x0000bc14                __sccl
 .text.nanf     0x0000bc78        0x8 ../../external/gcc/LPC1768/libc.a(lib_a-sf_nan.o)
                0x0000bc78                nanf
 .text.match    0x0000bc80       0x2c ../../external/gcc/LPC1768/libc.a(lib_a-strtod.o)
 *fill*         0x0000bcac        0x4 00
 .text._strtod_r
                0x0000bcb0      0xbd8 ../../external/gcc/LPC1768/libc.a(lib_a-strtod.o)
                0x0000bcb0                _strtod_r
 .text._strtoll_r
                0x0000c888      0x16c ../../external/gcc/LPC1768/libc.a(lib_a-strtoll_r.o)
                0x0000c888                _strtoll_r
 .text._strtoul_r
                0x0000c9f4       0xfc ../../external/gcc/LPC1768/libc.a(lib_a-strtoul.o)
                0x0000c9f4                _strtoul_r
 .text._strtoull_r
                0x0000caf0      0x154 ../../external/gcc/LPC1768/libc.a(lib_a-strtoull_r.o)
                0x0000caf0                _strtoull_r
 .text.__ssprint_r
                0x0000cc44       0xf6 ../../external/gcc/LPC1768/libc.a(lib_a-svfiprintf.o)
                0x0000cc44                __ssprint_r
 .text._sungetc_r
                0x0000cd3a       0x7a ../../external/gcc/LPC1768/libc.a(lib_a-svfiscanf.o)
                0x0000cd3a                _sungetc_r
 .text.__ssrefill_r
                0x0000cdb4       0x3a ../../external/gcc/LPC1768/libc.a(lib_a-svfiscanf.o)
                0x0000cdb4                __ssrefill_r
 .text._sfread_r
                0x0000cdee       0x70 ../../external/gcc/LPC1768/libc.a(lib_a-svfiscanf.o)
                0x0000cdee                _sfread_r
 .text.__submore
                0x0000ce5e       0x78 ../../external/gcc/LPC1768/libc.a(lib_a-ungetc.o)
                0x0000ce5e                __submore
 .text.__sprint_r
                0x0000ced6       0x74 ../../external/gcc/LPC1768/libc.a(lib_a-vfiprintf.o)
                0x0000ced6                __sprint_r
 *fill*         0x0000cf4a        0x2 00
 .text._vfiprintf_r
                0x0000cf4c      0x914 ../../external/gcc/LPC1768/libc.a(lib_a-vfiprintf.o)
                0x0000cf4c                _vfiprintf_r
 .text._calloc_r
                0x0000d860       0x58 ../../external/gcc/LPC1768/libc.a(lib_a-callocr.o)
                0x0000d860                _calloc_r
 .text._fputwc_r
                0x0000d8b8       0xbe ../../external/gcc/LPC1768/libc.a(lib_a-fputwc.o)
                0x0000d8b8                _fputwc_r
 .text.rshift   0x0000d976       0x6c ../../external/gcc/LPC1768/libc.a(lib_a-gdtoa-gethex.o)
 *fill*         0x0000d9e2        0x2 00
 .text.htinit.clone.0
                0x0000d9e4       0x1c ../../external/gcc/LPC1768/libc.a(lib_a-gdtoa-gethex.o)
 .text.__hexdig_init
                0x0000da00       0x2c ../../external/gcc/LPC1768/libc.a(lib_a-gdtoa-gethex.o)
                0x0000da00                __hexdig_init
 .text.__gethex
                0x0000da2c      0x460 ../../external/gcc/LPC1768/libc.a(lib_a-gdtoa-gethex.o)
                0x0000da2c                __gethex
 .text.L_shift  0x0000de8c       0x34 ../../external/gcc/LPC1768/libc.a(lib_a-gdtoa-hexnan.o)
 .text.__hexnan
                0x0000dec0      0x11c ../../external/gcc/LPC1768/libc.a(lib_a-gdtoa-hexnan.o)
                0x0000dec0                __hexnan
 .text._wcrtomb_r
                0x0000dfdc       0x50 ../../external/gcc/LPC1768/libc.a(lib_a-wcrtomb.o)
                0x0000dfdc                _wcrtomb_r
 .text.__ascii_wctomb
                0x0000e02c       0x1a ../../external/gcc/LPC1768/libc.a(lib_a-wctomb_r.o)
                0x0000e02c                __ascii_wctomb
 *fill*         0x0000e046        0x2 00
 .text          0x0000e048      0x278 /media/6aafac43-5450-453e-a142-f588400933c0/Sandbox/arm/bin/../lib/gcc/arm-none-eabi/4.5.2/thumb2/libgcc.a(_udivsi3.o)
                0x0000e048                __udivsi3
                0x0000e048                __aeabi_uidiv
                0x0000e2a4                __aeabi_uidivmod
 .text          0x0000e2c0      0x2b0 /media/6aafac43-5450-453e-a142-f588400933c0/Sandbox/arm/bin/../lib/gcc/arm-none-eabi/4.5.2/thumb2/libgcc.a(_divsi3.o)
                0x0000e2c0                __aeabi_idiv
                0x0000e2c0                __divsi3
                0x0000e554                __aeabi_idivmod
 .text          0x0000e570        0x4 /media/6aafac43-5450-453e-a142-f588400933c0/Sandbox/arm/bin/../lib/gcc/arm-none-eabi/4.5.2/thumb2/libgcc.a(_dvmd_tls.o)
                0x0000e570                __aeabi_ldiv0
                0x0000e570                __aeabi_idiv0
 .text          0x0000e574      0x110 /media/6aafac43-5450-453e-a142-f588400933c0/Sandbox/arm/bin/../lib/gcc/arm-none-eabi/4.5.2/thumb2/libgcc.a(_arm_cmpdf2.o)
                0x0000e574                __gtdf2
                0x0000e574                __gedf2
                0x0000e57c                __ltdf2
                0x0000e57c                __ledf2
                0x0000e584                __cmpdf2
                0x0000e584                __eqdf2
                0x0000e584                __nedf2
                0x0000e600                __aeabi_cdrcmple
                0x0000e610                __aeabi_cdcmple
                0x0000e610                __aeabi_cdcmpeq
                0x0000e620                __aeabi_dcmpeq
                0x0000e634                __aeabi_dcmplt
                0x0000e648                __aeabi_dcmple
                0x0000e65c                __aeabi_dcmpge
                0x0000e670                __aeabi_dcmpgt
 .text          0x0000e684       0x40 /media/6aafac43-5450-453e-a142-f588400933c0/Sandbox/arm/bin/../lib/gcc/arm-none-eabi/4.5.2/thumb2/libgcc.a(_arm_fixunsdfsi.o)
                0x0000e684                __fixunsdfsi
                0x0000e684                __aeabi_d2uiz
 .text          0x0000e6c4       0x2c /media/6aafac43-5450-453e-a142-f588400933c0/Sandbox/arm/bin/../lib/gcc/arm-none-eabi/4.5.2/thumb2/libgcc.a(_aeabi_uldivmod.o)
                0x0000e6c4                __aeabi_uldivmod
 .text          0x0000e6f0       0x60 /media/6aafac43-5450-453e-a142-f588400933c0/Sandbox/arm/bin/../lib/gcc/arm-none-eabi/4.5.2/thumb2/libgcc.a(bpabi.o)
                0x0000e6f0                __gnu_ldivmod_helper
                0x0000e720                __gnu_uldivmod_helper
 .text          0x0000e750      0x360 /media/6aafac43-5450-453e-a142-f588400933c0/Sandbox/arm/bin/../lib/gcc/arm-none-eabi/4.5.2/thumb2/libgcc.a(_divdi3.o)
                0x0000e750                __divdi3
 .text          0x0000eab0      0x308 /media/6aafac43-5450-453e-a142-f588400933c0/Sandbox/arm/bin/../lib/gcc/arm-none-eabi/4.5.2/thumb2/libgcc.a(_udivdi3.o)
                0x0000eab0                __udivdi3
 *(.gnu.linkonce.t.*)
 *(.glue_7)
 .glue_7        0x00000000        0x0 linker stubs
 *(.glue_7t)
 .glue_7t       0x00000000        0x0 linker stubs
 *(.gcc_except_table)
 *(.rodata .rodata*)
 .rodata.str1.4
                0x0000edb8       0x84 ../../src/syscalls.o
 .rodata._ZZL35HandleQueryTransferMemoryMapCommandP9SMriStateE12MemoryMapXML
                0x0000ee3c      0x1fc ../../mri/mri.ar(mri.o)
 .rodata._ZZL26HandleQueryTransferCommandP9SMriStateE15MemoryMapObject
                0x0000f038        0xb ../../mri/mri.ar(mri.o)
 .rodata._ZL15NibbleToHexChar
                0x0000f043       0x10 ../../mri/mri.ar(mri.o)
 *fill*         0x0000f053        0x1 00
 .rodata._ZZL16HandleGDBCommandP9SMriStateE12CommandTable
                0x0000f054       0x50 ../../mri/mri.ar(mri.o)
 .rodata._ZZL26DetermineCauseOfDebugEventvE21DebugEventToSignalMap
                0x0000f0a4       0x20 ../../mri/mri.ar(mri.o)
 .rodata.str1.1
                0x0000f0c4       0x78 ../../mri/mri.ar(mri.o)
 .rodata._ZZL18HandleQueryCommandP9SMriStateE17qSupportedCommand
                0x0000f13c        0xa ../../mri/mri.ar(mri.o)
 .rodata._ZZL35HandleQueryTransferMemoryMapCommandP9SMriStateE11ReadCommand
                0x0000f146        0x5 ../../mri/mri.ar(mri.o)
 .rodata._ZZL18HandleQueryCommandP9SMriStateE12qXferCommand
                0x0000f14b        0x5 ../../mri/mri.ar(mri.o)
 .rodata._ZZL27HandleQuerySupportedCommandP9SMriStateE20QuerySupportResponse
                0x0000f150       0x23 ../../mri/mri.ar(mri.o)
 *fill*         0x0000f173        0x5 00
 .rodata._ZTVN10__cxxabiv117__class_type_infoE
                0x0000f178       0x30 ../../external/gcc/LPC1768/libstdc++.a(class_type_info.o)
                0x0000f178                _ZTVN10__cxxabiv117__class_type_infoE
 .rodata._ZTIN10__cxxabiv117__class_type_infoE
                0x0000f1a8        0xc ../../external/gcc/LPC1768/libstdc++.a(class_type_info.o)
                0x0000f1a8                _ZTIN10__cxxabiv117__class_type_infoE
 .rodata._ZTSN10__cxxabiv117__class_type_infoE
                0x0000f1b4       0x22 ../../external/gcc/LPC1768/libstdc++.a(class_type_info.o)
                0x0000f1b4                _ZTSN10__cxxabiv117__class_type_infoE
 .rodata.str1.1
                0x0000f1d6       0x1c ../../external/gcc/LPC1768/libstdc++.a(pure.o)
 *fill*         0x0000f1f2        0x6 00
 .rodata._ZTVN10__cxxabiv120__si_class_type_infoE
                0x0000f1f8       0x30 ../../external/gcc/LPC1768/libstdc++.a(si_class_type_info.o)
                0x0000f1f8                _ZTVN10__cxxabiv120__si_class_type_infoE
 .rodata._ZTIN10__cxxabiv120__si_class_type_infoE
                0x0000f228        0xc ../../external/gcc/LPC1768/libstdc++.a(si_class_type_info.o)
                0x0000f228                _ZTIN10__cxxabiv120__si_class_type_infoE
 .rodata._ZTSN10__cxxabiv120__si_class_type_infoE
                0x0000f234       0x25 ../../external/gcc/LPC1768/libstdc++.a(si_class_type_info.o)
                0x0000f234                _ZTSN10__cxxabiv120__si_class_type_infoE
 *fill*         0x0000f259        0x3 00
 .rodata._ZTISt9type_info
                0x0000f25c        0x8 ../../external/gcc/LPC1768/libstdc++.a(tinfo.o)
                0x0000f25c                _ZTISt9type_info
 .rodata._ZTSSt9type_info
                0x0000f264        0xd ../../external/gcc/LPC1768/libstdc++.a(tinfo.o)
                0x0000f264                _ZTSSt9type_info
 *fill*         0x0000f271        0x7 00
 .rodata._ZTVSt9type_info
                0x0000f278       0x20 ../../external/gcc/LPC1768/libstdc++.a(tinfo.o)
                0x0000f278                _ZTVSt9type_info
 .rodata._ZTIN10__cxxabiv121__vmi_class_type_infoE
                0x0000f298        0xc ../../external/gcc/LPC1768/libstdc++.a(vmi_class_type_info.o)
                0x0000f298                _ZTIN10__cxxabiv121__vmi_class_type_infoE
 .rodata._ZTSN10__cxxabiv121__vmi_class_type_infoE
                0x0000f2a4       0x26 ../../external/gcc/LPC1768/libstdc++.a(vmi_class_type_info.o)
                0x0000f2a4                _ZTSN10__cxxabiv121__vmi_class_type_infoE
 *fill*         0x0000f2ca        0x6 00
 .rodata._ZTVN10__cxxabiv121__vmi_class_type_infoE
                0x0000f2d0       0x30 ../../external/gcc/LPC1768/libstdc++.a(vmi_class_type_info.o)
                0x0000f2d0                _ZTVN10__cxxabiv121__vmi_class_type_infoE
 .rodata.str1.1
                0x0000f300       0x80 ../../external/gcc/LPC1768/libstdc++.a(vterminate.o)
 .rodata        0x0000f380      0x694 ../../external/gcc/LPC1768/libstdc++.a(cp-demangle.o)
 .rodata.str1.1
                0x0000fa14      0x552 ../../external/gcc/LPC1768/libstdc++.a(cp-demangle.o)
                                0x601 (size before relaxing)
 .rodata.__aeabi_ctype_table_C
                0x0000ff66      0x101 ../../external/gcc/LPC1768/libc.a(lib_a-clibabi_ctype.o)
                0x0000ff66                __aeabi_ctype_table_
                0x0000ff66                __aeabi_ctype_table_C
 *fill*         0x00010067        0x1 00
 .rodata.__sf_fake_stdin
                0x00010068       0x20 ../../external/gcc/LPC1768/libc.a(lib_a-findfp.o)
                0x00010068                __sf_fake_stdin
 .rodata.__sf_fake_stdout
                0x00010088       0x20 ../../external/gcc/LPC1768/libc.a(lib_a-findfp.o)
                0x00010088                __sf_fake_stdout
 .rodata.__sf_fake_stderr
                0x000100a8       0x20 ../../external/gcc/LPC1768/libc.a(lib_a-findfp.o)
                0x000100a8                __sf_fake_stderr
 .rodata.str1.1
                0x000100c8        0x2 ../../external/gcc/LPC1768/libc.a(lib_a-impure.o)
 *fill*         0x000100ca        0x2 00
 .rodata._global_impure_ptr
                0x000100cc        0x4 ../../external/gcc/LPC1768/libc.a(lib_a-impure.o)
                0x000100cc                _global_impure_ptr
 .rodata.str1.1
                0x00000000        0x2 ../../external/gcc/LPC1768/libc.a(lib_a-puts.o)
 .rodata.zeroes.6599
                0x000100d0       0x10 ../../external/gcc/LPC1768/libc.a(lib_a-svfprintf.o)
 .rodata.str1.1
                0x000100e0       0x34 ../../external/gcc/LPC1768/libc.a(lib_a-svfprintf.o)
 .rodata.blanks.6598
                0x00010114       0x10 ../../external/gcc/LPC1768/libc.a(lib_a-svfprintf.o)
 .rodata.str1.1
                0x00010124        0x5 ../../external/gcc/LPC1768/libc.a(lib_a-svfscanf.o)
 *fill*         0x00010129        0x1 00
 .rodata.basefix.6519
                0x0001012a       0x22 ../../external/gcc/LPC1768/libc.a(lib_a-svfscanf.o)
 .rodata.blanks.6613
                0x0001014c       0x10 ../../external/gcc/LPC1768/libc.a(lib_a-vfprintf.o)
 .rodata.str1.1
                0x00000000       0x34 ../../external/gcc/LPC1768/libc.a(lib_a-vfprintf.o)
 .rodata.zeroes.6614
                0x0001015c       0x10 ../../external/gcc/LPC1768/libc.a(lib_a-vfprintf.o)
 .rodata.str1.1
                0x0001016c       0x3c ../../external/gcc/LPC1768/libc.a(lib_a-assert.o)
                                 0x3d (size before relaxing)
 .rodata._ctype_
                0x000101a8      0x101 ../../external/gcc/LPC1768/libc.a(lib_a-ctype_.o)
                0x000101a8                _ctype_
 .rodata.str1.1
                0x000102a9        0xd ../../external/gcc/LPC1768/libc.a(lib_a-dtoa.o)
                                  0xf (size before relaxing)
 .rodata.str1.1
                0x000102b6        0x6 ../../external/gcc/LPC1768/libc.a(lib_a-locale.o)
                                  0xb (size before relaxing)
 .rodata.str1.1
                0x00000000        0x1 ../../external/gcc/LPC1768/libc.a(lib_a-mbrtowc.o)
 .rodata.p05.5124
                0x000102bc        0xc ../../external/gcc/LPC1768/libc.a(lib_a-mprec.o)
 .rodata.__mprec_tens
                0x000102c8       0xc8 ../../external/gcc/LPC1768/libc.a(lib_a-mprec.o)
                0x000102c8                __mprec_tens
 .rodata.__mprec_bigtens
                0x00010390       0x28 ../../external/gcc/LPC1768/libc.a(lib_a-mprec.o)
                0x00010390                __mprec_bigtens
 .rodata.str1.1
                0x00000000        0x6 ../../external/gcc/LPC1768/libc.a(lib_a-strtod.o)
                                  0xc (size before relaxing)
 .rodata.tinytens
                0x000103b8       0x28 ../../external/gcc/LPC1768/libc.a(lib_a-strtod.o)
 .rodata.blanks.6556
                0x000103e0       0x10 ../../external/gcc/LPC1768/libc.a(lib_a-vfiprintf.o)
 .rodata.str1.1
                0x00000000       0x22 ../../external/gcc/LPC1768/libc.a(lib_a-vfiprintf.o)
 .rodata.zeroes.6557
                0x000103f0       0x10 ../../external/gcc/LPC1768/libc.a(lib_a-vfiprintf.o)
 .rodata.str1.1
                0x00010400        0xb ../../external/gcc/LPC1768/libc.a(lib_a-gdtoa-gethex.o)
                                 0x19 (size before relaxing)
 *(.gnu.linkonce.r.*)
                0x0001040c                . = ALIGN (0x4)
 *fill*         0x0001040b        0x1 00
 *(.init)
 .init          0x0001040c        0x4 /media/6aafac43-5450-453e-a142-f588400933c0/Sandbox/arm/bin/../lib/gcc/arm-none-eabi/4.5.2/thumb2/crti.o
                0x0001040c                _init
 .init          0x00010410        0x8 /media/6aafac43-5450-453e-a142-f588400933c0/Sandbox/arm/bin/../lib/gcc/arm-none-eabi/4.5.2/thumb2/crtn.o
                0x00010418                . = ALIGN (0x4)
                0x00010418                __preinit_array_start = .
 *(.preinit_array)
 .preinit_array
                0x00010418        0x4 ../../external/gcc/LPC1768/libc.a(lib_a-clibabi_stdio.o)
                0x0001041c                __preinit_array_end = .
                0x0001041c                . = ALIGN (0x4)
                0x0001041c                __init_array_start = .
 *(SORT(.init_array.*))
 *(.init_array)
 .init_array    0x0001041c        0x4 /media/6aafac43-5450-453e-a142-f588400933c0/Sandbox/arm/bin/../lib/gcc/arm-none-eabi/4.5.2/thumb2/crtbegin.o
 .init_array    0x00010420        0x4 ./main.o
 .init_array    0x00010424        0x4 ../../mri/mri.ar(mri.o)
                0x00010428                __init_array_end = .
                0x00010428                . = ALIGN (0x4)
 *crtbegin.o(.ctors)
 *(EXCLUDE_FILE(*crtend.o) .ctors)
 *(SORT(.ctors.*))
 *crtend.o(.ctors)
                0x00010428                . = ALIGN (0x4)
 *(.fini)
 .fini          0x00010428        0x4 /media/6aafac43-5450-453e-a142-f588400933c0/Sandbox/arm/bin/../lib/gcc/arm-none-eabi/4.5.2/thumb2/crti.o
                0x00010428                _fini
 .fini          0x0001042c        0x8 /media/6aafac43-5450-453e-a142-f588400933c0/Sandbox/arm/bin/../lib/gcc/arm-none-eabi/4.5.2/thumb2/crtn.o
                0x00010434                . = ALIGN (0x4)
                0x00010434                __fini_array_start = .
 *(.fini_array)
 .fini_array    0x00010434        0x4 /media/6aafac43-5450-453e-a142-f588400933c0/Sandbox/arm/bin/../lib/gcc/arm-none-eabi/4.5.2/thumb2/crtbegin.o
 *(SORT(.fini_array.*))
                0x00010438                __fini_array_end = .
                0x00010438                . = ALIGN (0x4)
 *crtbegin.o(.dtors)
 *(EXCLUDE_FILE(*crtend.o) .dtors)
 *(SORT(.dtors.*))
 *crtend.o(.dtors)
                0x00010438                _etext = .
                0x00010438                _sifastcode = .
                0x00010438                __exidx_start = .

.vfp11_veneer   0x00010438        0x0
 .vfp11_veneer  0x00000000        0x0 linker stubs

.v4_bx          0x00010438        0x0
 .v4_bx         0x00000000        0x0 linker stubs

i._ZN4mbed10DigitalOut15get_rpc_methodsEv
                0x00010438        0x8
 i._ZN4mbed10DigitalOut15get_rpc_methodsEv
                0x00010438        0x8 ../../external/mbed/LPC1768/mbed.ar(DigitalOut.LPC1768.o)
                0x00010438                _ZN4mbed10DigitalOut15get_rpc_methodsEv

i._ZN4mbed10DigitalOutC1E7PinNamePKc
                0x00010440       0x3c
 i._ZN4mbed10DigitalOutC1E7PinNamePKc
                0x00010440       0x3c ../../external/mbed/LPC1768/mbed.ar(DigitalOut.LPC1768.o)
                0x00010440                _ZN4mbed10DigitalOutC1E7PinNamePKc
                0x00010440                _ZN4mbed10DigitalOutC2E7PinNamePKc

i._ZN4mbed10DigitalOutD1Ev
                0x0001047c        0x4
 i._ZN4mbed10DigitalOutD1Ev
                0x0001047c        0x4 ../../external/mbed/LPC1768/mbed.ar(DigitalOut.LPC1768.o)
                0x0001047c                _ZN4mbed10DigitalOutD2Ev
                0x0001047c                _ZN4mbed10DigitalOutD1Ev

t._ZN4mbed17rpc_method_callerINS_10DigitalOutEiXadL_ZNS1_5writeEiEEEEvPNS_4BaseEPKcPc
                0x00010480       0x78
 t._ZN4mbed17rpc_method_callerINS_10DigitalOutEiXadL_ZNS1_5writeEiEEEEvPNS_4BaseEPKcPc
                0x00010480       0x78 ../../external/mbed/LPC1768/mbed.ar(DigitalOut.LPC1768.o)
                0x00010480                _ZN4mbed17rpc_method_callerINS_10DigitalOutEiXadL_ZNS1_5writeEiEEEEvPNS_4BaseEPKcPc

t._ZN4mbed17rpc_method_callerIiNS_10DigitalOutEXadL_ZNS1_4readEvEEEEvPNS_4BaseEPKcPc
                0x000104f8       0x38
 t._ZN4mbed17rpc_method_callerIiNS_10DigitalOutEXadL_ZNS1_4readEvEEEEvPNS_4BaseEPKcPc
                0x000104f8       0x38 ../../external/mbed/LPC1768/mbed.ar(DigitalOut.LPC1768.o)
                0x000104f8                _ZN4mbed17rpc_method_callerIiNS_10DigitalOutEXadL_ZNS1_4readEvEEEEvPNS_4BaseEPKcPc

t._ZN4mbed9rpc_superINS_4BaseEEEPKNS_10rpc_methodEPS1_
                0x00010530        0x4
 t._ZN4mbed9rpc_superINS_4BaseEEEPKNS_10rpc_methodEPS1_
                0x00010530        0x4 ../../external/mbed/LPC1768/mbed.ar(DigitalOut.LPC1768.o)
                0x00010530                _ZN4mbed9rpc_superINS_4BaseEEEPKNS_10rpc_methodEPS1_

i._ZN4mbed10DigitalOut5writeEi
                0x00010534        0xe
 i._ZN4mbed10DigitalOut5writeEi
                0x00010534        0xe ../../external/mbed/LPC1768/mbed.ar(DigitalOut.LPC1768.o)
                0x00010534                _ZN4mbed10DigitalOut5writeEi

i._ZN4mbed10DigitalOut4readEv
                0x00010542        0xe
 i._ZN4mbed10DigitalOut4readEv
                0x00010542        0xe ../../external/mbed/LPC1768/mbed.ar(DigitalOut.LPC1768.o)
                0x00010542                _ZN4mbed10DigitalOut4readEv

i._ZN4mbed10DigitalOutD0Ev
                0x00010550        0xe
 i._ZN4mbed10DigitalOutD0Ev
                0x00010550        0xe ../../external/mbed/LPC1768/mbed.ar(DigitalOut.LPC1768.o)
                0x00010550                _ZN4mbed10DigitalOutD0Ev

i._ZN4mbed10parse_charEPKcPS1_
                0x0001055e       0xa2
 i._ZN4mbed10parse_charEPKcPS1_
                0x0001055e       0xa2 ../../external/mbed/LPC1768/mbed.ar(DigitalOut.LPC1768.o)
                0x0001055e                _ZN4mbed10parse_charEPKcPS1_

i._ZN4mbed4Base11delete_selfEv
                0x00010600       0x1e
 i._ZN4mbed4Base11delete_selfEv
                0x00010600       0x1e ../../external/mbed/LPC1768/mbed.ar(Base.LPC1768.o)
                0x00010600                _ZN4mbed4Base11delete_selfEv

i._ZN4mbed4Base15get_rpc_methodsEv
                0x00010620        0x8
 i._ZN4mbed4Base15get_rpc_methodsEv
                0x00010620        0x8 ../../external/mbed/LPC1768/mbed.ar(Base.LPC1768.o)
                0x00010620                _ZN4mbed4Base15get_rpc_methodsEv

i._ZN4mbed4Base3rpcEPKcS2_Pc
                0x00010628       0x98
 i._ZN4mbed4Base3rpcEPKcS2_Pc
                0x00010628       0x98 ../../external/mbed/LPC1768/mbed.ar(Base.LPC1768.o)
                0x00010628                _ZN4mbed4Base3rpcEPKcS2_Pc

i._ZN4mbed4Base5clearEPKcPc
                0x000106c0       0x30
 i._ZN4mbed4Base5clearEPKcPc
                0x000106c0       0x30 ../../external/mbed/LPC1768/mbed.ar(Base.LPC1768.o)
                0x000106c0                _ZN4mbed4Base5clearEPKcPc

i._ZN4mbed4Base6lookupEPKcj
                0x000106f0       0x38
 i._ZN4mbed4Base6lookupEPKcj
                0x000106f0       0x38 ../../external/mbed/LPC1768/mbed.ar(Base.LPC1768.o)
                0x000106f0                _ZN4mbed4Base6lookupEPKcj

i._ZN4mbed4Base9list_objsEPKcPc
                0x00010728       0x40
 i._ZN4mbed4Base9list_objsEPKcPc
                0x00010728       0x40 ../../external/mbed/LPC1768/mbed.ar(Base.LPC1768.o)
                0x00010728                _ZN4mbed4Base9list_objsEPKcPc

i._ZN4mbed4BaseC1EPKc
                0x00010768       0x24
 i._ZN4mbed4BaseC1EPKc
                0x00010768       0x24 ../../external/mbed/LPC1768/mbed.ar(Base.LPC1768.o)
                0x00010768                _ZN4mbed4BaseC1EPKc
                0x00010768                _ZN4mbed4BaseC2EPKc

i._ZN4mbed4BaseD0Ev
                0x0001078c       0x34
 i._ZN4mbed4BaseD0Ev
                0x0001078c       0x34 ../../external/mbed/LPC1768/mbed.ar(Base.LPC1768.o)
                0x0001078c                _ZN4mbed4BaseD0Ev

i._ZN4mbed4BaseD1Ev
                0x000107c0       0x38
 i._ZN4mbed4BaseD1Ev
                0x000107c0       0x38 ../../external/mbed/LPC1768/mbed.ar(Base.LPC1768.o)
                0x000107c0                _ZN4mbed4BaseD1Ev
                0x000107c0                _ZN4mbed4BaseD2Ev

t._ZN4mbed17rpc_method_callerINS_4BaseEXadL_ZNS1_11delete_selfEvEEEEvPS1_PKcPc
                0x000107f8       0x28
 t._ZN4mbed17rpc_method_callerINS_4BaseEXadL_ZNS1_11delete_selfEvEEEEvPS1_PKcPc
                0x000107f8       0x28 ../../external/mbed/LPC1768/mbed.ar(Base.LPC1768.o)
                0x000107f8                _ZN4mbed17rpc_method_callerINS_4BaseEXadL_ZNS1_11delete_selfEvEEEEvPS1_PKcPc

i._ZN4mbed6Ticker5setupEj
                0x00010820       0x1e
 i._ZN4mbed6Ticker5setupEj
                0x00010820       0x1e ../../external/mbed/LPC1768/mbed.ar(Ticker.LPC1768.o)
                0x00010820                _ZN4mbed6Ticker5setupEj

i._ZN4mbed6Ticker7handlerEv
                0x0001083e       0x1c
 i._ZN4mbed6Ticker7handlerEv
                0x0001083e       0x1c ../../external/mbed/LPC1768/mbed.ar(Ticker.LPC1768.o)
                0x0001083e                _ZN4mbed6Ticker7handlerEv

i._ZN4mbed6TickerD1Ev
                0x0001085a        0x4
 i._ZN4mbed6TickerD1Ev
                0x0001085a        0x4 ../../external/mbed/LPC1768/mbed.ar(Ticker.LPC1768.o)
                0x0001085a                _ZN4mbed6TickerD2Ev
                0x0001085a                _ZN4mbed6TickerD1Ev

i._ZN4mbed6TickerD0Ev
                0x0001085e        0xe
 i._ZN4mbed6TickerD0Ev
                0x0001085e        0xe ../../external/mbed/LPC1768/mbed.ar(Ticker.LPC1768.o)
                0x0001085e                _ZN4mbed6TickerD0Ev

i._ZN4mbed8FileLikeD0Ev
                0x0001086c       0x3c
 i._ZN4mbed8FileLikeD0Ev
                0x0001086c       0x3c ../../external/mbed/LPC1768/mbed.ar(stdio.LPC1768.o)
                0x0001086c                _ZN4mbed8FileLikeD0Ev

i._ZN4mbed8FileLikeD2Ev
                0x000108a8       0x34
 i._ZN4mbed8FileLikeD2Ev
                0x000108a8       0x34 ../../external/mbed/LPC1768/mbed.ar(stdio.LPC1768.o)
                0x000108a8                _ZN4mbed8FileLikeD2Ev
                0x000108a8                _ZN4mbed8FileLikeD1Ev

i._sys_close    0x000108dc       0x2c
 i._sys_close   0x000108dc       0x2c ../../external/mbed/LPC1768/mbed.ar(stdio.LPC1768.o)
                0x000108dc                _sys_close

i._sys_istty    0x00010908       0x28
 i._sys_istty   0x00010908       0x28 ../../external/mbed/LPC1768/mbed.ar(stdio.LPC1768.o)
                0x00010908                _sys_istty

i._sys_open     0x00010930      0x184
 i._sys_open    0x00010930      0x184 ../../external/mbed/LPC1768/mbed.ar(stdio.LPC1768.o)
                0x00010930                _sys_open

i._sys_read     0x00010ab4       0x40
 i._sys_read    0x00010ab4       0x40 ../../external/mbed/LPC1768/mbed.ar(stdio.LPC1768.o)
                0x00010ab4                _sys_read

i._sys_seek     0x00010af4       0x2c
 i._sys_seek    0x00010af4       0x2c ../../external/mbed/LPC1768/mbed.ar(stdio.LPC1768.o)
                0x00010af4                _sys_seek

i._sys_write    0x00010b20       0x54
 i._sys_write   0x00010b20       0x54 ../../external/mbed/LPC1768/mbed.ar(stdio.LPC1768.o)
                0x00010b20                _sys_write

i._ZN4mbed10FileHandle4flenEv
                0x00010b74       0x3a
 i._ZN4mbed10FileHandle4flenEv
                0x00010b74       0x3a ../../external/mbed/LPC1768/mbed.ar(stdio.LPC1768.o)
                0x00010b74                _ZN4mbed10FileHandle4flenEv

i._ZN4mbed15FunctionPointer4callEv
                0x00010bae       0x1a
 i._ZN4mbed15FunctionPointer4callEv
                0x00010bae       0x1a ../../external/mbed/LPC1768/mbed.ar(FunctionPointer.LPC1768.o)
                0x00010bae                _ZN4mbed15FunctionPointer4callEv

i._ZN4mbed15FunctionPointer6attachEPFvvE
                0x00010bc8        0x8
 i._ZN4mbed15FunctionPointer6attachEPFvvE
                0x00010bc8        0x8 ../../external/mbed/LPC1768/mbed.ar(FunctionPointer.LPC1768.o)
                0x00010bc8                _ZN4mbed15FunctionPointer6attachEPFvvE

i._ZN4mbed15FunctionPointerC1EPFvvE
                0x00010bd0        0x8
 i._ZN4mbed15FunctionPointerC1EPFvvE
                0x00010bd0        0x8 ../../external/mbed/LPC1768/mbed.ar(FunctionPointer.LPC1768.o)
                0x00010bd0                _ZN4mbed15FunctionPointerC1EPFvvE
                0x00010bd0                _ZN4mbed15FunctionPointerC2EPFvvE

i.<Func4>       0x00010bd8        0x6
 i.<Func4>      0x00010bd8        0x6 ../../external/mbed/LPC1768/mbed.ar(Serial.LPC1768.o)

i._ZN4mbed6Serial15get_rpc_methodsEv
                0x00010be0        0x8
 i._ZN4mbed6Serial15get_rpc_methodsEv
                0x00010be0        0x8 ../../external/mbed/LPC1768/mbed.ar(Serial.LPC1768.o)
                0x00010be0                _ZN4mbed6Serial15get_rpc_methodsEv

i._ZN4mbed6Serial4baudEi
                0x00010be8        0x6
 i._ZN4mbed6Serial4baudEi
                0x00010be8        0x6 ../../external/mbed/LPC1768/mbed.ar(Serial.LPC1768.o)
                0x00010be8                _ZN4mbed6Serial4baudEi

i._ZN4mbed6Serial5_getcEv
                0x00010bee        0x6
 i._ZN4mbed6Serial5_getcEv
                0x00010bee        0x6 ../../external/mbed/LPC1768/mbed.ar(Serial.LPC1768.o)
                0x00010bee                _ZN4mbed6Serial5_getcEv

i._ZN4mbed6Serial5_putcEi
                0x00010bf4        0xe
 i._ZN4mbed6Serial5_putcEi
                0x00010bf4        0xe ../../external/mbed/LPC1768/mbed.ar(Serial.LPC1768.o)
                0x00010bf4                _ZN4mbed6Serial5_putcEi

i._ZN4mbed6Serial8readableEv
                0x00010c02        0x6
 i._ZN4mbed6Serial8readableEv
                0x00010c02        0x6 ../../external/mbed/LPC1768/mbed.ar(Serial.LPC1768.o)
                0x00010c02                _ZN4mbed6Serial8readableEv

i._ZN4mbed6Serial9writeableEv
                0x00010c08        0x6
 i._ZN4mbed6Serial9writeableEv
                0x00010c08        0x6 ../../external/mbed/LPC1768/mbed.ar(Serial.LPC1768.o)
                0x00010c08                _ZN4mbed6Serial9writeableEv

i._ZN4mbed6SerialC1E7PinNameS1_PKc
                0x00010c10       0x90
 i._ZN4mbed6SerialC1E7PinNameS1_PKc
                0x00010c10       0x90 ../../external/mbed/LPC1768/mbed.ar(Serial.LPC1768.o)
                0x00010c10                _ZN4mbed6SerialC2E7PinNameS1_PKc
                0x00010c10                _ZN4mbed6SerialC1E7PinNameS1_PKc

i._ZN4mbed6SerialD1Ev
                0x00010ca0        0x4
 i._ZN4mbed6SerialD1Ev
                0x00010ca0        0x4 ../../external/mbed/LPC1768/mbed.ar(Serial.LPC1768.o)
                0x00010ca0                _ZN4mbed6SerialD1Ev
                0x00010ca0                _ZN4mbed6SerialD2Ev

t._ZN4mbed17rpc_method_callerINS_6SerialEiXadL_ZNS1_4baudEiEEEEvPNS_4BaseEPKcPc
                0x00010ca4       0x78
 t._ZN4mbed17rpc_method_callerINS_6SerialEiXadL_ZNS1_4baudEiEEEEvPNS_4BaseEPKcPc
                0x00010ca4       0x78 ../../external/mbed/LPC1768/mbed.ar(Serial.LPC1768.o)
                0x00010ca4                _ZN4mbed17rpc_method_callerINS_6SerialEiXadL_ZNS1_4baudEiEEEEvPNS_4BaseEPKcPc

t._ZN4mbed17rpc_method_callerIiNS_6SerialEXadL_ZNS1_8readableEvEEEEvPNS_4BaseEPKcPc
                0x00010d1c       0x38
 t._ZN4mbed17rpc_method_callerIiNS_6SerialEXadL_ZNS1_8readableEvEEEEvPNS_4BaseEPKcPc
                0x00010d1c       0x38 ../../external/mbed/LPC1768/mbed.ar(Serial.LPC1768.o)
                0x00010d1c                _ZN4mbed17rpc_method_callerIiNS_6SerialEXadL_ZNS1_8readableEvEEEEvPNS_4BaseEPKcPc

t._ZN4mbed17rpc_method_callerIiNS_6SerialEXadL_ZNS1_9writeableEvEEEEvPNS_4BaseEPKcPc
                0x00010d54       0x38
 t._ZN4mbed17rpc_method_callerIiNS_6SerialEXadL_ZNS1_9writeableEvEEEEvPNS_4BaseEPKcPc
                0x00010d54       0x38 ../../external/mbed/LPC1768/mbed.ar(Serial.LPC1768.o)
                0x00010d54                _ZN4mbed17rpc_method_callerIiNS_6SerialEXadL_ZNS1_9writeableEvEEEEvPNS_4BaseEPKcPc

t._ZN4mbed9rpc_superINS_6StreamEEEPKNS_10rpc_methodEPNS_4BaseE
                0x00010d8c        0x4
 t._ZN4mbed9rpc_superINS_6StreamEEEPKNS_10rpc_methodEPNS_4BaseE
                0x00010d8c        0x4 ../../external/mbed/LPC1768/mbed.ar(Serial.LPC1768.o)
                0x00010d8c                _ZN4mbed9rpc_superINS_6StreamEEEPKNS_10rpc_methodEPNS_4BaseE

i._ZN4mbed6SerialD0Ev
                0x00010d90        0xe
 i._ZN4mbed6SerialD0Ev
                0x00010d90        0xe ../../external/mbed/LPC1768/mbed.ar(Serial.LPC1768.o)
                0x00010d90                _ZN4mbed6SerialD0Ev

i._ZN4mbed10TimerEvent3irqEv
                0x00010da0       0x5c
 i._ZN4mbed10TimerEvent3irqEv
                0x00010da0       0x5c ../../external/mbed/LPC1768/mbed.ar(TimerEvent.LPC1768.o)
                0x00010da0                _ZN4mbed10TimerEvent3irqEv

i._ZN4mbed10TimerEvent6insertEj
                0x00010dfc       0x4c
 i._ZN4mbed10TimerEvent6insertEj
                0x00010dfc       0x4c ../../external/mbed/LPC1768/mbed.ar(TimerEvent.LPC1768.o)
                0x00010dfc                _ZN4mbed10TimerEvent6insertEj

i._ZN4mbed10TimerEvent6removeEv
                0x00010e48       0x40
 i._ZN4mbed10TimerEvent6removeEv
                0x00010e48       0x40 ../../external/mbed/LPC1768/mbed.ar(TimerEvent.LPC1768.o)
                0x00010e48                _ZN4mbed10TimerEvent6removeEv

i._ZN4mbed10TimerEvent9timestampEv
                0x00010e88        0x4
 i._ZN4mbed10TimerEvent9timestampEv
                0x00010e88        0x4 ../../external/mbed/LPC1768/mbed.ar(TimerEvent.LPC1768.o)
                0x00010e88                _ZN4mbed10TimerEvent9timestampEv

i._ZN4mbed10TimerEventC2Ev
                0x00010e8c       0x28
 i._ZN4mbed10TimerEventC2Ev
                0x00010e8c       0x28 ../../external/mbed/LPC1768/mbed.ar(TimerEvent.LPC1768.o)
                0x00010e8c                _ZN4mbed10TimerEventC2Ev

i._ZN4mbed10TimerEventD0Ev
                0x00010eb4       0x48
 i._ZN4mbed10TimerEventD0Ev
                0x00010eb4       0x48 ../../external/mbed/LPC1768/mbed.ar(TimerEvent.LPC1768.o)
                0x00010eb4                _ZN4mbed10TimerEventD0Ev

i._ZN4mbed10TimerEventD2Ev
                0x00010efc       0x48
 i._ZN4mbed10TimerEventD2Ev
                0x00010efc       0x48 ../../external/mbed/LPC1768/mbed.ar(TimerEvent.LPC1768.o)
                0x00010efc                _ZN4mbed10TimerEventD1Ev
                0x00010efc                _ZN4mbed10TimerEventD2Ev

i._ZN4mbed6Stream15get_rpc_methodsEv
                0x00010f44        0x8
 i._ZN4mbed6Stream15get_rpc_methodsEv
                0x00010f44        0x8 ../../external/mbed/LPC1768/mbed.ar(Stream.LPC1768.o)
                0x00010f44                _ZN4mbed6Stream15get_rpc_methodsEv

i._ZN4mbed6Stream4flenEv
                0x00010f4c        0x4
 i._ZN4mbed6Stream4flenEv
                0x00010f4c        0x4 ../../external/mbed/LPC1768/mbed.ar(Stream.LPC1768.o)
                0x00010f4c                _ZN4mbed6Stream4flenEv

i._ZN4mbed6Stream4readEPvj
                0x00010f50       0x2a
 i._ZN4mbed6Stream4readEPvj
                0x00010f50       0x2a ../../external/mbed/LPC1768/mbed.ar(Stream.LPC1768.o)
                0x00010f50                _ZN4mbed6Stream4readEPvj

i._ZN4mbed6Stream5closeEv
                0x00010f7a        0x4
 i._ZN4mbed6Stream5closeEv
                0x00010f7a        0x4 ../../external/mbed/LPC1768/mbed.ar(Stream.LPC1768.o)
                0x00010f7a                _ZN4mbed6Stream5closeEv

i._ZN4mbed6Stream5fsyncEv
                0x00010f7e        0x4
 i._ZN4mbed6Stream5fsyncEv
                0x00010f7e        0x4 ../../external/mbed/LPC1768/mbed.ar(Stream.LPC1768.o)
                0x00010f7e                _ZN4mbed6Stream5fsyncEv

i._ZN4mbed6Stream5lseekEli
                0x00010f82        0x4
 i._ZN4mbed6Stream5lseekEli
                0x00010f82        0x4 ../../external/mbed/LPC1768/mbed.ar(Stream.LPC1768.o)
                0x00010f82                _ZN4mbed6Stream5lseekEli

i._ZN4mbed6Stream5writeEPKvj
                0x00010f86       0x2a
 i._ZN4mbed6Stream5writeEPKvj
                0x00010f86       0x2a ../../external/mbed/LPC1768/mbed.ar(Stream.LPC1768.o)
                0x00010f86                _ZN4mbed6Stream5writeEPKvj

i._ZN4mbed6Stream6isattyEv
                0x00010fb0        0x4
 i._ZN4mbed6Stream6isattyEv
                0x00010fb0        0x4 ../../external/mbed/LPC1768/mbed.ar(Stream.LPC1768.o)
                0x00010fb0                _ZN4mbed6Stream6isattyEv

i._ZN4mbed6StreamC2EPKc
                0x00010fb4       0x40
 i._ZN4mbed6StreamC2EPKc
                0x00010fb4       0x40 ../../external/mbed/LPC1768/mbed.ar(Stream.LPC1768.o)
                0x00010fb4                _ZN4mbed6StreamC2EPKc

i._ZN4mbed6StreamD0Ev
                0x00010ff4       0x24
 i._ZN4mbed6StreamD0Ev
                0x00010ff4       0x24 ../../external/mbed/LPC1768/mbed.ar(Stream.LPC1768.o)
                0x00010ff4                _ZN4mbed6StreamD0Ev

i._ZN4mbed6StreamD2Ev
                0x00011018       0x20
 i._ZN4mbed6StreamD2Ev
                0x00011018       0x20 ../../external/mbed/LPC1768/mbed.ar(Stream.LPC1768.o)
                0x00011018                _ZN4mbed6StreamD1Ev
                0x00011018                _ZN4mbed6StreamD2Ev

i._ZThn16_N4mbed6Stream4flenEv
                0x00011038        0x4
 i._ZThn16_N4mbed6Stream4flenEv
                0x00011038        0x4 ../../external/mbed/LPC1768/mbed.ar(Stream.LPC1768.o)
                0x00011038                _ZThn16_N4mbed6Stream4flenEv

i._ZThn16_N4mbed6Stream4readEPvj
                0x0001103c       0x2c
 i._ZThn16_N4mbed6Stream4readEPvj
                0x0001103c       0x2c ../../external/mbed/LPC1768/mbed.ar(Stream.LPC1768.o)
                0x0001103c                _ZThn16_N4mbed6Stream4readEPvj

i._ZThn16_N4mbed6Stream5closeEv
                0x00011068        0x4
 i._ZThn16_N4mbed6Stream5closeEv
                0x00011068        0x4 ../../external/mbed/LPC1768/mbed.ar(Stream.LPC1768.o)
                0x00011068                _ZThn16_N4mbed6Stream5closeEv

i._ZThn16_N4mbed6Stream5fsyncEv
                0x0001106c        0x4
 i._ZThn16_N4mbed6Stream5fsyncEv
                0x0001106c        0x4 ../../external/mbed/LPC1768/mbed.ar(Stream.LPC1768.o)
                0x0001106c                _ZThn16_N4mbed6Stream5fsyncEv

i._ZThn16_N4mbed6Stream5lseekEli
                0x00011070        0x4
 i._ZThn16_N4mbed6Stream5lseekEli
                0x00011070        0x4 ../../external/mbed/LPC1768/mbed.ar(Stream.LPC1768.o)
                0x00011070                _ZThn16_N4mbed6Stream5lseekEli

i._ZThn16_N4mbed6Stream5writeEPKvj
                0x00011074       0x2c
 i._ZThn16_N4mbed6Stream5writeEPKvj
                0x00011074       0x2c ../../external/mbed/LPC1768/mbed.ar(Stream.LPC1768.o)
                0x00011074                _ZThn16_N4mbed6Stream5writeEPKvj

i._ZThn16_N4mbed6Stream6isattyEv
                0x000110a0        0x4
 i._ZThn16_N4mbed6Stream6isattyEv
                0x000110a0        0x4 ../../external/mbed/LPC1768/mbed.ar(Stream.LPC1768.o)
                0x000110a0                _ZThn16_N4mbed6Stream6isattyEv

t._ZN4mbed17rpc_method_callerIiNS_6StreamEiXadL_ZNS1_4putcEiEEEEvPNS_4BaseEPKcPc
                0x000110a4       0x84
 t._ZN4mbed17rpc_method_callerIiNS_6StreamEiXadL_ZNS1_4putcEiEEEEvPNS_4BaseEPKcPc
                0x000110a4       0x84 ../../external/mbed/LPC1768/mbed.ar(Stream.LPC1768.o)
                0x000110a4                _ZN4mbed17rpc_method_callerIiNS_6StreamEiXadL_ZNS1_4putcEiEEEEvPNS_4BaseEPKcPc

t._ZN4mbed17rpc_method_callerIiNS_6StreamEXadL_ZNS1_4getcEvEEEEvPNS_4BaseEPKcPc
                0x00011128       0x38
 t._ZN4mbed17rpc_method_callerIiNS_6StreamEXadL_ZNS1_4getcEvEEEEvPNS_4BaseEPKcPc
                0x00011128       0x38 ../../external/mbed/LPC1768/mbed.ar(Stream.LPC1768.o)
                0x00011128                _ZN4mbed17rpc_method_callerIiNS_6StreamEXadL_ZNS1_4getcEvEEEEvPNS_4BaseEPKcPc

t._ZN4mbed17rpc_method_callerIiNS_6StreamEPKcXadL_ZNS1_4putsES3_EEEEvPNS_4BaseES3_Pc
                0x00011160      0x17c
 t._ZN4mbed17rpc_method_callerIiNS_6StreamEPKcXadL_ZNS1_4putsES3_EEEEvPNS_4BaseES3_Pc
                0x00011160      0x17c ../../external/mbed/LPC1768/mbed.ar(Stream.LPC1768.o)
                0x00011160                _ZN4mbed17rpc_method_callerIiNS_6StreamEPKcXadL_ZNS1_4putsES3_EEEEvPNS_4BaseES3_Pc

i._ZN4mbed6Stream4putsEPKc
                0x000112dc       0x18
 i._ZN4mbed6Stream4putsEPKc
                0x000112dc       0x18 ../../external/mbed/LPC1768/mbed.ar(Stream.LPC1768.o)
                0x000112dc                _ZN4mbed6Stream4putsEPKc

i.NVIC_SetVector
                0x000112f4       0x38
 i.NVIC_SetVector
                0x000112f4       0x38 ../../external/mbed/LPC1768/capi.ar(cmsis_nvic.LPC1768.o)
                0x000112f4                NVIC_SetVector

.emb_text       0x0001132c       0x20
 .emb_text      0x0001132c       0x20 ../../external/mbed/LPC1768/capi.ar(core_cm3.LPC1768.o)
                0x0001132c                __get_PSP
                0x00011332                __set_PSP
                0x00011338                __get_MSP
                0x0001133e                __set_MSP
                0x00011344                __REV16
                0x00011348                __REVSH

i.serial_baud   0x0001134c      0x1c8
 i.serial_baud  0x0001134c      0x1c8 ../../external/mbed/LPC1768/capi.ar(serial_api.LPC1768.o)
                0x0001134c                serial_baud

i.serial_format
                0x00011514       0x94
 i.serial_format
                0x00011514       0x94 ../../external/mbed/LPC1768/capi.ar(serial_api.LPC1768.o)
                0x00011514                serial_format

i.serial_getc   0x000115a8        0xc
 i.serial_getc  0x000115a8        0xc ../../external/mbed/LPC1768/capi.ar(serial_api.LPC1768.o)
                0x000115a8                serial_getc

i.serial_init   0x000115b4       0xe4
 i.serial_init  0x000115b4       0xe4 ../../external/mbed/LPC1768/capi.ar(serial_api.LPC1768.o)
                0x000115b4                serial_init

i.serial_putc   0x00011698        0xc
 i.serial_putc  0x00011698        0xc ../../external/mbed/LPC1768/capi.ar(serial_api.LPC1768.o)
                0x00011698                serial_putc

i.serial_readable
                0x000116a4        0x8
 i.serial_readable
                0x000116a4        0x8 ../../external/mbed/LPC1768/capi.ar(serial_api.LPC1768.o)
                0x000116a4                serial_readable

i.serial_writable
                0x000116ac        0x8
 i.serial_writable
                0x000116ac        0x8 ../../external/mbed/LPC1768/capi.ar(serial_api.LPC1768.o)
                0x000116ac                serial_writable

i.exit          0x000116b4       0x16
 i.exit         0x000116b4       0x16 ../../external/mbed/LPC1768/capi.ar(exit.LPC1768.o)
                0x000116b4                exit

i.pin_function  0x000116cc       0x38
 i.pin_function
                0x000116cc       0x38 ../../external/mbed/LPC1768/capi.ar(pinmap.LPC1768.o)
                0x000116cc                pin_function

i.pin_mode      0x00011704       0x68
 i.pin_mode     0x00011704       0x68 ../../external/mbed/LPC1768/capi.ar(pinmap.LPC1768.o)
                0x00011704                pin_mode

i.pinmap_merge  0x0001176c       0x3c
 i.pinmap_merge
                0x0001176c       0x3c ../../external/mbed/LPC1768/capi.ar(pinmap.LPC1768.o)
                0x0001176c                pinmap_merge

i.pinmap_peripheral
                0x000117a8       0x58
 i.pinmap_peripheral
                0x000117a8       0x58 ../../external/mbed/LPC1768/capi.ar(pinmap.LPC1768.o)
                0x000117a8                pinmap_peripheral

i.pinmap_pinout
                0x00011800       0xcc
 i.pinmap_pinout
                0x00011800       0xcc ../../external/mbed/LPC1768/capi.ar(pinmap.LPC1768.o)
                0x00011800                pinmap_pinout

i.wait          0x000118cc       0x30
 i.wait         0x000118cc       0x30 ../../external/mbed/LPC1768/capi.ar(wait_api.LPC1768.o)
                0x000118cc                wait

i.wait_ms       0x000118fc       0x1c
 i.wait_ms      0x000118fc       0x1c ../../external/mbed/LPC1768/capi.ar(wait_api.LPC1768.o)
                0x000118fc                wait_ms

i.gpio_output   0x00011918       0x30
 i.gpio_output  0x00011918       0x30 ../../external/mbed/LPC1768/capi.ar(gpio_api.LPC1768.o)
                0x00011918                gpio_output

i.gpio_write    0x00011948       0x18
 i.gpio_write   0x00011948       0x18 ../../external/mbed/LPC1768/capi.ar(gpio_api.LPC1768.o)
                0x00011948                gpio_write

i.semihost_exit
                0x00011960        0xc
 i.semihost_exit
                0x00011960        0xc ../../external/mbed/LPC1768/capi.ar(semihost_api.LPC1768.o)
                0x00011960                semihost_exit

i.semihost_uid  0x0001196c       0x14
 i.semihost_uid
                0x0001196c       0x14 ../../external/mbed/LPC1768/capi.ar(semihost_api.LPC1768.o)
                0x0001196c                semihost_uid

i.us_ticker_read
                0x00011980       0x38
 i.us_ticker_read
                0x00011980       0x38 ../../external/mbed/LPC1768/capi.ar(us_ticker_api.LPC1768.o)
                0x00011980                us_ticker_read

i.mbed_die      0x000119b8       0x78
 i.mbed_die     0x000119b8       0x78 ../../external/mbed/LPC1768/capi.ar(utils_api.LPC1768.o)
                0x000119b8                mbed_die

i.timer_frequency
                0x00011a30       0x14
 i.timer_frequency
                0x00011a30       0x14 ../../external/mbed/LPC1768/capi.ar(timer_api.LPC1768.o)
                0x00011a30                timer_frequency

i.timer_init    0x00011a44       0x70
 i.timer_init   0x00011a44       0x70 ../../external/mbed/LPC1768/capi.ar(timer_api.LPC1768.o)
                0x00011a44                timer_init

i.timer_read    0x00011ab4        0x4
 i.timer_read   0x00011ab4        0x4 ../../external/mbed/LPC1768/capi.ar(timer_api.LPC1768.o)
                0x00011ab4                timer_read

i.timer_start   0x00011ab8        0xc
 i.timer_start  0x00011ab8        0xc ../../external/mbed/LPC1768/capi.ar(timer_api.LPC1768.o)
                0x00011ab8                timer_start

.constdata      0x00011ac4      0x234
 .constdata     0x00011ac4       0x28 ../../external/mbed/LPC1768/mbed.ar(DigitalOut.LPC1768.o)
 .constdata     0x00011aec       0x18 ../../external/mbed/LPC1768/mbed.ar(Base.LPC1768.o)
 .constdata     0x00011b04       0x18 ../../external/mbed/LPC1768/mbed.ar(Base.LPC1768.o)
                0x00011b04                _ZN4mbed4Base11_base_funcsE
 .constdata     0x00011b1c       0x17 ../../external/mbed/LPC1768/mbed.ar(stdio.LPC1768.o)
                0x00011b1c                __stdin_name
                0x00011b23                __stdout_name
                0x00011b2b                __stderr_name
 *fill*         0x00011b33        0x1 00
 .constdata     0x00011b34       0x38 ../../external/mbed/LPC1768/mbed.ar(Serial.LPC1768.o)
 .constdata     0x00011b6c       0x38 ../../external/mbed/LPC1768/mbed.ar(Stream.LPC1768.o)
 .constdata     0x00011ba4      0x154 ../../external/mbed/LPC1768/capi.ar(serial_api.LPC1768.o)

.conststring    0x00011cf8       0x5e
 .conststring   0x00011cf8       0x16 ../../external/mbed/LPC1768/mbed.ar(DigitalOut.LPC1768.o)
 .conststring   0x00011d0e        0x7 ../../external/mbed/LPC1768/mbed.ar(Base.LPC1768.o)
 .conststring   0x00011d15        0xe ../../external/mbed/LPC1768/mbed.ar(Base.LPC1768.o)
 .conststring   0x00011d23        0x5 ../../external/mbed/LPC1768/mbed.ar(Base.LPC1768.o)
 .conststring   0x00011d28       0x1f ../../external/mbed/LPC1768/mbed.ar(Serial.LPC1768.o)
 .conststring   0x00011d47        0xf ../../external/mbed/LPC1768/mbed.ar(Stream.LPC1768.o)

.constdata__ZTVN4mbed10DigitalOutE
                0x00011d58       0x18
 .constdata__ZTVN4mbed10DigitalOutE
                0x00011d58       0x18 ../../external/mbed/LPC1768/mbed.ar(DigitalOut.LPC1768.o)
                0x00011d58                _ZTVN4mbed10DigitalOutE

.constdata___ARM__ZN4mbed12write_resultIiEEvT_Pc_anon0
                0x00011d70        0x3
 .constdata___ARM__ZN4mbed12write_resultIiEEvT_Pc_anon0
                0x00011d70        0x3 ../../external/mbed/LPC1768/mbed.ar(DigitalOut.LPC1768.o)
                0x00011d70                __ARM__ZN4mbed12write_resultIiEEvT_Pc_anon0

.constdata__ZTIN4mbed10DigitalOutE
                0x00011d74        0xc
 .constdata__ZTIN4mbed10DigitalOutE
                0x00011d74        0xc ../../external/mbed/LPC1768/mbed.ar(DigitalOut.LPC1768.o)
                0x00011d74                _ZTIN4mbed10DigitalOutE

.constdata__ZTSN4mbed10DigitalOutE
                0x00011d80       0x14
 .constdata__ZTSN4mbed10DigitalOutE
                0x00011d80       0x14 ../../external/mbed/LPC1768/mbed.ar(DigitalOut.LPC1768.o)
                0x00011d80                _ZTSN4mbed10DigitalOutE

.constdata__ZTVN4mbed4BaseE
                0x00011d94       0x18
 .constdata__ZTVN4mbed4BaseE
                0x00011d94       0x18 ../../external/mbed/LPC1768/mbed.ar(Base.LPC1768.o)
                0x00011d94                _ZTVN4mbed4BaseE

.constdata__ZTIN4mbed4BaseE
                0x00011dac        0x8
 .constdata__ZTIN4mbed4BaseE
                0x00011dac        0x8 ../../external/mbed/LPC1768/mbed.ar(Base.LPC1768.o)
                0x00011dac                _ZTIN4mbed4BaseE

.constdata__ZTSN4mbed4BaseE
                0x00011db4        0xd
 .constdata__ZTSN4mbed4BaseE
                0x00011db4        0xd ../../external/mbed/LPC1768/mbed.ar(Base.LPC1768.o)
                0x00011db4                _ZTSN4mbed4BaseE

.constdata__ZTIN4mbed14FileSystemLikeE
                0x00011dc4        0xc
 .constdata__ZTIN4mbed14FileSystemLikeE
                0x00011dc4        0xc ../../external/mbed/LPC1768/mbed.ar(Base.LPC1768.o)
                0x00011dc4                _ZTIN4mbed14FileSystemLikeE

.constdata__ZTSN4mbed14FileSystemLikeE
                0x00011dd0       0x18
 .constdata__ZTSN4mbed14FileSystemLikeE
                0x00011dd0       0x18 ../../external/mbed/LPC1768/mbed.ar(Base.LPC1768.o)
                0x00011dd0                _ZTSN4mbed14FileSystemLikeE

.constdata__ZTVN4mbed6TickerE
                0x00011de8       0x14
 .constdata__ZTVN4mbed6TickerE
                0x00011de8       0x14 ../../external/mbed/LPC1768/mbed.ar(Ticker.LPC1768.o)
                0x00011de8                _ZTVN4mbed6TickerE

.constdata__ZTIN4mbed6TickerE
                0x00011dfc        0xc
 .constdata__ZTIN4mbed6TickerE
                0x00011dfc        0xc ../../external/mbed/LPC1768/mbed.ar(Ticker.LPC1768.o)
                0x00011dfc                _ZTIN4mbed6TickerE

.constdata__ZTSN4mbed6TickerE
                0x00011e08        0xf
 .constdata__ZTSN4mbed6TickerE
                0x00011e08        0xf ../../external/mbed/LPC1768/mbed.ar(Ticker.LPC1768.o)
                0x00011e08                _ZTSN4mbed6TickerE

.constdata__ZTVN4mbed8FileLikeE
                0x00011e18       0x3c
 .constdata__ZTVN4mbed8FileLikeE
                0x00011e18       0x3c ../../external/mbed/LPC1768/mbed.ar(stdio.LPC1768.o)
                0x00011e18                _ZTVN4mbed8FileLikeE

.constdata__ZTIN4mbed8FileLikeE
                0x00011e54       0x20
 .constdata__ZTIN4mbed8FileLikeE
                0x00011e54       0x20 ../../external/mbed/LPC1768/mbed.ar(stdio.LPC1768.o)
                0x00011e54                _ZTIN4mbed8FileLikeE

.constdata__ZTIN4mbed10FileHandleE
                0x00011e74        0x8
 .constdata__ZTIN4mbed10FileHandleE
                0x00011e74        0x8 ../../external/mbed/LPC1768/mbed.ar(stdio.LPC1768.o)
                0x00011e74                _ZTIN4mbed10FileHandleE

.constdata__ZTSN4mbed8FileLikeE
                0x00011e7c       0x11
 .constdata__ZTSN4mbed8FileLikeE
                0x00011e7c       0x11 ../../external/mbed/LPC1768/mbed.ar(stdio.LPC1768.o)
                0x00011e7c                _ZTSN4mbed8FileLikeE

.constdata__ZTSN4mbed10FileHandleE
                0x00011e8d       0x14
 .constdata__ZTSN4mbed10FileHandleE
                0x00011e8d       0x14 ../../external/mbed/LPC1768/mbed.ar(stdio.LPC1768.o)
                0x00011e8d                _ZTSN4mbed10FileHandleE

.constdata__ZTVN4mbed6SerialE
                0x00011ea4       0x60
 .constdata__ZTVN4mbed6SerialE
                0x00011ea4       0x60 ../../external/mbed/LPC1768/mbed.ar(Serial.LPC1768.o)
                0x00011ea4                _ZTVN4mbed6SerialE

.constdata__ZTIN4mbed6SerialE
                0x00011f04        0xc
 .constdata__ZTIN4mbed6SerialE
                0x00011f04        0xc ../../external/mbed/LPC1768/mbed.ar(Serial.LPC1768.o)
                0x00011f04                _ZTIN4mbed6SerialE

.constdata__ZTSN4mbed6SerialE
                0x00011f10        0xf
 .constdata__ZTSN4mbed6SerialE
                0x00011f10        0xf ../../external/mbed/LPC1768/mbed.ar(Serial.LPC1768.o)
                0x00011f10                _ZTSN4mbed6SerialE

.constdata__ZTVN4mbed10TimerEventE
                0x00011f20       0x14
 .constdata__ZTVN4mbed10TimerEventE
                0x00011f20       0x14 ../../external/mbed/LPC1768/mbed.ar(TimerEvent.LPC1768.o)
                0x00011f20                _ZTVN4mbed10TimerEventE

.constdata__ZTIN4mbed10TimerEventE
                0x00011f34        0x8
 .constdata__ZTIN4mbed10TimerEventE
                0x00011f34        0x8 ../../external/mbed/LPC1768/mbed.ar(TimerEvent.LPC1768.o)
                0x00011f34                _ZTIN4mbed10TimerEventE

.constdata__ZTSN4mbed10TimerEventE
                0x00011f3c       0x14
 .constdata__ZTSN4mbed10TimerEventE
                0x00011f3c       0x14 ../../external/mbed/LPC1768/mbed.ar(TimerEvent.LPC1768.o)
                0x00011f3c                _ZTSN4mbed10TimerEventE

.constdata__ZTVN4mbed6StreamE
                0x00011f50       0x60
 .constdata__ZTVN4mbed6StreamE
                0x00011f50       0x60 ../../external/mbed/LPC1768/mbed.ar(Stream.LPC1768.o)
                0x00011f50                _ZTVN4mbed6StreamE

.constdata__ZTIN4mbed6StreamE
                0x00011fb0        0xc
 .constdata__ZTIN4mbed6StreamE
                0x00011fb0        0xc ../../external/mbed/LPC1768/mbed.ar(Stream.LPC1768.o)
                0x00011fb0                _ZTIN4mbed6StreamE

.constdata__ZTSN4mbed6StreamE
                0x00011fbc        0xf
 .constdata__ZTSN4mbed6StreamE
                0x00011fbc        0xf ../../external/mbed/LPC1768/mbed.ar(Stream.LPC1768.o)
                0x00011fbc                _ZTSN4mbed6StreamE

.ARM.exidx      0x00011fcc        0x8
 *(.ARM.exidx* .gnu.linkonce.armexidx.*)
 .ARM.exidx     0x00011fd4        0x0 ../../external/mbed/LPC1768/mbed.ar(DigitalOut.LPC1768.o)
                                  0x8 (size before relaxing)
 .ARM.exidx     0x00011fd4        0x0 ../../external/mbed/LPC1768/mbed.ar(DigitalOut.LPC1768.o)
                                  0x8 (size before relaxing)
 .ARM.exidx     0x00011fd4        0x0 ../../external/mbed/LPC1768/mbed.ar(DigitalOut.LPC1768.o)
                                  0x8 (size before relaxing)
 .ARM.exidx     0x00011fd4        0x0 ../../external/mbed/LPC1768/mbed.ar(DigitalOut.LPC1768.o)
                                  0x8 (size before relaxing)
 .ARM.exidx     0x00011fd4        0x0 ../../external/mbed/LPC1768/mbed.ar(DigitalOut.LPC1768.o)
                                  0x8 (size before relaxing)
 .ARM.exidx     0x00011fd4        0x0 ../../external/mbed/LPC1768/mbed.ar(DigitalOut.LPC1768.o)
                                  0x8 (size before relaxing)
 .ARM.exidx     0x00011fd4        0x0 ../../external/mbed/LPC1768/mbed.ar(DigitalOut.LPC1768.o)
                                  0x8 (size before relaxing)
 .ARM.exidx     0x00011fd4        0x0 ../../external/mbed/LPC1768/mbed.ar(DigitalOut.LPC1768.o)
                                  0x8 (size before relaxing)
 .ARM.exidx     0x00011fd4        0x0 ../../external/mbed/LPC1768/mbed.ar(DigitalOut.LPC1768.o)
                                  0x8 (size before relaxing)
 .ARM.exidx     0x00011fd4        0x0 ../../external/mbed/LPC1768/mbed.ar(DigitalOut.LPC1768.o)
                                  0x8 (size before relaxing)
 .ARM.exidx     0x00011fd4        0x0 ../../external/mbed/LPC1768/mbed.ar(Base.LPC1768.o)
                                  0x8 (size before relaxing)
 .ARM.exidx     0x00011fd4        0x0 ../../external/mbed/LPC1768/mbed.ar(Base.LPC1768.o)
                                  0x8 (size before relaxing)
 .ARM.exidx     0x00011fd4        0x0 ../../external/mbed/LPC1768/mbed.ar(Base.LPC1768.o)
                                  0x8 (size before relaxing)
 .ARM.exidx     0x00011fd4        0x0 ../../external/mbed/LPC1768/mbed.ar(Base.LPC1768.o)
                                  0x8 (size before relaxing)
 .ARM.exidx     0x00011fd4        0x0 ../../external/mbed/LPC1768/mbed.ar(Base.LPC1768.o)
                                  0x8 (size before relaxing)
 .ARM.exidx     0x00011fd4        0x0 ../../external/mbed/LPC1768/mbed.ar(Base.LPC1768.o)
                                  0x8 (size before relaxing)
 .ARM.exidx     0x00011fd4        0x0 ../../external/mbed/LPC1768/mbed.ar(Base.LPC1768.o)
                                  0x8 (size before relaxing)
 .ARM.exidx     0x00011fd4        0x0 ../../external/mbed/LPC1768/mbed.ar(Base.LPC1768.o)
                                  0x8 (size before relaxing)
 .ARM.exidx     0x00011fd4        0x0 ../../external/mbed/LPC1768/mbed.ar(Base.LPC1768.o)
                                  0x8 (size before relaxing)
 .ARM.exidx     0x00011fd4        0x0 ../../external/mbed/LPC1768/mbed.ar(Base.LPC1768.o)
                                  0x8 (size before relaxing)
 .ARM.exidx     0x00011fd4        0x0 ../../external/mbed/LPC1768/mbed.ar(Ticker.LPC1768.o)
                                  0x8 (size before relaxing)
 .ARM.exidx     0x00011fd4        0x0 ../../external/mbed/LPC1768/mbed.ar(Ticker.LPC1768.o)
                                  0x8 (size before relaxing)
 .ARM.exidx     0x00011fd4        0x0 ../../external/mbed/LPC1768/mbed.ar(Ticker.LPC1768.o)
                                  0x8 (size before relaxing)
 .ARM.exidx     0x00011fd4        0x0 ../../external/mbed/LPC1768/mbed.ar(Ticker.LPC1768.o)
                                  0x8 (size before relaxing)
 .ARM.exidx     0x00011fd4        0x0 ../../external/mbed/LPC1768/mbed.ar(stdio.LPC1768.o)
                                  0x8 (size before relaxing)
 .ARM.exidx     0x00011fd4        0x0 ../../external/mbed/LPC1768/mbed.ar(stdio.LPC1768.o)
                                  0x8 (size before relaxing)
 .ARM.exidx     0x00011fd4        0x0 ../../external/mbed/LPC1768/mbed.ar(stdio.LPC1768.o)
                                  0x8 (size before relaxing)
 .ARM.exidx     0x00011fd4        0x0 ../../external/mbed/LPC1768/mbed.ar(stdio.LPC1768.o)
                                  0x8 (size before relaxing)
 .ARM.exidx     0x00011fd4        0x0 ../../external/mbed/LPC1768/mbed.ar(stdio.LPC1768.o)
                                  0x8 (size before relaxing)
 .ARM.exidx     0x00011fd4        0x0 ../../external/mbed/LPC1768/mbed.ar(stdio.LPC1768.o)
                                  0x8 (size before relaxing)
 .ARM.exidx     0x00011fd4        0x0 ../../external/mbed/LPC1768/mbed.ar(stdio.LPC1768.o)
                                  0x8 (size before relaxing)
 .ARM.exidx     0x00011fd4        0x0 ../../external/mbed/LPC1768/mbed.ar(stdio.LPC1768.o)
                                  0x8 (size before relaxing)
 .ARM.exidx     0x00011fd4        0x0 ../../external/mbed/LPC1768/mbed.ar(stdio.LPC1768.o)
                                  0x8 (size before relaxing)
 .ARM.exidx     0x00011fd4        0x0 ../../external/mbed/LPC1768/mbed.ar(FunctionPointer.LPC1768.o)
                                  0x8 (size before relaxing)
 .ARM.exidx     0x00011fd4        0x0 ../../external/mbed/LPC1768/mbed.ar(FunctionPointer.LPC1768.o)
                                  0x8 (size before relaxing)
 .ARM.exidx     0x00011fd4        0x0 ../../external/mbed/LPC1768/mbed.ar(FunctionPointer.LPC1768.o)
                                  0x8 (size before relaxing)
 .ARM.exidx     0x00011fd4        0x0 ../../external/mbed/LPC1768/mbed.ar(Serial.LPC1768.o)
                                  0x8 (size before relaxing)
 .ARM.exidx     0x00011fd4        0x0 ../../external/mbed/LPC1768/mbed.ar(Serial.LPC1768.o)
                                  0x8 (size before relaxing)
 .ARM.exidx     0x00011fd4        0x0 ../../external/mbed/LPC1768/mbed.ar(Serial.LPC1768.o)
                                  0x8 (size before relaxing)
 .ARM.exidx     0x00011fd4        0x0 ../../external/mbed/LPC1768/mbed.ar(Serial.LPC1768.o)
                                  0x8 (size before relaxing)
 .ARM.exidx     0x00011fd4        0x0 ../../external/mbed/LPC1768/mbed.ar(Serial.LPC1768.o)
                                  0x8 (size before relaxing)
 .ARM.exidx     0x00011fd4        0x0 ../../external/mbed/LPC1768/mbed.ar(Serial.LPC1768.o)
                                  0x8 (size before relaxing)
 .ARM.exidx     0x00011fd4        0x0 ../../external/mbed/LPC1768/mbed.ar(Serial.LPC1768.o)
                                  0x8 (size before relaxing)
 .ARM.exidx     0x00011fd4        0x0 ../../external/mbed/LPC1768/mbed.ar(Serial.LPC1768.o)
                                  0x8 (size before relaxing)
 .ARM.exidx     0x00011fd4        0x0 ../../external/mbed/LPC1768/mbed.ar(Serial.LPC1768.o)
                                  0x8 (size before relaxing)
 .ARM.exidx     0x00011fd4        0x0 ../../external/mbed/LPC1768/mbed.ar(Serial.LPC1768.o)
                                  0x8 (size before relaxing)
 .ARM.exidx     0x00011fd4        0x0 ../../external/mbed/LPC1768/mbed.ar(Serial.LPC1768.o)
                                  0x8 (size before relaxing)
 .ARM.exidx     0x00011fd4        0x0 ../../external/mbed/LPC1768/mbed.ar(Serial.LPC1768.o)
                                  0x8 (size before relaxing)
 .ARM.exidx     0x00011fd4        0x0 ../../external/mbed/LPC1768/mbed.ar(Serial.LPC1768.o)
                                  0x8 (size before relaxing)
 .ARM.exidx     0x00011fd4        0x0 ../../external/mbed/LPC1768/mbed.ar(Serial.LPC1768.o)
                                  0x8 (size before relaxing)
 .ARM.exidx     0x00011fd4        0x0 ../../external/mbed/LPC1768/mbed.ar(TimerEvent.LPC1768.o)
                                  0x8 (size before relaxing)
 .ARM.exidx     0x00011fd4        0x0 ../../external/mbed/LPC1768/mbed.ar(TimerEvent.LPC1768.o)
                                  0x8 (size before relaxing)
 .ARM.exidx     0x00011fd4        0x0 ../../external/mbed/LPC1768/mbed.ar(TimerEvent.LPC1768.o)
                                  0x8 (size before relaxing)
 .ARM.exidx     0x00011fd4        0x0 ../../external/mbed/LPC1768/mbed.ar(TimerEvent.LPC1768.o)
                                  0x8 (size before relaxing)
 .ARM.exidx     0x00011fd4        0x0 ../../external/mbed/LPC1768/mbed.ar(TimerEvent.LPC1768.o)
                                  0x8 (size before relaxing)
 .ARM.exidx     0x00011fd4        0x0 ../../external/mbed/LPC1768/mbed.ar(TimerEvent.LPC1768.o)
                                  0x8 (size before relaxing)
 .ARM.exidx     0x00011fd4        0x0 ../../external/mbed/LPC1768/mbed.ar(TimerEvent.LPC1768.o)
                                  0x8 (size before relaxing)
 .ARM.exidx     0x00011fd4        0x0 ../../external/mbed/LPC1768/mbed.ar(Stream.LPC1768.o)
                                  0x8 (size before relaxing)
 .ARM.exidx     0x00011fd4        0x0 ../../external/mbed/LPC1768/mbed.ar(Stream.LPC1768.o)
                                  0x8 (size before relaxing)
 .ARM.exidx     0x00011fd4        0x0 ../../external/mbed/LPC1768/mbed.ar(Stream.LPC1768.o)
                                  0x8 (size before relaxing)
 .ARM.exidx     0x00011fd4        0x0 ../../external/mbed/LPC1768/mbed.ar(Stream.LPC1768.o)
                                  0x8 (size before relaxing)
 .ARM.exidx     0x00011fd4        0x0 ../../external/mbed/LPC1768/mbed.ar(Stream.LPC1768.o)
                                  0x8 (size before relaxing)
 .ARM.exidx     0x00011fd4        0x0 ../../external/mbed/LPC1768/mbed.ar(Stream.LPC1768.o)
                                  0x8 (size before relaxing)
 .ARM.exidx     0x00011fd4        0x0 ../../external/mbed/LPC1768/mbed.ar(Stream.LPC1768.o)
                                  0x8 (size before relaxing)
 .ARM.exidx     0x00011fd4        0x0 ../../external/mbed/LPC1768/mbed.ar(Stream.LPC1768.o)
                                  0x8 (size before relaxing)
 .ARM.exidx     0x00011fd4        0x0 ../../external/mbed/LPC1768/mbed.ar(Stream.LPC1768.o)
                                  0x8 (size before relaxing)
 .ARM.exidx     0x00011fd4        0x0 ../../external/mbed/LPC1768/mbed.ar(Stream.LPC1768.o)
                                  0x8 (size before relaxing)
 .ARM.exidx     0x00011fd4        0x0 ../../external/mbed/LPC1768/mbed.ar(Stream.LPC1768.o)
                                  0x8 (size before relaxing)
 .ARM.exidx     0x00011fd4        0x0 ../../external/mbed/LPC1768/mbed.ar(Stream.LPC1768.o)
                                  0x8 (size before relaxing)
 .ARM.exidx     0x00011fd4        0x0 ../../external/mbed/LPC1768/mbed.ar(Stream.LPC1768.o)
                                  0x8 (size before relaxing)
 .ARM.exidx     0x00011fd4        0x0 ../../external/mbed/LPC1768/mbed.ar(Stream.LPC1768.o)
                                  0x8 (size before relaxing)
 .ARM.exidx     0x00011fd4        0x0 ../../external/mbed/LPC1768/mbed.ar(Stream.LPC1768.o)
                                  0x8 (size before relaxing)
 .ARM.exidx     0x00011fd4        0x0 ../../external/mbed/LPC1768/mbed.ar(Stream.LPC1768.o)
                                  0x8 (size before relaxing)
 .ARM.exidx     0x00011fd4        0x0 ../../external/mbed/LPC1768/mbed.ar(Stream.LPC1768.o)
                                  0x8 (size before relaxing)
 .ARM.exidx     0x00011fd4        0x0 ../../external/mbed/LPC1768/mbed.ar(Stream.LPC1768.o)
                                  0x8 (size before relaxing)
 .ARM.exidx     0x00011fd4        0x0 ../../external/mbed/LPC1768/mbed.ar(Stream.LPC1768.o)
                                  0x8 (size before relaxing)
 .ARM.exidx     0x00011fd4        0x0 ../../external/mbed/LPC1768/mbed.ar(Stream.LPC1768.o)
                                  0x8 (size before relaxing)
 .ARM.exidx     0x00011fd4        0x0 ../../external/mbed/LPC1768/mbed.ar(Stream.LPC1768.o)
                                  0x8 (size before relaxing)
 .ARM.exidx     0x00011fd4        0x0 ../../external/mbed/LPC1768/mbed.ar(Stream.LPC1768.o)
                                  0x8 (size before relaxing)
 .ARM.exidx     0x00011fcc        0x8 /media/6aafac43-5450-453e-a142-f588400933c0/Sandbox/arm/bin/../lib/gcc/arm-none-eabi/4.5.2/thumb2/libgcc.a(_divdi3.o)
 .ARM.exidx     0x00011fd4        0x0 /media/6aafac43-5450-453e-a142-f588400933c0/Sandbox/arm/bin/../lib/gcc/arm-none-eabi/4.5.2/thumb2/libgcc.a(_udivdi3.o)
                                  0x8 (size before relaxing)
                0x00011fd4                __exidx_end = .

.data           0x10000000      0x680 load address 0x00011fd4
                0x00011fd4                _sidata = LOADADDR (.data)
                0x10000000                . = ALIGN (0x4)
                0x10000000                _sdata = .
                0x10000000                Image$$RW_IRAM1$$Base = .
 *(.ARM.__AT_0x10000000)
 .ARM.__AT_0x10000000
                0x10000000       0xc4 ../../external/mbed/LPC1768/capi.ar(cmsis_nvic.LPC1768.o)
 *(vtable vtable.*)
 *(.data .data.*)
 .data          0x100000c4        0x4 /media/6aafac43-5450-453e-a142-f588400933c0/Sandbox/arm/bin/../lib/gcc/arm-none-eabi/4.5.2/thumb2/crtbegin.o
                0x100000c4                __dso_handle
 .data          0x100000c8        0x8 ../../external/mbed/LPC1768/mbed.ar(Base.LPC1768.o)
                0x100000c8                _ZN4mbed4Base5_headE
                0x100000cc                _ZN4mbed4Base8_classesE
 .data          0x100000d0        0xc ../../external/mbed/LPC1768/mbed.ar(Base.LPC1768.o)
                0x100000d0                _ZN4mbed4Base11_base_classE
 .data          0x100000dc        0x4 ../../external/mbed/LPC1768/mbed.ar(TimerEvent.LPC1768.o)
                0x100000dc                _ZN4mbed10TimerEvent5_headE
 .data          0x100000e0        0x4 ../../external/mbed/LPC1768/capi.ar(system_LPC17xx.LPC1768.o)
                0x100000e0                SystemCoreClock
 .data          0x100000e4        0x4 ../../external/mbed/LPC1768/capi.ar(us_ticker_api.LPC1768.o)
 .data._ZN10__cxxabiv119__terminate_handlerE
                0x100000e8        0x4 ../../external/gcc/LPC1768/libstdc++.a(eh_term_handler.o)
                0x100000e8                _ZN10__cxxabiv119__terminate_handlerE
 .data.impure_data
                0x100000ec       0xf0 ../../external/gcc/LPC1768/libc.a(lib_a-impure.o)
 .data._impure_ptr
                0x100001dc        0x4 ../../external/gcc/LPC1768/libc.a(lib_a-impure.o)
                0x100001dc                _impure_ptr
 .data.__malloc_av_
                0x100001e0      0x408 ../../external/gcc/LPC1768/libc.a(lib_a-mallocr.o)
                0x100001e0                __malloc_av_
 .data.__malloc_trim_threshold
                0x100005e8        0x4 ../../external/gcc/LPC1768/libc.a(lib_a-mallocr.o)
                0x100005e8                __malloc_trim_threshold
 .data.__malloc_sbrk_base
                0x100005ec        0x4 ../../external/gcc/LPC1768/libc.a(lib_a-mallocr.o)
                0x100005ec                __malloc_sbrk_base
 .data.__ctype_ptr__
                0x100005f0        0x4 ../../external/gcc/LPC1768/libc.a(lib_a-ctype_.o)
                0x100005f0                __ctype_ptr__
 .data.lconv    0x100005f4       0x38 ../../external/gcc/LPC1768/libc.a(lib_a-locale.o)
 .data.lc_ctype_charset
                0x1000062c       0x20 ../../external/gcc/LPC1768/libc.a(lib_a-locale.o)
 .data.__mb_cur_max
                0x1000064c        0x4 ../../external/gcc/LPC1768/libc.a(lib_a-locale.o)
                0x1000064c                __mb_cur_max
 .data.__mbtowc
                0x10000650        0x4 ../../external/gcc/LPC1768/libc.a(lib_a-mbtowc_r.o)
                0x10000650                __mbtowc
 .data.fpinan.5116
                0x10000654       0x14 ../../external/gcc/LPC1768/libc.a(lib_a-strtod.o)
 .data.fpi.5080
                0x10000668       0x14 ../../external/gcc/LPC1768/libc.a(lib_a-strtod.o)
 .data.__wctomb
                0x1000067c        0x4 ../../external/gcc/LPC1768/libc.a(lib_a-wctomb_r.o)
                0x1000067c                __wctomb
 *(.gnu.linkonce.d*)
                0x10000680                . = ALIGN (0x4)
                0x10000680                _edata = .

.jcr            0x10000680        0x0 load address 0x00012654
 .jcr           0x10000680        0x0 /media/6aafac43-5450-453e-a142-f588400933c0/Sandbox/arm/bin/../lib/gcc/arm-none-eabi/4.5.2/thumb2/crtbegin.o

.bss            0x10000680      0x4a8 load address 0x00012654
                0x10000680                . = ALIGN (0x4)
                0x10000680                _sbss = .
 *(.bss .bss.*)
 .bss           0x10000680        0x1 /media/6aafac43-5450-453e-a142-f588400933c0/Sandbox/arm/bin/../lib/gcc/arm-none-eabi/4.5.2/thumb2/crtbegin.o
 *fill*         0x10000681        0x3 00
 .bss._ZZ6_lseekE14pppFileHandles
                0x10000684        0x4 ../../src/syscalls.o
 .bss._ZL8heap_end
                0x10000688        0x4 ../../src/syscalls.o
 .bss._ZL23g_StandardHandlesOpened
                0x1000068c        0x4 ../../src/syscalls.o
 .bss.led1      0x10000690       0x1c ./main.o
                0x10000690                led1
 .bss.led2      0x100006ac       0x1c ./main.o
                0x100006ac                led2
 .bss.flipper   0x100006c8       0x2c ./main.o
                0x100006c8                flipper
 .bss.g_MriFlags
                0x100006f4        0x4 ../../mri/mri.ar(mri.o)
                0x100006f4                g_MriFlags
 .bss._ZL10g_MriState
                0x100006f8      0x174 ../../mri/mri.ar(mri.o)
 .bss.g_MriContext
                0x1000086c       0xa8 ../../mri/mri.ar(mri.o)
                0x1000086c                g_MriContext
 .bss._ZL8g_Serial
                0x10000914       0x58 ../../mri/mri.ar(mri.o)
 .bss.g_MriMbedUid
                0x1000096c       0x24 ../../mri/mri.ar(mri.o)
                0x1000096c                g_MriMbedUid
 .bss           0x10000990       0x40 ../../external/mbed/LPC1768/mbed.ar(stdio.LPC1768.o)
 .bss.__new_handler
                0x100009d0        0x4 ../../external/gcc/LPC1768/libstdc++.a(new_handler.o)
                0x100009d0                __new_handler
 .bss._ZZN9__gnu_cxx27__verbose_terminate_handlerEvE11terminating
                0x100009d4        0x1 ../../external/gcc/LPC1768/libstdc++.a(vterminate.o)
 *fill*         0x100009d5        0x3 00
 .bss._ZL10eh_globals
                0x100009d8        0xc ../../external/gcc/LPC1768/libstdc++.a(eh_globals.o)
 .bss.__malloc_max_total_mem
                0x100009e4        0x4 ../../external/gcc/LPC1768/libc.a(lib_a-mallocr.o)
                0x100009e4                __malloc_max_total_mem
 .bss.__malloc_max_sbrked_mem
                0x100009e8        0x4 ../../external/gcc/LPC1768/libc.a(lib_a-mallocr.o)
                0x100009e8                __malloc_max_sbrked_mem
 .bss.__malloc_top_pad
                0x100009ec        0x4 ../../external/gcc/LPC1768/libc.a(lib_a-mallocr.o)
                0x100009ec                __malloc_top_pad
 .bss.__malloc_current_mallinfo
                0x100009f0       0x28 ../../external/gcc/LPC1768/libc.a(lib_a-mallocr.o)
                0x100009f0                __malloc_current_mallinfo
 *(.gnu.linkonce.b*)
 *(COMMON)
 COMMON         0x10000a18        0xc ../../external/gcc/LPC1768/libc.a(lib_a-clibabi_stdio.o)
                0x10000a18                __aeabi_stdin
                0x10000a1c                __aeabi_stdout
                0x10000a20                __aeabi_stderr
 COMMON         0x10000a24        0x4 ../../external/gcc/LPC1768/libc.a(lib_a-reent.o)
                0x10000a24                errno
 COMMON         0x10000a28      0x100 ../../external/gcc/LPC1768/libc.a(lib_a-gdtoa-gethex.o)
                0x10000a28                __hexdig
                0x10000b28                . = ALIGN (0x4)
                0x10000b28                _ebss = .
                0x10000b28                Image$$RW_IRAM1$$ZI$$Limit = .

.fastcode       0x10000b28        0x0 load address 0x00012654
                0x00012654                _sifastcode = LOADADDR (.fastcode)
                0x10000b28                . = ALIGN (0x4)
                0x10000b28                _sfastcode = .
 *(.glue_7t)
 *(.glue_7)
 *(.fastcode)
                0x10000b28                . = ALIGN (0x4)
                0x10000b28                _efastcode = .

.stackarea      0x10000b28        0x0 load address 0x00012654
                0x10000b28                . = ALIGN (0x8)
                0x10000b28                _sstack = .
 *(.stackarea .stackarea.*)
                0x10000b28                . = ALIGN (0x8)
                0x10000b28                _estack = .
                0x10000b28                . = ALIGN (0x4)
                0x10000b28                _end = .
                0x10000b28                PROVIDE (end, .)
                0x10008000                _stack = 0x10008000

.AHBSRAM0       0x2007c000        0x0
                0x2007c000                Image$$RW_IRAM2$$Base = .
 *(AHBSRAM0)
                0x2007c000                Image$$RW_IRAM2$$ZI$$Limit = .

.AHBSRAM1       0x20080000        0x0
                0x20080000                Image$$RW_IRAM3$$Base = .
 *(AHBSRAM1)
                0x20080000                Image$$RW_IRAM3$$ZI$$Limit = .

.ARM.attributes
                0x00000000       0x2b
 .ARM.attributes
                0x00000000       0x19 /media/6aafac43-5450-453e-a142-f588400933c0/Sandbox/arm/bin/../lib/gcc/arm-none-eabi/4.5.2/thumb2/crti.o
 .ARM.attributes
                0x00000019       0x29 /media/6aafac43-5450-453e-a142-f588400933c0/Sandbox/arm/bin/../lib/gcc/arm-none-eabi/4.5.2/thumb2/crtbegin.o
 .ARM.attributes
                0x00000042       0x31 ../../src/gcc4mbed.o
 .ARM.attributes
                0x00000073       0x31 ../../src/syscalls.o
 .ARM.attributes
                0x000000a4       0x31 ./main.o
 .ARM.attributes
                0x000000d5       0x31 ../../mri/mri.ar(mri.o)
 .ARM.attributes
                0x00000106       0x21 ../../mri/mri.ar(mriasm.o)
 .ARM.attributes
                0x00000127       0x48 ../../external/mbed/LPC1768/mbed.ar(DigitalOut.LPC1768.o)
 .ARM.attributes
                0x0000016f       0x48 ../../external/mbed/LPC1768/mbed.ar(Base.LPC1768.o)
 .ARM.attributes
                0x000001b7       0x48 ../../external/mbed/LPC1768/mbed.ar(Ticker.LPC1768.o)
 .ARM.attributes
                0x000001ff       0x48 ../../external/mbed/LPC1768/mbed.ar(stdio.LPC1768.o)
 .ARM.attributes
                0x00000247       0x48 ../../external/mbed/LPC1768/mbed.ar(FunctionPointer.LPC1768.o)
 .ARM.attributes
                0x0000028f       0x48 ../../external/mbed/LPC1768/mbed.ar(Serial.LPC1768.o)
 .ARM.attributes
                0x000002d7       0x48 ../../external/mbed/LPC1768/mbed.ar(TimerEvent.LPC1768.o)
 .ARM.attributes
                0x0000031f       0x48 ../../external/mbed/LPC1768/mbed.ar(Stream.LPC1768.o)
 .ARM.attributes
                0x00000367       0x48 ../../external/mbed/LPC1768/capi.ar(cmsis_nvic.LPC1768.o)
 .ARM.attributes
                0x000003af       0x3e ../../external/mbed/LPC1768/capi.ar(startup_LPC17xx.LPC1768.o)
 .ARM.attributes
                0x000003ed       0x48 ../../external/mbed/LPC1768/capi.ar(system_LPC17xx.LPC1768.o)
 .ARM.attributes
                0x00000435       0x49 ../../external/mbed/LPC1768/capi.ar(core_cm3.LPC1768.o)
 .ARM.attributes
                0x0000047e       0x48 ../../external/mbed/LPC1768/capi.ar(serial_api.LPC1768.o)
 .ARM.attributes
                0x000004c6       0x48 ../../external/mbed/LPC1768/capi.ar(exit.LPC1768.o)
 .ARM.attributes
                0x0000050e       0x48 ../../external/mbed/LPC1768/capi.ar(pinmap.LPC1768.o)
 .ARM.attributes
                0x00000556       0x48 ../../external/mbed/LPC1768/capi.ar(wait_api.LPC1768.o)
 .ARM.attributes
                0x0000059e       0x48 ../../external/mbed/LPC1768/capi.ar(gpio_api.LPC1768.o)
 .ARM.attributes
                0x000005e6       0x48 ../../external/mbed/LPC1768/capi.ar(semihost_api.LPC1768.o)
 .ARM.attributes
                0x0000062e       0x48 ../../external/mbed/LPC1768/capi.ar(us_ticker_api.LPC1768.o)
 .ARM.attributes
                0x00000676       0x48 ../../external/mbed/LPC1768/capi.ar(utils_api.LPC1768.o)
 .ARM.attributes
                0x000006be       0x48 ../../external/mbed/LPC1768/capi.ar(timer_api.LPC1768.o)
 .ARM.attributes
                0x00000706       0x29 ../../external/gcc/LPC1768/libstdc++.a(atexit_arm.o)
 .ARM.attributes
                0x0000072f       0x29 ../../external/gcc/LPC1768/libstdc++.a(class_type_info.o)
 .ARM.attributes
                0x00000758       0x29 ../../external/gcc/LPC1768/libstdc++.a(del_op.o)
 .ARM.attributes
                0x00000781       0x29 ../../external/gcc/LPC1768/libstdc++.a(del_opv.o)
 .ARM.attributes
                0x000007aa       0x29 ../../external/gcc/LPC1768/libstdc++.a(dyncast.o)
 .ARM.attributes
                0x000007d3       0x29 ../../external/gcc/LPC1768/libstdc++.a(new_op.o)
 .ARM.attributes
                0x000007fc       0x29 ../../external/gcc/LPC1768/libstdc++.a(new_opv.o)
 .ARM.attributes
                0x00000825       0x29 ../../external/gcc/LPC1768/libstdc++.a(pure.o)
 .ARM.attributes
                0x0000084e       0x29 ../../external/gcc/LPC1768/libstdc++.a(si_class_type_info.o)
 .ARM.attributes
                0x00000877       0x29 ../../external/gcc/LPC1768/libstdc++.a(tinfo.o)
 .ARM.attributes
                0x000008a0       0x29 ../../external/gcc/LPC1768/libstdc++.a(vec.o)
 .ARM.attributes
                0x000008c9       0x29 ../../external/gcc/LPC1768/libstdc++.a(vmi_class_type_info.o)
 .ARM.attributes
                0x000008f2       0x29 ../../external/gcc/LPC1768/libstdc++.a(eh_terminate.o)
 .ARM.attributes
                0x0000091b       0x29 ../../external/gcc/LPC1768/libstdc++.a(eh_unex_handler.o)
 .ARM.attributes
                0x00000944       0x29 ../../external/gcc/LPC1768/libstdc++.a(new_handler.o)
 .ARM.attributes
                0x0000096d       0x29 ../../external/gcc/LPC1768/libstdc++.a(eh_exception.o)
 .ARM.attributes
                0x00000996       0x29 ../../external/gcc/LPC1768/libstdc++.a(eh_term_handler.o)
 .ARM.attributes
                0x000009bf       0x29 ../../external/gcc/LPC1768/libstdc++.a(vterminate.o)
 .ARM.attributes
                0x000009e8       0x29 ../../external/gcc/LPC1768/libstdc++.a(cp-demangle.o)
 .ARM.attributes
                0x00000a11       0x29 ../../external/gcc/LPC1768/libstdc++.a(eh_type.o)
 .ARM.attributes
                0x00000a3a       0x29 ../../external/gcc/LPC1768/libstdc++.a(eh_globals.o)
 .ARM.attributes
                0x00000a63       0x29 ../../external/gcc/LPC1768/libm.a(lib_a-s_scalbn.o)
 .ARM.attributes
                0x00000a8c       0x29 ../../external/gcc/LPC1768/libm.a(lib_a-s_copysign.o)
 .ARM.attributes
                0x00000ab5       0x1b /media/6aafac43-5450-453e-a142-f588400933c0/Sandbox/arm/bin/../lib/gcc/arm-none-eabi/4.5.2/thumb2/libgcc.a(_arm_addsubdf3.o)
 .ARM.attributes
                0x00000ad0       0x1b /media/6aafac43-5450-453e-a142-f588400933c0/Sandbox/arm/bin/../lib/gcc/arm-none-eabi/4.5.2/thumb2/libgcc.a(_arm_muldivdf3.o)
 .ARM.attributes
                0x00000aeb       0x1b /media/6aafac43-5450-453e-a142-f588400933c0/Sandbox/arm/bin/../lib/gcc/arm-none-eabi/4.5.2/thumb2/libgcc.a(_arm_fixdfsi.o)
 .ARM.attributes
                0x00000b06       0x1b /media/6aafac43-5450-453e-a142-f588400933c0/Sandbox/arm/bin/../lib/gcc/arm-none-eabi/4.5.2/thumb2/libgcc.a(_arm_truncdfsf2.o)
 .ARM.attributes
                0x00000b21       0x1b /media/6aafac43-5450-453e-a142-f588400933c0/Sandbox/arm/bin/../lib/gcc/arm-none-eabi/4.5.2/thumb2/libgcc.a(_arm_addsubsf3.o)
 .ARM.attributes
                0x00000b3c       0x1b /media/6aafac43-5450-453e-a142-f588400933c0/Sandbox/arm/bin/../lib/gcc/arm-none-eabi/4.5.2/thumb2/libgcc.a(_arm_muldivsf3.o)
 .ARM.attributes
                0x00000b57       0x1b /media/6aafac43-5450-453e-a142-f588400933c0/Sandbox/arm/bin/../lib/gcc/arm-none-eabi/4.5.2/thumb2/libgcc.a(_arm_cmpsf2.o)
 .ARM.attributes
                0x00000b72       0x29 ../../external/gcc/LPC1768/libc.a(lib_a-abort.o)
 .ARM.attributes
                0x00000b9b       0x29 ../../external/gcc/LPC1768/libc.a(lib_a-aeabi_memcpy.o)
 .ARM.attributes
                0x00000bc4       0x29 ../../external/gcc/LPC1768/libc.a(lib_a-clibabi_assert.o)
 .ARM.attributes
                0x00000bed       0x29 ../../external/gcc/LPC1768/libc.a(lib_a-clibabi_ctype.o)
 .ARM.attributes
                0x00000c16       0x29 ../../external/gcc/LPC1768/libc.a(lib_a-clibabi_stdio.o)
 .ARM.attributes
                0x00000c3f       0x29 ../../external/gcc/LPC1768/libc.a(lib_a-cxa_atexit.o)
 .ARM.attributes
                0x00000c68       0x29 ../../external/gcc/LPC1768/libc.a(lib_a-fclose.o)
 .ARM.attributes
                0x00000c91       0x29 ../../external/gcc/LPC1768/libc.a(lib_a-fflush.o)
 .ARM.attributes
                0x00000cba       0x29 ../../external/gcc/LPC1768/libc.a(lib_a-fgetc.o)
 .ARM.attributes
                0x00000ce3       0x29 ../../external/gcc/LPC1768/libc.a(lib_a-findfp.o)
 .ARM.attributes
                0x00000d0c       0x29 ../../external/gcc/LPC1768/libc.a(lib_a-fopen.o)
 .ARM.attributes
                0x00000d35       0x29 ../../external/gcc/LPC1768/libc.a(lib_a-fprintf.o)
 .ARM.attributes
                0x00000d5e       0x29 ../../external/gcc/LPC1768/libc.a(lib_a-fputc.o)
 .ARM.attributes
                0x00000d87       0x29 ../../external/gcc/LPC1768/libc.a(lib_a-fputs.o)
 .ARM.attributes
                0x00000db0       0x29 ../../external/gcc/LPC1768/libc.a(lib_a-freer.o)
 .ARM.attributes
                0x00000dd9       0x29 ../../external/gcc/LPC1768/libc.a(lib_a-fseek.o)
 .ARM.attributes
                0x00000e02       0x29 ../../external/gcc/LPC1768/libc.a(lib_a-fstatr.o)
 .ARM.attributes
                0x00000e2b       0x29 ../../external/gcc/LPC1768/libc.a(lib_a-fvwrite.o)
 .ARM.attributes
                0x00000e54       0x29 ../../external/gcc/LPC1768/libc.a(lib_a-fwalk.o)
 .ARM.attributes
                0x00000e7d       0x29 ../../external/gcc/LPC1768/libc.a(lib_a-fwrite.o)
 .ARM.attributes
                0x00000ea6       0x29 ../../external/gcc/LPC1768/libc.a(lib_a-impure.o)
 .ARM.attributes
                0x00000ecf       0x29 ../../external/gcc/LPC1768/libc.a(lib_a-init.o)
 .ARM.attributes
                0x00000ef8       0x29 ../../external/gcc/LPC1768/libc.a(lib_a-makebuf.o)
 .ARM.attributes
                0x00000f21       0x29 ../../external/gcc/LPC1768/libc.a(lib_a-malloc.o)
 .ARM.attributes
                0x00000f4a       0x29 ../../external/gcc/LPC1768/libc.a(lib_a-mallocr.o)
 .ARM.attributes
                0x00000f73       0x29 ../../external/gcc/LPC1768/libc.a(lib_a-memchr.o)
 .ARM.attributes
                0x00000f9c       0x29 ../../external/gcc/LPC1768/libc.a(lib_a-memcmp.o)
 .ARM.attributes
                0x00000fc5       0x29 ../../external/gcc/LPC1768/libc.a(lib_a-memcpy.o)
 .ARM.attributes
                0x00000fee       0x29 ../../external/gcc/LPC1768/libc.a(lib_a-memmove.o)
 .ARM.attributes
                0x00001017       0x29 ../../external/gcc/LPC1768/libc.a(lib_a-memset.o)
 .ARM.attributes
                0x00001040       0x29 ../../external/gcc/LPC1768/libc.a(lib_a-mlock.o)
 .ARM.attributes
                0x00001069       0x29 ../../external/gcc/LPC1768/libc.a(lib_a-openr.o)
 .ARM.attributes
                0x00001092       0x29 ../../external/gcc/LPC1768/libc.a(lib_a-putc.o)
 .ARM.attributes
                0x000010bb       0x29 ../../external/gcc/LPC1768/libc.a(lib_a-puts.o)
 .ARM.attributes
                0x000010e4       0x29 ../../external/gcc/LPC1768/libc.a(lib_a-realloc.o)
 .ARM.attributes
                0x0000110d       0x29 ../../external/gcc/LPC1768/libc.a(lib_a-reallocr.o)
 .ARM.attributes
                0x00001136       0x29 ../../external/gcc/LPC1768/libc.a(lib_a-reent.o)
 .ARM.attributes
                0x0000115f       0x29 ../../external/gcc/LPC1768/libc.a(lib_a-refill.o)
 .ARM.attributes
                0x00001188       0x29 ../../external/gcc/LPC1768/libc.a(lib_a-rget.o)
 .ARM.attributes
                0x000011b1       0x29 ../../external/gcc/LPC1768/libc.a(lib_a-sbrkr.o)
 .ARM.attributes
                0x000011da       0x29 ../../external/gcc/LPC1768/libc.a(lib_a-setbuf.o)
 .ARM.attributes
                0x00001203       0x29 ../../external/gcc/LPC1768/libc.a(lib_a-setvbuf.o)
 .ARM.attributes
                0x0000122c       0x29 ../../external/gcc/LPC1768/libc.a(lib_a-signal.o)
 .ARM.attributes
                0x00001255       0x29 ../../external/gcc/LPC1768/libc.a(lib_a-signalr.o)
 .ARM.attributes
                0x0000127e       0x29 ../../external/gcc/LPC1768/libc.a(lib_a-sprintf.o)
 .ARM.attributes
                0x000012a7       0x29 ../../external/gcc/LPC1768/libc.a(lib_a-sscanf.o)
 .ARM.attributes
                0x000012d0       0x29 ../../external/gcc/LPC1768/libc.a(lib_a-stdio.o)
 .ARM.attributes
                0x000012f9       0x29 ../../external/gcc/LPC1768/libc.a(lib_a-strcmp.o)
 .ARM.attributes
                0x00001322       0x29 ../../external/gcc/LPC1768/libc.a(lib_a-strcpy.o)
 .ARM.attributes
                0x0000134b       0x29 ../../external/gcc/LPC1768/libc.a(lib_a-strlen.o)
 .ARM.attributes
                0x00001374       0x29 ../../external/gcc/LPC1768/libc.a(lib_a-strncmp.o)
 .ARM.attributes
                0x0000139d       0x29 ../../external/gcc/LPC1768/libc.a(lib_a-strncpy.o)
 .ARM.attributes
                0x000013c6       0x29 ../../external/gcc/LPC1768/libc.a(lib_a-strtol.o)
 .ARM.attributes
                0x000013ef       0x29 ../../external/gcc/LPC1768/libc.a(lib_a-svfprintf.o)
 .ARM.attributes
                0x00001418       0x29 ../../external/gcc/LPC1768/libc.a(lib_a-svfscanf.o)
 .ARM.attributes
                0x00001441       0x29 ../../external/gcc/LPC1768/libc.a(lib_a-syswrite.o)
 .ARM.attributes
                0x0000146a       0x29 ../../external/gcc/LPC1768/libc.a(lib_a-vfprintf.o)
 .ARM.attributes
                0x00001493       0x29 ../../external/gcc/LPC1768/libc.a(lib_a-vfscanf.o)
 .ARM.attributes
                0x000014bc       0x29 ../../external/gcc/LPC1768/libc.a(lib_a-wbuf.o)
 .ARM.attributes
                0x000014e5       0x29 ../../external/gcc/LPC1768/libc.a(lib_a-writer.o)
 .ARM.attributes
                0x0000150e       0x29 ../../external/gcc/LPC1768/libc.a(lib_a-wsetup.o)
 .ARM.attributes
                0x00001537       0x29 ../../external/gcc/LPC1768/libc.a(lib_a-__atexit.o)
 .ARM.attributes
                0x00001560       0x29 ../../external/gcc/LPC1768/libc.a(lib_a-assert.o)
 .ARM.attributes
                0x00001589       0x29 ../../external/gcc/LPC1768/libc.a(lib_a-closer.o)
 .ARM.attributes
                0x000015b2       0x29 ../../external/gcc/LPC1768/libc.a(lib_a-ctype_.o)
 .ARM.attributes
                0x000015db       0x29 ../../external/gcc/LPC1768/libc.a(lib_a-dtoa.o)
 .ARM.attributes
                0x00001604       0x29 ../../external/gcc/LPC1768/libc.a(lib_a-fiprintf.o)
 .ARM.attributes
                0x0000162d       0x29 ../../external/gcc/LPC1768/libc.a(lib_a-flags.o)
 .ARM.attributes
                0x00001656       0x29 ../../external/gcc/LPC1768/libc.a(lib_a-fread.o)
 .ARM.attributes
                0x0000167f       0x29 ../../external/gcc/LPC1768/libc.a(lib_a-isattyr.o)
 .ARM.attributes
                0x000016a8       0x29 ../../external/gcc/LPC1768/libc.a(lib_a-iswspace.o)
 .ARM.attributes
                0x000016d1       0x29 ../../external/gcc/LPC1768/libc.a(lib_a-locale.o)
 .ARM.attributes
                0x000016fa       0x29 ../../external/gcc/LPC1768/libc.a(lib_a-lseekr.o)
 .ARM.attributes
                0x00001723       0x29 ../../external/gcc/LPC1768/libc.a(lib_a-mbrtowc.o)
 .ARM.attributes
                0x0000174c       0x29 ../../external/gcc/LPC1768/libc.a(lib_a-mbtowc_r.o)
 .ARM.attributes
                0x00001775       0x29 ../../external/gcc/LPC1768/libc.a(lib_a-mprec.o)
 .ARM.attributes
                0x0000179e       0x29 ../../external/gcc/LPC1768/libc.a(lib_a-readr.o)
 .ARM.attributes
                0x000017c7       0x29 ../../external/gcc/LPC1768/libc.a(lib_a-s_fpclassify.o)
 .ARM.attributes
                0x000017f0       0x29 ../../external/gcc/LPC1768/libc.a(lib_a-sccl.o)
 .ARM.attributes
                0x00001819       0x29 ../../external/gcc/LPC1768/libc.a(lib_a-sf_nan.o)
 .ARM.attributes
                0x00001842       0x29 ../../external/gcc/LPC1768/libc.a(lib_a-strtod.o)
 .ARM.attributes
                0x0000186b       0x29 ../../external/gcc/LPC1768/libc.a(lib_a-strtoll_r.o)
 .ARM.attributes
                0x00001894       0x29 ../../external/gcc/LPC1768/libc.a(lib_a-strtoul.o)
 .ARM.attributes
                0x000018bd       0x29 ../../external/gcc/LPC1768/libc.a(lib_a-strtoull_r.o)
 .ARM.attributes
                0x000018e6       0x29 ../../external/gcc/LPC1768/libc.a(lib_a-svfiprintf.o)
 .ARM.attributes
                0x0000190f       0x29 ../../external/gcc/LPC1768/libc.a(lib_a-svfiscanf.o)
 .ARM.attributes
                0x00001938       0x29 ../../external/gcc/LPC1768/libc.a(lib_a-ungetc.o)
 .ARM.attributes
                0x00001961       0x29 ../../external/gcc/LPC1768/libc.a(lib_a-vfiprintf.o)
 .ARM.attributes
                0x0000198a       0x29 ../../external/gcc/LPC1768/libc.a(lib_a-callocr.o)
 .ARM.attributes
                0x000019b3       0x29 ../../external/gcc/LPC1768/libc.a(lib_a-fputwc.o)
 .ARM.attributes
                0x000019dc       0x29 ../../external/gcc/LPC1768/libc.a(lib_a-gdtoa-gethex.o)
 .ARM.attributes
                0x00001a05       0x29 ../../external/gcc/LPC1768/libc.a(lib_a-gdtoa-hexnan.o)
 .ARM.attributes
                0x00001a2e       0x29 ../../external/gcc/LPC1768/libc.a(lib_a-wcrtomb.o)
 .ARM.attributes
                0x00001a57       0x29 ../../external/gcc/LPC1768/libc.a(lib_a-wctomb_r.o)
 .ARM.attributes
                0x00001a80       0x1b /media/6aafac43-5450-453e-a142-f588400933c0/Sandbox/arm/bin/../lib/gcc/arm-none-eabi/4.5.2/thumb2/libgcc.a(_udivsi3.o)
 .ARM.attributes
                0x00001a9b       0x1b /media/6aafac43-5450-453e-a142-f588400933c0/Sandbox/arm/bin/../lib/gcc/arm-none-eabi/4.5.2/thumb2/libgcc.a(_divsi3.o)
 .ARM.attributes
                0x00001ab6       0x1b /media/6aafac43-5450-453e-a142-f588400933c0/Sandbox/arm/bin/../lib/gcc/arm-none-eabi/4.5.2/thumb2/libgcc.a(_dvmd_tls.o)
 .ARM.attributes
                0x00001ad1       0x1b /media/6aafac43-5450-453e-a142-f588400933c0/Sandbox/arm/bin/../lib/gcc/arm-none-eabi/4.5.2/thumb2/libgcc.a(_arm_cmpdf2.o)
 .ARM.attributes
                0x00001aec       0x1b /media/6aafac43-5450-453e-a142-f588400933c0/Sandbox/arm/bin/../lib/gcc/arm-none-eabi/4.5.2/thumb2/libgcc.a(_arm_fixunsdfsi.o)
 .ARM.attributes
                0x00001b07       0x1b /media/6aafac43-5450-453e-a142-f588400933c0/Sandbox/arm/bin/../lib/gcc/arm-none-eabi/4.5.2/thumb2/libgcc.a(_aeabi_uldivmod.o)
 .ARM.attributes
                0x00001b22       0x29 /media/6aafac43-5450-453e-a142-f588400933c0/Sandbox/arm/bin/../lib/gcc/arm-none-eabi/4.5.2/thumb2/libgcc.a(bpabi.o)
 .ARM.attributes
                0x00001b4b       0x29 /media/6aafac43-5450-453e-a142-f588400933c0/Sandbox/arm/bin/../lib/gcc/arm-none-eabi/4.5.2/thumb2/libgcc.a(_divdi3.o)
 .ARM.attributes
                0x00001b74       0x29 /media/6aafac43-5450-453e-a142-f588400933c0/Sandbox/arm/bin/../lib/gcc/arm-none-eabi/4.5.2/thumb2/libgcc.a(_udivdi3.o)
 .ARM.attributes
                0x00001b9d       0x29 /media/6aafac43-5450-453e-a142-f588400933c0/Sandbox/arm/bin/../lib/gcc/arm-none-eabi/4.5.2/thumb2/crtend.o
 .ARM.attributes
                0x00001bc6       0x19 /media/6aafac43-5450-453e-a142-f588400933c0/Sandbox/arm/bin/../lib/gcc/arm-none-eabi/4.5.2/thumb2/crtn.o

.comment        0x00000000     0x1369
 .comment       0x00000000       0x2a ../../src/gcc4mbed.o
                                 0x2b (size before relaxing)
 .comment       0x00000000       0x2b ../../src/syscalls.o
 .comment       0x00000000       0x2b ./main.o
 .comment       0x00000000       0x2b ../../mri/mri.ar(mri.o)
 .comment       0x0000002a       0xf4 ../../external/mbed/LPC1768/mbed.ar(DigitalOut.LPC1768.o)
 .comment       0x0000011e       0xe8 ../../external/mbed/LPC1768/mbed.ar(Base.LPC1768.o)
 .comment       0x00000206       0xec ../../external/mbed/LPC1768/mbed.ar(Ticker.LPC1768.o)
 .comment       0x000002f2       0xea ../../external/mbed/LPC1768/mbed.ar(stdio.LPC1768.o)
 .comment       0x000003dc       0xfe ../../external/mbed/LPC1768/mbed.ar(FunctionPointer.LPC1768.o)
 .comment       0x000004da       0xec ../../external/mbed/LPC1768/mbed.ar(Serial.LPC1768.o)
 .comment       0x000005c6       0xf4 ../../external/mbed/LPC1768/mbed.ar(TimerEvent.LPC1768.o)
 .comment       0x000006ba       0xec ../../external/mbed/LPC1768/mbed.ar(Stream.LPC1768.o)
 .comment       0x000007a6       0xcf ../../external/mbed/LPC1768/capi.ar(cmsis_nvic.LPC1768.o)
 .comment       0x00000875       0xbc ../../external/mbed/LPC1768/capi.ar(startup_LPC17xx.LPC1768.o)
 .comment       0x00000931       0xdf ../../external/mbed/LPC1768/capi.ar(system_LPC17xx.LPC1768.o)
 .comment       0x00000a10      0x174 ../../external/mbed/LPC1768/capi.ar(core_cm3.LPC1768.o)
 .comment       0x00000b84       0xe3 ../../external/mbed/LPC1768/capi.ar(serial_api.LPC1768.o)
 .comment       0x00000c67       0xd7 ../../external/mbed/LPC1768/capi.ar(exit.LPC1768.o)
 .comment       0x00000d3e       0xdb ../../external/mbed/LPC1768/capi.ar(pinmap.LPC1768.o)
 .comment       0x00000e19       0xdf ../../external/mbed/LPC1768/capi.ar(wait_api.LPC1768.o)
 .comment       0x00000ef8       0xdf ../../external/mbed/LPC1768/capi.ar(gpio_api.LPC1768.o)
 .comment       0x00000fd7       0xe7 ../../external/mbed/LPC1768/capi.ar(semihost_api.LPC1768.o)
 .comment       0x000010be       0xe9 ../../external/mbed/LPC1768/capi.ar(us_ticker_api.LPC1768.o)
 .comment       0x000011a7       0xe1 ../../external/mbed/LPC1768/capi.ar(utils_api.LPC1768.o)
 .comment       0x00001288       0xe1 ../../external/mbed/LPC1768/capi.ar(timer_api.LPC1768.o)

.arm_vfe_header
                0x00000000       0x50
 .arm_vfe_header
                0x00000000        0x4 ../../external/mbed/LPC1768/mbed.ar(DigitalOut.LPC1768.o)
 .arm_vfe_header
                0x00000004        0x4 ../../external/mbed/LPC1768/mbed.ar(Base.LPC1768.o)
 .arm_vfe_header
                0x00000008        0x4 ../../external/mbed/LPC1768/mbed.ar(Ticker.LPC1768.o)
 .arm_vfe_header
                0x0000000c        0x4 ../../external/mbed/LPC1768/mbed.ar(stdio.LPC1768.o)
 .arm_vfe_header
                0x00000010        0x4 ../../external/mbed/LPC1768/mbed.ar(FunctionPointer.LPC1768.o)
 .arm_vfe_header
                0x00000014        0x4 ../../external/mbed/LPC1768/mbed.ar(Serial.LPC1768.o)
 .arm_vfe_header
                0x00000018        0x4 ../../external/mbed/LPC1768/mbed.ar(TimerEvent.LPC1768.o)
 .arm_vfe_header
                0x0000001c        0x4 ../../external/mbed/LPC1768/mbed.ar(Stream.LPC1768.o)
 .arm_vfe_header
                0x00000020        0x4 ../../external/mbed/LPC1768/capi.ar(cmsis_nvic.LPC1768.o)
 .arm_vfe_header
                0x00000024        0x4 ../../external/mbed/LPC1768/capi.ar(system_LPC17xx.LPC1768.o)
 .arm_vfe_header
                0x00000028        0x4 ../../external/mbed/LPC1768/capi.ar(core_cm3.LPC1768.o)
 .arm_vfe_header
                0x0000002c        0x4 ../../external/mbed/LPC1768/capi.ar(serial_api.LPC1768.o)
 .arm_vfe_header
                0x00000030        0x4 ../../external/mbed/LPC1768/capi.ar(exit.LPC1768.o)
 .arm_vfe_header
                0x00000034        0x4 ../../external/mbed/LPC1768/capi.ar(pinmap.LPC1768.o)
 .arm_vfe_header
                0x00000038        0x4 ../../external/mbed/LPC1768/capi.ar(wait_api.LPC1768.o)
 .arm_vfe_header
                0x0000003c        0x4 ../../external/mbed/LPC1768/capi.ar(gpio_api.LPC1768.o)
 .arm_vfe_header
                0x00000040        0x4 ../../external/mbed/LPC1768/capi.ar(semihost_api.LPC1768.o)
 .arm_vfe_header
                0x00000044        0x4 ../../external/mbed/LPC1768/capi.ar(us_ticker_api.LPC1768.o)
 .arm_vfe_header
                0x00000048        0x4 ../../external/mbed/LPC1768/capi.ar(utils_api.LPC1768.o)
 .arm_vfe_header
                0x0000004c        0x4 ../../external/mbed/LPC1768/capi.ar(timer_api.LPC1768.o)

.arm_vfe_vtableinfo_ZTVN4mbed10DigitalOutE
                0x00000000       0x38
 .arm_vfe_vtableinfo_ZTVN4mbed10DigitalOutE
                0x00000000       0x38 ../../external/mbed/LPC1768/mbed.ar(DigitalOut.LPC1768.o)

.arm_vfe_vtableinfo_ZTVN4mbed4BaseE
                0x00000000       0x1c
 .arm_vfe_vtableinfo_ZTVN4mbed4BaseE
                0x00000000       0x1c ../../external/mbed/LPC1768/mbed.ar(Base.LPC1768.o)

.arm_vfe_vtableinfo_ZTVN4mbed6TickerE
                0x00000000       0x38
 .arm_vfe_vtableinfo_ZTVN4mbed6TickerE
                0x00000000       0x38 ../../external/mbed/LPC1768/mbed.ar(Ticker.LPC1768.o)

.arm_vfe_vtableinfo_ZTVN4mbed8FileLikeE
                0x00000000       0x54
 .arm_vfe_vtableinfo_ZTVN4mbed8FileLikeE
                0x00000000       0x54 ../../external/mbed/LPC1768/mbed.ar(stdio.LPC1768.o)

.arm_vfe_vcallinfoi._ZN4mbed10FileHandle4flenEv
                0x00000000       0x24
 .arm_vfe_vcallinfoi._ZN4mbed10FileHandle4flenEv
                0x00000000       0x24 ../../external/mbed/LPC1768/mbed.ar(stdio.LPC1768.o)

.arm_vfe_vtableinfo_ZTVN4mbed6SerialE
                0x00000000       0xc8
 .arm_vfe_vtableinfo_ZTVN4mbed6SerialE
                0x00000000       0xc8 ../../external/mbed/LPC1768/mbed.ar(Serial.LPC1768.o)

.arm_vfe_vtableinfo_ZTVN4mbed10TimerEventE
                0x00000000       0x1c
 .arm_vfe_vtableinfo_ZTVN4mbed10TimerEventE
                0x00000000       0x1c ../../external/mbed/LPC1768/mbed.ar(TimerEvent.LPC1768.o)

.arm_vfe_vtableinfo_ZTVN4mbed6StreamE
                0x00000000       0x88
 .arm_vfe_vtableinfo_ZTVN4mbed6StreamE
                0x00000000       0x88 ../../external/mbed/LPC1768/mbed.ar(Stream.LPC1768.o)

.stab           0x00000000     0x77a0
 *(.stab)
 .stab          0x00000000      0x480 ../../src/gcc4mbed.o
 .stab          0x00000480     0x1824 ../../src/syscalls.o
                               0x18a8 (size before relaxing)
 .stab          0x00001ca4     0x1380 ./main.o
                               0x138c (size before relaxing)
 .stab          0x00003024     0x477c ../../mri/mri.ar(mri.o)
                               0x4788 (size before relaxing)

.stabstr        0x00000000    0x19ec0
 *(.stabstr)
 .stabstr       0x00000000    0x19ec0 ../../src/gcc4mbed.o

.stab.excl
 *(.stab.excl)

.stab.exclstr
 *(.stab.exclstr)

.stab.index
 *(.stab.index)

.stab.indexstr
 *(.stab.indexstr)

.debug
 *(.debug)

.line
 *(.line)

.debug_srcinfo
 *(.debug_srcinfo)

.debug_sfnames
 *(.debug_sfnames)

.debug_aranges
 *(.debug_aranges)

.debug_pubnames
 *(.debug_pubnames)

.debug_info
 *(.debug_info .gnu.linkonce.wi.*)

.debug_abbrev
 *(.debug_abbrev)

.debug_line
 *(.debug_line)

.debug_frame    0x00000000     0x2b30
 *(.debug_frame)
 .debug_frame   0x00000000       0x20 ../../external/gcc/LPC1768/libstdc++.a(atexit_arm.o)
 .debug_frame   0x00000020       0xdc ../../external/gcc/LPC1768/libstdc++.a(class_type_info.o)
 .debug_frame   0x000000fc       0x20 ../../external/gcc/LPC1768/libstdc++.a(del_op.o)
 .debug_frame   0x0000011c       0x20 ../../external/gcc/LPC1768/libstdc++.a(del_opv.o)
 .debug_frame   0x0000013c       0x8c ../../external/gcc/LPC1768/libstdc++.a(dyncast.o)
 .debug_frame   0x000001c8       0x28 ../../external/gcc/LPC1768/libstdc++.a(new_op.o)
 .debug_frame   0x000001f0       0x20 ../../external/gcc/LPC1768/libstdc++.a(new_opv.o)
 .debug_frame   0x00000210       0x28 ../../external/gcc/LPC1768/libstdc++.a(pure.o)
 .debug_frame   0x00000238       0xac ../../external/gcc/LPC1768/libstdc++.a(si_class_type_info.o)
 .debug_frame   0x000002e4       0xa4 ../../external/gcc/LPC1768/libstdc++.a(tinfo.o)
 .debug_frame   0x00000388      0x29c ../../external/gcc/LPC1768/libstdc++.a(vec.o)
 .debug_frame   0x00000624      0x170 ../../external/gcc/LPC1768/libstdc++.a(vmi_class_type_info.o)
 .debug_frame   0x00000794       0x90 ../../external/gcc/LPC1768/libstdc++.a(eh_terminate.o)
 .debug_frame   0x00000824       0x60 ../../external/gcc/LPC1768/libstdc++.a(new_handler.o)
 .debug_frame   0x00000884       0xd8 ../../external/gcc/LPC1768/libstdc++.a(eh_exception.o)
 .debug_frame   0x0000095c       0x40 ../../external/gcc/LPC1768/libstdc++.a(vterminate.o)
 .debug_frame   0x0000099c      0x578 ../../external/gcc/LPC1768/libstdc++.a(cp-demangle.o)
 .debug_frame   0x00000f14       0x28 ../../external/gcc/LPC1768/libstdc++.a(eh_type.o)
 .debug_frame   0x00000f3c       0x30 ../../external/gcc/LPC1768/libstdc++.a(eh_globals.o)
 .debug_frame   0x00000f6c       0x30 ../../external/gcc/LPC1768/libm.a(lib_a-s_scalbn.o)
 .debug_frame   0x00000f9c       0x2c ../../external/gcc/LPC1768/libm.a(lib_a-s_copysign.o)
 .debug_frame   0x00000fc8       0x28 ../../external/gcc/LPC1768/libc.a(lib_a-abort.o)
 .debug_frame   0x00000ff0       0x20 ../../external/gcc/LPC1768/libc.a(lib_a-aeabi_memcpy.o)
 .debug_frame   0x00001010       0x28 ../../external/gcc/LPC1768/libc.a(lib_a-clibabi_assert.o)
 .debug_frame   0x00001038       0x20 ../../external/gcc/LPC1768/libc.a(lib_a-clibabi_stdio.o)
 .debug_frame   0x00001058       0x2c ../../external/gcc/LPC1768/libc.a(lib_a-cxa_atexit.o)
 .debug_frame   0x00001084       0x3c ../../external/gcc/LPC1768/libc.a(lib_a-fclose.o)
 .debug_frame   0x000010c0       0x40 ../../external/gcc/LPC1768/libc.a(lib_a-fflush.o)
 .debug_frame   0x00001100       0x3c ../../external/gcc/LPC1768/libc.a(lib_a-fgetc.o)
 .debug_frame   0x0000113c      0x120 ../../external/gcc/LPC1768/libc.a(lib_a-findfp.o)
 .debug_frame   0x0000125c       0x44 ../../external/gcc/LPC1768/libc.a(lib_a-fopen.o)
 .debug_frame   0x000012a0       0x50 ../../external/gcc/LPC1768/libc.a(lib_a-fprintf.o)
 .debug_frame   0x000012f0       0x3c ../../external/gcc/LPC1768/libc.a(lib_a-fputc.o)
 .debug_frame   0x0000132c       0x3c ../../external/gcc/LPC1768/libc.a(lib_a-fputs.o)
 .debug_frame   0x00001368       0x50 ../../external/gcc/LPC1768/libc.a(lib_a-freer.o)
 .debug_frame   0x000013b8       0x54 ../../external/gcc/LPC1768/libc.a(lib_a-fseek.o)
 .debug_frame   0x0000140c       0x2c ../../external/gcc/LPC1768/libc.a(lib_a-fstatr.o)
 .debug_frame   0x00001438       0x3c ../../external/gcc/LPC1768/libc.a(lib_a-fvwrite.o)
 .debug_frame   0x00001474       0x54 ../../external/gcc/LPC1768/libc.a(lib_a-fwalk.o)
 .debug_frame   0x000014c8       0x54 ../../external/gcc/LPC1768/libc.a(lib_a-fwrite.o)
 .debug_frame   0x0000151c       0x2c ../../external/gcc/LPC1768/libc.a(lib_a-init.o)
 .debug_frame   0x00001548       0x30 ../../external/gcc/LPC1768/libc.a(lib_a-makebuf.o)
 .debug_frame   0x00001578       0x30 ../../external/gcc/LPC1768/libc.a(lib_a-malloc.o)
 .debug_frame   0x000015a8       0x3c ../../external/gcc/LPC1768/libc.a(lib_a-mallocr.o)
 .debug_frame   0x000015e4       0x28 ../../external/gcc/LPC1768/libc.a(lib_a-memchr.o)
 .debug_frame   0x0000160c       0x2c ../../external/gcc/LPC1768/libc.a(lib_a-memcmp.o)
 .debug_frame   0x00001638       0x28 ../../external/gcc/LPC1768/libc.a(lib_a-memcpy.o)
 .debug_frame   0x00001660       0x28 ../../external/gcc/LPC1768/libc.a(lib_a-memmove.o)
 .debug_frame   0x00001688       0x20 ../../external/gcc/LPC1768/libc.a(lib_a-memset.o)
 .debug_frame   0x000016a8       0x30 ../../external/gcc/LPC1768/libc.a(lib_a-mlock.o)
 .debug_frame   0x000016d8       0x2c ../../external/gcc/LPC1768/libc.a(lib_a-openr.o)
 .debug_frame   0x00001704       0x3c ../../external/gcc/LPC1768/libc.a(lib_a-putc.o)
 .debug_frame   0x00001740       0x3c ../../external/gcc/LPC1768/libc.a(lib_a-puts.o)
 .debug_frame   0x0000177c       0x20 ../../external/gcc/LPC1768/libc.a(lib_a-realloc.o)
 .debug_frame   0x0000179c       0x3c ../../external/gcc/LPC1768/libc.a(lib_a-reallocr.o)
 .debug_frame   0x000017d8       0x64 ../../external/gcc/LPC1768/libc.a(lib_a-reent.o)
 .debug_frame   0x0000183c       0x3c ../../external/gcc/LPC1768/libc.a(lib_a-refill.o)
 .debug_frame   0x00001878       0x3c ../../external/gcc/LPC1768/libc.a(lib_a-rget.o)
 .debug_frame   0x000018b4       0x2c ../../external/gcc/LPC1768/libc.a(lib_a-sbrkr.o)
 .debug_frame   0x000018e0       0x20 ../../external/gcc/LPC1768/libc.a(lib_a-setbuf.o)
 .debug_frame   0x00001900       0x30 ../../external/gcc/LPC1768/libc.a(lib_a-setvbuf.o)
 .debug_frame   0x00001930       0xc0 ../../external/gcc/LPC1768/libc.a(lib_a-signal.o)
 .debug_frame   0x000019f0       0x3c ../../external/gcc/LPC1768/libc.a(lib_a-signalr.o)
 .debug_frame   0x00001a2c       0x58 ../../external/gcc/LPC1768/libc.a(lib_a-sprintf.o)
 .debug_frame   0x00001a84       0x60 ../../external/gcc/LPC1768/libc.a(lib_a-sscanf.o)
 .debug_frame   0x00001ae4       0x80 ../../external/gcc/LPC1768/libc.a(lib_a-stdio.o)
 .debug_frame   0x00001b64       0x20 ../../external/gcc/LPC1768/libc.a(lib_a-strcmp.o)
 .debug_frame   0x00001b84       0x20 ../../external/gcc/LPC1768/libc.a(lib_a-strcpy.o)
 .debug_frame   0x00001ba4       0x20 ../../external/gcc/LPC1768/libc.a(lib_a-strlen.o)
 .debug_frame   0x00001bc4       0x2c ../../external/gcc/LPC1768/libc.a(lib_a-strncmp.o)
 .debug_frame   0x00001bf0       0x2c ../../external/gcc/LPC1768/libc.a(lib_a-strncpy.o)
 .debug_frame   0x00001c1c       0x58 ../../external/gcc/LPC1768/libc.a(lib_a-strtol.o)
 .debug_frame   0x00001c74       0x3c ../../external/gcc/LPC1768/libc.a(lib_a-svfprintf.o)
 .debug_frame   0x00001cb0       0x3c ../../external/gcc/LPC1768/libc.a(lib_a-svfscanf.o)
 .debug_frame   0x00001cec       0x2c ../../external/gcc/LPC1768/libc.a(lib_a-syswrite.o)
 .debug_frame   0x00001d18       0x58 ../../external/gcc/LPC1768/libc.a(lib_a-vfprintf.o)
 .debug_frame   0x00001d70       0x98 ../../external/gcc/LPC1768/libc.a(lib_a-vfscanf.o)
 .debug_frame   0x00001e08       0x3c ../../external/gcc/LPC1768/libc.a(lib_a-wbuf.o)
 .debug_frame   0x00001e44       0x2c ../../external/gcc/LPC1768/libc.a(lib_a-writer.o)
 .debug_frame   0x00001e70       0x2c ../../external/gcc/LPC1768/libc.a(lib_a-wsetup.o)
 .debug_frame   0x00001e9c       0x34 ../../external/gcc/LPC1768/libc.a(lib_a-__atexit.o)
 .debug_frame   0x00001ed0       0x48 ../../external/gcc/LPC1768/libc.a(lib_a-assert.o)
 .debug_frame   0x00001f18       0x2c ../../external/gcc/LPC1768/libc.a(lib_a-closer.o)
 .debug_frame   0x00001f44       0x68 ../../external/gcc/LPC1768/libc.a(lib_a-dtoa.o)
 .debug_frame   0x00001fac       0x50 ../../external/gcc/LPC1768/libc.a(lib_a-fiprintf.o)
 .debug_frame   0x00001ffc       0x2c ../../external/gcc/LPC1768/libc.a(lib_a-flags.o)
 .debug_frame   0x00002028       0x58 ../../external/gcc/LPC1768/libc.a(lib_a-fread.o)
 .debug_frame   0x00002080       0x2c ../../external/gcc/LPC1768/libc.a(lib_a-isattyr.o)
 .debug_frame   0x000020ac       0x20 ../../external/gcc/LPC1768/libc.a(lib_a-iswspace.o)
 .debug_frame   0x000020cc       0x98 ../../external/gcc/LPC1768/libc.a(lib_a-locale.o)
 .debug_frame   0x00002164       0x2c ../../external/gcc/LPC1768/libc.a(lib_a-lseekr.o)
 .debug_frame   0x00002190       0x58 ../../external/gcc/LPC1768/libc.a(lib_a-mbrtowc.o)
 .debug_frame   0x000021e8       0x48 ../../external/gcc/LPC1768/libc.a(lib_a-mbtowc_r.o)
 .debug_frame   0x00002230      0x238 ../../external/gcc/LPC1768/libc.a(lib_a-mprec.o)
 .debug_frame   0x00002468       0x2c ../../external/gcc/LPC1768/libc.a(lib_a-readr.o)
 .debug_frame   0x00002494       0x20 ../../external/gcc/LPC1768/libc.a(lib_a-s_fpclassify.o)
 .debug_frame   0x000024b4       0x30 ../../external/gcc/LPC1768/libc.a(lib_a-sccl.o)
 .debug_frame   0x000024e4       0x20 ../../external/gcc/LPC1768/libc.a(lib_a-sf_nan.o)
 .debug_frame   0x00002504       0x8c ../../external/gcc/LPC1768/libc.a(lib_a-strtod.o)
 .debug_frame   0x00002590       0x38 ../../external/gcc/LPC1768/libc.a(lib_a-strtoll_r.o)
 .debug_frame   0x000025c8       0x58 ../../external/gcc/LPC1768/libc.a(lib_a-strtoul.o)
 .debug_frame   0x00002620       0x38 ../../external/gcc/LPC1768/libc.a(lib_a-strtoull_r.o)
 .debug_frame   0x00002658       0x68 ../../external/gcc/LPC1768/libc.a(lib_a-svfiprintf.o)
 .debug_frame   0x000026c0       0x98 ../../external/gcc/LPC1768/libc.a(lib_a-svfiscanf.o)
 .debug_frame   0x00002758       0x5c ../../external/gcc/LPC1768/libc.a(lib_a-ungetc.o)
 .debug_frame   0x000027b4       0x80 ../../external/gcc/LPC1768/libc.a(lib_a-vfiprintf.o)
 .debug_frame   0x00002834       0x28 ../../external/gcc/LPC1768/libc.a(lib_a-callocr.o)
 .debug_frame   0x0000285c       0x50 ../../external/gcc/LPC1768/libc.a(lib_a-fputwc.o)
 .debug_frame   0x000028ac       0x8c ../../external/gcc/LPC1768/libc.a(lib_a-gdtoa-gethex.o)
 .debug_frame   0x00002938       0x5c ../../external/gcc/LPC1768/libc.a(lib_a-gdtoa-hexnan.o)
 .debug_frame   0x00002994       0x50 ../../external/gcc/LPC1768/libc.a(lib_a-wcrtomb.o)
 .debug_frame   0x000029e4       0x44 ../../external/gcc/LPC1768/libc.a(lib_a-wctomb_r.o)
 .debug_frame   0x00002a28       0x20 /media/6aafac43-5450-453e-a142-f588400933c0/Sandbox/arm/bin/../lib/gcc/arm-none-eabi/4.5.2/thumb2/libgcc.a(_udivsi3.o)
 .debug_frame   0x00002a48       0x20 /media/6aafac43-5450-453e-a142-f588400933c0/Sandbox/arm/bin/../lib/gcc/arm-none-eabi/4.5.2/thumb2/libgcc.a(_divsi3.o)
 .debug_frame   0x00002a68       0x50 /media/6aafac43-5450-453e-a142-f588400933c0/Sandbox/arm/bin/../lib/gcc/arm-none-eabi/4.5.2/thumb2/libgcc.a(bpabi.o)
 .debug_frame   0x00002ab8       0x3c /media/6aafac43-5450-453e-a142-f588400933c0/Sandbox/arm/bin/../lib/gcc/arm-none-eabi/4.5.2/thumb2/libgcc.a(_divdi3.o)
 .debug_frame   0x00002af4       0x3c /media/6aafac43-5450-453e-a142-f588400933c0/Sandbox/arm/bin/../lib/gcc/arm-none-eabi/4.5.2/thumb2/libgcc.a(_udivdi3.o)

.debug_str
 *(.debug_str)

.debug_loc
 *(.debug_loc)

.debug_macinfo
 *(.debug_macinfo)

.debug_weaknames
 *(.debug_weaknames)

.debug_funcnames
 *(.debug_funcnames)

.debug_typenames
 *(.debug_typenames)

.debug_varnames
 *(.debug_varnames)
OUTPUT(Ticker.elf elf32-littlearm)

Cross Reference Table

Symbol                                            File
ADC_IRQHandler                                    ../../external/mbed/LPC1768/capi.ar(startup_LPC17xx.LPC1768.o)
BOD_IRQHandler                                    ../../external/mbed/LPC1768/capi.ar(startup_LPC17xx.LPC1768.o)
BusFault_Handler                                  ../../mri/mri.ar(mriasm.o)
CAN_IRQHandler                                    ../../external/mbed/LPC1768/capi.ar(startup_LPC17xx.LPC1768.o)
ControlCDetected()                                ../../mri/mri.ar(mri.o)
DMA_IRQHandler                                    ../../external/mbed/LPC1768/capi.ar(startup_LPC17xx.LPC1768.o)
DebugMon_Handler                                  ../../mri/mri.ar(mriasm.o)
EINT0_IRQHandler                                  ../../external/mbed/LPC1768/capi.ar(startup_LPC17xx.LPC1768.o)
EINT1_IRQHandler                                  ../../external/mbed/LPC1768/capi.ar(startup_LPC17xx.LPC1768.o)
EINT2_IRQHandler                                  ../../external/mbed/LPC1768/capi.ar(startup_LPC17xx.LPC1768.o)
EINT3_IRQHandler                                  ../../external/mbed/LPC1768/capi.ar(startup_LPC17xx.LPC1768.o)
ENET_IRQHandler                                   ../../external/mbed/LPC1768/capi.ar(startup_LPC17xx.LPC1768.o)
FunctionalityNotSupported                         ../../external/mbed/LPC1768/capi.ar(utils_api.LPC1768.o)
HardFault_Handler                                 ../../mri/mri.ar(mriasm.o)
I2C0_IRQHandler                                   ../../external/mbed/LPC1768/capi.ar(startup_LPC17xx.LPC1768.o)
I2C1_IRQHandler                                   ../../external/mbed/LPC1768/capi.ar(startup_LPC17xx.LPC1768.o)
I2C2_IRQHandler                                   ../../external/mbed/LPC1768/capi.ar(startup_LPC17xx.LPC1768.o)
I2S_IRQHandler                                    ../../external/mbed/LPC1768/capi.ar(startup_LPC17xx.LPC1768.o)
Lib$$Request$$armlib                              ../../external/mbed/LPC1768/capi.ar(timer_api.LPC1768.o)
                                                  ../../external/mbed/LPC1768/capi.ar(utils_api.LPC1768.o)
                                                  ../../external/mbed/LPC1768/capi.ar(us_ticker_api.LPC1768.o)
                                                  ../../external/mbed/LPC1768/capi.ar(semihost_api.LPC1768.o)
                                                  ../../external/mbed/LPC1768/capi.ar(gpio_api.LPC1768.o)
                                                  ../../external/mbed/LPC1768/capi.ar(wait_api.LPC1768.o)
                                                  ../../external/mbed/LPC1768/capi.ar(pinmap.LPC1768.o)
                                                  ../../external/mbed/LPC1768/capi.ar(exit.LPC1768.o)
                                                  ../../external/mbed/LPC1768/capi.ar(serial_api.LPC1768.o)
                                                  ../../external/mbed/LPC1768/capi.ar(core_cm3.LPC1768.o)
                                                  ../../external/mbed/LPC1768/capi.ar(system_LPC17xx.LPC1768.o)
                                                  ../../external/mbed/LPC1768/capi.ar(cmsis_nvic.LPC1768.o)
                                                  ../../external/mbed/LPC1768/mbed.ar(Stream.LPC1768.o)
                                                  ../../external/mbed/LPC1768/mbed.ar(TimerEvent.LPC1768.o)
                                                  ../../external/mbed/LPC1768/mbed.ar(Serial.LPC1768.o)
                                                  ../../external/mbed/LPC1768/mbed.ar(FunctionPointer.LPC1768.o)
                                                  ../../external/mbed/LPC1768/mbed.ar(stdio.LPC1768.o)
                                                  ../../external/mbed/LPC1768/mbed.ar(Ticker.LPC1768.o)
                                                  ../../external/mbed/LPC1768/mbed.ar(Base.LPC1768.o)
                                                  ../../external/mbed/LPC1768/mbed.ar(DigitalOut.LPC1768.o)
Lib$$Request$$cpplib                              ../../external/mbed/LPC1768/mbed.ar(Stream.LPC1768.o)
                                                  ../../external/mbed/LPC1768/mbed.ar(TimerEvent.LPC1768.o)
                                                  ../../external/mbed/LPC1768/mbed.ar(Serial.LPC1768.o)
                                                  ../../external/mbed/LPC1768/mbed.ar(FunctionPointer.LPC1768.o)
                                                  ../../external/mbed/LPC1768/mbed.ar(stdio.LPC1768.o)
                                                  ../../external/mbed/LPC1768/mbed.ar(Ticker.LPC1768.o)
                                                  ../../external/mbed/LPC1768/mbed.ar(Base.LPC1768.o)
                                                  ../../external/mbed/LPC1768/mbed.ar(DigitalOut.LPC1768.o)
MCPWM_IRQHandler                                  ../../external/mbed/LPC1768/capi.ar(startup_LPC17xx.LPC1768.o)
MemManage_Handler                                 ../../mri/mri.ar(mriasm.o)
MriDebugException                                 ../../mri/mri.ar(mri.o)
                                                  ../../mri/mri.ar(mriasm.o)
MriDisableMbed                                    ../../mri/mri.ar(mriasm.o)
                                                  ../../mri/mri.ar(mri.o)
MriGetIPSR                                        ../../mri/mri.ar(mriasm.o)
                                                  ../../mri/mri.ar(mri.o)
MriInit                                           ../../mri/mri.ar(mri.o)
                                                  ../../src/gcc4mbed.o
MriTargetReceiveChar()                            ../../mri/mri.ar(mri.o)
MriTargetSendChar(int)                            ../../mri/mri.ar(mri.o)
NMI_Handler                                       ../../external/mbed/LPC1768/capi.ar(startup_LPC17xx.LPC1768.o)
NVIC_GetVector                                    ../../external/mbed/LPC1768/capi.ar(cmsis_nvic.LPC1768.o)
NVIC_SetVector                                    ../../external/mbed/LPC1768/capi.ar(cmsis_nvic.LPC1768.o)
                                                  ../../external/mbed/LPC1768/mbed.ar(TimerEvent.LPC1768.o)
                                                  ../../external/mbed/LPC1768/mbed.ar(Serial.LPC1768.o)
PLL0_IRQHandler                                   ../../external/mbed/LPC1768/capi.ar(startup_LPC17xx.LPC1768.o)
PLL1_IRQHandler                                   ../../external/mbed/LPC1768/capi.ar(startup_LPC17xx.LPC1768.o)
PWM1_IRQHandler                                   ../../external/mbed/LPC1768/capi.ar(startup_LPC17xx.LPC1768.o)
PendSV_Handler                                    ../../external/mbed/LPC1768/capi.ar(startup_LPC17xx.LPC1768.o)
PinName mbed::parse_arg<PinName>(char const*, char const**) ../../external/mbed/LPC1768/mbed.ar(Serial.LPC1768.o)
QEI_IRQHandler                                    ../../external/mbed/LPC1768/capi.ar(startup_LPC17xx.LPC1768.o)
RIT_IRQHandler                                    ../../external/mbed/LPC1768/capi.ar(startup_LPC17xx.LPC1768.o)
RTC_IRQHandler                                    ../../external/mbed/LPC1768/capi.ar(startup_LPC17xx.LPC1768.o)
Reset_Handler                                     ../../external/mbed/LPC1768/capi.ar(startup_LPC17xx.LPC1768.o)
SPI_IRQHandler                                    ../../external/mbed/LPC1768/capi.ar(startup_LPC17xx.LPC1768.o)
SSP0_IRQHandler                                   ../../external/mbed/LPC1768/capi.ar(startup_LPC17xx.LPC1768.o)
SSP1_IRQHandler                                   ../../external/mbed/LPC1768/capi.ar(startup_LPC17xx.LPC1768.o)
SVC_Handler                                       ../../external/mbed/LPC1768/capi.ar(startup_LPC17xx.LPC1768.o)
SysTick_Handler                                   ../../external/mbed/LPC1768/capi.ar(startup_LPC17xx.LPC1768.o)
SystemCoreClock                                   ../../external/mbed/LPC1768/capi.ar(system_LPC17xx.LPC1768.o)
                                                  ../../external/mbed/LPC1768/capi.ar(timer_api.LPC1768.o)
                                                  ../../external/mbed/LPC1768/capi.ar(serial_api.LPC1768.o)
SystemCoreClockUpdate                             ../../external/mbed/LPC1768/capi.ar(system_LPC17xx.LPC1768.o)
SystemInit                                        ../../external/mbed/LPC1768/capi.ar(system_LPC17xx.LPC1768.o)
                                                  ../../external/mbed/LPC1768/capi.ar(startup_LPC17xx.LPC1768.o)
TIMER0_IRQHandler                                 ../../external/mbed/LPC1768/capi.ar(startup_LPC17xx.LPC1768.o)
TIMER1_IRQHandler                                 ../../external/mbed/LPC1768/capi.ar(startup_LPC17xx.LPC1768.o)
TIMER2_IRQHandler                                 ../../external/mbed/LPC1768/capi.ar(startup_LPC17xx.LPC1768.o)
TIMER3_IRQHandler                                 ../../external/mbed/LPC1768/capi.ar(startup_LPC17xx.LPC1768.o)
UART0_IRQHandler                                  ../../mri/mri.ar(mriasm.o)
UART1_IRQHandler                                  ../../external/mbed/LPC1768/capi.ar(startup_LPC17xx.LPC1768.o)
UART2_IRQHandler                                  ../../external/mbed/LPC1768/capi.ar(startup_LPC17xx.LPC1768.o)
UART3_IRQHandler                                  ../../external/mbed/LPC1768/capi.ar(startup_LPC17xx.LPC1768.o)
USB_IRQHandler                                    ../../external/mbed/LPC1768/capi.ar(startup_LPC17xx.LPC1768.o)
UsageFault_Handler                                ../../mri/mri.ar(mriasm.o)
WDT_IRQHandler                                    ../../external/mbed/LPC1768/capi.ar(startup_LPC17xx.LPC1768.o)
_Balloc                                           ../../external/gcc/LPC1768/libc.a(lib_a-mprec.o)
                                                  ../../external/gcc/LPC1768/libc.a(lib_a-gdtoa-gethex.o)
                                                  ../../external/gcc/LPC1768/libc.a(lib_a-strtod.o)
                                                  ../../external/gcc/LPC1768/libc.a(lib_a-dtoa.o)
_Bfree                                            ../../external/gcc/LPC1768/libc.a(lib_a-mprec.o)
                                                  ../../external/gcc/LPC1768/libc.a(lib_a-gdtoa-gethex.o)
                                                  ../../external/gcc/LPC1768/libc.a(lib_a-strtod.o)
                                                  ../../external/gcc/LPC1768/libc.a(lib_a-dtoa.o)
_Jv_RegisterClasses                               /media/6aafac43-5450-453e-a142-f588400933c0/Sandbox/arm/bin/../lib/gcc/arm-none-eabi/4.5.2/thumb2/crtbegin.o
_PathLocale                                       ../../external/gcc/LPC1768/libc.a(lib_a-locale.o)
__ARM__ZN4mbed10parse_pinsEPKc_anon0              ../../external/mbed/LPC1768/mbed.ar(DigitalOut.LPC1768.o)
                                                  ../../external/mbed/LPC1768/mbed.ar(Serial.LPC1768.o)
__ARM__ZN4mbed12write_resultIiEEvT_Pc_anon0       ../../external/mbed/LPC1768/mbed.ar(DigitalOut.LPC1768.o)
                                                  ../../external/mbed/LPC1768/mbed.ar(Stream.LPC1768.o)
                                                  ../../external/mbed/LPC1768/mbed.ar(Serial.LPC1768.o)
__GCC4MBEDOpenStandardHandles                     ../../src/syscalls.o
__MriTestRegisters                                ../../mri/mri.ar(mriasm.o)
__REV16                                           ../../external/mbed/LPC1768/capi.ar(core_cm3.LPC1768.o)
__REVSH                                           ../../external/mbed/LPC1768/capi.ar(core_cm3.LPC1768.o)
__Vectors                                         ../../external/mbed/LPC1768/capi.ar(startup_LPC17xx.LPC1768.o)
__adddf3                                          /media/6aafac43-5450-453e-a142-f588400933c0/Sandbox/arm/bin/../lib/gcc/arm-none-eabi/4.5.2/thumb2/libgcc.a(_arm_addsubdf3.o)
__addsf3                                          /media/6aafac43-5450-453e-a142-f588400933c0/Sandbox/arm/bin/../lib/gcc/arm-none-eabi/4.5.2/thumb2/libgcc.a(_arm_addsubsf3.o)
__aeabi_BUFSIZ                                    ../../external/gcc/LPC1768/libc.a(lib_a-clibabi_stdio.o)
__aeabi_FILENAME_MAX                              ../../external/gcc/LPC1768/libc.a(lib_a-clibabi_stdio.o)
__aeabi_FOPEN_MAX                                 ../../external/gcc/LPC1768/libc.a(lib_a-clibabi_stdio.o)
__aeabi_IOFBF                                     ../../external/gcc/LPC1768/libc.a(lib_a-clibabi_stdio.o)
__aeabi_IOLBF                                     ../../external/gcc/LPC1768/libc.a(lib_a-clibabi_stdio.o)
__aeabi_IONBF                                     ../../external/gcc/LPC1768/libc.a(lib_a-clibabi_stdio.o)
__aeabi_L_tmpnam                                  ../../external/gcc/LPC1768/libc.a(lib_a-clibabi_stdio.o)
__aeabi_TMP_MAX                                   ../../external/gcc/LPC1768/libc.a(lib_a-clibabi_stdio.o)
__aeabi_assert                                    ../../external/gcc/LPC1768/libc.a(lib_a-clibabi_assert.o)
                                                  ../../external/mbed/LPC1768/capi.ar(serial_api.LPC1768.o)
__aeabi_atexit                                    ../../external/gcc/LPC1768/libstdc++.a(atexit_arm.o)
                                                  ../../mri/mri.ar(mri.o)
                                                  ./main.o
__aeabi_cdcmpeq                                   /media/6aafac43-5450-453e-a142-f588400933c0/Sandbox/arm/bin/../lib/gcc/arm-none-eabi/4.5.2/thumb2/libgcc.a(_arm_cmpdf2.o)
__aeabi_cdcmple                                   /media/6aafac43-5450-453e-a142-f588400933c0/Sandbox/arm/bin/../lib/gcc/arm-none-eabi/4.5.2/thumb2/libgcc.a(_arm_cmpdf2.o)
__aeabi_cdrcmple                                  /media/6aafac43-5450-453e-a142-f588400933c0/Sandbox/arm/bin/../lib/gcc/arm-none-eabi/4.5.2/thumb2/libgcc.a(_arm_cmpdf2.o)
__aeabi_cfcmpeq                                   /media/6aafac43-5450-453e-a142-f588400933c0/Sandbox/arm/bin/../lib/gcc/arm-none-eabi/4.5.2/thumb2/libgcc.a(_arm_cmpsf2.o)
__aeabi_cfcmple                                   /media/6aafac43-5450-453e-a142-f588400933c0/Sandbox/arm/bin/../lib/gcc/arm-none-eabi/4.5.2/thumb2/libgcc.a(_arm_cmpsf2.o)
                                                  ../../external/mbed/LPC1768/capi.ar(serial_api.LPC1768.o)
__aeabi_cfrcmple                                  /media/6aafac43-5450-453e-a142-f588400933c0/Sandbox/arm/bin/../lib/gcc/arm-none-eabi/4.5.2/thumb2/libgcc.a(_arm_cmpsf2.o)
__aeabi_ctype_table_                              ../../external/gcc/LPC1768/libc.a(lib_a-clibabi_ctype.o)
                                                  ../../external/mbed/LPC1768/mbed.ar(Stream.LPC1768.o)
                                                  ../../external/mbed/LPC1768/mbed.ar(Serial.LPC1768.o)
                                                  ../../external/mbed/LPC1768/mbed.ar(DigitalOut.LPC1768.o)
__aeabi_ctype_table_C                             ../../external/gcc/LPC1768/libc.a(lib_a-clibabi_ctype.o)
__aeabi_d2f                                       /media/6aafac43-5450-453e-a142-f588400933c0/Sandbox/arm/bin/../lib/gcc/arm-none-eabi/4.5.2/thumb2/libgcc.a(_arm_truncdfsf2.o)
                                                  ../../external/gcc/LPC1768/libc.a(lib_a-strtod.o)
                                                  ../../external/gcc/LPC1768/libc.a(lib_a-vfscanf.o)
                                                  ../../external/gcc/LPC1768/libc.a(lib_a-svfscanf.o)
                                                  ../../external/mbed/LPC1768/capi.ar(serial_api.LPC1768.o)
__aeabi_d2iz                                      /media/6aafac43-5450-453e-a142-f588400933c0/Sandbox/arm/bin/../lib/gcc/arm-none-eabi/4.5.2/thumb2/libgcc.a(_arm_fixdfsi.o)
                                                  ../../external/gcc/LPC1768/libc.a(lib_a-strtod.o)
                                                  ../../external/gcc/LPC1768/libc.a(lib_a-dtoa.o)
                                                  ../../external/mbed/LPC1768/capi.ar(wait_api.LPC1768.o)
__aeabi_d2uiz                                     /media/6aafac43-5450-453e-a142-f588400933c0/Sandbox/arm/bin/../lib/gcc/arm-none-eabi/4.5.2/thumb2/libgcc.a(_arm_fixunsdfsi.o)
                                                  ../../external/gcc/LPC1768/libc.a(lib_a-strtod.o)
__aeabi_dadd                                      /media/6aafac43-5450-453e-a142-f588400933c0/Sandbox/arm/bin/../lib/gcc/arm-none-eabi/4.5.2/thumb2/libgcc.a(_arm_addsubdf3.o)
                                                  ../../external/gcc/LPC1768/libc.a(lib_a-strtod.o)
                                                  ../../external/gcc/LPC1768/libc.a(lib_a-dtoa.o)
                                                  ../../external/gcc/LPC1768/libm.a(lib_a-s_scalbn.o)
__aeabi_dcmpeq                                    /media/6aafac43-5450-453e-a142-f588400933c0/Sandbox/arm/bin/../lib/gcc/arm-none-eabi/4.5.2/thumb2/libgcc.a(_arm_cmpdf2.o)
                                                  ../../external/gcc/LPC1768/libc.a(lib_a-strtod.o)
                                                  ../../external/gcc/LPC1768/libc.a(lib_a-dtoa.o)
                                                  ../../external/gcc/LPC1768/libc.a(lib_a-vfprintf.o)
                                                  ../../external/gcc/LPC1768/libc.a(lib_a-svfprintf.o)
__aeabi_dcmpge                                    /media/6aafac43-5450-453e-a142-f588400933c0/Sandbox/arm/bin/../lib/gcc/arm-none-eabi/4.5.2/thumb2/libgcc.a(_arm_cmpdf2.o)
                                                  ../../external/gcc/LPC1768/libc.a(lib_a-dtoa.o)
__aeabi_dcmpgt                                    /media/6aafac43-5450-453e-a142-f588400933c0/Sandbox/arm/bin/../lib/gcc/arm-none-eabi/4.5.2/thumb2/libgcc.a(_arm_cmpdf2.o)
                                                  ../../external/gcc/LPC1768/libc.a(lib_a-strtod.o)
                                                  ../../external/gcc/LPC1768/libc.a(lib_a-dtoa.o)
__aeabi_dcmple                                    /media/6aafac43-5450-453e-a142-f588400933c0/Sandbox/arm/bin/../lib/gcc/arm-none-eabi/4.5.2/thumb2/libgcc.a(_arm_cmpdf2.o)
                                                  ../../external/gcc/LPC1768/libc.a(lib_a-strtod.o)
__aeabi_dcmplt                                    /media/6aafac43-5450-453e-a142-f588400933c0/Sandbox/arm/bin/../lib/gcc/arm-none-eabi/4.5.2/thumb2/libgcc.a(_arm_cmpdf2.o)
                                                  ../../external/gcc/LPC1768/libc.a(lib_a-strtod.o)
                                                  ../../external/gcc/LPC1768/libc.a(lib_a-dtoa.o)
                                                  ../../external/gcc/LPC1768/libc.a(lib_a-vfprintf.o)
                                                  ../../external/gcc/LPC1768/libc.a(lib_a-svfprintf.o)
__aeabi_ddiv                                      /media/6aafac43-5450-453e-a142-f588400933c0/Sandbox/arm/bin/../lib/gcc/arm-none-eabi/4.5.2/thumb2/libgcc.a(_arm_muldivdf3.o)
                                                  ../../external/gcc/LPC1768/libc.a(lib_a-strtod.o)
                                                  ../../external/gcc/LPC1768/libc.a(lib_a-mprec.o)
                                                  ../../external/gcc/LPC1768/libc.a(lib_a-dtoa.o)
                                                  ../../external/mbed/LPC1768/capi.ar(serial_api.LPC1768.o)
__aeabi_dmul                                      /media/6aafac43-5450-453e-a142-f588400933c0/Sandbox/arm/bin/../lib/gcc/arm-none-eabi/4.5.2/thumb2/libgcc.a(_arm_muldivdf3.o)
                                                  ../../external/gcc/LPC1768/libc.a(lib_a-strtod.o)
                                                  ../../external/gcc/LPC1768/libc.a(lib_a-mprec.o)
                                                  ../../external/gcc/LPC1768/libc.a(lib_a-dtoa.o)
                                                  ../../external/gcc/LPC1768/libm.a(lib_a-s_scalbn.o)
                                                  ../../external/mbed/LPC1768/capi.ar(wait_api.LPC1768.o)
                                                  ../../external/mbed/LPC1768/capi.ar(serial_api.LPC1768.o)
__aeabi_drsub                                     /media/6aafac43-5450-453e-a142-f588400933c0/Sandbox/arm/bin/../lib/gcc/arm-none-eabi/4.5.2/thumb2/libgcc.a(_arm_addsubdf3.o)
__aeabi_dsub                                      /media/6aafac43-5450-453e-a142-f588400933c0/Sandbox/arm/bin/../lib/gcc/arm-none-eabi/4.5.2/thumb2/libgcc.a(_arm_addsubdf3.o)
                                                  ../../external/gcc/LPC1768/libc.a(lib_a-strtod.o)
                                                  ../../external/gcc/LPC1768/libc.a(lib_a-dtoa.o)
__aeabi_f2d                                       /media/6aafac43-5450-453e-a142-f588400933c0/Sandbox/arm/bin/../lib/gcc/arm-none-eabi/4.5.2/thumb2/libgcc.a(_arm_addsubdf3.o)
                                                  ../../external/mbed/LPC1768/capi.ar(wait_api.LPC1768.o)
                                                  ../../external/mbed/LPC1768/capi.ar(serial_api.LPC1768.o)
__aeabi_fadd                                      /media/6aafac43-5450-453e-a142-f588400933c0/Sandbox/arm/bin/../lib/gcc/arm-none-eabi/4.5.2/thumb2/libgcc.a(_arm_addsubsf3.o)
                                                  ../../external/mbed/LPC1768/capi.ar(serial_api.LPC1768.o)
__aeabi_fcmpeq                                    /media/6aafac43-5450-453e-a142-f588400933c0/Sandbox/arm/bin/../lib/gcc/arm-none-eabi/4.5.2/thumb2/libgcc.a(_arm_cmpsf2.o)
                                                  ../../external/gcc/LPC1768/libc.a(lib_a-strtod.o)
__aeabi_fcmpge                                    /media/6aafac43-5450-453e-a142-f588400933c0/Sandbox/arm/bin/../lib/gcc/arm-none-eabi/4.5.2/thumb2/libgcc.a(_arm_cmpsf2.o)
__aeabi_fcmpgt                                    /media/6aafac43-5450-453e-a142-f588400933c0/Sandbox/arm/bin/../lib/gcc/arm-none-eabi/4.5.2/thumb2/libgcc.a(_arm_cmpsf2.o)
                                                  ../../external/gcc/LPC1768/libc.a(lib_a-strtod.o)
__aeabi_fcmple                                    /media/6aafac43-5450-453e-a142-f588400933c0/Sandbox/arm/bin/../lib/gcc/arm-none-eabi/4.5.2/thumb2/libgcc.a(_arm_cmpsf2.o)
__aeabi_fcmplt                                    /media/6aafac43-5450-453e-a142-f588400933c0/Sandbox/arm/bin/../lib/gcc/arm-none-eabi/4.5.2/thumb2/libgcc.a(_arm_cmpsf2.o)
                                                  ../../external/gcc/LPC1768/libc.a(lib_a-strtod.o)
__aeabi_fdiv                                      /media/6aafac43-5450-453e-a142-f588400933c0/Sandbox/arm/bin/../lib/gcc/arm-none-eabi/4.5.2/thumb2/libgcc.a(_arm_muldivsf3.o)
                                                  ../../external/mbed/LPC1768/capi.ar(serial_api.LPC1768.o)
__aeabi_fmul                                      /media/6aafac43-5450-453e-a142-f588400933c0/Sandbox/arm/bin/../lib/gcc/arm-none-eabi/4.5.2/thumb2/libgcc.a(_arm_muldivsf3.o)
__aeabi_frsub                                     /media/6aafac43-5450-453e-a142-f588400933c0/Sandbox/arm/bin/../lib/gcc/arm-none-eabi/4.5.2/thumb2/libgcc.a(_arm_addsubsf3.o)
__aeabi_fsub                                      /media/6aafac43-5450-453e-a142-f588400933c0/Sandbox/arm/bin/../lib/gcc/arm-none-eabi/4.5.2/thumb2/libgcc.a(_arm_addsubsf3.o)
                                                  ../../external/mbed/LPC1768/capi.ar(serial_api.LPC1768.o)
__aeabi_i2d                                       /media/6aafac43-5450-453e-a142-f588400933c0/Sandbox/arm/bin/../lib/gcc/arm-none-eabi/4.5.2/thumb2/libgcc.a(_arm_addsubdf3.o)
                                                  ../../external/gcc/LPC1768/libc.a(lib_a-strtod.o)
                                                  ../../external/gcc/LPC1768/libc.a(lib_a-dtoa.o)
__aeabi_i2f                                       /media/6aafac43-5450-453e-a142-f588400933c0/Sandbox/arm/bin/../lib/gcc/arm-none-eabi/4.5.2/thumb2/libgcc.a(_arm_addsubsf3.o)
                                                  ../../external/mbed/LPC1768/capi.ar(serial_api.LPC1768.o)
__aeabi_idiv                                      /media/6aafac43-5450-453e-a142-f588400933c0/Sandbox/arm/bin/../lib/gcc/arm-none-eabi/4.5.2/thumb2/libgcc.a(_divsi3.o)
                                                  ../../external/gcc/LPC1768/libc.a(lib_a-mprec.o)
                                                  ../../external/gcc/LPC1768/libc.a(lib_a-vfprintf.o)
                                                  ../../external/gcc/LPC1768/libc.a(lib_a-svfprintf.o)
__aeabi_idiv0                                     /media/6aafac43-5450-453e-a142-f588400933c0/Sandbox/arm/bin/../lib/gcc/arm-none-eabi/4.5.2/thumb2/libgcc.a(_dvmd_tls.o)
                                                  /media/6aafac43-5450-453e-a142-f588400933c0/Sandbox/arm/bin/../lib/gcc/arm-none-eabi/4.5.2/thumb2/libgcc.a(_divsi3.o)
                                                  /media/6aafac43-5450-453e-a142-f588400933c0/Sandbox/arm/bin/../lib/gcc/arm-none-eabi/4.5.2/thumb2/libgcc.a(_udivsi3.o)
__aeabi_idivmod                                   /media/6aafac43-5450-453e-a142-f588400933c0/Sandbox/arm/bin/../lib/gcc/arm-none-eabi/4.5.2/thumb2/libgcc.a(_divsi3.o)
                                                  ../../external/gcc/LPC1768/libc.a(lib_a-vfprintf.o)
                                                  ../../external/gcc/LPC1768/libc.a(lib_a-svfprintf.o)
__aeabi_l2d                                       /media/6aafac43-5450-453e-a142-f588400933c0/Sandbox/arm/bin/../lib/gcc/arm-none-eabi/4.5.2/thumb2/libgcc.a(_arm_addsubdf3.o)
__aeabi_l2f                                       /media/6aafac43-5450-453e-a142-f588400933c0/Sandbox/arm/bin/../lib/gcc/arm-none-eabi/4.5.2/thumb2/libgcc.a(_arm_addsubsf3.o)
__aeabi_ldiv0                                     /media/6aafac43-5450-453e-a142-f588400933c0/Sandbox/arm/bin/../lib/gcc/arm-none-eabi/4.5.2/thumb2/libgcc.a(_dvmd_tls.o)
                                                  /media/6aafac43-5450-453e-a142-f588400933c0/Sandbox/arm/bin/../lib/gcc/arm-none-eabi/4.5.2/thumb2/libgcc.a(_aeabi_uldivmod.o)
__aeabi_memcpy                                    ../../external/gcc/LPC1768/libc.a(lib_a-aeabi_memcpy.o)
                                                  ../../external/mbed/LPC1768/mbed.ar(Stream.LPC1768.o)
                                                  ../../external/mbed/LPC1768/mbed.ar(Serial.LPC1768.o)
                                                  ../../external/mbed/LPC1768/mbed.ar(DigitalOut.LPC1768.o)
__aeabi_memcpy4                                   ../../external/gcc/LPC1768/libc.a(lib_a-aeabi_memcpy.o)
                                                  ../../external/mbed/LPC1768/mbed.ar(Serial.LPC1768.o)
                                                  ../../external/mbed/LPC1768/mbed.ar(DigitalOut.LPC1768.o)
__aeabi_memcpy8                                   ../../external/gcc/LPC1768/libc.a(lib_a-aeabi_memcpy.o)
__aeabi_stderr                                    ../../external/gcc/LPC1768/libc.a(lib_a-clibabi_stdio.o)
                                                  ../../external/mbed/LPC1768/capi.ar(utils_api.LPC1768.o)
                                                  ../../external/mbed/LPC1768/capi.ar(pinmap.LPC1768.o)
                                                  ../../external/mbed/LPC1768/capi.ar(serial_api.LPC1768.o)
__aeabi_stdin                                     ../../external/gcc/LPC1768/libc.a(lib_a-clibabi_stdio.o)
__aeabi_stdout                                    ../../external/gcc/LPC1768/libc.a(lib_a-clibabi_stdio.o)
__aeabi_ui2d                                      /media/6aafac43-5450-453e-a142-f588400933c0/Sandbox/arm/bin/../lib/gcc/arm-none-eabi/4.5.2/thumb2/libgcc.a(_arm_addsubdf3.o)
                                                  ../../external/gcc/LPC1768/libc.a(lib_a-strtod.o)
                                                  ../../external/gcc/LPC1768/libc.a(lib_a-dtoa.o)
                                                  ../../external/mbed/LPC1768/capi.ar(serial_api.LPC1768.o)
__aeabi_ui2f                                      /media/6aafac43-5450-453e-a142-f588400933c0/Sandbox/arm/bin/../lib/gcc/arm-none-eabi/4.5.2/thumb2/libgcc.a(_arm_addsubsf3.o)
                                                  ../../external/mbed/LPC1768/capi.ar(serial_api.LPC1768.o)
__aeabi_uidiv                                     /media/6aafac43-5450-453e-a142-f588400933c0/Sandbox/arm/bin/../lib/gcc/arm-none-eabi/4.5.2/thumb2/libgcc.a(_udivsi3.o)
                                                  /media/6aafac43-5450-453e-a142-f588400933c0/Sandbox/arm/bin/../lib/gcc/arm-none-eabi/4.5.2/thumb2/libgcc.a(_udivdi3.o)
                                                  /media/6aafac43-5450-453e-a142-f588400933c0/Sandbox/arm/bin/../lib/gcc/arm-none-eabi/4.5.2/thumb2/libgcc.a(_divdi3.o)
                                                  ../../external/gcc/LPC1768/libc.a(lib_a-svfiscanf.o)
                                                  ../../external/gcc/LPC1768/libc.a(lib_a-strtoul.o)
                                                  ../../external/gcc/LPC1768/libc.a(lib_a-fread.o)
                                                  ../../external/gcc/LPC1768/libc.a(lib_a-dtoa.o)
                                                  ../../external/gcc/LPC1768/libc.a(lib_a-strtol.o)
                                                  ../../external/gcc/LPC1768/libc.a(lib_a-fwrite.o)
__aeabi_uidivmod                                  /media/6aafac43-5450-453e-a142-f588400933c0/Sandbox/arm/bin/../lib/gcc/arm-none-eabi/4.5.2/thumb2/libgcc.a(_udivsi3.o)
                                                  /media/6aafac43-5450-453e-a142-f588400933c0/Sandbox/arm/bin/../lib/gcc/arm-none-eabi/4.5.2/thumb2/libgcc.a(_udivdi3.o)
                                                  /media/6aafac43-5450-453e-a142-f588400933c0/Sandbox/arm/bin/../lib/gcc/arm-none-eabi/4.5.2/thumb2/libgcc.a(_divdi3.o)
                                                  ../../external/gcc/LPC1768/libc.a(lib_a-strtoul.o)
                                                  ../../external/gcc/LPC1768/libc.a(lib_a-strtol.o)
__aeabi_ul2d                                      /media/6aafac43-5450-453e-a142-f588400933c0/Sandbox/arm/bin/../lib/gcc/arm-none-eabi/4.5.2/thumb2/libgcc.a(_arm_addsubdf3.o)
__aeabi_ul2f                                      /media/6aafac43-5450-453e-a142-f588400933c0/Sandbox/arm/bin/../lib/gcc/arm-none-eabi/4.5.2/thumb2/libgcc.a(_arm_addsubsf3.o)
__aeabi_uldivmod                                  /media/6aafac43-5450-453e-a142-f588400933c0/Sandbox/arm/bin/../lib/gcc/arm-none-eabi/4.5.2/thumb2/libgcc.a(_aeabi_uldivmod.o)
                                                  ../../external/gcc/LPC1768/libc.a(lib_a-vfiprintf.o)
                                                  ../../external/gcc/LPC1768/libc.a(lib_a-svfiprintf.o)
                                                  ../../external/gcc/LPC1768/libc.a(lib_a-strtoull_r.o)
                                                  ../../external/gcc/LPC1768/libc.a(lib_a-strtoll_r.o)
                                                  ../../external/gcc/LPC1768/libc.a(lib_a-vfprintf.o)
                                                  ../../external/gcc/LPC1768/libc.a(lib_a-svfprintf.o)
__aeabi_vec_cctor_nocookie_nodtor                 ../../external/gcc/LPC1768/libstdc++.a(vec.o)
__aeabi_vec_ctor_cookie_nodtor                    ../../external/gcc/LPC1768/libstdc++.a(vec.o)
__aeabi_vec_ctor_nocookie_nodtor                  ../../external/gcc/LPC1768/libstdc++.a(vec.o)
                                                  ../../external/mbed/LPC1768/mbed.ar(Serial.LPC1768.o)
__aeabi_vec_delete                                ../../external/gcc/LPC1768/libstdc++.a(vec.o)
__aeabi_vec_delete3                               ../../external/gcc/LPC1768/libstdc++.a(vec.o)
__aeabi_vec_delete3_nodtor                        ../../external/gcc/LPC1768/libstdc++.a(vec.o)
__aeabi_vec_dtor                                  ../../external/gcc/LPC1768/libstdc++.a(vec.o)
__aeabi_vec_dtor_cookie                           ../../external/gcc/LPC1768/libstdc++.a(vec.o)
__aeabi_vec_new_cookie                            ../../external/gcc/LPC1768/libstdc++.a(vec.o)
__aeabi_vec_new_cookie_noctor                     ../../external/gcc/LPC1768/libstdc++.a(vec.o)
__aeabi_vec_new_cookie_nodtor                     ../../external/gcc/LPC1768/libstdc++.a(vec.o)
__aeabi_vec_new_nocookie                          ../../external/gcc/LPC1768/libstdc++.a(vec.o)
__any_on                                          ../../external/gcc/LPC1768/libc.a(lib_a-mprec.o)
                                                  ../../external/gcc/LPC1768/libc.a(lib_a-gdtoa-gethex.o)
__ascii_mbtowc                                    ../../external/gcc/LPC1768/libc.a(lib_a-mbtowc_r.o)
__ascii_wctomb                                    ../../external/gcc/LPC1768/libc.a(lib_a-wctomb_r.o)
__assert                                          ../../external/gcc/LPC1768/libc.a(lib_a-assert.o)
                                                  ../../external/gcc/LPC1768/libc.a(lib_a-clibabi_assert.o)
__assert_func                                     ../../external/gcc/LPC1768/libc.a(lib_a-assert.o)
__b2d                                             ../../external/gcc/LPC1768/libc.a(lib_a-mprec.o)
__cmpdf2                                          /media/6aafac43-5450-453e-a142-f588400933c0/Sandbox/arm/bin/../lib/gcc/arm-none-eabi/4.5.2/thumb2/libgcc.a(_arm_cmpdf2.o)
__cmpsf2                                          /media/6aafac43-5450-453e-a142-f588400933c0/Sandbox/arm/bin/../lib/gcc/arm-none-eabi/4.5.2/thumb2/libgcc.a(_arm_cmpsf2.o)
__copybits                                        ../../external/gcc/LPC1768/libc.a(lib_a-mprec.o)
                                                  ../../external/gcc/LPC1768/libc.a(lib_a-strtod.o)
__ctype_ptr__                                     ../../external/gcc/LPC1768/libc.a(lib_a-ctype_.o)
                                                  ../../external/gcc/LPC1768/libc.a(lib_a-svfiscanf.o)
                                                  ../../external/gcc/LPC1768/libc.a(lib_a-strtoull_r.o)
                                                  ../../external/gcc/LPC1768/libc.a(lib_a-strtoul.o)
                                                  ../../external/gcc/LPC1768/libc.a(lib_a-strtoll_r.o)
                                                  ../../external/gcc/LPC1768/libc.a(lib_a-iswspace.o)
                                                  ../../external/gcc/LPC1768/libc.a(lib_a-vfscanf.o)
                                                  ../../external/gcc/LPC1768/libc.a(lib_a-svfscanf.o)
                                                  ../../external/gcc/LPC1768/libc.a(lib_a-strtol.o)
__cxa_atexit                                      ../../external/gcc/LPC1768/libc.a(lib_a-cxa_atexit.o)
                                                  ../../external/gcc/LPC1768/libstdc++.a(atexit_arm.o)
__cxa_current_exception_type                      ../../external/gcc/LPC1768/libstdc++.a(eh_type.o)
                                                  ../../external/gcc/LPC1768/libstdc++.a(vterminate.o)
__cxa_demangle                                    ../../external/gcc/LPC1768/libstdc++.a(cp-demangle.o)
                                                  ../../external/gcc/LPC1768/libstdc++.a(vterminate.o)
__cxa_get_globals                                 ../../external/gcc/LPC1768/libstdc++.a(eh_globals.o)
                                                  ../../external/gcc/LPC1768/libstdc++.a(eh_type.o)
__cxa_get_globals_fast                            ../../external/gcc/LPC1768/libstdc++.a(eh_globals.o)
__cxa_pure_virtual                                ../../external/gcc/LPC1768/libstdc++.a(pure.o)
                                                  ../../external/gcc/LPC1768/libstdc++.a(eh_exception.o)
                                                  ../../external/mbed/LPC1768/mbed.ar(Stream.LPC1768.o)
                                                  ../../external/mbed/LPC1768/mbed.ar(TimerEvent.LPC1768.o)
                                                  ../../external/mbed/LPC1768/mbed.ar(stdio.LPC1768.o)
__cxa_vec_cctor                                   ../../external/gcc/LPC1768/libstdc++.a(vec.o)
__cxa_vec_cleanup                                 ../../external/gcc/LPC1768/libstdc++.a(vec.o)
__cxa_vec_ctor                                    ../../external/gcc/LPC1768/libstdc++.a(vec.o)
__cxa_vec_delete                                  ../../external/gcc/LPC1768/libstdc++.a(vec.o)
__cxa_vec_delete2                                 ../../external/gcc/LPC1768/libstdc++.a(vec.o)
__cxa_vec_delete3                                 ../../external/gcc/LPC1768/libstdc++.a(vec.o)
__cxa_vec_dtor                                    ../../external/gcc/LPC1768/libstdc++.a(vec.o)
__cxa_vec_new                                     ../../external/gcc/LPC1768/libstdc++.a(vec.o)
__cxa_vec_new2                                    ../../external/gcc/LPC1768/libstdc++.a(vec.o)
__cxa_vec_new3                                    ../../external/gcc/LPC1768/libstdc++.a(vec.o)
__cxxabiv1::__base_class_type_info::__is_public_p() const ../../external/gcc/LPC1768/libstdc++.a(vmi_class_type_info.o)
__cxxabiv1::__base_class_type_info::__is_virtual_p() const ../../external/gcc/LPC1768/libstdc++.a(vmi_class_type_info.o)
__cxxabiv1::__base_class_type_info::__offset() const ../../external/gcc/LPC1768/libstdc++.a(vmi_class_type_info.o)
__cxxabiv1::__class_type_info::__do_catch(std::type_info const*, void**, unsigned int) const ../../external/gcc/LPC1768/libstdc++.a(class_type_info.o)
                                                  ../../external/gcc/LPC1768/libstdc++.a(vmi_class_type_info.o)
                                                  ../../external/gcc/LPC1768/libstdc++.a(si_class_type_info.o)
__cxxabiv1::__class_type_info::__do_dyncast(int, __cxxabiv1::__class_type_info::__sub_kind, __cxxabiv1::__class_type_info const*, void const*, __cxxabiv1::__class_type_info const*, void const*, __cxxabiv1::__class_type_info::__dyncast_result&) const ../../external/gcc/LPC1768/libstdc++.a(class_type_info.o)
__cxxabiv1::__class_type_info::__do_find_public_src(int, void const*, __cxxabiv1::__class_type_info const*, void const*) const ../../external/gcc/LPC1768/libstdc++.a(class_type_info.o)
__cxxabiv1::__class_type_info::__do_upcast(__cxxabiv1::__class_type_info const*, void const*, __cxxabiv1::__class_type_info::__upcast_result&) const ../../external/gcc/LPC1768/libstdc++.a(class_type_info.o)
                                                  ../../external/gcc/LPC1768/libstdc++.a(vmi_class_type_info.o)
                                                  ../../external/gcc/LPC1768/libstdc++.a(si_class_type_info.o)
__cxxabiv1::__class_type_info::__do_upcast(__cxxabiv1::__class_type_info const*, void**) const ../../external/gcc/LPC1768/libstdc++.a(class_type_info.o)
                                                  ../../external/gcc/LPC1768/libstdc++.a(vmi_class_type_info.o)
                                                  ../../external/gcc/LPC1768/libstdc++.a(si_class_type_info.o)
__cxxabiv1::__class_type_info::__dyncast_result::__dyncast_result(int) ../../external/gcc/LPC1768/libstdc++.a(dyncast.o)
                                                  ../../external/gcc/LPC1768/libstdc++.a(vmi_class_type_info.o)
__cxxabiv1::__class_type_info::__dyncast_result::__dyncast_result(int) ../../external/gcc/LPC1768/libstdc++.a(dyncast.o)
                                                  ../../external/gcc/LPC1768/libstdc++.a(vmi_class_type_info.o)
__cxxabiv1::__class_type_info::__find_public_src(int, void const*, __cxxabiv1::__class_type_info const*, void const*) const ../../external/gcc/LPC1768/libstdc++.a(dyncast.o)
                                                  ../../external/gcc/LPC1768/libstdc++.a(vmi_class_type_info.o)
__cxxabiv1::__class_type_info::__upcast_result::__upcast_result(int) ../../external/gcc/LPC1768/libstdc++.a(class_type_info.o)
                                                  ../../external/gcc/LPC1768/libstdc++.a(vmi_class_type_info.o)
__cxxabiv1::__class_type_info::__upcast_result::__upcast_result(int) ../../external/gcc/LPC1768/libstdc++.a(class_type_info.o)
                                                  ../../external/gcc/LPC1768/libstdc++.a(vmi_class_type_info.o)
__cxxabiv1::__class_type_info::~__class_type_info() ../../external/gcc/LPC1768/libstdc++.a(class_type_info.o)
__cxxabiv1::__class_type_info::~__class_type_info() ../../external/gcc/LPC1768/libstdc++.a(class_type_info.o)
                                                  ../../external/gcc/LPC1768/libstdc++.a(vmi_class_type_info.o)
                                                  ../../external/gcc/LPC1768/libstdc++.a(si_class_type_info.o)
__cxxabiv1::__class_type_info::~__class_type_info() ../../external/gcc/LPC1768/libstdc++.a(class_type_info.o)
__cxxabiv1::__forced_unwind::~__forced_unwind()   ../../external/gcc/LPC1768/libstdc++.a(eh_exception.o)
__cxxabiv1::__forced_unwind::~__forced_unwind()   ../../external/gcc/LPC1768/libstdc++.a(eh_exception.o)
__cxxabiv1::__forced_unwind::~__forced_unwind()   ../../external/gcc/LPC1768/libstdc++.a(eh_exception.o)
__cxxabiv1::__foreign_exception::~__foreign_exception() ../../external/gcc/LPC1768/libstdc++.a(eh_exception.o)
__cxxabiv1::__foreign_exception::~__foreign_exception() ../../external/gcc/LPC1768/libstdc++.a(eh_exception.o)
__cxxabiv1::__foreign_exception::~__foreign_exception() ../../external/gcc/LPC1768/libstdc++.a(eh_exception.o)
__cxxabiv1::__si_class_type_info::__do_dyncast(int, __cxxabiv1::__class_type_info::__sub_kind, __cxxabiv1::__class_type_info const*, void const*, __cxxabiv1::__class_type_info const*, void const*, __cxxabiv1::__class_type_info::__dyncast_result&) const ../../external/gcc/LPC1768/libstdc++.a(si_class_type_info.o)
__cxxabiv1::__si_class_type_info::__do_find_public_src(int, void const*, __cxxabiv1::__class_type_info const*, void const*) const ../../external/gcc/LPC1768/libstdc++.a(si_class_type_info.o)
__cxxabiv1::__si_class_type_info::__do_upcast(__cxxabiv1::__class_type_info const*, void const*, __cxxabiv1::__class_type_info::__upcast_result&) const ../../external/gcc/LPC1768/libstdc++.a(si_class_type_info.o)
__cxxabiv1::__si_class_type_info::~__si_class_type_info() ../../external/gcc/LPC1768/libstdc++.a(si_class_type_info.o)
__cxxabiv1::__si_class_type_info::~__si_class_type_info() ../../external/gcc/LPC1768/libstdc++.a(si_class_type_info.o)
__cxxabiv1::__si_class_type_info::~__si_class_type_info() ../../external/gcc/LPC1768/libstdc++.a(si_class_type_info.o)
__cxxabiv1::__terminate(void (*)())               ../../external/gcc/LPC1768/libstdc++.a(eh_terminate.o)
__cxxabiv1::__terminate_handler                   ../../external/gcc/LPC1768/libstdc++.a(eh_term_handler.o)
                                                  ../../external/gcc/LPC1768/libstdc++.a(eh_terminate.o)
__cxxabiv1::__unexpected(void (*)())              ../../external/gcc/LPC1768/libstdc++.a(eh_terminate.o)
__cxxabiv1::__unexpected_handler                  ../../external/gcc/LPC1768/libstdc++.a(eh_unex_handler.o)
                                                  ../../external/gcc/LPC1768/libstdc++.a(eh_terminate.o)
__cxxabiv1::__vmi_class_type_info::__do_dyncast(int, __cxxabiv1::__class_type_info::__sub_kind, __cxxabiv1::__class_type_info const*, void const*, __cxxabiv1::__class_type_info const*, void const*, __cxxabiv1::__class_type_info::__dyncast_result&) const ../../external/gcc/LPC1768/libstdc++.a(vmi_class_type_info.o)
__cxxabiv1::__vmi_class_type_info::__do_find_public_src(int, void const*, __cxxabiv1::__class_type_info const*, void const*) const ../../external/gcc/LPC1768/libstdc++.a(vmi_class_type_info.o)
__cxxabiv1::__vmi_class_type_info::__do_upcast(__cxxabiv1::__class_type_info const*, void const*, __cxxabiv1::__class_type_info::__upcast_result&) const ../../external/gcc/LPC1768/libstdc++.a(vmi_class_type_info.o)
__cxxabiv1::__vmi_class_type_info::~__vmi_class_type_info() ../../external/gcc/LPC1768/libstdc++.a(vmi_class_type_info.o)
__cxxabiv1::__vmi_class_type_info::~__vmi_class_type_info() ../../external/gcc/LPC1768/libstdc++.a(vmi_class_type_info.o)
__cxxabiv1::__vmi_class_type_info::~__vmi_class_type_info() ../../external/gcc/LPC1768/libstdc++.a(vmi_class_type_info.o)
__d2b                                             ../../external/gcc/LPC1768/libc.a(lib_a-mprec.o)
                                                  ../../external/gcc/LPC1768/libc.a(lib_a-strtod.o)
                                                  ../../external/gcc/LPC1768/libc.a(lib_a-dtoa.o)
__divdf3                                          /media/6aafac43-5450-453e-a142-f588400933c0/Sandbox/arm/bin/../lib/gcc/arm-none-eabi/4.5.2/thumb2/libgcc.a(_arm_muldivdf3.o)
__divdi3                                          /media/6aafac43-5450-453e-a142-f588400933c0/Sandbox/arm/bin/../lib/gcc/arm-none-eabi/4.5.2/thumb2/libgcc.a(_divdi3.o)
                                                  /media/6aafac43-5450-453e-a142-f588400933c0/Sandbox/arm/bin/../lib/gcc/arm-none-eabi/4.5.2/thumb2/libgcc.a(bpabi.o)
__divsf3                                          /media/6aafac43-5450-453e-a142-f588400933c0/Sandbox/arm/bin/../lib/gcc/arm-none-eabi/4.5.2/thumb2/libgcc.a(_arm_muldivsf3.o)
__divsi3                                          /media/6aafac43-5450-453e-a142-f588400933c0/Sandbox/arm/bin/../lib/gcc/arm-none-eabi/4.5.2/thumb2/libgcc.a(_divsi3.o)
__dso_handle                                      /media/6aafac43-5450-453e-a142-f588400933c0/Sandbox/arm/bin/../lib/gcc/arm-none-eabi/4.5.2/thumb2/crtbegin.o
                                                  ../../mri/mri.ar(mri.o)
                                                  ./main.o
__dynamic_cast                                    ../../external/gcc/LPC1768/libstdc++.a(dyncast.o)
                                                  ../../external/mbed/LPC1768/mbed.ar(stdio.LPC1768.o)
                                                  ../../external/mbed/LPC1768/mbed.ar(Base.LPC1768.o)
__eqdf2                                           /media/6aafac43-5450-453e-a142-f588400933c0/Sandbox/arm/bin/../lib/gcc/arm-none-eabi/4.5.2/thumb2/libgcc.a(_arm_cmpdf2.o)
__eqsf2                                           /media/6aafac43-5450-453e-a142-f588400933c0/Sandbox/arm/bin/../lib/gcc/arm-none-eabi/4.5.2/thumb2/libgcc.a(_arm_cmpsf2.o)
__extendsfdf2                                     /media/6aafac43-5450-453e-a142-f588400933c0/Sandbox/arm/bin/../lib/gcc/arm-none-eabi/4.5.2/thumb2/libgcc.a(_arm_addsubdf3.o)
__fixdfsi                                         /media/6aafac43-5450-453e-a142-f588400933c0/Sandbox/arm/bin/../lib/gcc/arm-none-eabi/4.5.2/thumb2/libgcc.a(_arm_fixdfsi.o)
__fixunsdfsi                                      /media/6aafac43-5450-453e-a142-f588400933c0/Sandbox/arm/bin/../lib/gcc/arm-none-eabi/4.5.2/thumb2/libgcc.a(_arm_fixunsdfsi.o)
__floatdidf                                       /media/6aafac43-5450-453e-a142-f588400933c0/Sandbox/arm/bin/../lib/gcc/arm-none-eabi/4.5.2/thumb2/libgcc.a(_arm_addsubdf3.o)
__floatdisf                                       /media/6aafac43-5450-453e-a142-f588400933c0/Sandbox/arm/bin/../lib/gcc/arm-none-eabi/4.5.2/thumb2/libgcc.a(_arm_addsubsf3.o)
__floatsidf                                       /media/6aafac43-5450-453e-a142-f588400933c0/Sandbox/arm/bin/../lib/gcc/arm-none-eabi/4.5.2/thumb2/libgcc.a(_arm_addsubdf3.o)
__floatsisf                                       /media/6aafac43-5450-453e-a142-f588400933c0/Sandbox/arm/bin/../lib/gcc/arm-none-eabi/4.5.2/thumb2/libgcc.a(_arm_addsubsf3.o)
__floatundidf                                     /media/6aafac43-5450-453e-a142-f588400933c0/Sandbox/arm/bin/../lib/gcc/arm-none-eabi/4.5.2/thumb2/libgcc.a(_arm_addsubdf3.o)
__floatundisf                                     /media/6aafac43-5450-453e-a142-f588400933c0/Sandbox/arm/bin/../lib/gcc/arm-none-eabi/4.5.2/thumb2/libgcc.a(_arm_addsubsf3.o)
__floatunsidf                                     /media/6aafac43-5450-453e-a142-f588400933c0/Sandbox/arm/bin/../lib/gcc/arm-none-eabi/4.5.2/thumb2/libgcc.a(_arm_addsubdf3.o)
__floatunsisf                                     /media/6aafac43-5450-453e-a142-f588400933c0/Sandbox/arm/bin/../lib/gcc/arm-none-eabi/4.5.2/thumb2/libgcc.a(_arm_addsubsf3.o)
__fp_lock_all                                     ../../external/gcc/LPC1768/libc.a(lib_a-findfp.o)
__fp_unlock_all                                   ../../external/gcc/LPC1768/libc.a(lib_a-findfp.o)
__fpclassifyd                                     ../../external/gcc/LPC1768/libc.a(lib_a-s_fpclassify.o)
                                                  ../../external/gcc/LPC1768/libc.a(lib_a-vfscanf.o)
                                                  ../../external/gcc/LPC1768/libc.a(lib_a-vfprintf.o)
                                                  ../../external/gcc/LPC1768/libc.a(lib_a-svfscanf.o)
                                                  ../../external/gcc/LPC1768/libc.a(lib_a-svfprintf.o)
__gcclibcxx_demangle_callback                     ../../external/gcc/LPC1768/libstdc++.a(cp-demangle.o)
__gedf2                                           /media/6aafac43-5450-453e-a142-f588400933c0/Sandbox/arm/bin/../lib/gcc/arm-none-eabi/4.5.2/thumb2/libgcc.a(_arm_cmpdf2.o)
__gesf2                                           /media/6aafac43-5450-453e-a142-f588400933c0/Sandbox/arm/bin/../lib/gcc/arm-none-eabi/4.5.2/thumb2/libgcc.a(_arm_cmpsf2.o)
__get_MSP                                         ../../external/mbed/LPC1768/capi.ar(core_cm3.LPC1768.o)
                                                  ../../src/syscalls.o
__get_PSP                                         ../../external/mbed/LPC1768/capi.ar(core_cm3.LPC1768.o)
__gethex                                          ../../external/gcc/LPC1768/libc.a(lib_a-gdtoa-gethex.o)
                                                  ../../external/gcc/LPC1768/libc.a(lib_a-strtod.o)
__gnu_cxx::__verbose_terminate_handler()          ../../external/gcc/LPC1768/libstdc++.a(vterminate.o)
                                                  ../../external/gcc/LPC1768/libstdc++.a(eh_term_handler.o)
__gnu_ldivmod_helper                              /media/6aafac43-5450-453e-a142-f588400933c0/Sandbox/arm/bin/../lib/gcc/arm-none-eabi/4.5.2/thumb2/libgcc.a(bpabi.o)
__gnu_uldivmod_helper                             /media/6aafac43-5450-453e-a142-f588400933c0/Sandbox/arm/bin/../lib/gcc/arm-none-eabi/4.5.2/thumb2/libgcc.a(bpabi.o)
                                                  /media/6aafac43-5450-453e-a142-f588400933c0/Sandbox/arm/bin/../lib/gcc/arm-none-eabi/4.5.2/thumb2/libgcc.a(_aeabi_uldivmod.o)
__gtdf2                                           /media/6aafac43-5450-453e-a142-f588400933c0/Sandbox/arm/bin/../lib/gcc/arm-none-eabi/4.5.2/thumb2/libgcc.a(_arm_cmpdf2.o)
__gtsf2                                           /media/6aafac43-5450-453e-a142-f588400933c0/Sandbox/arm/bin/../lib/gcc/arm-none-eabi/4.5.2/thumb2/libgcc.a(_arm_cmpsf2.o)
__hexdig                                          ../../external/gcc/LPC1768/libc.a(lib_a-gdtoa-hexnan.o)
                                                  ../../external/gcc/LPC1768/libc.a(lib_a-gdtoa-gethex.o)
__hexdig_init                                     ../../external/gcc/LPC1768/libc.a(lib_a-gdtoa-gethex.o)
                                                  ../../external/gcc/LPC1768/libc.a(lib_a-gdtoa-hexnan.o)
__hexnan                                          ../../external/gcc/LPC1768/libc.a(lib_a-gdtoa-hexnan.o)
                                                  ../../external/gcc/LPC1768/libc.a(lib_a-strtod.o)
__hi0bits                                         ../../external/gcc/LPC1768/libc.a(lib_a-mprec.o)
                                                  ../../external/gcc/LPC1768/libc.a(lib_a-gdtoa-gethex.o)
                                                  ../../external/gcc/LPC1768/libc.a(lib_a-dtoa.o)
__i2b                                             ../../external/gcc/LPC1768/libc.a(lib_a-mprec.o)
                                                  ../../external/gcc/LPC1768/libc.a(lib_a-strtod.o)
                                                  ../../external/gcc/LPC1768/libc.a(lib_a-dtoa.o)
__init_array_end                                  ../../external/gcc/LPC1768/libc.a(lib_a-init.o)
__init_array_start                                ../../external/gcc/LPC1768/libc.a(lib_a-init.o)
__ledf2                                           /media/6aafac43-5450-453e-a142-f588400933c0/Sandbox/arm/bin/../lib/gcc/arm-none-eabi/4.5.2/thumb2/libgcc.a(_arm_cmpdf2.o)
__lesf2                                           /media/6aafac43-5450-453e-a142-f588400933c0/Sandbox/arm/bin/../lib/gcc/arm-none-eabi/4.5.2/thumb2/libgcc.a(_arm_cmpsf2.o)
__libc_init_array                                 ../../external/gcc/LPC1768/libc.a(lib_a-init.o)
                                                  ../../src/gcc4mbed.o
__lo0bits                                         ../../external/gcc/LPC1768/libc.a(lib_a-mprec.o)
__locale_charset                                  ../../external/gcc/LPC1768/libc.a(lib_a-locale.o)
                                                  ../../external/gcc/LPC1768/libc.a(lib_a-wctomb_r.o)
                                                  ../../external/gcc/LPC1768/libc.a(lib_a-wcrtomb.o)
                                                  ../../external/gcc/LPC1768/libc.a(lib_a-mbtowc_r.o)
                                                  ../../external/gcc/LPC1768/libc.a(lib_a-mbrtowc.o)
__locale_cjk_lang                                 ../../external/gcc/LPC1768/libc.a(lib_a-locale.o)
__locale_mb_cur_max                               ../../external/gcc/LPC1768/libc.a(lib_a-locale.o)
                                                  ../../external/gcc/LPC1768/libc.a(lib_a-fputwc.o)
                                                  ../../external/gcc/LPC1768/libc.a(lib_a-svfiscanf.o)
                                                  ../../external/gcc/LPC1768/libc.a(lib_a-vfscanf.o)
                                                  ../../external/gcc/LPC1768/libc.a(lib_a-svfscanf.o)
__locale_msgcharset                               ../../external/gcc/LPC1768/libc.a(lib_a-locale.o)
__lshift                                          ../../external/gcc/LPC1768/libc.a(lib_a-mprec.o)
                                                  ../../external/gcc/LPC1768/libc.a(lib_a-gdtoa-gethex.o)
                                                  ../../external/gcc/LPC1768/libc.a(lib_a-strtod.o)
                                                  ../../external/gcc/LPC1768/libc.a(lib_a-dtoa.o)
__ltdf2                                           /media/6aafac43-5450-453e-a142-f588400933c0/Sandbox/arm/bin/../lib/gcc/arm-none-eabi/4.5.2/thumb2/libgcc.a(_arm_cmpdf2.o)
__ltsf2                                           /media/6aafac43-5450-453e-a142-f588400933c0/Sandbox/arm/bin/../lib/gcc/arm-none-eabi/4.5.2/thumb2/libgcc.a(_arm_cmpsf2.o)
__main                                            ../../src/gcc4mbed.o
                                                  ../../external/mbed/LPC1768/capi.ar(startup_LPC17xx.LPC1768.o)
__malloc_av_                                      ../../external/gcc/LPC1768/libc.a(lib_a-mallocr.o)
                                                  ../../external/gcc/LPC1768/libc.a(lib_a-reallocr.o)
                                                  ../../external/gcc/LPC1768/libc.a(lib_a-freer.o)
__malloc_current_mallinfo                         ../../external/gcc/LPC1768/libc.a(lib_a-mallocr.o)
                                                  ../../external/gcc/LPC1768/libc.a(lib_a-freer.o)
__malloc_lock                                     ../../external/gcc/LPC1768/libc.a(lib_a-mlock.o)
                                                  ../../external/gcc/LPC1768/libc.a(lib_a-reallocr.o)
                                                  ../../external/gcc/LPC1768/libc.a(lib_a-mallocr.o)
                                                  ../../external/gcc/LPC1768/libc.a(lib_a-freer.o)
__malloc_max_sbrked_mem                           ../../external/gcc/LPC1768/libc.a(lib_a-mallocr.o)
__malloc_max_total_mem                            ../../external/gcc/LPC1768/libc.a(lib_a-mallocr.o)
__malloc_sbrk_base                                ../../external/gcc/LPC1768/libc.a(lib_a-mallocr.o)
                                                  ../../external/gcc/LPC1768/libc.a(lib_a-freer.o)
__malloc_top_pad                                  ../../external/gcc/LPC1768/libc.a(lib_a-mallocr.o)
                                                  ../../external/gcc/LPC1768/libc.a(lib_a-freer.o)
__malloc_trim_threshold                           ../../external/gcc/LPC1768/libc.a(lib_a-mallocr.o)
                                                  ../../external/gcc/LPC1768/libc.a(lib_a-freer.o)
__malloc_unlock                                   ../../external/gcc/LPC1768/libc.a(lib_a-mlock.o)
                                                  ../../external/gcc/LPC1768/libc.a(lib_a-reallocr.o)
                                                  ../../external/gcc/LPC1768/libc.a(lib_a-mallocr.o)
                                                  ../../external/gcc/LPC1768/libc.a(lib_a-freer.o)
__mb_cur_max                                      ../../external/gcc/LPC1768/libc.a(lib_a-locale.o)
__mbtowc                                          ../../external/gcc/LPC1768/libc.a(lib_a-mbtowc_r.o)
                                                  ../../external/gcc/LPC1768/libc.a(lib_a-mbrtowc.o)
__mcmp                                            ../../external/gcc/LPC1768/libc.a(lib_a-mprec.o)
                                                  ../../external/gcc/LPC1768/libc.a(lib_a-strtod.o)
                                                  ../../external/gcc/LPC1768/libc.a(lib_a-dtoa.o)
__mdiff                                           ../../external/gcc/LPC1768/libc.a(lib_a-mprec.o)
                                                  ../../external/gcc/LPC1768/libc.a(lib_a-strtod.o)
                                                  ../../external/gcc/LPC1768/libc.a(lib_a-dtoa.o)
__mlocale_changed                                 ../../external/gcc/LPC1768/libc.a(lib_a-locale.o)
__mprec_bigtens                                   ../../external/gcc/LPC1768/libc.a(lib_a-mprec.o)
                                                  ../../external/gcc/LPC1768/libc.a(lib_a-strtod.o)
                                                  ../../external/gcc/LPC1768/libc.a(lib_a-dtoa.o)
__mprec_tens                                      ../../external/gcc/LPC1768/libc.a(lib_a-mprec.o)
                                                  ../../external/gcc/LPC1768/libc.a(lib_a-strtod.o)
                                                  ../../external/gcc/LPC1768/libc.a(lib_a-dtoa.o)
__mprec_tinytens                                  ../../external/gcc/LPC1768/libc.a(lib_a-mprec.o)
__muldf3                                          /media/6aafac43-5450-453e-a142-f588400933c0/Sandbox/arm/bin/../lib/gcc/arm-none-eabi/4.5.2/thumb2/libgcc.a(_arm_muldivdf3.o)
__mulsf3                                          /media/6aafac43-5450-453e-a142-f588400933c0/Sandbox/arm/bin/../lib/gcc/arm-none-eabi/4.5.2/thumb2/libgcc.a(_arm_muldivsf3.o)
__multadd                                         ../../external/gcc/LPC1768/libc.a(lib_a-mprec.o)
                                                  ../../external/gcc/LPC1768/libc.a(lib_a-dtoa.o)
__multiply                                        ../../external/gcc/LPC1768/libc.a(lib_a-mprec.o)
                                                  ../../external/gcc/LPC1768/libc.a(lib_a-strtod.o)
                                                  ../../external/gcc/LPC1768/libc.a(lib_a-dtoa.o)
__nedf2                                           /media/6aafac43-5450-453e-a142-f588400933c0/Sandbox/arm/bin/../lib/gcc/arm-none-eabi/4.5.2/thumb2/libgcc.a(_arm_cmpdf2.o)
__nesf2                                           /media/6aafac43-5450-453e-a142-f588400933c0/Sandbox/arm/bin/../lib/gcc/arm-none-eabi/4.5.2/thumb2/libgcc.a(_arm_cmpsf2.o)
__new_handler                                     ../../external/gcc/LPC1768/libstdc++.a(new_handler.o)
                                                  ../../external/gcc/LPC1768/libstdc++.a(new_op.o)
__nlocale_changed                                 ../../external/gcc/LPC1768/libc.a(lib_a-locale.o)
__pow5mult                                        ../../external/gcc/LPC1768/libc.a(lib_a-mprec.o)
                                                  ../../external/gcc/LPC1768/libc.a(lib_a-strtod.o)
                                                  ../../external/gcc/LPC1768/libc.a(lib_a-dtoa.o)
__preinit_array_end                               ../../external/gcc/LPC1768/libc.a(lib_a-init.o)
__preinit_array_start                             ../../external/gcc/LPC1768/libc.a(lib_a-init.o)
__ratio                                           ../../external/gcc/LPC1768/libc.a(lib_a-mprec.o)
                                                  ../../external/gcc/LPC1768/libc.a(lib_a-strtod.o)
__register_exitproc                               ../../external/gcc/LPC1768/libc.a(lib_a-__atexit.o)
                                                  ../../external/gcc/LPC1768/libc.a(lib_a-cxa_atexit.o)
__s2b                                             ../../external/gcc/LPC1768/libc.a(lib_a-mprec.o)
                                                  ../../external/gcc/LPC1768/libc.a(lib_a-strtod.o)
__sccl                                            ../../external/gcc/LPC1768/libc.a(lib_a-sccl.o)
                                                  ../../external/gcc/LPC1768/libc.a(lib_a-svfiscanf.o)
                                                  ../../external/gcc/LPC1768/libc.a(lib_a-vfscanf.o)
                                                  ../../external/gcc/LPC1768/libc.a(lib_a-svfscanf.o)
__sclose                                          ../../external/gcc/LPC1768/libc.a(lib_a-stdio.o)
                                                  ../../external/gcc/LPC1768/libc.a(lib_a-fopen.o)
                                                  ../../external/gcc/LPC1768/libc.a(lib_a-findfp.o)
__seofread                                        ../../external/gcc/LPC1768/libc.a(lib_a-stdio.o)
                                                  ../../external/gcc/LPC1768/libc.a(lib_a-sscanf.o)
__set_MSP                                         ../../external/mbed/LPC1768/capi.ar(core_cm3.LPC1768.o)
__set_PSP                                         ../../external/mbed/LPC1768/capi.ar(core_cm3.LPC1768.o)
__sf_fake_stderr                                  ../../external/gcc/LPC1768/libc.a(lib_a-findfp.o)
                                                  ../../external/gcc/LPC1768/libc.a(lib_a-fputwc.o)
                                                  ../../external/gcc/LPC1768/libc.a(lib_a-vfiprintf.o)
                                                  ../../external/gcc/LPC1768/libc.a(lib_a-ungetc.o)
                                                  ../../external/gcc/LPC1768/libc.a(lib_a-fread.o)
                                                  ../../external/gcc/LPC1768/libc.a(lib_a-wsetup.o)
                                                  ../../external/gcc/LPC1768/libc.a(lib_a-wbuf.o)
                                                  ../../external/gcc/LPC1768/libc.a(lib_a-vfscanf.o)
                                                  ../../external/gcc/LPC1768/libc.a(lib_a-vfprintf.o)
                                                  ../../external/gcc/LPC1768/libc.a(lib_a-setvbuf.o)
                                                  ../../external/gcc/LPC1768/libc.a(lib_a-rget.o)
                                                  ../../external/gcc/LPC1768/libc.a(lib_a-refill.o)
                                                  ../../external/gcc/LPC1768/libc.a(lib_a-putc.o)
                                                  ../../external/gcc/LPC1768/libc.a(lib_a-impure.o)
                                                  ../../external/gcc/LPC1768/libc.a(lib_a-fwrite.o)
                                                  ../../external/gcc/LPC1768/libc.a(lib_a-fseek.o)
                                                  ../../external/gcc/LPC1768/libc.a(lib_a-fputs.o)
                                                  ../../external/gcc/LPC1768/libc.a(lib_a-fputc.o)
                                                  ../../external/gcc/LPC1768/libc.a(lib_a-fgetc.o)
                                                  ../../external/gcc/LPC1768/libc.a(lib_a-fflush.o)
                                                  ../../external/gcc/LPC1768/libc.a(lib_a-fclose.o)
__sf_fake_stdin                                   ../../external/gcc/LPC1768/libc.a(lib_a-findfp.o)
                                                  ../../external/gcc/LPC1768/libc.a(lib_a-fputwc.o)
                                                  ../../external/gcc/LPC1768/libc.a(lib_a-vfiprintf.o)
                                                  ../../external/gcc/LPC1768/libc.a(lib_a-ungetc.o)
                                                  ../../external/gcc/LPC1768/libc.a(lib_a-fread.o)
                                                  ../../external/gcc/LPC1768/libc.a(lib_a-wsetup.o)
                                                  ../../external/gcc/LPC1768/libc.a(lib_a-wbuf.o)
                                                  ../../external/gcc/LPC1768/libc.a(lib_a-vfscanf.o)
                                                  ../../external/gcc/LPC1768/libc.a(lib_a-vfprintf.o)
                                                  ../../external/gcc/LPC1768/libc.a(lib_a-setvbuf.o)
                                                  ../../external/gcc/LPC1768/libc.a(lib_a-rget.o)
                                                  ../../external/gcc/LPC1768/libc.a(lib_a-refill.o)
                                                  ../../external/gcc/LPC1768/libc.a(lib_a-putc.o)
                                                  ../../external/gcc/LPC1768/libc.a(lib_a-impure.o)
                                                  ../../external/gcc/LPC1768/libc.a(lib_a-fwrite.o)
                                                  ../../external/gcc/LPC1768/libc.a(lib_a-fseek.o)
                                                  ../../external/gcc/LPC1768/libc.a(lib_a-fputs.o)
                                                  ../../external/gcc/LPC1768/libc.a(lib_a-fputc.o)
                                                  ../../external/gcc/LPC1768/libc.a(lib_a-fgetc.o)
                                                  ../../external/gcc/LPC1768/libc.a(lib_a-fflush.o)
                                                  ../../external/gcc/LPC1768/libc.a(lib_a-fclose.o)
__sf_fake_stdout                                  ../../external/gcc/LPC1768/libc.a(lib_a-findfp.o)
                                                  ../../external/gcc/LPC1768/libc.a(lib_a-fputwc.o)
                                                  ../../external/gcc/LPC1768/libc.a(lib_a-vfiprintf.o)
                                                  ../../external/gcc/LPC1768/libc.a(lib_a-ungetc.o)
                                                  ../../external/gcc/LPC1768/libc.a(lib_a-fread.o)
                                                  ../../external/gcc/LPC1768/libc.a(lib_a-wsetup.o)
                                                  ../../external/gcc/LPC1768/libc.a(lib_a-wbuf.o)
                                                  ../../external/gcc/LPC1768/libc.a(lib_a-vfscanf.o)
                                                  ../../external/gcc/LPC1768/libc.a(lib_a-vfprintf.o)
                                                  ../../external/gcc/LPC1768/libc.a(lib_a-setvbuf.o)
                                                  ../../external/gcc/LPC1768/libc.a(lib_a-rget.o)
                                                  ../../external/gcc/LPC1768/libc.a(lib_a-refill.o)
                                                  ../../external/gcc/LPC1768/libc.a(lib_a-putc.o)
                                                  ../../external/gcc/LPC1768/libc.a(lib_a-impure.o)
                                                  ../../external/gcc/LPC1768/libc.a(lib_a-fwrite.o)
                                                  ../../external/gcc/LPC1768/libc.a(lib_a-fseek.o)
                                                  ../../external/gcc/LPC1768/libc.a(lib_a-fputs.o)
                                                  ../../external/gcc/LPC1768/libc.a(lib_a-fputc.o)
                                                  ../../external/gcc/LPC1768/libc.a(lib_a-fgetc.o)
                                                  ../../external/gcc/LPC1768/libc.a(lib_a-fflush.o)
                                                  ../../external/gcc/LPC1768/libc.a(lib_a-fclose.o)
__sflags                                          ../../external/gcc/LPC1768/libc.a(lib_a-flags.o)
                                                  ../../external/gcc/LPC1768/libc.a(lib_a-fopen.o)
__sfmoreglue                                      ../../external/gcc/LPC1768/libc.a(lib_a-findfp.o)
__sfp                                             ../../external/gcc/LPC1768/libc.a(lib_a-findfp.o)
                                                  ../../external/gcc/LPC1768/libc.a(lib_a-fopen.o)
__sfp_lock_acquire                                ../../external/gcc/LPC1768/libc.a(lib_a-findfp.o)
                                                  ../../external/gcc/LPC1768/libc.a(lib_a-svfiscanf.o)
                                                  ../../external/gcc/LPC1768/libc.a(lib_a-fread.o)
                                                  ../../external/gcc/LPC1768/libc.a(lib_a-vfscanf.o)
                                                  ../../external/gcc/LPC1768/libc.a(lib_a-svfscanf.o)
                                                  ../../external/gcc/LPC1768/libc.a(lib_a-fwalk.o)
                                                  ../../external/gcc/LPC1768/libc.a(lib_a-fseek.o)
                                                  ../../external/gcc/LPC1768/libc.a(lib_a-fopen.o)
                                                  ../../external/gcc/LPC1768/libc.a(lib_a-fclose.o)
__sfp_lock_release                                ../../external/gcc/LPC1768/libc.a(lib_a-findfp.o)
                                                  ../../external/gcc/LPC1768/libc.a(lib_a-svfiscanf.o)
                                                  ../../external/gcc/LPC1768/libc.a(lib_a-fread.o)
                                                  ../../external/gcc/LPC1768/libc.a(lib_a-vfscanf.o)
                                                  ../../external/gcc/LPC1768/libc.a(lib_a-svfscanf.o)
                                                  ../../external/gcc/LPC1768/libc.a(lib_a-fwalk.o)
                                                  ../../external/gcc/LPC1768/libc.a(lib_a-fseek.o)
                                                  ../../external/gcc/LPC1768/libc.a(lib_a-fopen.o)
                                                  ../../external/gcc/LPC1768/libc.a(lib_a-fclose.o)
__sfvwrite_r                                      ../../external/gcc/LPC1768/libc.a(lib_a-fvwrite.o)
                                                  ../../external/gcc/LPC1768/libc.a(lib_a-vfiprintf.o)
                                                  ../../external/gcc/LPC1768/libc.a(lib_a-puts.o)
                                                  ../../external/gcc/LPC1768/libc.a(lib_a-fwrite.o)
                                                  ../../external/gcc/LPC1768/libc.a(lib_a-fputs.o)
__sigtramp                                        ../../external/gcc/LPC1768/libc.a(lib_a-signal.o)
__sigtramp_r                                      ../../external/gcc/LPC1768/libc.a(lib_a-signal.o)
__sinit                                           ../../external/gcc/LPC1768/libc.a(lib_a-findfp.o)
                                                  ../../external/gcc/LPC1768/libc.a(lib_a-fputwc.o)
                                                  ../../external/gcc/LPC1768/libc.a(lib_a-vfiprintf.o)
                                                  ../../external/gcc/LPC1768/libc.a(lib_a-ungetc.o)
                                                  ../../external/gcc/LPC1768/libc.a(lib_a-fread.o)
                                                  ../../external/gcc/LPC1768/libc.a(lib_a-wsetup.o)
                                                  ../../external/gcc/LPC1768/libc.a(lib_a-wbuf.o)
                                                  ../../external/gcc/LPC1768/libc.a(lib_a-vfscanf.o)
                                                  ../../external/gcc/LPC1768/libc.a(lib_a-vfprintf.o)
                                                  ../../external/gcc/LPC1768/libc.a(lib_a-setvbuf.o)
                                                  ../../external/gcc/LPC1768/libc.a(lib_a-rget.o)
                                                  ../../external/gcc/LPC1768/libc.a(lib_a-refill.o)
                                                  ../../external/gcc/LPC1768/libc.a(lib_a-puts.o)
                                                  ../../external/gcc/LPC1768/libc.a(lib_a-putc.o)
                                                  ../../external/gcc/LPC1768/libc.a(lib_a-fwrite.o)
                                                  ../../external/gcc/LPC1768/libc.a(lib_a-fseek.o)
                                                  ../../external/gcc/LPC1768/libc.a(lib_a-fputs.o)
                                                  ../../external/gcc/LPC1768/libc.a(lib_a-fputc.o)
                                                  ../../external/gcc/LPC1768/libc.a(lib_a-fgetc.o)
                                                  ../../external/gcc/LPC1768/libc.a(lib_a-fflush.o)
                                                  ../../external/gcc/LPC1768/libc.a(lib_a-fclose.o)
__sinit_lock_acquire                              ../../external/gcc/LPC1768/libc.a(lib_a-findfp.o)
__sinit_lock_release                              ../../external/gcc/LPC1768/libc.a(lib_a-findfp.o)
__smakebuf_r                                      ../../external/gcc/LPC1768/libc.a(lib_a-makebuf.o)
                                                  ../../external/gcc/LPC1768/libc.a(lib_a-wsetup.o)
                                                  ../../external/gcc/LPC1768/libc.a(lib_a-refill.o)
                                                  ../../external/gcc/LPC1768/libc.a(lib_a-fseek.o)
__sprint_r                                        ../../external/gcc/LPC1768/libc.a(lib_a-vfiprintf.o)
                                                  ../../external/gcc/LPC1768/libc.a(lib_a-vfprintf.o)
__sread                                           ../../external/gcc/LPC1768/libc.a(lib_a-stdio.o)
                                                  ../../external/gcc/LPC1768/libc.a(lib_a-fopen.o)
                                                  ../../external/gcc/LPC1768/libc.a(lib_a-findfp.o)
__srefill_r                                       ../../external/gcc/LPC1768/libc.a(lib_a-refill.o)
                                                  ../../external/gcc/LPC1768/libc.a(lib_a-fread.o)
                                                  ../../external/gcc/LPC1768/libc.a(lib_a-vfscanf.o)
                                                  ../../external/gcc/LPC1768/libc.a(lib_a-rget.o)
                                                  ../../external/gcc/LPC1768/libc.a(lib_a-fseek.o)
__srget                                           ../../external/gcc/LPC1768/libc.a(lib_a-rget.o)
__srget_r                                         ../../external/gcc/LPC1768/libc.a(lib_a-rget.o)
                                                  ../../external/gcc/LPC1768/libc.a(lib_a-fgetc.o)
__sseek                                           ../../external/gcc/LPC1768/libc.a(lib_a-stdio.o)
                                                  ../../external/gcc/LPC1768/libc.a(lib_a-makebuf.o)
                                                  ../../external/gcc/LPC1768/libc.a(lib_a-fseek.o)
                                                  ../../external/gcc/LPC1768/libc.a(lib_a-fopen.o)
                                                  ../../external/gcc/LPC1768/libc.a(lib_a-findfp.o)
__ssprint_r                                       ../../external/gcc/LPC1768/libc.a(lib_a-svfiprintf.o)
                                                  ../../external/gcc/LPC1768/libc.a(lib_a-svfprintf.o)
__ssrefill_r                                      ../../external/gcc/LPC1768/libc.a(lib_a-svfiscanf.o)
                                                  ../../external/gcc/LPC1768/libc.a(lib_a-svfscanf.o)
__ssvfiscanf_r                                    ../../external/gcc/LPC1768/libc.a(lib_a-svfiscanf.o)
__ssvfscanf_r                                     ../../external/gcc/LPC1768/libc.a(lib_a-svfscanf.o)
                                                  ../../external/gcc/LPC1768/libc.a(lib_a-sscanf.o)
__stderr_name                                     ../../external/mbed/LPC1768/mbed.ar(stdio.LPC1768.o)
__stdin_name                                      ../../external/mbed/LPC1768/mbed.ar(stdio.LPC1768.o)
__stdout_name                                     ../../external/mbed/LPC1768/mbed.ar(stdio.LPC1768.o)
__subdf3                                          /media/6aafac43-5450-453e-a142-f588400933c0/Sandbox/arm/bin/../lib/gcc/arm-none-eabi/4.5.2/thumb2/libgcc.a(_arm_addsubdf3.o)
__submore                                         ../../external/gcc/LPC1768/libc.a(lib_a-ungetc.o)
                                                  ../../external/gcc/LPC1768/libc.a(lib_a-svfiscanf.o)
__subsf3                                          /media/6aafac43-5450-453e-a142-f588400933c0/Sandbox/arm/bin/../lib/gcc/arm-none-eabi/4.5.2/thumb2/libgcc.a(_arm_addsubsf3.o)
__svfscanf                                        ../../external/gcc/LPC1768/libc.a(lib_a-vfscanf.o)
__svfscanf_r                                      ../../external/gcc/LPC1768/libc.a(lib_a-vfscanf.o)
__swbuf                                           ../../external/gcc/LPC1768/libc.a(lib_a-wbuf.o)
__swbuf_r                                         ../../external/gcc/LPC1768/libc.a(lib_a-wbuf.o)
                                                  ../../external/gcc/LPC1768/libc.a(lib_a-fputwc.o)
                                                  ../../external/gcc/LPC1768/libc.a(lib_a-putc.o)
__swrite                                          ../../external/gcc/LPC1768/libc.a(lib_a-stdio.o)
                                                  ../../external/gcc/LPC1768/libc.a(lib_a-fopen.o)
                                                  ../../external/gcc/LPC1768/libc.a(lib_a-findfp.o)
__swsetup_r                                       ../../external/gcc/LPC1768/libc.a(lib_a-wsetup.o)
                                                  ../../external/gcc/LPC1768/libc.a(lib_a-vfiprintf.o)
                                                  ../../external/gcc/LPC1768/libc.a(lib_a-wbuf.o)
                                                  ../../external/gcc/LPC1768/libc.a(lib_a-vfprintf.o)
                                                  ../../external/gcc/LPC1768/libc.a(lib_a-fvwrite.o)
__truncdfsf2                                      /media/6aafac43-5450-453e-a142-f588400933c0/Sandbox/arm/bin/../lib/gcc/arm-none-eabi/4.5.2/thumb2/libgcc.a(_arm_truncdfsf2.o)
__udivdi3                                         /media/6aafac43-5450-453e-a142-f588400933c0/Sandbox/arm/bin/../lib/gcc/arm-none-eabi/4.5.2/thumb2/libgcc.a(_udivdi3.o)
                                                  /media/6aafac43-5450-453e-a142-f588400933c0/Sandbox/arm/bin/../lib/gcc/arm-none-eabi/4.5.2/thumb2/libgcc.a(bpabi.o)
__udivsi3                                         /media/6aafac43-5450-453e-a142-f588400933c0/Sandbox/arm/bin/../lib/gcc/arm-none-eabi/4.5.2/thumb2/libgcc.a(_udivsi3.o)
__ulp                                             ../../external/gcc/LPC1768/libc.a(lib_a-mprec.o)
                                                  ../../external/gcc/LPC1768/libc.a(lib_a-strtod.o)
__wctomb                                          ../../external/gcc/LPC1768/libc.a(lib_a-wctomb_r.o)
                                                  ../../external/gcc/LPC1768/libc.a(lib_a-wcrtomb.o)
_calloc_r                                         ../../external/gcc/LPC1768/libc.a(lib_a-callocr.o)
                                                  ../../external/gcc/LPC1768/libc.a(lib_a-mprec.o)
_cleanup                                          ../../external/gcc/LPC1768/libc.a(lib_a-findfp.o)
_cleanup_r                                        ../../external/gcc/LPC1768/libc.a(lib_a-findfp.o)
                                                  ../../external/gcc/LPC1768/libc.a(lib_a-setvbuf.o)
                                                  ../../external/gcc/LPC1768/libc.a(lib_a-makebuf.o)
_close                                            ../../src/syscalls.o
                                                  ../../external/gcc/LPC1768/libc.a(lib_a-closer.o)
_close_r                                          ../../external/gcc/LPC1768/libc.a(lib_a-closer.o)
                                                  ../../external/gcc/LPC1768/libc.a(lib_a-stdio.o)
_ctype_                                           ../../external/gcc/LPC1768/libc.a(lib_a-ctype_.o)
_dtoa_r                                           ../../external/gcc/LPC1768/libc.a(lib_a-dtoa.o)
                                                  ../../external/gcc/LPC1768/libc.a(lib_a-vfprintf.o)
                                                  ../../external/gcc/LPC1768/libc.a(lib_a-svfprintf.o)
_ebss                                             ../../src/gcc4mbed.o
_edata                                            ../../src/gcc4mbed.o
_efastcode                                        ../../src/gcc4mbed.o
_end                                              ../../src/syscalls.o
_exit                                             ../../src/syscalls.o
                                                  ../../external/gcc/LPC1768/libc.a(lib_a-abort.o)
_fclose_r                                         ../../external/gcc/LPC1768/libc.a(lib_a-fclose.o)
_fflush_r                                         ../../external/gcc/LPC1768/libc.a(lib_a-fflush.o)
                                                  ../../external/gcc/LPC1768/libc.a(lib_a-vfiprintf.o)
                                                  ../../external/gcc/LPC1768/libc.a(lib_a-ungetc.o)
                                                  ../../external/gcc/LPC1768/libc.a(lib_a-wbuf.o)
                                                  ../../external/gcc/LPC1768/libc.a(lib_a-vfprintf.o)
                                                  ../../external/gcc/LPC1768/libc.a(lib_a-setvbuf.o)
                                                  ../../external/gcc/LPC1768/libc.a(lib_a-refill.o)
                                                  ../../external/gcc/LPC1768/libc.a(lib_a-fvwrite.o)
                                                  ../../external/gcc/LPC1768/libc.a(lib_a-fseek.o)
                                                  ../../external/gcc/LPC1768/libc.a(lib_a-fclose.o)
_fgetc_r                                          ../../external/gcc/LPC1768/libc.a(lib_a-fgetc.o)
_fini                                             /media/6aafac43-5450-453e-a142-f588400933c0/Sandbox/arm/bin/../lib/gcc/arm-none-eabi/4.5.2/thumb2/crti.o
_fiprintf_r                                       ../../external/gcc/LPC1768/libc.a(lib_a-fiprintf.o)
_fopen_r                                          ../../external/gcc/LPC1768/libc.a(lib_a-fopen.o)
_fprintf_r                                        ../../external/gcc/LPC1768/libc.a(lib_a-fprintf.o)
_fputc_r                                          ../../external/gcc/LPC1768/libc.a(lib_a-fputc.o)
_fputs_r                                          ../../external/gcc/LPC1768/libc.a(lib_a-fputs.o)
_fputwc_r                                         ../../external/gcc/LPC1768/libc.a(lib_a-fputwc.o)
                                                  ../../external/gcc/LPC1768/libc.a(lib_a-vfiprintf.o)
_fread_r                                          ../../external/gcc/LPC1768/libc.a(lib_a-fread.o)
                                                  ../../external/gcc/LPC1768/libc.a(lib_a-vfscanf.o)
_free_r                                           ../../external/gcc/LPC1768/libc.a(lib_a-freer.o)
                                                  ../../external/gcc/LPC1768/libc.a(lib_a-svfiscanf.o)
                                                  ../../external/gcc/LPC1768/libc.a(lib_a-svfiprintf.o)
                                                  ../../external/gcc/LPC1768/libc.a(lib_a-wsetup.o)
                                                  ../../external/gcc/LPC1768/libc.a(lib_a-setvbuf.o)
                                                  ../../external/gcc/LPC1768/libc.a(lib_a-refill.o)
                                                  ../../external/gcc/LPC1768/libc.a(lib_a-reent.o)
                                                  ../../external/gcc/LPC1768/libc.a(lib_a-reallocr.o)
                                                  ../../external/gcc/LPC1768/libc.a(lib_a-mallocr.o)
                                                  ../../external/gcc/LPC1768/libc.a(lib_a-malloc.o)
                                                  ../../external/gcc/LPC1768/libc.a(lib_a-fvwrite.o)
                                                  ../../external/gcc/LPC1768/libc.a(lib_a-fseek.o)
                                                  ../../external/gcc/LPC1768/libc.a(lib_a-fflush.o)
                                                  ../../external/gcc/LPC1768/libc.a(lib_a-fclose.o)
_fseek_r                                          ../../external/gcc/LPC1768/libc.a(lib_a-fseek.o)
                                                  ../../external/gcc/LPC1768/libc.a(lib_a-fopen.o)
_fstat                                            ../../src/syscalls.o
                                                  ../../external/gcc/LPC1768/libc.a(lib_a-fstatr.o)
_fstat_r                                          ../../external/gcc/LPC1768/libc.a(lib_a-fstatr.o)
                                                  ../../external/gcc/LPC1768/libc.a(lib_a-makebuf.o)
                                                  ../../external/gcc/LPC1768/libc.a(lib_a-fseek.o)
_fwalk                                            ../../external/gcc/LPC1768/libc.a(lib_a-fwalk.o)
                                                  ../../external/gcc/LPC1768/libc.a(lib_a-refill.o)
                                                  ../../external/gcc/LPC1768/libc.a(lib_a-findfp.o)
_fwalk_reent                                      ../../external/gcc/LPC1768/libc.a(lib_a-fwalk.o)
                                                  ../../external/gcc/LPC1768/libc.a(lib_a-fflush.o)
_fwrite_r                                         ../../external/gcc/LPC1768/libc.a(lib_a-fwrite.o)
_getpid                                           ../../src/syscalls.o
                                                  ../../external/gcc/LPC1768/libc.a(lib_a-signalr.o)
_getpid_r                                         ../../external/gcc/LPC1768/libc.a(lib_a-signalr.o)
                                                  ../../external/gcc/LPC1768/libc.a(lib_a-signal.o)
_global_impure_ptr                                ../../external/gcc/LPC1768/libc.a(lib_a-impure.o)
                                                  ../../external/gcc/LPC1768/libc.a(lib_a-__atexit.o)
                                                  ../../external/gcc/LPC1768/libc.a(lib_a-refill.o)
                                                  ../../external/gcc/LPC1768/libc.a(lib_a-findfp.o)
                                                  ../../external/gcc/LPC1768/libc.a(lib_a-fflush.o)
_impure_ptr                                       ../../external/gcc/LPC1768/libc.a(lib_a-impure.o)
                                                  ../../external/gcc/LPC1768/libc.a(lib_a-wcrtomb.o)
                                                  ../../external/gcc/LPC1768/libc.a(lib_a-fputwc.o)
                                                  ../../external/gcc/LPC1768/libc.a(lib_a-vfiprintf.o)
                                                  ../../external/gcc/LPC1768/libc.a(lib_a-ungetc.o)
                                                  ../../external/gcc/LPC1768/libc.a(lib_a-strtoul.o)
                                                  ../../external/gcc/LPC1768/libc.a(lib_a-strtod.o)
                                                  ../../external/gcc/LPC1768/libc.a(lib_a-mbrtowc.o)
                                                  ../../external/gcc/LPC1768/libc.a(lib_a-locale.o)
                                                  ../../external/gcc/LPC1768/libc.a(lib_a-fread.o)
                                                  ../../external/gcc/LPC1768/libc.a(lib_a-fiprintf.o)
                                                  ../../external/gcc/LPC1768/libc.a(lib_a-assert.o)
                                                  ../../external/gcc/LPC1768/libc.a(lib_a-wsetup.o)
                                                  ../../external/gcc/LPC1768/libc.a(lib_a-wbuf.o)
                                                  ../../external/gcc/LPC1768/libc.a(lib_a-vfscanf.o)
                                                  ../../external/gcc/LPC1768/libc.a(lib_a-vfprintf.o)
                                                  ../../external/gcc/LPC1768/libc.a(lib_a-syswrite.o)
                                                  ../../external/gcc/LPC1768/libc.a(lib_a-strtol.o)
                                                  ../../external/gcc/LPC1768/libc.a(lib_a-sscanf.o)
                                                  ../../external/gcc/LPC1768/libc.a(lib_a-sprintf.o)
                                                  ../../external/gcc/LPC1768/libc.a(lib_a-signal.o)
                                                  ../../external/gcc/LPC1768/libc.a(lib_a-setvbuf.o)
                                                  ../../external/gcc/LPC1768/libc.a(lib_a-rget.o)
                                                  ../../external/gcc/LPC1768/libc.a(lib_a-reent.o)
                                                  ../../external/gcc/LPC1768/libc.a(lib_a-realloc.o)
                                                  ../../external/gcc/LPC1768/libc.a(lib_a-puts.o)
                                                  ../../external/gcc/LPC1768/libc.a(lib_a-putc.o)
                                                  ../../external/gcc/LPC1768/libc.a(lib_a-malloc.o)
                                                  ../../external/gcc/LPC1768/libc.a(lib_a-fwrite.o)
                                                  ../../external/gcc/LPC1768/libc.a(lib_a-fseek.o)
                                                  ../../external/gcc/LPC1768/libc.a(lib_a-fputs.o)
                                                  ../../external/gcc/LPC1768/libc.a(lib_a-fputc.o)
                                                  ../../external/gcc/LPC1768/libc.a(lib_a-fprintf.o)
                                                  ../../external/gcc/LPC1768/libc.a(lib_a-fopen.o)
                                                  ../../external/gcc/LPC1768/libc.a(lib_a-findfp.o)
                                                  ../../external/gcc/LPC1768/libc.a(lib_a-fgetc.o)
                                                  ../../external/gcc/LPC1768/libc.a(lib_a-fflush.o)
                                                  ../../external/gcc/LPC1768/libc.a(lib_a-fclose.o)
                                                  ../../external/gcc/LPC1768/libc.a(lib_a-clibabi_stdio.o)
                                                  ../../external/gcc/LPC1768/libstdc++.a(vterminate.o)
                                                  ../../src/syscalls.o
_init                                             /media/6aafac43-5450-453e-a142-f588400933c0/Sandbox/arm/bin/../lib/gcc/arm-none-eabi/4.5.2/thumb2/crti.o
                                                  ../../external/gcc/LPC1768/libc.a(lib_a-init.o)
_init_signal                                      ../../external/gcc/LPC1768/libc.a(lib_a-signal.o)
_init_signal_r                                    ../../external/gcc/LPC1768/libc.a(lib_a-signal.o)
_isatty                                           ../../src/syscalls.o
                                                  ../../external/gcc/LPC1768/libc.a(lib_a-isattyr.o)
_isatty_r                                         ../../external/gcc/LPC1768/libc.a(lib_a-isattyr.o)
                                                  ../../external/gcc/LPC1768/libc.a(lib_a-makebuf.o)
_kill                                             ../../src/syscalls.o
                                                  ../../external/gcc/LPC1768/libc.a(lib_a-signalr.o)
_kill_r                                           ../../external/gcc/LPC1768/libc.a(lib_a-signalr.o)
                                                  ../../external/gcc/LPC1768/libc.a(lib_a-signal.o)
_localeconv_r                                     ../../external/gcc/LPC1768/libc.a(lib_a-locale.o)
                                                  ../../external/gcc/LPC1768/libc.a(lib_a-gdtoa-gethex.o)
                                                  ../../external/gcc/LPC1768/libc.a(lib_a-strtod.o)
                                                  ../../external/gcc/LPC1768/libc.a(lib_a-vfprintf.o)
                                                  ../../external/gcc/LPC1768/libc.a(lib_a-svfprintf.o)
_lseek                                            ../../src/syscalls.o
                                                  ../../external/gcc/LPC1768/libc.a(lib_a-lseekr.o)
_lseek_r                                          ../../external/gcc/LPC1768/libc.a(lib_a-lseekr.o)
                                                  ../../external/gcc/LPC1768/libc.a(lib_a-stdio.o)
_malloc_r                                         ../../external/gcc/LPC1768/libc.a(lib_a-mallocr.o)
                                                  ../../external/gcc/LPC1768/libc.a(lib_a-callocr.o)
                                                  ../../external/gcc/LPC1768/libc.a(lib_a-ungetc.o)
                                                  ../../external/gcc/LPC1768/libc.a(lib_a-svfiprintf.o)
                                                  ../../external/gcc/LPC1768/libc.a(lib_a-svfprintf.o)
                                                  ../../external/gcc/LPC1768/libc.a(lib_a-signal.o)
                                                  ../../external/gcc/LPC1768/libc.a(lib_a-reallocr.o)
                                                  ../../external/gcc/LPC1768/libc.a(lib_a-malloc.o)
                                                  ../../external/gcc/LPC1768/libc.a(lib_a-makebuf.o)
                                                  ../../external/gcc/LPC1768/libc.a(lib_a-fvwrite.o)
                                                  ../../external/gcc/LPC1768/libc.a(lib_a-findfp.o)
_malloc_trim_r                                    ../../external/gcc/LPC1768/libc.a(lib_a-freer.o)
_mbrtowc_r                                        ../../external/gcc/LPC1768/libc.a(lib_a-mbrtowc.o)
                                                  ../../external/gcc/LPC1768/libc.a(lib_a-svfiscanf.o)
                                                  ../../external/gcc/LPC1768/libc.a(lib_a-vfscanf.o)
                                                  ../../external/gcc/LPC1768/libc.a(lib_a-svfscanf.o)
_mbtowc_r                                         ../../external/gcc/LPC1768/libc.a(lib_a-mbtowc_r.o)
_mprec_log10                                      ../../external/gcc/LPC1768/libc.a(lib_a-mprec.o)
_open                                             ../../src/syscalls.o
                                                  ../../external/gcc/LPC1768/libc.a(lib_a-openr.o)
_open_r                                           ../../external/gcc/LPC1768/libc.a(lib_a-openr.o)
                                                  ../../external/gcc/LPC1768/libc.a(lib_a-fopen.o)
_putc_r                                           ../../external/gcc/LPC1768/libc.a(lib_a-putc.o)
                                                  ../../external/gcc/LPC1768/libc.a(lib_a-fputc.o)
_puts_r                                           ../../external/gcc/LPC1768/libc.a(lib_a-puts.o)
_raise_r                                          ../../external/gcc/LPC1768/libc.a(lib_a-signal.o)
_read                                             ../../src/syscalls.o
                                                  ../../external/gcc/LPC1768/libc.a(lib_a-readr.o)
_read_r                                           ../../external/gcc/LPC1768/libc.a(lib_a-readr.o)
                                                  ../../external/gcc/LPC1768/libc.a(lib_a-stdio.o)
_realloc_r                                        ../../external/gcc/LPC1768/libc.a(lib_a-reallocr.o)
                                                  ../../external/gcc/LPC1768/libc.a(lib_a-ungetc.o)
                                                  ../../external/gcc/LPC1768/libc.a(lib_a-svfiprintf.o)
                                                  ../../external/gcc/LPC1768/libc.a(lib_a-realloc.o)
                                                  ../../external/gcc/LPC1768/libc.a(lib_a-fvwrite.o)
_reclaim_reent                                    ../../external/gcc/LPC1768/libc.a(lib_a-reent.o)
_sbrk                                             ../../src/syscalls.o
                                                  ../../external/gcc/LPC1768/libc.a(lib_a-sbrkr.o)
_sbrk_r                                           ../../external/gcc/LPC1768/libc.a(lib_a-sbrkr.o)
                                                  ../../external/gcc/LPC1768/libc.a(lib_a-mallocr.o)
                                                  ../../external/gcc/LPC1768/libc.a(lib_a-freer.o)
_sbss                                             ../../src/gcc4mbed.o
_sdata                                            ../../src/gcc4mbed.o
_setlocale_r                                      ../../external/gcc/LPC1768/libc.a(lib_a-locale.o)
_sfastcode                                        ../../src/gcc4mbed.o
_sfread_r                                         ../../external/gcc/LPC1768/libc.a(lib_a-svfiscanf.o)
                                                  ../../external/gcc/LPC1768/libc.a(lib_a-svfscanf.o)
_sidata                                           ../../src/gcc4mbed.o
_sifastcode                                       ../../src/gcc4mbed.o
_signal_r                                         ../../external/gcc/LPC1768/libc.a(lib_a-signal.o)
_sprintf_r                                        ../../external/gcc/LPC1768/libc.a(lib_a-sprintf.o)
_sscanf_r                                         ../../external/gcc/LPC1768/libc.a(lib_a-sscanf.o)
_strtod_r                                         ../../external/gcc/LPC1768/libc.a(lib_a-strtod.o)
                                                  ../../external/gcc/LPC1768/libc.a(lib_a-vfscanf.o)
                                                  ../../external/gcc/LPC1768/libc.a(lib_a-svfscanf.o)
_strtol_r                                         ../../external/gcc/LPC1768/libc.a(lib_a-strtol.o)
                                                  ../../external/gcc/LPC1768/libc.a(lib_a-svfiscanf.o)
                                                  ../../external/gcc/LPC1768/libc.a(lib_a-vfscanf.o)
                                                  ../../external/gcc/LPC1768/libc.a(lib_a-svfscanf.o)
_strtoll_r                                        ../../external/gcc/LPC1768/libc.a(lib_a-strtoll_r.o)
                                                  ../../external/gcc/LPC1768/libc.a(lib_a-svfiscanf.o)
                                                  ../../external/gcc/LPC1768/libc.a(lib_a-vfscanf.o)
                                                  ../../external/gcc/LPC1768/libc.a(lib_a-svfscanf.o)
_strtoul_r                                        ../../external/gcc/LPC1768/libc.a(lib_a-strtoul.o)
                                                  ../../external/gcc/LPC1768/libc.a(lib_a-svfiscanf.o)
                                                  ../../external/gcc/LPC1768/libc.a(lib_a-vfscanf.o)
                                                  ../../external/gcc/LPC1768/libc.a(lib_a-svfscanf.o)
_strtoull_r                                       ../../external/gcc/LPC1768/libc.a(lib_a-strtoull_r.o)
                                                  ../../external/gcc/LPC1768/libc.a(lib_a-svfiscanf.o)
                                                  ../../external/gcc/LPC1768/libc.a(lib_a-vfscanf.o)
                                                  ../../external/gcc/LPC1768/libc.a(lib_a-svfscanf.o)
_sungetc_r                                        ../../external/gcc/LPC1768/libc.a(lib_a-svfiscanf.o)
                                                  ../../external/gcc/LPC1768/libc.a(lib_a-svfscanf.o)
_svfiprintf_r                                     ../../external/gcc/LPC1768/libc.a(lib_a-svfiprintf.o)
_svfprintf_r                                      ../../external/gcc/LPC1768/libc.a(lib_a-svfprintf.o)
                                                  ../../external/gcc/LPC1768/libc.a(lib_a-sprintf.o)
_sys_close                                        ../../external/mbed/LPC1768/mbed.ar(stdio.LPC1768.o)
                                                  ../../src/syscalls.o
_sys_command_string                               ../../external/mbed/LPC1768/mbed.ar(stdio.LPC1768.o)
_sys_ensure                                       ../../external/mbed/LPC1768/mbed.ar(stdio.LPC1768.o)
_sys_flen                                         ../../external/mbed/LPC1768/mbed.ar(stdio.LPC1768.o)
_sys_istty                                        ../../external/mbed/LPC1768/mbed.ar(stdio.LPC1768.o)
                                                  ../../src/syscalls.o
_sys_open                                         ../../external/mbed/LPC1768/mbed.ar(stdio.LPC1768.o)
                                                  ../../src/syscalls.o
_sys_read                                         ../../external/mbed/LPC1768/mbed.ar(stdio.LPC1768.o)
                                                  ../../src/syscalls.o
_sys_seek                                         ../../external/mbed/LPC1768/mbed.ar(stdio.LPC1768.o)
                                                  ../../src/syscalls.o
_sys_write                                        ../../external/mbed/LPC1768/mbed.ar(stdio.LPC1768.o)
                                                  ../../src/syscalls.o
_system                                           ../../src/syscalls.o
_ungetc_r                                         ../../external/gcc/LPC1768/libc.a(lib_a-ungetc.o)
                                                  ../../external/gcc/LPC1768/libc.a(lib_a-vfscanf.o)
_vfiprintf_r                                      ../../external/gcc/LPC1768/libc.a(lib_a-vfiprintf.o)
                                                  ../../external/gcc/LPC1768/libc.a(lib_a-fiprintf.o)
_vfprintf_r                                       ../../external/gcc/LPC1768/libc.a(lib_a-vfprintf.o)
                                                  ../../external/gcc/LPC1768/libc.a(lib_a-fprintf.o)
_vfscanf_r                                        ../../external/gcc/LPC1768/libc.a(lib_a-vfscanf.o)
_wcrtomb_r                                        ../../external/gcc/LPC1768/libc.a(lib_a-wcrtomb.o)
                                                  ../../external/gcc/LPC1768/libc.a(lib_a-fputwc.o)
_wctomb_r                                         ../../external/gcc/LPC1768/libc.a(lib_a-wctomb_r.o)
_wrapup_reent                                     ../../external/gcc/LPC1768/libc.a(lib_a-reent.o)
_write                                            ../../src/syscalls.o
                                                  ../../external/gcc/LPC1768/libc.a(lib_a-writer.o)
_write_r                                          ../../external/gcc/LPC1768/libc.a(lib_a-writer.o)
                                                  ../../external/gcc/LPC1768/libc.a(lib_a-syswrite.o)
                                                  ../../external/gcc/LPC1768/libc.a(lib_a-stdio.o)
abort                                             ../../external/gcc/LPC1768/libc.a(lib_a-abort.o)
                                                  ../../external/gcc/LPC1768/libc.a(lib_a-assert.o)
                                                  ../../external/gcc/LPC1768/libstdc++.a(vterminate.o)
                                                  ../../external/gcc/LPC1768/libstdc++.a(eh_terminate.o)
                                                  ../../external/gcc/LPC1768/libstdc++.a(new_op.o)
                                                  ../../src/syscalls.o
cleanup_glue                                      ../../external/gcc/LPC1768/libc.a(lib_a-reent.o)
closedir                                          ../../external/mbed/LPC1768/mbed.ar(stdio.LPC1768.o)
copysign                                          ../../external/gcc/LPC1768/libm.a(lib_a-s_copysign.o)
                                                  ../../external/gcc/LPC1768/libm.a(lib_a-s_scalbn.o)
errno                                             ../../external/gcc/LPC1768/libc.a(lib_a-readr.o)
                                                  ../../external/gcc/LPC1768/libc.a(lib_a-lseekr.o)
                                                  ../../external/gcc/LPC1768/libc.a(lib_a-isattyr.o)
                                                  ../../external/gcc/LPC1768/libc.a(lib_a-closer.o)
                                                  ../../external/gcc/LPC1768/libc.a(lib_a-writer.o)
                                                  ../../external/gcc/LPC1768/libc.a(lib_a-signalr.o)
                                                  ../../external/gcc/LPC1768/libc.a(lib_a-sbrkr.o)
                                                  ../../external/gcc/LPC1768/libc.a(lib_a-reent.o)
                                                  ../../external/gcc/LPC1768/libc.a(lib_a-openr.o)
                                                  ../../external/gcc/LPC1768/libc.a(lib_a-fstatr.o)
                                                  ../../src/syscalls.o
exit                                              ../../external/mbed/LPC1768/capi.ar(exit.LPC1768.o)
                                                  ../../external/mbed/LPC1768/capi.ar(utils_api.LPC1768.o)
                                                  ../../external/mbed/LPC1768/capi.ar(pinmap.LPC1768.o)
                                                  ../../external/mbed/LPC1768/capi.ar(serial_api.LPC1768.o)
                                                  ../../src/syscalls.o
                                                  ../../src/gcc4mbed.o
fclose                                            ../../external/gcc/LPC1768/libc.a(lib_a-fclose.o)
                                                  ../../external/gcc/LPC1768/libc.a(lib_a-findfp.o)
                                                  ../../external/mbed/LPC1768/mbed.ar(Stream.LPC1768.o)
fflush                                            ../../external/gcc/LPC1768/libc.a(lib_a-fflush.o)
                                                  ../../external/gcc/LPC1768/libc.a(lib_a-refill.o)
                                                  ../../external/mbed/LPC1768/mbed.ar(Stream.LPC1768.o)
                                                  ../../mri/mri.ar(mri.o)
fgetc                                             ../../external/gcc/LPC1768/libc.a(lib_a-fgetc.o)
                                                  ../../external/mbed/LPC1768/mbed.ar(Stream.LPC1768.o)
                                                  ../../mri/mri.ar(mri.o)
fiprintf                                          ../../external/gcc/LPC1768/libc.a(lib_a-fiprintf.o)
                                                  ../../external/gcc/LPC1768/libc.a(lib_a-assert.o)
flip()                                            ./main.o
flipper                                           ./main.o
fopen                                             ../../external/gcc/LPC1768/libc.a(lib_a-fopen.o)
                                                  ../../external/mbed/LPC1768/mbed.ar(Stream.LPC1768.o)
fprintf                                           ../../external/gcc/LPC1768/libc.a(lib_a-fprintf.o)
                                                  ../../external/mbed/LPC1768/capi.ar(utils_api.LPC1768.o)
                                                  ../../external/mbed/LPC1768/capi.ar(pinmap.LPC1768.o)
                                                  ../../external/mbed/LPC1768/capi.ar(serial_api.LPC1768.o)
fputc                                             ../../external/gcc/LPC1768/libc.a(lib_a-fputc.o)
                                                  ../../external/mbed/LPC1768/mbed.ar(Stream.LPC1768.o)
                                                  ../../mri/mri.ar(mri.o)
fputs                                             ../../external/gcc/LPC1768/libc.a(lib_a-fputs.o)
                                                  ../../external/gcc/LPC1768/libstdc++.a(vterminate.o)
                                                  ../../external/mbed/LPC1768/mbed.ar(Stream.LPC1768.o)
fputwc                                            ../../external/gcc/LPC1768/libc.a(lib_a-fputwc.o)
fread                                             ../../external/gcc/LPC1768/libc.a(lib_a-fread.o)
free                                              ../../external/gcc/LPC1768/libc.a(lib_a-malloc.o)
                                                  ../../external/gcc/LPC1768/libstdc++.a(cp-demangle.o)
                                                  ../../external/gcc/LPC1768/libstdc++.a(vterminate.o)
                                                  ../../external/gcc/LPC1768/libstdc++.a(del_op.o)
fseek                                             ../../external/gcc/LPC1768/libc.a(lib_a-fseek.o)
fwrite                                            ../../external/gcc/LPC1768/libc.a(lib_a-fwrite.o)
                                                  ../../src/syscalls.o
g_MriContext                                      ../../mri/mri.ar(mri.o)
                                                  ../../mri/mri.ar(mriasm.o)
g_MriFlags                                        ../../mri/mri.ar(mri.o)
                                                  ../../mri/mri.ar(mriasm.o)
g_MriMbedUid                                      ../../mri/mri.ar(mri.o)
gpio_input                                        ../../external/mbed/LPC1768/capi.ar(gpio_api.LPC1768.o)
gpio_mode                                         ../../external/mbed/LPC1768/capi.ar(gpio_api.LPC1768.o)
gpio_output                                       ../../external/mbed/LPC1768/capi.ar(gpio_api.LPC1768.o)
                                                  ../../external/mbed/LPC1768/capi.ar(utils_api.LPC1768.o)
                                                  ../../external/mbed/LPC1768/mbed.ar(DigitalOut.LPC1768.o)
gpio_read                                         ../../external/mbed/LPC1768/capi.ar(gpio_api.LPC1768.o)
gpio_write                                        ../../external/mbed/LPC1768/capi.ar(gpio_api.LPC1768.o)
                                                  ../../external/mbed/LPC1768/capi.ar(utils_api.LPC1768.o)
iswspace                                          ../../external/gcc/LPC1768/libc.a(lib_a-iswspace.o)
                                                  ../../external/gcc/LPC1768/libc.a(lib_a-svfiscanf.o)
                                                  ../../external/gcc/LPC1768/libc.a(lib_a-vfscanf.o)
                                                  ../../external/gcc/LPC1768/libc.a(lib_a-svfscanf.o)
led1                                              ./main.o
led2                                              ./main.o
localeconv                                        ../../external/gcc/LPC1768/libc.a(lib_a-locale.o)
main                                              ./main.o
                                                  ../../src/gcc4mbed.o
malloc                                            ../../external/gcc/LPC1768/libc.a(lib_a-malloc.o)
                                                  ../../external/gcc/LPC1768/libc.a(lib_a-mprec.o)
                                                  ../../external/gcc/LPC1768/libc.a(lib_a-dtoa.o)
                                                  ../../external/gcc/LPC1768/libc.a(lib_a-__atexit.o)
                                                  ../../external/gcc/LPC1768/libc.a(lib_a-setvbuf.o)
                                                  ../../external/gcc/LPC1768/libstdc++.a(new_op.o)
mbed::Base::Base(char const*)                     ../../external/mbed/LPC1768/mbed.ar(Base.LPC1768.o)
                                                  ../../external/mbed/LPC1768/mbed.ar(Stream.LPC1768.o)
                                                  ../../external/mbed/LPC1768/mbed.ar(DigitalOut.LPC1768.o)
mbed::Base::Base(char const*)                     ../../external/mbed/LPC1768/mbed.ar(Base.LPC1768.o)
mbed::Base::_base_class                           ../../external/mbed/LPC1768/mbed.ar(Base.LPC1768.o)
mbed::Base::_base_funcs                           ../../external/mbed/LPC1768/mbed.ar(Base.LPC1768.o)
mbed::Base::_classes                              ../../external/mbed/LPC1768/mbed.ar(Base.LPC1768.o)
mbed::Base::_head                                 ../../external/mbed/LPC1768/mbed.ar(Base.LPC1768.o)
mbed::Base::clear(char const*, char*)             ../../external/mbed/LPC1768/mbed.ar(Base.LPC1768.o)
mbed::Base::delete_self()                         ../../external/mbed/LPC1768/mbed.ar(Base.LPC1768.o)
mbed::Base::get_rpc_methods()                     ../../external/mbed/LPC1768/mbed.ar(Base.LPC1768.o)
                                                  ../../external/mbed/LPC1768/mbed.ar(Stream.LPC1768.o)
                                                  ../../external/mbed/LPC1768/mbed.ar(stdio.LPC1768.o)
                                                  ../../external/mbed/LPC1768/mbed.ar(DigitalOut.LPC1768.o)
mbed::Base::list_objs(char const*, char*)         ../../external/mbed/LPC1768/mbed.ar(Base.LPC1768.o)
mbed::Base::lookup(char const*, unsigned int)     ../../external/mbed/LPC1768/mbed.ar(Base.LPC1768.o)
                                                  ../../external/mbed/LPC1768/mbed.ar(stdio.LPC1768.o)
mbed::Base::name()                                ../../external/mbed/LPC1768/mbed.ar(Base.LPC1768.o)
mbed::Base::new_name(mbed::Base*)                 ../../external/mbed/LPC1768/mbed.ar(Base.LPC1768.o)
                                                  ../../external/mbed/LPC1768/mbed.ar(Serial.LPC1768.o)
                                                  ../../external/mbed/LPC1768/mbed.ar(DigitalOut.LPC1768.o)
mbed::Base::opendir()                             ../../external/mbed/LPC1768/mbed.ar(Base.LPC1768.o)
                                                  ../../external/mbed/LPC1768/mbed.ar(stdio.LPC1768.o)
mbed::Base::register_object(char const*)          ../../external/mbed/LPC1768/mbed.ar(Base.LPC1768.o)
                                                  ../../external/mbed/LPC1768/mbed.ar(Serial.LPC1768.o)
                                                  ../../external/mbed/LPC1768/mbed.ar(DigitalOut.LPC1768.o)
mbed::Base::rpc(char const*, char const*, char const*, char*) ../../external/mbed/LPC1768/mbed.ar(Base.LPC1768.o)
mbed::Base::rpc(char const*, char const*, char*)  ../../external/mbed/LPC1768/mbed.ar(Base.LPC1768.o)
                                                  ../../external/mbed/LPC1768/mbed.ar(Stream.LPC1768.o)
                                                  ../../external/mbed/LPC1768/mbed.ar(Serial.LPC1768.o)
                                                  ../../external/mbed/LPC1768/mbed.ar(stdio.LPC1768.o)
                                                  ../../external/mbed/LPC1768/mbed.ar(DigitalOut.LPC1768.o)
mbed::Base::~Base()                               ../../external/mbed/LPC1768/mbed.ar(Base.LPC1768.o)
mbed::Base::~Base()                               ../../external/mbed/LPC1768/mbed.ar(Base.LPC1768.o)
                                                  ../../external/mbed/LPC1768/mbed.ar(stdio.LPC1768.o)
                                                  ../../external/mbed/LPC1768/mbed.ar(DigitalOut.LPC1768.o)
mbed::Base::~Base()                               ../../external/mbed/LPC1768/mbed.ar(Base.LPC1768.o)
                                                  ./main.o
mbed::BaseDirHandle::closedir()                   ../../external/mbed/LPC1768/mbed.ar(Base.LPC1768.o)
mbed::BaseDirHandle::readdir()                    ../../external/mbed/LPC1768/mbed.ar(Base.LPC1768.o)
mbed::BaseDirHandle::rewinddir()                  ../../external/mbed/LPC1768/mbed.ar(Base.LPC1768.o)
mbed::BaseDirHandle::seekdir(long)                ../../external/mbed/LPC1768/mbed.ar(Base.LPC1768.o)
mbed::BaseDirHandle::telldir()                    ../../external/mbed/LPC1768/mbed.ar(Base.LPC1768.o)
mbed::DigitalOut::DigitalOut(PinName, char const*) ../../external/mbed/LPC1768/mbed.ar(DigitalOut.LPC1768.o)
                                                  ./main.o
mbed::DigitalOut::DigitalOut(PinName, char const*) ../../external/mbed/LPC1768/mbed.ar(DigitalOut.LPC1768.o)
mbed::DigitalOut::get_rpc_class()                 ../../external/mbed/LPC1768/mbed.ar(DigitalOut.LPC1768.o)
mbed::DigitalOut::get_rpc_methods()               ../../external/mbed/LPC1768/mbed.ar(DigitalOut.LPC1768.o)
mbed::DigitalOut::read()                          ../../external/mbed/LPC1768/mbed.ar(DigitalOut.LPC1768.o)
mbed::DigitalOut::write(int)                      ../../external/mbed/LPC1768/mbed.ar(DigitalOut.LPC1768.o)
mbed::DigitalOut::~DigitalOut()                   ../../external/mbed/LPC1768/mbed.ar(DigitalOut.LPC1768.o)
                                                  ./main.o
mbed::DigitalOut::~DigitalOut()                   ../../external/mbed/LPC1768/mbed.ar(DigitalOut.LPC1768.o)
                                                  ./main.o
mbed::DigitalOut::~DigitalOut()                   ../../external/mbed/LPC1768/mbed.ar(DigitalOut.LPC1768.o)
                                                  ./main.o
mbed::FileHandle::flen()                          ../../external/mbed/LPC1768/mbed.ar(stdio.LPC1768.o)
mbed::FileLike::~FileLike()                       ../../external/mbed/LPC1768/mbed.ar(stdio.LPC1768.o)
mbed::FileLike::~FileLike()                       ../../external/mbed/LPC1768/mbed.ar(stdio.LPC1768.o)
                                                  ../../external/mbed/LPC1768/mbed.ar(Stream.LPC1768.o)
mbed::FileLike::~FileLike()                       ../../external/mbed/LPC1768/mbed.ar(stdio.LPC1768.o)
mbed::FunctionPointer::FunctionPointer(void (*)()) ../../external/mbed/LPC1768/mbed.ar(FunctionPointer.LPC1768.o)
                                                  ../../external/mbed/LPC1768/mbed.ar(Serial.LPC1768.o)
                                                  ./main.o
mbed::FunctionPointer::FunctionPointer(void (*)()) ../../external/mbed/LPC1768/mbed.ar(FunctionPointer.LPC1768.o)
mbed::FunctionPointer::attach(void (*)())         ../../external/mbed/LPC1768/mbed.ar(FunctionPointer.LPC1768.o)
                                                  ../../external/mbed/LPC1768/mbed.ar(Serial.LPC1768.o)
                                                  ../../external/mbed/LPC1768/mbed.ar(Ticker.LPC1768.o)
                                                  ./main.o
mbed::FunctionPointer::call()                     ../../external/mbed/LPC1768/mbed.ar(FunctionPointer.LPC1768.o)
                                                  ../../external/mbed/LPC1768/mbed.ar(Serial.LPC1768.o)
                                                  ../../external/mbed/LPC1768/mbed.ar(Ticker.LPC1768.o)
mbed::Serial::Serial(PinName, PinName, char const*) ../../external/mbed/LPC1768/mbed.ar(Serial.LPC1768.o)
mbed::Serial::Serial(PinName, PinName, char const*) ../../external/mbed/LPC1768/mbed.ar(Serial.LPC1768.o)
                                                  ../../mri/mri.ar(mri.o)
mbed::Serial::_getc()                             ../../external/mbed/LPC1768/mbed.ar(Serial.LPC1768.o)
mbed::Serial::_putc(int)                          ../../external/mbed/LPC1768/mbed.ar(Serial.LPC1768.o)
mbed::Serial::attach(void (*)(), mbed::Serial::IrqType) ../../external/mbed/LPC1768/mbed.ar(Serial.LPC1768.o)
mbed::Serial::baud(int)                           ../../external/mbed/LPC1768/mbed.ar(Serial.LPC1768.o)
                                                  ../../mri/mri.ar(mri.o)
mbed::Serial::format(int, mbed::Serial::Parity, int) ../../external/mbed/LPC1768/mbed.ar(Serial.LPC1768.o)
mbed::Serial::get_rpc_class()                     ../../external/mbed/LPC1768/mbed.ar(Serial.LPC1768.o)
mbed::Serial::get_rpc_methods()                   ../../external/mbed/LPC1768/mbed.ar(Serial.LPC1768.o)
mbed::Serial::readable()                          ../../external/mbed/LPC1768/mbed.ar(Serial.LPC1768.o)
                                                  ../../mri/mri.ar(mri.o)
mbed::Serial::remove_interrupt(mbed::Serial::IrqType) ../../external/mbed/LPC1768/mbed.ar(Serial.LPC1768.o)
mbed::Serial::setup_interrupt(mbed::Serial::IrqType) ../../external/mbed/LPC1768/mbed.ar(Serial.LPC1768.o)
mbed::Serial::writeable()                         ../../external/mbed/LPC1768/mbed.ar(Serial.LPC1768.o)
mbed::Serial::~Serial()                           ../../external/mbed/LPC1768/mbed.ar(Serial.LPC1768.o)
                                                  ../../mri/mri.ar(mri.o)
mbed::Serial::~Serial()                           ../../external/mbed/LPC1768/mbed.ar(Serial.LPC1768.o)
                                                  ../../mri/mri.ar(mri.o)
mbed::Serial::~Serial()                           ../../external/mbed/LPC1768/mbed.ar(Serial.LPC1768.o)
                                                  ../../mri/mri.ar(mri.o)
mbed::Stream::Stream(char const*)                 ../../external/mbed/LPC1768/mbed.ar(Stream.LPC1768.o)
                                                  ../../external/mbed/LPC1768/mbed.ar(Serial.LPC1768.o)
mbed::Stream::close()                             ../../external/mbed/LPC1768/mbed.ar(Stream.LPC1768.o)
                                                  ../../external/mbed/LPC1768/mbed.ar(Serial.LPC1768.o)
mbed::Stream::flen()                              ../../external/mbed/LPC1768/mbed.ar(Stream.LPC1768.o)
                                                  ../../external/mbed/LPC1768/mbed.ar(Serial.LPC1768.o)
mbed::Stream::fsync()                             ../../external/mbed/LPC1768/mbed.ar(Stream.LPC1768.o)
                                                  ../../external/mbed/LPC1768/mbed.ar(Serial.LPC1768.o)
mbed::Stream::get_rpc_methods()                   ../../external/mbed/LPC1768/mbed.ar(Stream.LPC1768.o)
                                                  ../../external/mbed/LPC1768/mbed.ar(Serial.LPC1768.o)
mbed::Stream::getc()                              ../../mri/mri.ar(mri.o)
                                                  ../../external/mbed/LPC1768/mbed.ar(Stream.LPC1768.o)
mbed::Stream::isatty()                            ../../external/mbed/LPC1768/mbed.ar(Stream.LPC1768.o)
                                                  ../../external/mbed/LPC1768/mbed.ar(Serial.LPC1768.o)
mbed::Stream::lseek(long, int)                    ../../external/mbed/LPC1768/mbed.ar(Stream.LPC1768.o)
                                                  ../../external/mbed/LPC1768/mbed.ar(Serial.LPC1768.o)
mbed::Stream::printf(char const*, ...)            ../../external/mbed/LPC1768/mbed.ar(Stream.LPC1768.o)
mbed::Stream::putc(int)                           ../../mri/mri.ar(mri.o)
                                                  ../../external/mbed/LPC1768/mbed.ar(Stream.LPC1768.o)
mbed::Stream::puts(char const*)                   ../../external/mbed/LPC1768/mbed.ar(Stream.LPC1768.o)
mbed::Stream::read(void*, unsigned int)           ../../external/mbed/LPC1768/mbed.ar(Stream.LPC1768.o)
                                                  ../../external/mbed/LPC1768/mbed.ar(Serial.LPC1768.o)
mbed::Stream::scanf(char const*, ...)             ../../external/mbed/LPC1768/mbed.ar(Stream.LPC1768.o)
mbed::Stream::write(void const*, unsigned int)    ../../external/mbed/LPC1768/mbed.ar(Stream.LPC1768.o)
                                                  ../../external/mbed/LPC1768/mbed.ar(Serial.LPC1768.o)
mbed::Stream::~Stream()                           ../../external/mbed/LPC1768/mbed.ar(Stream.LPC1768.o)
mbed::Stream::~Stream()                           ../../external/mbed/LPC1768/mbed.ar(Stream.LPC1768.o)
mbed::Stream::~Stream()                           ../../external/mbed/LPC1768/mbed.ar(Stream.LPC1768.o)
                                                  ../../external/mbed/LPC1768/mbed.ar(Serial.LPC1768.o)
                                                  ../../mri/mri.ar(mri.o)
mbed::Ticker::detach()                            ../../external/mbed/LPC1768/mbed.ar(Ticker.LPC1768.o)
mbed::Ticker::handler()                           ../../external/mbed/LPC1768/mbed.ar(Ticker.LPC1768.o)
mbed::Ticker::setup(unsigned int)                 ../../external/mbed/LPC1768/mbed.ar(Ticker.LPC1768.o)
                                                  ./main.o
mbed::Ticker::~Ticker()                           ../../external/mbed/LPC1768/mbed.ar(Ticker.LPC1768.o)
                                                  ./main.o
mbed::Ticker::~Ticker()                           ../../external/mbed/LPC1768/mbed.ar(Ticker.LPC1768.o)
                                                  ./main.o
mbed::Ticker::~Ticker()                           ../../external/mbed/LPC1768/mbed.ar(Ticker.LPC1768.o)
                                                  ./main.o
mbed::TimerEvent::TimerEvent()                    ../../external/mbed/LPC1768/mbed.ar(TimerEvent.LPC1768.o)
                                                  ./main.o
mbed::TimerEvent::_head                           ../../external/mbed/LPC1768/mbed.ar(TimerEvent.LPC1768.o)
mbed::TimerEvent::insert(unsigned int)            ../../external/mbed/LPC1768/mbed.ar(TimerEvent.LPC1768.o)
                                                  ../../external/mbed/LPC1768/mbed.ar(Ticker.LPC1768.o)
mbed::TimerEvent::irq()                           ../../external/mbed/LPC1768/mbed.ar(TimerEvent.LPC1768.o)
mbed::TimerEvent::remove()                        ../../external/mbed/LPC1768/mbed.ar(TimerEvent.LPC1768.o)
                                                  ../../external/mbed/LPC1768/mbed.ar(Ticker.LPC1768.o)
mbed::TimerEvent::timestamp()                     ../../external/mbed/LPC1768/mbed.ar(TimerEvent.LPC1768.o)
                                                  ../../external/mbed/LPC1768/mbed.ar(Ticker.LPC1768.o)
mbed::TimerEvent::~TimerEvent()                   ../../external/mbed/LPC1768/mbed.ar(TimerEvent.LPC1768.o)
mbed::TimerEvent::~TimerEvent()                   ../../external/mbed/LPC1768/mbed.ar(TimerEvent.LPC1768.o)
mbed::TimerEvent::~TimerEvent()                   ../../external/mbed/LPC1768/mbed.ar(TimerEvent.LPC1768.o)
                                                  ../../external/mbed/LPC1768/mbed.ar(Ticker.LPC1768.o)
                                                  ./main.o
mbed::parse_char(char const*, char const**)       ../../external/mbed/LPC1768/mbed.ar(DigitalOut.LPC1768.o)
                                                  ../../external/mbed/LPC1768/mbed.ar(Stream.LPC1768.o)
                                                  ../../external/mbed/LPC1768/mbed.ar(Serial.LPC1768.o)
mbed::rpc_method const* mbed::rpc_super<mbed::Base>(mbed::Base*) ../../external/mbed/LPC1768/mbed.ar(DigitalOut.LPC1768.o)
                                                  ../../external/mbed/LPC1768/mbed.ar(Stream.LPC1768.o)
mbed::rpc_method const* mbed::rpc_super<mbed::Stream>(mbed::Base*) ../../external/mbed/LPC1768/mbed.ar(Serial.LPC1768.o)
mbed::uart0_irq()                                 ../../external/mbed/LPC1768/mbed.ar(Serial.LPC1768.o)
mbed::uart1_irq()                                 ../../external/mbed/LPC1768/mbed.ar(Serial.LPC1768.o)
mbed::uart2_irq()                                 ../../external/mbed/LPC1768/mbed.ar(Serial.LPC1768.o)
mbed::uart3_irq()                                 ../../external/mbed/LPC1768/mbed.ar(Serial.LPC1768.o)
mbed_die                                          ../../external/mbed/LPC1768/capi.ar(utils_api.LPC1768.o)
                                                  ../../external/mbed/LPC1768/capi.ar(exit.LPC1768.o)
mbed_mac_address                                  ../../external/mbed/LPC1768/capi.ar(utils_api.LPC1768.o)
mbed_reset                                        ../../external/mbed/LPC1768/capi.ar(utils_api.LPC1768.o)
mbed_uid                                          ../../external/mbed/LPC1768/capi.ar(utils_api.LPC1768.o)
mbrtowc                                           ../../external/gcc/LPC1768/libc.a(lib_a-mbrtowc.o)
memchr                                            ../../external/gcc/LPC1768/libc.a(lib_a-memchr.o)
                                                  ../../external/gcc/LPC1768/libc.a(lib_a-vfiprintf.o)
                                                  ../../external/gcc/LPC1768/libc.a(lib_a-svfiprintf.o)
                                                  ../../external/gcc/LPC1768/libc.a(lib_a-vfprintf.o)
                                                  ../../external/gcc/LPC1768/libc.a(lib_a-svfprintf.o)
                                                  ../../external/gcc/LPC1768/libc.a(lib_a-fvwrite.o)
memcmp                                            ../../external/gcc/LPC1768/libc.a(lib_a-memcmp.o)
                                                  ../../external/gcc/LPC1768/libstdc++.a(cp-demangle.o)
memcpy                                            ../../external/gcc/LPC1768/libc.a(lib_a-memcpy.o)
                                                  ../../external/gcc/LPC1768/libc.a(lib_a-gdtoa-gethex.o)
                                                  ../../external/gcc/LPC1768/libc.a(lib_a-ungetc.o)
                                                  ../../external/gcc/LPC1768/libc.a(lib_a-svfiscanf.o)
                                                  ../../external/gcc/LPC1768/libc.a(lib_a-svfiprintf.o)
                                                  ../../external/gcc/LPC1768/libc.a(lib_a-strtod.o)
                                                  ../../external/gcc/LPC1768/libc.a(lib_a-mprec.o)
                                                  ../../external/gcc/LPC1768/libc.a(lib_a-fread.o)
                                                  ../../external/gcc/LPC1768/libc.a(lib_a-dtoa.o)
                                                  ../../external/gcc/LPC1768/libc.a(lib_a-fvwrite.o)
                                                  ../../external/gcc/LPC1768/libc.a(lib_a-aeabi_memcpy.o)
                                                  ../../external/gcc/LPC1768/libstdc++.a(cp-demangle.o)
                                                  ../../mri/mri.ar(mri.o)
memmove                                           ../../external/gcc/LPC1768/libc.a(lib_a-memmove.o)
                                                  ../../external/gcc/LPC1768/libc.a(lib_a-svfiprintf.o)
                                                  ../../external/gcc/LPC1768/libc.a(lib_a-reallocr.o)
                                                  ../../external/gcc/LPC1768/libc.a(lib_a-fvwrite.o)
memset                                            ../../external/gcc/LPC1768/libc.a(lib_a-memset.o)
                                                  ../../external/gcc/LPC1768/libc.a(lib_a-callocr.o)
                                                  ../../external/gcc/LPC1768/libc.a(lib_a-svfiscanf.o)
                                                  ../../external/gcc/LPC1768/libc.a(lib_a-vfscanf.o)
                                                  ../../external/gcc/LPC1768/libc.a(lib_a-svfscanf.o)
                                                  ../../external/gcc/LPC1768/libc.a(lib_a-fseek.o)
                                                  ../../external/gcc/LPC1768/libc.a(lib_a-findfp.o)
                                                  ../../mri/mri.ar(mri.o)
mkdir                                             ../../external/mbed/LPC1768/mbed.ar(stdio.LPC1768.o)
nanf                                              ../../external/gcc/LPC1768/libc.a(lib_a-sf_nan.o)
                                                  ../../external/gcc/LPC1768/libc.a(lib_a-vfscanf.o)
                                                  ../../external/gcc/LPC1768/libc.a(lib_a-svfscanf.o)
non-virtual thunk to mbed::Stream::close()        ../../external/mbed/LPC1768/mbed.ar(Stream.LPC1768.o)
                                                  ../../external/mbed/LPC1768/mbed.ar(Serial.LPC1768.o)
non-virtual thunk to mbed::Stream::flen()         ../../external/mbed/LPC1768/mbed.ar(Stream.LPC1768.o)
                                                  ../../external/mbed/LPC1768/mbed.ar(Serial.LPC1768.o)
non-virtual thunk to mbed::Stream::fsync()        ../../external/mbed/LPC1768/mbed.ar(Stream.LPC1768.o)
                                                  ../../external/mbed/LPC1768/mbed.ar(Serial.LPC1768.o)
non-virtual thunk to mbed::Stream::isatty()       ../../external/mbed/LPC1768/mbed.ar(Stream.LPC1768.o)
                                                  ../../external/mbed/LPC1768/mbed.ar(Serial.LPC1768.o)
non-virtual thunk to mbed::Stream::lseek(long, int) ../../external/mbed/LPC1768/mbed.ar(Stream.LPC1768.o)
                                                  ../../external/mbed/LPC1768/mbed.ar(Serial.LPC1768.o)
non-virtual thunk to mbed::Stream::read(void*, unsigned int) ../../external/mbed/LPC1768/mbed.ar(Stream.LPC1768.o)
                                                  ../../external/mbed/LPC1768/mbed.ar(Serial.LPC1768.o)
non-virtual thunk to mbed::Stream::write(void const*, unsigned int) ../../external/mbed/LPC1768/mbed.ar(Stream.LPC1768.o)
                                                  ../../external/mbed/LPC1768/mbed.ar(Serial.LPC1768.o)
opendir                                           ../../external/mbed/LPC1768/mbed.ar(stdio.LPC1768.o)
operator delete(void*)                            ../../external/gcc/LPC1768/libstdc++.a(del_op.o)
                                                  ../../external/gcc/LPC1768/libstdc++.a(eh_exception.o)
                                                  ../../external/gcc/LPC1768/libstdc++.a(new_handler.o)
                                                  ../../external/gcc/LPC1768/libstdc++.a(vmi_class_type_info.o)
                                                  ../../external/gcc/LPC1768/libstdc++.a(tinfo.o)
                                                  ../../external/gcc/LPC1768/libstdc++.a(si_class_type_info.o)
                                                  ../../external/gcc/LPC1768/libstdc++.a(del_opv.o)
                                                  ../../external/gcc/LPC1768/libstdc++.a(class_type_info.o)
                                                  ../../external/mbed/LPC1768/mbed.ar(Stream.LPC1768.o)
                                                  ../../external/mbed/LPC1768/mbed.ar(TimerEvent.LPC1768.o)
                                                  ../../external/mbed/LPC1768/mbed.ar(Serial.LPC1768.o)
                                                  ../../external/mbed/LPC1768/mbed.ar(stdio.LPC1768.o)
                                                  ../../external/mbed/LPC1768/mbed.ar(Ticker.LPC1768.o)
                                                  ../../external/mbed/LPC1768/mbed.ar(Base.LPC1768.o)
                                                  ../../external/mbed/LPC1768/mbed.ar(DigitalOut.LPC1768.o)
                                                  ../../mri/mri.ar(mri.o)
                                                  ./main.o
operator delete[](void*)                          ../../external/gcc/LPC1768/libstdc++.a(del_opv.o)
                                                  ../../external/gcc/LPC1768/libstdc++.a(vec.o)
                                                  ../../external/mbed/LPC1768/mbed.ar(Base.LPC1768.o)
operator new(unsigned int)                        ../../external/gcc/LPC1768/libstdc++.a(new_op.o)
                                                  ../../external/gcc/LPC1768/libstdc++.a(new_opv.o)
                                                  ../../external/mbed/LPC1768/mbed.ar(Serial.LPC1768.o)
                                                  ../../external/mbed/LPC1768/mbed.ar(Base.LPC1768.o)
                                                  ../../external/mbed/LPC1768/mbed.ar(DigitalOut.LPC1768.o)
operator new[](unsigned int)                      ../../external/gcc/LPC1768/libstdc++.a(new_opv.o)
                                                  ../../external/gcc/LPC1768/libstdc++.a(vec.o)
                                                  ../../external/mbed/LPC1768/mbed.ar(Stream.LPC1768.o)
                                                  ../../external/mbed/LPC1768/mbed.ar(Serial.LPC1768.o)
                                                  ../../external/mbed/LPC1768/mbed.ar(Base.LPC1768.o)
                                                  ../../external/mbed/LPC1768/mbed.ar(DigitalOut.LPC1768.o)
pin_function                                      ../../external/mbed/LPC1768/capi.ar(pinmap.LPC1768.o)
                                                  ../../external/mbed/LPC1768/capi.ar(gpio_api.LPC1768.o)
pin_mode                                          ../../external/mbed/LPC1768/capi.ar(pinmap.LPC1768.o)
                                                  ../../external/mbed/LPC1768/capi.ar(gpio_api.LPC1768.o)
pinmap_merge                                      ../../external/mbed/LPC1768/capi.ar(pinmap.LPC1768.o)
                                                  ../../external/mbed/LPC1768/capi.ar(serial_api.LPC1768.o)
pinmap_peripheral                                 ../../external/mbed/LPC1768/capi.ar(pinmap.LPC1768.o)
                                                  ../../external/mbed/LPC1768/capi.ar(serial_api.LPC1768.o)
pinmap_pinout                                     ../../external/mbed/LPC1768/capi.ar(pinmap.LPC1768.o)
                                                  ../../external/mbed/LPC1768/capi.ar(serial_api.LPC1768.o)
putc                                              ../../external/gcc/LPC1768/libc.a(lib_a-putc.o)
puts                                              ../../external/gcc/LPC1768/libc.a(lib_a-puts.o)
                                                  ../../mri/mri.ar(mri.o)
raise                                             ../../external/gcc/LPC1768/libc.a(lib_a-signal.o)
                                                  ../../external/gcc/LPC1768/libc.a(lib_a-abort.o)
readdir                                           ../../external/mbed/LPC1768/mbed.ar(stdio.LPC1768.o)
realloc                                           ../../external/gcc/LPC1768/libc.a(lib_a-realloc.o)
                                                  ../../external/gcc/LPC1768/libstdc++.a(cp-demangle.o)
remove                                            ../../external/mbed/LPC1768/mbed.ar(stdio.LPC1768.o)
rename                                            ../../external/mbed/LPC1768/mbed.ar(stdio.LPC1768.o)
rewinddir                                         ../../external/mbed/LPC1768/mbed.ar(stdio.LPC1768.o)
scalbn                                            ../../external/gcc/LPC1768/libm.a(lib_a-s_scalbn.o)
                                                  ../../external/mbed/LPC1768/capi.ar(serial_api.LPC1768.o)
seekdir                                           ../../external/mbed/LPC1768/mbed.ar(stdio.LPC1768.o)
semihost_close                                    ../../external/mbed/LPC1768/capi.ar(semihost_api.LPC1768.o)
semihost_ensure                                   ../../external/mbed/LPC1768/capi.ar(semihost_api.LPC1768.o)
semihost_exit                                     ../../external/mbed/LPC1768/capi.ar(semihost_api.LPC1768.o)
                                                  ../../external/mbed/LPC1768/capi.ar(exit.LPC1768.o)
semihost_flen                                     ../../external/mbed/LPC1768/capi.ar(semihost_api.LPC1768.o)
semihost_istty                                    ../../external/mbed/LPC1768/capi.ar(semihost_api.LPC1768.o)
semihost_open                                     ../../external/mbed/LPC1768/capi.ar(semihost_api.LPC1768.o)
semihost_read                                     ../../external/mbed/LPC1768/capi.ar(semihost_api.LPC1768.o)
semihost_remove                                   ../../external/mbed/LPC1768/capi.ar(semihost_api.LPC1768.o)
semihost_rename                                   ../../external/mbed/LPC1768/capi.ar(semihost_api.LPC1768.o)
semihost_reset                                    ../../external/mbed/LPC1768/capi.ar(semihost_api.LPC1768.o)
                                                  ../../external/mbed/LPC1768/capi.ar(utils_api.LPC1768.o)
semihost_seek                                     ../../external/mbed/LPC1768/capi.ar(semihost_api.LPC1768.o)
semihost_uid                                      ../../external/mbed/LPC1768/capi.ar(semihost_api.LPC1768.o)
                                                  ../../external/mbed/LPC1768/capi.ar(utils_api.LPC1768.o)
                                                  ../../mri/mri.ar(mri.o)
semihost_write                                    ../../external/mbed/LPC1768/capi.ar(semihost_api.LPC1768.o)
serial_baud                                       ../../external/mbed/LPC1768/capi.ar(serial_api.LPC1768.o)
                                                  ../../external/mbed/LPC1768/mbed.ar(Serial.LPC1768.o)
                                                  ../../external/mbed/LPC1768/mbed.ar(stdio.LPC1768.o)
serial_clear                                      ../../external/mbed/LPC1768/capi.ar(serial_api.LPC1768.o)
serial_format                                     ../../external/mbed/LPC1768/capi.ar(serial_api.LPC1768.o)
                                                  ../../external/mbed/LPC1768/mbed.ar(Serial.LPC1768.o)
                                                  ../../external/mbed/LPC1768/mbed.ar(stdio.LPC1768.o)
serial_free                                       ../../external/mbed/LPC1768/capi.ar(serial_api.LPC1768.o)
serial_getc                                       ../../external/mbed/LPC1768/capi.ar(serial_api.LPC1768.o)
                                                  ../../external/mbed/LPC1768/mbed.ar(Serial.LPC1768.o)
                                                  ../../external/mbed/LPC1768/mbed.ar(stdio.LPC1768.o)
serial_init                                       ../../external/mbed/LPC1768/capi.ar(serial_api.LPC1768.o)
                                                  ../../external/mbed/LPC1768/mbed.ar(Serial.LPC1768.o)
                                                  ../../external/mbed/LPC1768/mbed.ar(stdio.LPC1768.o)
serial_interrupt                                  ../../external/mbed/LPC1768/capi.ar(serial_api.LPC1768.o)
serial_putc                                       ../../external/mbed/LPC1768/capi.ar(serial_api.LPC1768.o)
                                                  ../../external/mbed/LPC1768/mbed.ar(Serial.LPC1768.o)
                                                  ../../external/mbed/LPC1768/mbed.ar(stdio.LPC1768.o)
serial_readable                                   ../../external/mbed/LPC1768/capi.ar(serial_api.LPC1768.o)
                                                  ../../external/mbed/LPC1768/mbed.ar(Serial.LPC1768.o)
serial_writable                                   ../../external/mbed/LPC1768/capi.ar(serial_api.LPC1768.o)
                                                  ../../external/mbed/LPC1768/mbed.ar(Serial.LPC1768.o)
setbuf                                            ../../external/gcc/LPC1768/libc.a(lib_a-setbuf.o)
                                                  ../../external/mbed/LPC1768/mbed.ar(Stream.LPC1768.o)
setlocale                                         ../../external/gcc/LPC1768/libc.a(lib_a-locale.o)
setvbuf                                           ../../external/gcc/LPC1768/libc.a(lib_a-setvbuf.o)
                                                  ../../external/gcc/LPC1768/libc.a(lib_a-setbuf.o)
signal                                            ../../external/gcc/LPC1768/libc.a(lib_a-signal.o)
sprintf                                           ../../external/gcc/LPC1768/libc.a(lib_a-sprintf.o)
                                                  ../../external/gcc/LPC1768/libc.a(lib_a-vfscanf.o)
                                                  ../../external/gcc/LPC1768/libc.a(lib_a-svfscanf.o)
                                                  ../../external/gcc/LPC1768/libstdc++.a(cp-demangle.o)
                                                  ../../external/mbed/LPC1768/mbed.ar(Stream.LPC1768.o)
                                                  ../../external/mbed/LPC1768/mbed.ar(Serial.LPC1768.o)
                                                  ../../external/mbed/LPC1768/mbed.ar(Base.LPC1768.o)
                                                  ../../external/mbed/LPC1768/mbed.ar(DigitalOut.LPC1768.o)
sscanf                                            ../../external/gcc/LPC1768/libc.a(lib_a-sscanf.o)
                                                  ../../external/mbed/LPC1768/capi.ar(utils_api.LPC1768.o)
                                                  ../../external/mbed/LPC1768/mbed.ar(stdio.LPC1768.o)
std::bad_alloc::what() const                      ../../external/gcc/LPC1768/libstdc++.a(new_handler.o)
std::bad_alloc::~bad_alloc()                      ../../external/gcc/LPC1768/libstdc++.a(new_handler.o)
std::bad_alloc::~bad_alloc()                      ../../external/gcc/LPC1768/libstdc++.a(new_handler.o)
std::bad_alloc::~bad_alloc()                      ../../external/gcc/LPC1768/libstdc++.a(new_handler.o)
std::bad_exception::what() const                  ../../external/gcc/LPC1768/libstdc++.a(eh_exception.o)
std::bad_exception::~bad_exception()              ../../external/gcc/LPC1768/libstdc++.a(eh_exception.o)
std::bad_exception::~bad_exception()              ../../external/gcc/LPC1768/libstdc++.a(eh_exception.o)
std::bad_exception::~bad_exception()              ../../external/gcc/LPC1768/libstdc++.a(eh_exception.o)
std::exception::what() const                      ../../external/gcc/LPC1768/libstdc++.a(eh_exception.o)
std::exception::~exception()                      ../../external/gcc/LPC1768/libstdc++.a(eh_exception.o)
                                                  ../../external/gcc/LPC1768/libstdc++.a(new_handler.o)
std::exception::~exception()                      ../../external/gcc/LPC1768/libstdc++.a(eh_exception.o)
std::exception::~exception()                      ../../external/gcc/LPC1768/libstdc++.a(eh_exception.o)
std::nothrow                                      ../../external/gcc/LPC1768/libstdc++.a(new_handler.o)
std::set_new_handler(void (*)())                  ../../external/gcc/LPC1768/libstdc++.a(new_handler.o)
std::set_terminate(void (*)())                    ../../external/gcc/LPC1768/libstdc++.a(eh_terminate.o)
std::set_unexpected(void (*)())                   ../../external/gcc/LPC1768/libstdc++.a(eh_terminate.o)
std::terminate()                                  ../../external/gcc/LPC1768/libstdc++.a(eh_terminate.o)
                                                  ../../external/gcc/LPC1768/libstdc++.a(eh_unex_handler.o)
                                                  ../../external/gcc/LPC1768/libstdc++.a(pure.o)
std::type_info::__do_catch(std::type_info const*, void**, unsigned int) const ../../external/gcc/LPC1768/libstdc++.a(tinfo.o)
std::type_info::__do_upcast(__cxxabiv1::__class_type_info const*, void**) const ../../external/gcc/LPC1768/libstdc++.a(tinfo.o)
std::type_info::__is_function_p() const           ../../external/gcc/LPC1768/libstdc++.a(tinfo.o)
                                                  ../../external/gcc/LPC1768/libstdc++.a(vmi_class_type_info.o)
                                                  ../../external/gcc/LPC1768/libstdc++.a(si_class_type_info.o)
                                                  ../../external/gcc/LPC1768/libstdc++.a(class_type_info.o)
std::type_info::__is_pointer_p() const            ../../external/gcc/LPC1768/libstdc++.a(tinfo.o)
                                                  ../../external/gcc/LPC1768/libstdc++.a(vmi_class_type_info.o)
                                                  ../../external/gcc/LPC1768/libstdc++.a(si_class_type_info.o)
                                                  ../../external/gcc/LPC1768/libstdc++.a(class_type_info.o)
std::type_info::name() const                      ../../external/gcc/LPC1768/libstdc++.a(tinfo.o)
                                                  ../../external/gcc/LPC1768/libstdc++.a(vterminate.o)
std::type_info::operator==(std::type_info const&) const ../../external/gcc/LPC1768/libstdc++.a(tinfo.o)
                                                  ../../external/gcc/LPC1768/libstdc++.a(vmi_class_type_info.o)
                                                  ../../external/gcc/LPC1768/libstdc++.a(si_class_type_info.o)
                                                  ../../external/gcc/LPC1768/libstdc++.a(class_type_info.o)
std::type_info::~type_info()                      ../../external/gcc/LPC1768/libstdc++.a(tinfo.o)
std::type_info::~type_info()                      ../../external/gcc/LPC1768/libstdc++.a(tinfo.o)
std::type_info::~type_info()                      ../../external/gcc/LPC1768/libstdc++.a(tinfo.o)
                                                  ../../external/gcc/LPC1768/libstdc++.a(class_type_info.o)
std::unexpected()                                 ../../external/gcc/LPC1768/libstdc++.a(eh_terminate.o)
strcmp                                            ../../external/gcc/LPC1768/libc.a(lib_a-strcmp.o)
                                                  ../../external/gcc/LPC1768/libc.a(lib_a-locale.o)
                                                  ../../external/gcc/LPC1768/libstdc++.a(cp-demangle.o)
                                                  ../../external/gcc/LPC1768/libstdc++.a(tinfo.o)
                                                  ../../external/mbed/LPC1768/mbed.ar(stdio.LPC1768.o)
                                                  ../../external/mbed/LPC1768/mbed.ar(Base.LPC1768.o)
strcpy                                            ../../external/gcc/LPC1768/libc.a(lib_a-strcpy.o)
                                                  ../../external/gcc/LPC1768/libstdc++.a(cp-demangle.o)
                                                  ../../external/mbed/LPC1768/mbed.ar(Serial.LPC1768.o)
                                                  ../../external/mbed/LPC1768/mbed.ar(DigitalOut.LPC1768.o)
strlen                                            ../../external/gcc/LPC1768/libc.a(lib_a-strlen.o)
                                                  ../../external/gcc/LPC1768/libc.a(lib_a-gdtoa-gethex.o)
                                                  ../../external/gcc/LPC1768/libc.a(lib_a-vfiprintf.o)
                                                  ../../external/gcc/LPC1768/libc.a(lib_a-svfiprintf.o)
                                                  ../../external/gcc/LPC1768/libc.a(lib_a-strtod.o)
                                                  ../../external/gcc/LPC1768/libc.a(lib_a-vfprintf.o)
                                                  ../../external/gcc/LPC1768/libc.a(lib_a-svfprintf.o)
                                                  ../../external/gcc/LPC1768/libc.a(lib_a-sscanf.o)
                                                  ../../external/gcc/LPC1768/libc.a(lib_a-puts.o)
                                                  ../../external/gcc/LPC1768/libc.a(lib_a-fputs.o)
                                                  ../../external/gcc/LPC1768/libstdc++.a(cp-demangle.o)
                                                  ../../external/mbed/LPC1768/capi.ar(semihost_api.LPC1768.o)
                                                  ../../external/mbed/LPC1768/mbed.ar(Base.LPC1768.o)
                                                  ../../mri/mri.ar(mri.o)
strncmp                                           ../../external/gcc/LPC1768/libc.a(lib_a-strncmp.o)
                                                  ../../external/gcc/LPC1768/libc.a(lib_a-gdtoa-gethex.o)
                                                  ../../external/gcc/LPC1768/libc.a(lib_a-strtod.o)
                                                  ../../external/gcc/LPC1768/libstdc++.a(cp-demangle.o)
                                                  ../../external/mbed/LPC1768/mbed.ar(Base.LPC1768.o)
                                                  ../../mri/mri.ar(mri.o)
strncpy                                           ../../external/gcc/LPC1768/libc.a(lib_a-strncpy.o)
                                                  ../../external/mbed/LPC1768/mbed.ar(Base.LPC1768.o)
strtod                                            ../../external/gcc/LPC1768/libc.a(lib_a-strtod.o)
strtof                                            ../../external/gcc/LPC1768/libc.a(lib_a-strtod.o)
strtol                                            ../../external/gcc/LPC1768/libc.a(lib_a-strtol.o)
                                                  ../../external/mbed/LPC1768/mbed.ar(Stream.LPC1768.o)
                                                  ../../external/mbed/LPC1768/mbed.ar(Serial.LPC1768.o)
                                                  ../../external/mbed/LPC1768/mbed.ar(DigitalOut.LPC1768.o)
strtoul                                           ../../external/gcc/LPC1768/libc.a(lib_a-strtoul.o)
telldir                                           ../../external/mbed/LPC1768/mbed.ar(stdio.LPC1768.o)
timer_free                                        ../../external/mbed/LPC1768/capi.ar(timer_api.LPC1768.o)
timer_frequency                                   ../../external/mbed/LPC1768/capi.ar(timer_api.LPC1768.o)
                                                  ../../external/mbed/LPC1768/capi.ar(us_ticker_api.LPC1768.o)
timer_init                                        ../../external/mbed/LPC1768/capi.ar(timer_api.LPC1768.o)
                                                  ../../external/mbed/LPC1768/capi.ar(us_ticker_api.LPC1768.o)
timer_read                                        ../../external/mbed/LPC1768/capi.ar(timer_api.LPC1768.o)
                                                  ../../external/mbed/LPC1768/capi.ar(us_ticker_api.LPC1768.o)
timer_start                                       ../../external/mbed/LPC1768/capi.ar(timer_api.LPC1768.o)
                                                  ../../external/mbed/LPC1768/capi.ar(us_ticker_api.LPC1768.o)
timer_stop                                        ../../external/mbed/LPC1768/capi.ar(timer_api.LPC1768.o)
timer_write                                       ../../external/mbed/LPC1768/capi.ar(timer_api.LPC1768.o)
tmpfile                                           ../../external/mbed/LPC1768/mbed.ar(stdio.LPC1768.o)
tmpnam                                            ../../external/mbed/LPC1768/mbed.ar(stdio.LPC1768.o)
typeinfo for __cxxabiv1::__class_type_info        ../../external/gcc/LPC1768/libstdc++.a(class_type_info.o)
                                                  ../../external/gcc/LPC1768/libstdc++.a(vmi_class_type_info.o)
                                                  ../../external/gcc/LPC1768/libstdc++.a(si_class_type_info.o)
typeinfo for __cxxabiv1::__forced_unwind          ../../external/gcc/LPC1768/libstdc++.a(eh_exception.o)
typeinfo for __cxxabiv1::__foreign_exception      ../../external/gcc/LPC1768/libstdc++.a(eh_exception.o)
typeinfo for __cxxabiv1::__si_class_type_info     ../../external/gcc/LPC1768/libstdc++.a(si_class_type_info.o)
typeinfo for __cxxabiv1::__vmi_class_type_info    ../../external/gcc/LPC1768/libstdc++.a(vmi_class_type_info.o)
typeinfo for mbed::Base                           ../../external/mbed/LPC1768/mbed.ar(Base.LPC1768.o)
                                                  ../../external/mbed/LPC1768/mbed.ar(Stream.LPC1768.o)
                                                  ../../external/mbed/LPC1768/mbed.ar(Serial.LPC1768.o)
                                                  ../../external/mbed/LPC1768/mbed.ar(stdio.LPC1768.o)
                                                  ../../external/mbed/LPC1768/mbed.ar(DigitalOut.LPC1768.o)
typeinfo for mbed::BaseDirHandle                  ../../external/mbed/LPC1768/mbed.ar(Base.LPC1768.o)
typeinfo for mbed::DigitalOut                     ../../external/mbed/LPC1768/mbed.ar(DigitalOut.LPC1768.o)
typeinfo for mbed::DirHandle                      ../../external/mbed/LPC1768/mbed.ar(Base.LPC1768.o)
                                                  ../../external/mbed/LPC1768/mbed.ar(stdio.LPC1768.o)
typeinfo for mbed::FileHandle                     ../../external/mbed/LPC1768/mbed.ar(stdio.LPC1768.o)
                                                  ../../external/mbed/LPC1768/mbed.ar(Stream.LPC1768.o)
                                                  ../../external/mbed/LPC1768/mbed.ar(Serial.LPC1768.o)
typeinfo for mbed::FileLike                       ../../external/mbed/LPC1768/mbed.ar(stdio.LPC1768.o)
                                                  ../../external/mbed/LPC1768/mbed.ar(Stream.LPC1768.o)
                                                  ../../external/mbed/LPC1768/mbed.ar(Serial.LPC1768.o)
                                                  ../../external/mbed/LPC1768/mbed.ar(Base.LPC1768.o)
typeinfo for mbed::FileSystemLike                 ../../external/mbed/LPC1768/mbed.ar(Base.LPC1768.o)
                                                  ../../external/mbed/LPC1768/mbed.ar(stdio.LPC1768.o)
typeinfo for mbed::Serial                         ../../external/mbed/LPC1768/mbed.ar(Serial.LPC1768.o)
typeinfo for mbed::Stream                         ../../external/mbed/LPC1768/mbed.ar(Stream.LPC1768.o)
                                                  ../../external/mbed/LPC1768/mbed.ar(Serial.LPC1768.o)
typeinfo for mbed::Ticker                         ../../external/mbed/LPC1768/mbed.ar(Ticker.LPC1768.o)
typeinfo for mbed::TimerEvent                     ../../external/mbed/LPC1768/mbed.ar(TimerEvent.LPC1768.o)
                                                  ../../external/mbed/LPC1768/mbed.ar(Ticker.LPC1768.o)
typeinfo for std::bad_alloc                       ../../external/gcc/LPC1768/libstdc++.a(new_handler.o)
typeinfo for std::bad_exception                   ../../external/gcc/LPC1768/libstdc++.a(eh_exception.o)
typeinfo for std::exception                       ../../external/gcc/LPC1768/libstdc++.a(eh_exception.o)
                                                  ../../external/gcc/LPC1768/libstdc++.a(new_handler.o)
typeinfo for std::type_info                       ../../external/gcc/LPC1768/libstdc++.a(tinfo.o)
                                                  ../../external/gcc/LPC1768/libstdc++.a(class_type_info.o)
typeinfo name for __cxxabiv1::__class_type_info   ../../external/gcc/LPC1768/libstdc++.a(class_type_info.o)
typeinfo name for __cxxabiv1::__forced_unwind     ../../external/gcc/LPC1768/libstdc++.a(eh_exception.o)
typeinfo name for __cxxabiv1::__foreign_exception ../../external/gcc/LPC1768/libstdc++.a(eh_exception.o)
typeinfo name for __cxxabiv1::__si_class_type_info ../../external/gcc/LPC1768/libstdc++.a(si_class_type_info.o)
typeinfo name for __cxxabiv1::__vmi_class_type_info ../../external/gcc/LPC1768/libstdc++.a(vmi_class_type_info.o)
typeinfo name for mbed::Base                      ../../external/mbed/LPC1768/mbed.ar(Base.LPC1768.o)
typeinfo name for mbed::BaseDirHandle             ../../external/mbed/LPC1768/mbed.ar(Base.LPC1768.o)
typeinfo name for mbed::DigitalOut                ../../external/mbed/LPC1768/mbed.ar(DigitalOut.LPC1768.o)
typeinfo name for mbed::DirHandle                 ../../external/mbed/LPC1768/mbed.ar(Base.LPC1768.o)
typeinfo name for mbed::FileHandle                ../../external/mbed/LPC1768/mbed.ar(stdio.LPC1768.o)
typeinfo name for mbed::FileLike                  ../../external/mbed/LPC1768/mbed.ar(stdio.LPC1768.o)
typeinfo name for mbed::FileSystemLike            ../../external/mbed/LPC1768/mbed.ar(Base.LPC1768.o)
                                                  ../../external/mbed/LPC1768/mbed.ar(stdio.LPC1768.o)
typeinfo name for mbed::Serial                    ../../external/mbed/LPC1768/mbed.ar(Serial.LPC1768.o)
typeinfo name for mbed::Stream                    ../../external/mbed/LPC1768/mbed.ar(Stream.LPC1768.o)
typeinfo name for mbed::Ticker                    ../../external/mbed/LPC1768/mbed.ar(Ticker.LPC1768.o)
typeinfo name for mbed::TimerEvent                ../../external/mbed/LPC1768/mbed.ar(TimerEvent.LPC1768.o)
typeinfo name for std::bad_alloc                  ../../external/gcc/LPC1768/libstdc++.a(new_handler.o)
typeinfo name for std::bad_exception              ../../external/gcc/LPC1768/libstdc++.a(eh_exception.o)
typeinfo name for std::exception                  ../../external/gcc/LPC1768/libstdc++.a(eh_exception.o)
typeinfo name for std::type_info                  ../../external/gcc/LPC1768/libstdc++.a(tinfo.o)
ungetc                                            ../../external/gcc/LPC1768/libc.a(lib_a-ungetc.o)
us_ticker_read                                    ../../external/mbed/LPC1768/capi.ar(us_ticker_api.LPC1768.o)
                                                  ../../external/mbed/LPC1768/capi.ar(wait_api.LPC1768.o)
                                                  ../../external/mbed/LPC1768/mbed.ar(TimerEvent.LPC1768.o)
vfiprintf                                         ../../external/gcc/LPC1768/libc.a(lib_a-vfiprintf.o)
vfprintf                                          ../../external/gcc/LPC1768/libc.a(lib_a-vfprintf.o)
                                                  ../../external/mbed/LPC1768/mbed.ar(Stream.LPC1768.o)
vfscanf                                           ../../external/gcc/LPC1768/libc.a(lib_a-vfscanf.o)
                                                  ../../external/mbed/LPC1768/mbed.ar(Stream.LPC1768.o)
void mbed::rpc_function_caller<char const*, PinName, PinName, char const*, &(char const* mbed::Base::construct<mbed::Serial, PinName, PinName, char const*>(PinName, PinName, char const*))>(char const*, char*) ../../external/mbed/LPC1768/mbed.ar(Serial.LPC1768.o)
void mbed::rpc_function_caller<char const*, PinName, char const*, &(char const* mbed::Base::construct<mbed::DigitalOut, PinName, char const*>(PinName, char const*))>(char const*, char*) ../../external/mbed/LPC1768/mbed.ar(DigitalOut.LPC1768.o)
void mbed::rpc_method_caller<int, mbed::DigitalOut, &(mbed::DigitalOut::read())>(mbed::Base*, char const*, char*) ../../external/mbed/LPC1768/mbed.ar(DigitalOut.LPC1768.o)
void mbed::rpc_method_caller<int, mbed::Serial, &(mbed::Serial::readable())>(mbed::Base*, char const*, char*) ../../external/mbed/LPC1768/mbed.ar(Serial.LPC1768.o)
void mbed::rpc_method_caller<int, mbed::Serial, &(mbed::Serial::writeable())>(mbed::Base*, char const*, char*) ../../external/mbed/LPC1768/mbed.ar(Serial.LPC1768.o)
void mbed::rpc_method_caller<int, mbed::Stream, &(mbed::Stream::getc())>(mbed::Base*, char const*, char*) ../../external/mbed/LPC1768/mbed.ar(Stream.LPC1768.o)
void mbed::rpc_method_caller<int, mbed::Stream, char const*, &(mbed::Stream::puts(char const*))>(mbed::Base*, char const*, char*) ../../external/mbed/LPC1768/mbed.ar(Stream.LPC1768.o)
void mbed::rpc_method_caller<int, mbed::Stream, int, &(mbed::Stream::putc(int))>(mbed::Base*, char const*, char*) ../../external/mbed/LPC1768/mbed.ar(Stream.LPC1768.o)
void mbed::rpc_method_caller<mbed::Base, &(mbed::Base::delete_self())>(mbed::Base*, char const*, char*) ../../external/mbed/LPC1768/mbed.ar(Base.LPC1768.o)
void mbed::rpc_method_caller<mbed::DigitalOut, int, &(mbed::DigitalOut::write(int))>(mbed::Base*, char const*, char*) ../../external/mbed/LPC1768/mbed.ar(DigitalOut.LPC1768.o)
void mbed::rpc_method_caller<mbed::Serial, int, &(mbed::Serial::baud(int))>(mbed::Base*, char const*, char*) ../../external/mbed/LPC1768/mbed.ar(Serial.LPC1768.o)
vtable for __cxxabiv1::__class_type_info          ../../external/gcc/LPC1768/libstdc++.a(class_type_info.o)
                                                  ../../external/gcc/LPC1768/libstdc++.a(eh_exception.o)
                                                  ../../external/gcc/LPC1768/libstdc++.a(tinfo.o)
                                                  ../../external/mbed/LPC1768/mbed.ar(TimerEvent.LPC1768.o)
                                                  ../../external/mbed/LPC1768/mbed.ar(stdio.LPC1768.o)
                                                  ../../external/mbed/LPC1768/mbed.ar(Base.LPC1768.o)
vtable for __cxxabiv1::__forced_unwind            ../../external/gcc/LPC1768/libstdc++.a(eh_exception.o)
vtable for __cxxabiv1::__foreign_exception        ../../external/gcc/LPC1768/libstdc++.a(eh_exception.o)
vtable for __cxxabiv1::__si_class_type_info       ../../external/gcc/LPC1768/libstdc++.a(si_class_type_info.o)
                                                  ../../external/gcc/LPC1768/libstdc++.a(eh_exception.o)
                                                  ../../external/gcc/LPC1768/libstdc++.a(new_handler.o)
                                                  ../../external/gcc/LPC1768/libstdc++.a(vmi_class_type_info.o)
                                                  ../../external/gcc/LPC1768/libstdc++.a(class_type_info.o)
                                                  ../../external/mbed/LPC1768/mbed.ar(Stream.LPC1768.o)
                                                  ../../external/mbed/LPC1768/mbed.ar(Serial.LPC1768.o)
                                                  ../../external/mbed/LPC1768/mbed.ar(stdio.LPC1768.o)
                                                  ../../external/mbed/LPC1768/mbed.ar(Ticker.LPC1768.o)
                                                  ../../external/mbed/LPC1768/mbed.ar(Base.LPC1768.o)
                                                  ../../external/mbed/LPC1768/mbed.ar(DigitalOut.LPC1768.o)
vtable for __cxxabiv1::__vmi_class_type_info      ../../external/gcc/LPC1768/libstdc++.a(vmi_class_type_info.o)
                                                  ../../external/mbed/LPC1768/mbed.ar(stdio.LPC1768.o)
vtable for mbed::Base                             ../../external/mbed/LPC1768/mbed.ar(Base.LPC1768.o)
vtable for mbed::BaseDirHandle                    ../../external/mbed/LPC1768/mbed.ar(Base.LPC1768.o)
vtable for mbed::DigitalOut                       ../../external/mbed/LPC1768/mbed.ar(DigitalOut.LPC1768.o)
                                                  ./main.o
vtable for mbed::FileLike                         ../../external/mbed/LPC1768/mbed.ar(stdio.LPC1768.o)
vtable for mbed::Serial                           ../../external/mbed/LPC1768/mbed.ar(Serial.LPC1768.o)
                                                  ../../mri/mri.ar(mri.o)
vtable for mbed::Stream                           ../../external/mbed/LPC1768/mbed.ar(Stream.LPC1768.o)
vtable for mbed::Ticker                           ../../external/mbed/LPC1768/mbed.ar(Ticker.LPC1768.o)
                                                  ./main.o
vtable for mbed::TimerEvent                       ../../external/mbed/LPC1768/mbed.ar(TimerEvent.LPC1768.o)
vtable for std::bad_alloc                         ../../external/gcc/LPC1768/libstdc++.a(new_handler.o)
vtable for std::bad_exception                     ../../external/gcc/LPC1768/libstdc++.a(eh_exception.o)
vtable for std::exception                         ../../external/gcc/LPC1768/libstdc++.a(eh_exception.o)
vtable for std::type_info                         ../../external/gcc/LPC1768/libstdc++.a(tinfo.o)
wait                                              ../../external/mbed/LPC1768/capi.ar(wait_api.LPC1768.o)
                                                  ./main.o
wait_ms                                           ../../external/mbed/LPC1768/capi.ar(wait_api.LPC1768.o)
                                                  ../../external/mbed/LPC1768/capi.ar(utils_api.LPC1768.o)
wait_us                                           ../../external/mbed/LPC1768/capi.ar(wait_api.LPC1768.o)
wcrtomb                                           ../../external/gcc/LPC1768/libc.a(lib_a-wcrtomb.o)
write                                             ../../external/gcc/LPC1768/libc.a(lib_a-syswrite.o)
                                                  ../../external/gcc/LPC1768/libstdc++.a(pure.o)
