
SDFileSystem.elf:     file format elf32-littlearm


Disassembly of section .text:

00000000 <__Vectors>:
       0:	00 80 00 10 2d 13 00 00 35 13 00 00 a5 04 00 00     ....-...5.......
      10:	c9 04 00 00 ed 04 00 00 11 05 00 00 00 00 00 00     ................
	...
      2c:	35 05 00 00 59 05 00 00 00 00 00 00 7d 05 00 00     5...Y.......}...
      3c:	a1 05 00 00 47 13 00 00 47 13 00 00 47 13 00 00     ....G...G...G...
      4c:	47 13 00 00 47 13 00 00 47 13 00 00 47 13 00 00     G...G...G...G...
      5c:	47 13 00 00 47 13 00 00 47 13 00 00 47 13 00 00     G...G...G...G...
      6c:	47 13 00 00 47 13 00 00 47 13 00 00 47 13 00 00     G...G...G...G...
      7c:	47 13 00 00 47 13 00 00 47 13 00 00 47 13 00 00     G...G...G...G...
      8c:	47 13 00 00 47 13 00 00 47 13 00 00 47 13 00 00     G...G...G...G...
      9c:	47 13 00 00 47 13 00 00 47 13 00 00 47 13 00 00     G...G...G...G...
      ac:	47 13 00 00 47 13 00 00 47 13 00 00 47 13 00 00     G...G...G...G...
      bc:	47 13 00 00 47 13 00 00                             G...G...

000000c4 <__do_global_dtors_aux>:
      c4:	f240 6390 	movw	r3, #1680	; 0x690
      c8:	f2c1 0300 	movt	r3, #4096	; 0x1000
      cc:	781a      	ldrb	r2, [r3, #0]
      ce:	b90a      	cbnz	r2, d4 <__do_global_dtors_aux+0x10>
      d0:	2001      	movs	r0, #1
      d2:	7018      	strb	r0, [r3, #0]
      d4:	4770      	bx	lr
      d6:	bf00      	nop

000000d8 <frame_dummy>:
      d8:	f240 6090 	movw	r0, #1680	; 0x690
      dc:	f2c1 0000 	movt	r0, #4096	; 0x1000
      e0:	b508      	push	{r3, lr}
      e2:	6803      	ldr	r3, [r0, #0]
      e4:	b12b      	cbz	r3, f2 <frame_dummy+0x1a>
      e6:	f240 0300 	movw	r3, #0
      ea:	f2c0 0300 	movt	r3, #0
      ee:	b103      	cbz	r3, f2 <frame_dummy+0x1a>
      f0:	4798      	blx	r3
      f2:	bd08      	pop	{r3, pc}

000000f4 <__main>:
      f4:	4839      	ldr	r0, [pc, #228]	; (1dc <__main+0xe8>)
      f6:	493a      	ldr	r1, [pc, #232]	; (1e0 <__main+0xec>)
      f8:	b570      	push	{r4, r5, r6, lr}
      fa:	4288      	cmp	r0, r1
      fc:	d023      	beq.n	146 <__main+0x52>
      fe:	4c39      	ldr	r4, [pc, #228]	; (1e4 <__main+0xf0>)
     100:	42a1      	cmp	r1, r4
     102:	d220      	bcs.n	146 <__main+0x52>
     104:	4602      	mov	r2, r0
     106:	f852 6b04 	ldr.w	r6, [r2], #4
     10a:	460b      	mov	r3, r1
     10c:	43cd      	mvns	r5, r1
     10e:	f843 6b04 	str.w	r6, [r3], #4
     112:	1965      	adds	r5, r4, r5
     114:	42a3      	cmp	r3, r4
     116:	f3c5 0580 	ubfx	r5, r5, #2, #1
     11a:	d214      	bcs.n	146 <__main+0x52>
     11c:	b13d      	cbz	r5, 12e <__main+0x3a>
     11e:	6816      	ldr	r6, [r2, #0]
     120:	f100 0208 	add.w	r2, r0, #8
     124:	601e      	str	r6, [r3, #0]
     126:	f101 0308 	add.w	r3, r1, #8
     12a:	42a3      	cmp	r3, r4
     12c:	d20b      	bcs.n	146 <__main+0x52>
     12e:	4610      	mov	r0, r2
     130:	f850 5b04 	ldr.w	r5, [r0], #4
     134:	4619      	mov	r1, r3
     136:	f841 5b04 	str.w	r5, [r1], #4
     13a:	6856      	ldr	r6, [r2, #4]
     13c:	1d02      	adds	r2, r0, #4
     13e:	605e      	str	r6, [r3, #4]
     140:	1d0b      	adds	r3, r1, #4
     142:	42a3      	cmp	r3, r4
     144:	d3f3      	bcc.n	12e <__main+0x3a>
     146:	4828      	ldr	r0, [pc, #160]	; (1e8 <__main+0xf4>)
     148:	4928      	ldr	r1, [pc, #160]	; (1ec <__main+0xf8>)
     14a:	4288      	cmp	r0, r1
     14c:	d024      	beq.n	198 <__main+0xa4>
     14e:	4c28      	ldr	r4, [pc, #160]	; (1f0 <__main+0xfc>)
     150:	42a1      	cmp	r1, r4
     152:	d221      	bcs.n	198 <__main+0xa4>
     154:	4602      	mov	r2, r0
     156:	f852 6b04 	ldr.w	r6, [r2], #4
     15a:	460b      	mov	r3, r1
     15c:	43cd      	mvns	r5, r1
     15e:	f843 6b04 	str.w	r6, [r3], #4
     162:	eb04 0c05 	add.w	ip, r4, r5
     166:	42a3      	cmp	r3, r4
     168:	f3cc 0580 	ubfx	r5, ip, #2, #1
     16c:	d214      	bcs.n	198 <__main+0xa4>
     16e:	b13d      	cbz	r5, 180 <__main+0x8c>
     170:	6815      	ldr	r5, [r2, #0]
     172:	f100 0208 	add.w	r2, r0, #8
     176:	601d      	str	r5, [r3, #0]
     178:	f101 0308 	add.w	r3, r1, #8
     17c:	42a3      	cmp	r3, r4
     17e:	d20b      	bcs.n	198 <__main+0xa4>
     180:	4610      	mov	r0, r2
     182:	f850 5b04 	ldr.w	r5, [r0], #4
     186:	4619      	mov	r1, r3
     188:	f841 5b04 	str.w	r5, [r1], #4
     18c:	6856      	ldr	r6, [r2, #4]
     18e:	1d02      	adds	r2, r0, #4
     190:	605e      	str	r6, [r3, #4]
     192:	1d0b      	adds	r3, r1, #4
     194:	42a3      	cmp	r3, r4
     196:	d3f3      	bcc.n	180 <__main+0x8c>
     198:	4a16      	ldr	r2, [pc, #88]	; (1f4 <__main+0x100>)
     19a:	4817      	ldr	r0, [pc, #92]	; (1f8 <__main+0x104>)
     19c:	4282      	cmp	r2, r0
     19e:	d216      	bcs.n	1ce <__main+0xda>
     1a0:	2100      	movs	r1, #0
     1a2:	4613      	mov	r3, r2
     1a4:	43d6      	mvns	r6, r2
     1a6:	f843 1b04 	str.w	r1, [r3], #4
     1aa:	1984      	adds	r4, r0, r6
     1ac:	4283      	cmp	r3, r0
     1ae:	f3c4 0480 	ubfx	r4, r4, #2, #1
     1b2:	d20c      	bcs.n	1ce <__main+0xda>
     1b4:	b124      	cbz	r4, 1c0 <__main+0xcc>
     1b6:	6019      	str	r1, [r3, #0]
     1b8:	f102 0308 	add.w	r3, r2, #8
     1bc:	4283      	cmp	r3, r0
     1be:	d206      	bcs.n	1ce <__main+0xda>
     1c0:	461a      	mov	r2, r3
     1c2:	f842 1b04 	str.w	r1, [r2], #4
     1c6:	6059      	str	r1, [r3, #4]
     1c8:	1d13      	adds	r3, r2, #4
     1ca:	4283      	cmp	r3, r0
     1cc:	d3f8      	bcc.n	1c0 <__main+0xcc>
     1ce:	f005 ffab 	bl	6128 <__libc_init_array>
     1d2:	f000 f9f7 	bl	5c4 <main>
     1d6:	f012 f937 	bl	12448 <exit>
     1da:	bf00      	nop
     1dc:	00014f88 	.word	0x00014f88
     1e0:	10000000 	.word	0x10000000
     1e4:	10000690 	.word	0x10000690
     1e8:	0001112c 	.word	0x0001112c
     1ec:	10000000 	.word	0x10000000
     1f0:	10000000 	.word	0x10000000
     1f4:	10000690 	.word	0x10000690
     1f8:	10000be4 	.word	0x10000be4

000001fc <_ZL20_OpenStandardHandlesv>:
     1fc:	b508      	push	{r3, lr}
     1fe:	2100      	movs	r1, #0
     200:	4807      	ldr	r0, [pc, #28]	; (220 <_ZL20_OpenStandardHandlesv+0x24>)
     202:	f011 fa1b 	bl	1163c <_sys_open>
     206:	2104      	movs	r1, #4
     208:	4806      	ldr	r0, [pc, #24]	; (224 <_ZL20_OpenStandardHandlesv+0x28>)
     20a:	f011 fa17 	bl	1163c <_sys_open>
     20e:	4806      	ldr	r0, [pc, #24]	; (228 <_ZL20_OpenStandardHandlesv+0x2c>)
     210:	2104      	movs	r1, #4
     212:	f011 fa13 	bl	1163c <_sys_open>
     216:	4b05      	ldr	r3, [pc, #20]	; (22c <_ZL20_OpenStandardHandlesv+0x30>)
     218:	2201      	movs	r2, #1
     21a:	601a      	str	r2, [r3, #0]
     21c:	bd08      	pop	{r3, pc}
     21e:	bf00      	nop
     220:	0000f810 	.word	0x0000f810
     224:	0000f818 	.word	0x0000f818
     228:	0000f820 	.word	0x0000f820
     22c:	1000069c 	.word	0x1000069c

00000230 <_kill>:
     230:	4b02      	ldr	r3, [pc, #8]	; (23c <_kill+0xc>)
     232:	2216      	movs	r2, #22
     234:	601a      	str	r2, [r3, #0]
     236:	f04f 30ff 	mov.w	r0, #4294967295
     23a:	4770      	bx	lr
     23c:	10000ae0 	.word	0x10000ae0

00000240 <_exit>:
     240:	b508      	push	{r3, lr}
     242:	f012 f901 	bl	12448 <exit>
     246:	bf00      	nop

00000248 <_getpid>:
     248:	2001      	movs	r0, #1
     24a:	4770      	bx	lr

0000024c <_sbrk>:
     24c:	b570      	push	{r4, r5, r6, lr}
     24e:	4d09      	ldr	r5, [pc, #36]	; (274 <_sbrk+0x28>)
     250:	4606      	mov	r6, r0
     252:	682c      	ldr	r4, [r5, #0]
     254:	b14c      	cbz	r4, 26a <_sbrk+0x1e>
     256:	f011 ff41 	bl	120dc <__get_MSP>
     25a:	19a3      	adds	r3, r4, r6
     25c:	4283      	cmp	r3, r0
     25e:	d807      	bhi.n	270 <_sbrk+0x24>
     260:	6829      	ldr	r1, [r5, #0]
     262:	4620      	mov	r0, r4
     264:	198e      	adds	r6, r1, r6
     266:	602e      	str	r6, [r5, #0]
     268:	bd70      	pop	{r4, r5, r6, pc}
     26a:	4c03      	ldr	r4, [pc, #12]	; (278 <_sbrk+0x2c>)
     26c:	602c      	str	r4, [r5, #0]
     26e:	e7f2      	b.n	256 <_sbrk+0xa>
     270:	f005 f830 	bl	52d4 <abort>
     274:	10000698 	.word	0x10000698
     278:	10000be8 	.word	0x10000be8

0000027c <_open>:
     27c:	f001 0302 	and.w	r3, r1, #2
     280:	f411 6f80 	tst.w	r1, #1024	; 0x400
     284:	bf18      	it	ne
     286:	f043 0304 	orrne.w	r3, r3, #4
     28a:	f011 0f08 	tst.w	r1, #8
     28e:	bf18      	it	ne
     290:	f043 0308 	orrne.w	r3, r3, #8
     294:	4619      	mov	r1, r3
     296:	f011 b9d1 	b.w	1163c <_sys_open>
     29a:	bf00      	nop

0000029c <_close>:
     29c:	f011 b9a4 	b.w	115e8 <_sys_close>

000002a0 <_isatty>:
     2a0:	2802      	cmp	r0, #2
     2a2:	dc01      	bgt.n	2a8 <_isatty+0x8>
     2a4:	2001      	movs	r0, #1
     2a6:	4770      	bx	lr
     2a8:	f011 b9b4 	b.w	11614 <_sys_istty>

000002ac <_lseek>:
     2ac:	2802      	cmp	r0, #2
     2ae:	e92d 47f0 	stmdb	sp!, {r4, r5, r6, r7, r8, r9, sl, lr}
     2b2:	dd6e      	ble.n	392 <_lseek+0xe6>
     2b4:	4f40      	ldr	r7, [pc, #256]	; (3b8 <_lseek+0x10c>)
     2b6:	683b      	ldr	r3, [r7, #0]
     2b8:	2b00      	cmp	r3, #0
     2ba:	d161      	bne.n	380 <_lseek+0xd4>
     2bc:	4d3f      	ldr	r5, [pc, #252]	; (3bc <_lseek+0x110>)
     2be:	4c40      	ldr	r4, [pc, #256]	; (3c0 <_lseek+0x114>)
     2c0:	f025 0c01 	bic.w	ip, r5, #1
     2c4:	4665      	mov	r5, ip
     2c6:	f10c 0628 	add.w	r6, ip, #40	; 0x28
     2ca:	f815 ab01 	ldrb.w	sl, [r5], #1
     2ce:	f3c3 084f 	ubfx	r8, r3, #1, #16
     2d2:	ea83 030a 	eor.w	r3, r3, sl
     2d6:	f013 0f01 	tst.w	r3, #1
     2da:	bf1c      	itt	ne
     2dc:	ea88 0804 	eorne.w	r8, r8, r4
     2e0:	fa1f f888 	uxthne.w	r8, r8
     2e4:	ea4f 095a 	mov.w	r9, sl, lsr #1
     2e8:	ea88 0a09 	eor.w	sl, r8, r9
     2ec:	ea4f 0358 	mov.w	r3, r8, lsr #1
     2f0:	f01a 0f01 	tst.w	sl, #1
     2f4:	bf1c      	itt	ne
     2f6:	4063      	eorne	r3, r4
     2f8:	b29b      	uxthne	r3, r3
     2fa:	ea4f 0859 	mov.w	r8, r9, lsr #1
     2fe:	ea83 0908 	eor.w	r9, r3, r8
     302:	085b      	lsrs	r3, r3, #1
     304:	f019 0f01 	tst.w	r9, #1
     308:	bf1c      	itt	ne
     30a:	4063      	eorne	r3, r4
     30c:	b29b      	uxthne	r3, r3
     30e:	ea4f 0858 	mov.w	r8, r8, lsr #1
     312:	ea83 0908 	eor.w	r9, r3, r8
     316:	085b      	lsrs	r3, r3, #1
     318:	f019 0f01 	tst.w	r9, #1
     31c:	bf1c      	itt	ne
     31e:	4063      	eorne	r3, r4
     320:	b29b      	uxthne	r3, r3
     322:	ea4f 0858 	mov.w	r8, r8, lsr #1
     326:	ea83 0908 	eor.w	r9, r3, r8
     32a:	085b      	lsrs	r3, r3, #1
     32c:	f019 0f01 	tst.w	r9, #1
     330:	bf1c      	itt	ne
     332:	4063      	eorne	r3, r4
     334:	b29b      	uxthne	r3, r3
     336:	ea4f 0858 	mov.w	r8, r8, lsr #1
     33a:	ea83 0908 	eor.w	r9, r3, r8
     33e:	085b      	lsrs	r3, r3, #1
     340:	f019 0f01 	tst.w	r9, #1
     344:	bf1c      	itt	ne
     346:	4063      	eorne	r3, r4
     348:	b29b      	uxthne	r3, r3
     34a:	ea4f 0858 	mov.w	r8, r8, lsr #1
     34e:	ea83 0908 	eor.w	r9, r3, r8
     352:	085b      	lsrs	r3, r3, #1
     354:	f019 0f01 	tst.w	r9, #1
     358:	bf1c      	itt	ne
     35a:	4063      	eorne	r3, r4
     35c:	b29b      	uxthne	r3, r3
     35e:	ea83 0858 	eor.w	r8, r3, r8, lsr #1
     362:	085b      	lsrs	r3, r3, #1
     364:	f018 0f01 	tst.w	r8, #1
     368:	bf1c      	itt	ne
     36a:	4063      	eorne	r3, r4
     36c:	b29b      	uxthne	r3, r3
     36e:	42b5      	cmp	r5, r6
     370:	d1ab      	bne.n	2ca <_lseek+0x1e>
     372:	f242 043f 	movw	r4, #8255	; 0x203f
     376:	42a3      	cmp	r3, r4
     378:	d112      	bne.n	3a0 <_lseek+0xf4>
     37a:	f8dc 3028 	ldr.w	r3, [ip, #40]	; 0x28
     37e:	603b      	str	r3, [r7, #0]
     380:	3803      	subs	r0, #3
     382:	f853 0020 	ldr.w	r0, [r3, r0, lsl #2]
     386:	b138      	cbz	r0, 398 <_lseek+0xec>
     388:	6803      	ldr	r3, [r0, #0]
     38a:	691b      	ldr	r3, [r3, #16]
     38c:	4798      	blx	r3
     38e:	e8bd 87f0 	ldmia.w	sp!, {r4, r5, r6, r7, r8, r9, sl, pc}
     392:	2000      	movs	r0, #0
     394:	e8bd 87f0 	ldmia.w	sp!, {r4, r5, r6, r7, r8, r9, sl, pc}
     398:	f04f 30ff 	mov.w	r0, #4294967295
     39c:	e8bd 87f0 	ldmia.w	sp!, {r4, r5, r6, r7, r8, r9, sl, pc}
     3a0:	4908      	ldr	r1, [pc, #32]	; (3c4 <_lseek+0x118>)
     3a2:	4809      	ldr	r0, [pc, #36]	; (3c8 <_lseek+0x11c>)
     3a4:	680c      	ldr	r4, [r1, #0]
     3a6:	226b      	movs	r2, #107	; 0x6b
     3a8:	2101      	movs	r1, #1
     3aa:	68e3      	ldr	r3, [r4, #12]
     3ac:	f005 feac 	bl	6108 <fwrite>
     3b0:	2001      	movs	r0, #1
     3b2:	f012 f849 	bl	12448 <exit>
     3b6:	bf00      	nop
     3b8:	10000694 	.word	0x10000694
     3bc:	00011801 	.word	0x00011801
     3c0:	ffffa001 	.word	0xffffa001
     3c4:	100001ec 	.word	0x100001ec
     3c8:	0000f828 	.word	0x0000f828

000003cc <_read>:
     3cc:	b510      	push	{r4, lr}
     3ce:	4c0b      	ldr	r4, [pc, #44]	; (3fc <_read+0x30>)
     3d0:	b082      	sub	sp, #8
     3d2:	6823      	ldr	r3, [r4, #0]
     3d4:	4614      	mov	r4, r2
     3d6:	b90b      	cbnz	r3, 3dc <_read+0x10>
     3d8:	2802      	cmp	r0, #2
     3da:	dd08      	ble.n	3ee <_read+0x22>
     3dc:	4622      	mov	r2, r4
     3de:	2300      	movs	r3, #0
     3e0:	f011 f9ee 	bl	117c0 <_sys_read>
     3e4:	f020 4000 	bic.w	r0, r0, #2147483648	; 0x80000000
     3e8:	1a20      	subs	r0, r4, r0
     3ea:	b002      	add	sp, #8
     3ec:	bd10      	pop	{r4, pc}
     3ee:	9001      	str	r0, [sp, #4]
     3f0:	9100      	str	r1, [sp, #0]
     3f2:	f7ff ff03 	bl	1fc <_ZL20_OpenStandardHandlesv>
     3f6:	9900      	ldr	r1, [sp, #0]
     3f8:	9801      	ldr	r0, [sp, #4]
     3fa:	e7ef      	b.n	3dc <_read+0x10>
     3fc:	1000069c 	.word	0x1000069c

00000400 <_write>:
     400:	b510      	push	{r4, lr}
     402:	4c0c      	ldr	r4, [pc, #48]	; (434 <_write+0x34>)
     404:	b082      	sub	sp, #8
     406:	6823      	ldr	r3, [r4, #0]
     408:	4614      	mov	r4, r2
     40a:	b90b      	cbnz	r3, 410 <_write+0x10>
     40c:	2802      	cmp	r0, #2
     40e:	dd09      	ble.n	424 <_write+0x24>
     410:	2300      	movs	r3, #0
     412:	4622      	mov	r2, r4
     414:	f011 fa0a 	bl	1182c <_sys_write>
     418:	2800      	cmp	r0, #0
     41a:	bfa8      	it	ge
     41c:	ebc0 0004 	rsbge	r0, r0, r4
     420:	b002      	add	sp, #8
     422:	bd10      	pop	{r4, pc}
     424:	9001      	str	r0, [sp, #4]
     426:	9100      	str	r1, [sp, #0]
     428:	f7ff fee8 	bl	1fc <_ZL20_OpenStandardHandlesv>
     42c:	9900      	ldr	r1, [sp, #0]
     42e:	9801      	ldr	r0, [sp, #4]
     430:	e7ee      	b.n	410 <_write+0x10>
     432:	bf00      	nop
     434:	1000069c 	.word	0x1000069c

00000438 <_fstat>:
     438:	f44f 5300 	mov.w	r3, #8192	; 0x2000
     43c:	604b      	str	r3, [r1, #4]
     43e:	2000      	movs	r0, #0
     440:	4770      	bx	lr
     442:	bf00      	nop

00000444 <_ZN12SDFileSystemD1Ev>:
     444:	4a0b      	ldr	r2, [pc, #44]	; (474 <_ZN12SDFileSystemD1Ev+0x30>)
     446:	490c      	ldr	r1, [pc, #48]	; (478 <_ZN12SDFileSystemD1Ev+0x34>)
     448:	b510      	push	{r4, lr}
     44a:	4604      	mov	r4, r0
     44c:	6002      	str	r2, [r0, #0]
     44e:	f8c0 1264 	str.w	r1, [r0, #612]	; 0x264
     452:	f500 7019 	add.w	r0, r0, #612	; 0x264
     456:	f011 f857 	bl	11508 <_ZN4mbed4BaseD1Ev>
     45a:	4b08      	ldr	r3, [pc, #32]	; (47c <_ZN12SDFileSystemD1Ev+0x38>)
     45c:	f504 7011 	add.w	r0, r4, #580	; 0x244
     460:	f8c4 3244 	str.w	r3, [r4, #580]	; 0x244
     464:	f011 f850 	bl	11508 <_ZN4mbed4BaseD1Ev>
     468:	4620      	mov	r0, r4
     46a:	f012 fca5 	bl	12db8 <_ZN4mbed13FATFileSystemD1Ev>
     46e:	4620      	mov	r0, r4
     470:	bd10      	pop	{r4, pc}
     472:	bf00      	nop
     474:	0000fbe0 	.word	0x0000fbe0
     478:	00014cbc 	.word	0x00014cbc
     47c:	00014e60 	.word	0x00014e60

00000480 <_Z12BreakHandlerv>:
     480:	b508      	push	{r3, lr}
     482:	f000 fe41 	bl	1108 <DebugDumpStack>
     486:	4905      	ldr	r1, [pc, #20]	; (49c <_Z12BreakHandlerv+0x1c>)
     488:	4805      	ldr	r0, [pc, #20]	; (4a0 <_Z12BreakHandlerv+0x20>)
     48a:	680b      	ldr	r3, [r1, #0]
     48c:	2210      	movs	r2, #16
     48e:	2101      	movs	r1, #1
     490:	68db      	ldr	r3, [r3, #12]
     492:	f005 fe39 	bl	6108 <fwrite>
     496:	2001      	movs	r0, #1
     498:	f011 ffd6 	bl	12448 <exit>
     49c:	100001ec 	.word	0x100001ec
     4a0:	0000f8d4 	.word	0x0000f8d4

000004a4 <HardFault_Handler>:
     4a4:	b508      	push	{r3, lr}
     4a6:	f000 fe2f 	bl	1108 <DebugDumpStack>
     4aa:	4905      	ldr	r1, [pc, #20]	; (4c0 <HardFault_Handler+0x1c>)
     4ac:	4805      	ldr	r0, [pc, #20]	; (4c4 <HardFault_Handler+0x20>)
     4ae:	680b      	ldr	r3, [r1, #0]
     4b0:	220d      	movs	r2, #13
     4b2:	2101      	movs	r1, #1
     4b4:	68db      	ldr	r3, [r3, #12]
     4b6:	f005 fe27 	bl	6108 <fwrite>
     4ba:	2001      	movs	r0, #1
     4bc:	f011 ffc4 	bl	12448 <exit>
     4c0:	100001ec 	.word	0x100001ec
     4c4:	0000f8e8 	.word	0x0000f8e8

000004c8 <MemManage_Handler>:
     4c8:	b508      	push	{r3, lr}
     4ca:	f000 fe1d 	bl	1108 <DebugDumpStack>
     4ce:	4905      	ldr	r1, [pc, #20]	; (4e4 <MemManage_Handler+0x1c>)
     4d0:	4805      	ldr	r0, [pc, #20]	; (4e8 <MemManage_Handler+0x20>)
     4d2:	680b      	ldr	r3, [r1, #0]
     4d4:	220d      	movs	r2, #13
     4d6:	2101      	movs	r1, #1
     4d8:	68db      	ldr	r3, [r3, #12]
     4da:	f005 fe15 	bl	6108 <fwrite>
     4de:	2001      	movs	r0, #1
     4e0:	f011 ffb2 	bl	12448 <exit>
     4e4:	100001ec 	.word	0x100001ec
     4e8:	0000f8f8 	.word	0x0000f8f8

000004ec <BusFault_Handler>:
     4ec:	b508      	push	{r3, lr}
     4ee:	f000 fe0b 	bl	1108 <DebugDumpStack>
     4f2:	4905      	ldr	r1, [pc, #20]	; (508 <BusFault_Handler+0x1c>)
     4f4:	4805      	ldr	r0, [pc, #20]	; (50c <BusFault_Handler+0x20>)
     4f6:	680b      	ldr	r3, [r1, #0]
     4f8:	220c      	movs	r2, #12
     4fa:	2101      	movs	r1, #1
     4fc:	68db      	ldr	r3, [r3, #12]
     4fe:	f005 fe03 	bl	6108 <fwrite>
     502:	2001      	movs	r0, #1
     504:	f011 ffa0 	bl	12448 <exit>
     508:	100001ec 	.word	0x100001ec
     50c:	0000f908 	.word	0x0000f908

00000510 <UsageFault_Handler>:
     510:	b508      	push	{r3, lr}
     512:	f000 fdf9 	bl	1108 <DebugDumpStack>
     516:	4905      	ldr	r1, [pc, #20]	; (52c <UsageFault_Handler+0x1c>)
     518:	4805      	ldr	r0, [pc, #20]	; (530 <UsageFault_Handler+0x20>)
     51a:	680b      	ldr	r3, [r1, #0]
     51c:	220e      	movs	r2, #14
     51e:	2101      	movs	r1, #1
     520:	68db      	ldr	r3, [r3, #12]
     522:	f005 fdf1 	bl	6108 <fwrite>
     526:	2001      	movs	r0, #1
     528:	f011 ff8e 	bl	12448 <exit>
     52c:	100001ec 	.word	0x100001ec
     530:	0000f918 	.word	0x0000f918

00000534 <SVC_Handler>:
     534:	b508      	push	{r3, lr}
     536:	f000 fde7 	bl	1108 <DebugDumpStack>
     53a:	4905      	ldr	r1, [pc, #20]	; (550 <SVC_Handler+0x1c>)
     53c:	4805      	ldr	r0, [pc, #20]	; (554 <SVC_Handler+0x20>)
     53e:	680b      	ldr	r3, [r1, #0]
     540:	220c      	movs	r2, #12
     542:	2101      	movs	r1, #1
     544:	68db      	ldr	r3, [r3, #12]
     546:	f005 fddf 	bl	6108 <fwrite>
     54a:	2001      	movs	r0, #1
     54c:	f011 ff7c 	bl	12448 <exit>
     550:	100001ec 	.word	0x100001ec
     554:	0000f928 	.word	0x0000f928

00000558 <DebugMon_Handler>:
     558:	b508      	push	{r3, lr}
     55a:	f000 fdd5 	bl	1108 <DebugDumpStack>
     55e:	4905      	ldr	r1, [pc, #20]	; (574 <DebugMon_Handler+0x1c>)
     560:	4805      	ldr	r0, [pc, #20]	; (578 <DebugMon_Handler+0x20>)
     562:	680b      	ldr	r3, [r1, #0]
     564:	2210      	movs	r2, #16
     566:	2101      	movs	r1, #1
     568:	68db      	ldr	r3, [r3, #12]
     56a:	f005 fdcd 	bl	6108 <fwrite>
     56e:	2001      	movs	r0, #1
     570:	f011 ff6a 	bl	12448 <exit>
     574:	100001ec 	.word	0x100001ec
     578:	0000f938 	.word	0x0000f938

0000057c <PendSV_Handler>:
     57c:	b508      	push	{r3, lr}
     57e:	f000 fdc3 	bl	1108 <DebugDumpStack>
     582:	4905      	ldr	r1, [pc, #20]	; (598 <PendSV_Handler+0x1c>)
     584:	4805      	ldr	r0, [pc, #20]	; (59c <__ARM_grp_.debug_frame$5>)
     586:	680b      	ldr	r3, [r1, #0]
     588:	220a      	movs	r2, #10
     58a:	2101      	movs	r1, #1
     58c:	68db      	ldr	r3, [r3, #12]
     58e:	f005 fdbb 	bl	6108 <fwrite>
     592:	2001      	movs	r0, #1
     594:	f011 ff58 	bl	12448 <exit>
     598:	100001ec 	.word	0x100001ec
     59c:	0000f94c 	.word	0x0000f94c

000005a0 <SysTick_Handler>:
     5a0:	b508      	push	{r3, lr}
     5a2:	f000 fdb1 	bl	1108 <DebugDumpStack>
     5a6:	4905      	ldr	r1, [pc, #20]	; (5bc <SysTick_Handler+0x1c>)
     5a8:	4805      	ldr	r0, [pc, #20]	; (5c0 <SysTick_Handler+0x20>)
     5aa:	680b      	ldr	r3, [r1, #0]
     5ac:	2209      	movs	r2, #9
     5ae:	2101      	movs	r1, #1
     5b0:	68db      	ldr	r3, [r3, #12]
     5b2:	f005 fda9 	bl	6108 <fwrite>
     5b6:	2001      	movs	r0, #1
     5b8:	f011 ff46 	bl	12448 <exit>
     5bc:	100001ec 	.word	0x100001ec
     5c0:	0000f958 	.word	0x0000f958

000005c4 <main>:
     5c4:	b510      	push	{r4, lr}
     5c6:	486a      	ldr	r0, [pc, #424]	; (770 <__ARM_grp_.debug_frame$t._ZN4mbed9rpc_superINS_4BaseEEEPKNS_10rpc_methodEPS1_+0x18>)
     5c8:	b08a      	sub	sp, #40	; 0x28
     5ca:	2100      	movs	r1, #0
     5cc:	f011 fced 	bl	11faa <_ZN4mbed11InterruptIn4modeE7PinMode>
     5d0:	4968      	ldr	r1, [pc, #416]	; (774 <__ARM_grp_.debug_frame$t._ZN4mbed9rpc_superINS_4BaseEEEPKNS_10rpc_methodEPS1_+0x1c>)
     5d2:	4867      	ldr	r0, [pc, #412]	; (770 <__ARM_grp_.debug_frame$t._ZN4mbed9rpc_superINS_4BaseEEEPKNS_10rpc_methodEPS1_+0x18>)
     5d4:	f011 fcd4 	bl	11f80 <_ZN4mbed11InterruptIn4fallEPFvvE>
     5d8:	4867      	ldr	r0, [pc, #412]	; (778 <__ARM_grp_.debug_frame$t._ZN4mbed9rpc_superINS_4BaseEEEPKNS_10rpc_methodEPS1_+0x20>)
     5da:	f006 f8f9 	bl	67d0 <puts>
     5de:	4867      	ldr	r0, [pc, #412]	; (77c <__ARM_grp_.debug_frame$t._ZN4mbed9rpc_superINS_4BaseEEEPKNS_10rpc_methodEPS1_+0x24>)
     5e0:	f006 f8f6 	bl	67d0 <puts>
     5e4:	4866      	ldr	r0, [pc, #408]	; (780 <__ARM_grp_.debug_frame$t._ZN4mbed9rpc_superINS_4BaseEEEPKNS_10rpc_methodEPS1_+0x28>)
     5e6:	f006 f8f3 	bl	67d0 <puts>
     5ea:	4866      	ldr	r0, [pc, #408]	; (784 <__ARM_grp_.debug_frame$t._ZN4mbed9rpc_superINS_4BaseEEEPKNS_10rpc_methodEPS1_+0x2c>)
     5ec:	4966      	ldr	r1, [pc, #408]	; (788 <__ARM_grp_.debug_frame$t._ZN4mbed9rpc_superINS_4BaseEEEPKNS_10rpc_methodEPS1_+0x30>)
     5ee:	f005 f8bf 	bl	5770 <fopen>
     5f2:	4604      	mov	r4, r0
     5f4:	2800      	cmp	r0, #0
     5f6:	d062      	beq.n	6be <__ARM_grp_.debug_frame$t._ZN4mbed17rpc_method_callerINS_10DigitalOutEiXadL_ZNS1_5writeEiEEEEvPNS_4BaseEPKcPc+0x6>
     5f8:	4864      	ldr	r0, [pc, #400]	; (78c <__ARM_grp_.debug_frame$t._ZN4mbed9rpc_superINS_4BaseEEEPKNS_10rpc_methodEPS1_+0x34>)
     5fa:	f006 f8e9 	bl	67d0 <puts>
     5fe:	4620      	mov	r0, r4
     600:	4963      	ldr	r1, [pc, #396]	; (790 <__ARM_grp_.debug_frame$t._ZN4mbed9rpc_superINS_4BaseEEEPKNS_10rpc_methodEPS1_+0x38>)
     602:	f005 f8bf 	bl	5784 <fprintf>
     606:	2800      	cmp	r0, #0
     608:	f2c0 80a6 	blt.w	758 <__ARM_grp_.debug_frame$t._ZN4mbed9rpc_superINS_4BaseEEEPKNS_10rpc_methodEPS1_>
     60c:	4861      	ldr	r0, [pc, #388]	; (794 <__ARM_grp_.debug_frame$t._ZN4mbed9rpc_superINS_4BaseEEEPKNS_10rpc_methodEPS1_+0x3c>)
     60e:	f006 f8df 	bl	67d0 <puts>
     612:	4620      	mov	r0, r4
     614:	f004 feec 	bl	53f0 <fclose>
     618:	2800      	cmp	r0, #0
     61a:	f040 8092 	bne.w	742 <__ARM_grp_.debug_frame$t._ZN4mbed17rpc_method_callerIiNS_10DigitalOutEXadL_ZNS1_4readEvEEEEvPNS_4BaseEPKcPc+0x3a>
     61e:	485e      	ldr	r0, [pc, #376]	; (798 <__ARM_grp_.debug_frame$t._ZN4mbed9rpc_superINS_4BaseEEEPKNS_10rpc_methodEPS1_+0x40>)
     620:	f006 f8d6 	bl	67d0 <puts>
     624:	4857      	ldr	r0, [pc, #348]	; (784 <__ARM_grp_.debug_frame$t._ZN4mbed9rpc_superINS_4BaseEEEPKNS_10rpc_methodEPS1_+0x2c>)
     626:	495d      	ldr	r1, [pc, #372]	; (79c <__ARM_grp_.debug_frame$t._ZN4mbed19rpc_function_callerIPKc7PinNameS2_XadL_ZNS_4Base9constructINS_10DigitalOutES3_S2_EES2_T0_T1_EEEEvS2_Pc>)
     628:	f005 f8a2 	bl	5770 <fopen>
     62c:	4604      	mov	r4, r0
     62e:	2800      	cmp	r0, #0
     630:	d07c      	beq.n	72c <__ARM_grp_.debug_frame$t._ZN4mbed17rpc_method_callerIiNS_10DigitalOutEXadL_ZNS1_4readEvEEEEvPNS_4BaseEPKcPc+0x24>
     632:	485b      	ldr	r0, [pc, #364]	; (7a0 <__ARM_grp_.debug_frame$t._ZN4mbed19rpc_function_callerIPKc7PinNameS2_XadL_ZNS_4Base9constructINS_10DigitalOutES3_S2_EES2_T0_T1_EEEEvS2_Pc+0x4>)
     634:	f006 f8cc 	bl	67d0 <puts>
     638:	4620      	mov	r0, r4
     63a:	495a      	ldr	r1, [pc, #360]	; (7a4 <__ARM_grp_.debug_frame$t._ZN4mbed19rpc_function_callerIPKc7PinNameS2_XadL_ZNS_4Base9constructINS_10DigitalOutES3_S2_EES2_T0_T1_EEEEvS2_Pc+0x8>)
     63c:	aa02      	add	r2, sp, #8
     63e:	f005 fa01 	bl	5a44 <fscanf>
     642:	f1b0 3fff 	cmp.w	r0, #4294967295
     646:	d066      	beq.n	716 <__ARM_grp_.debug_frame$t._ZN4mbed17rpc_method_callerIiNS_10DigitalOutEXadL_ZNS1_4readEvEEEEvPNS_4BaseEPKcPc+0xe>
     648:	a902      	add	r1, sp, #8
     64a:	4857      	ldr	r0, [pc, #348]	; (7a8 <__ARM_grp_.debug_frame$t._ZN4mbed19rpc_function_callerIPKc7PinNameS2_XadL_ZNS_4Base9constructINS_10DigitalOutES3_S2_EES2_T0_T1_EEEEvS2_Pc+0xc>)
     64c:	f006 f870 	bl	6730 <printf>
     650:	4856      	ldr	r0, [pc, #344]	; (7ac <__ARM_grp_.debug_frame$t._ZN4mbed19rpc_function_callerIPKc7PinNameS2_XadL_ZNS_4Base9constructINS_10DigitalOutES3_S2_EES2_T0_T1_EEEEvS2_Pc+0x10>)
     652:	f006 f8bd 	bl	67d0 <puts>
     656:	4620      	mov	r0, r4
     658:	f004 feca 	bl	53f0 <fclose>
     65c:	2800      	cmp	r0, #0
     65e:	d14f      	bne.n	700 <__ARM_grp_.debug_frame$t._ZN4mbed17rpc_method_callerINS_10DigitalOutEiXadL_ZNS1_5writeEiEEEEvPNS_4BaseEPKcPc+0x48>
     660:	4853      	ldr	r0, [pc, #332]	; (7b0 <__ARM_grp_.debug_frame$t._ZN4mbed19rpc_function_callerIPKc7PinNameS2_XadL_ZNS_4Base9constructINS_10DigitalOutES3_S2_EES2_T0_T1_EEEEvS2_Pc+0x14>)
     662:	f006 f8b5 	bl	67d0 <puts>
     666:	4847      	ldr	r0, [pc, #284]	; (784 <__ARM_grp_.debug_frame$t._ZN4mbed9rpc_superINS_4BaseEEEPKNS_10rpc_methodEPS1_+0x2c>)
     668:	f011 f93c 	bl	118e4 <remove>
     66c:	2800      	cmp	r0, #0
     66e:	d13c      	bne.n	6ea <__ARM_grp_.debug_frame$t._ZN4mbed17rpc_method_callerINS_10DigitalOutEiXadL_ZNS1_5writeEiEEEEvPNS_4BaseEPKcPc+0x32>
     670:	4850      	ldr	r0, [pc, #320]	; (7b4 <__ARM_grp_.debug_frame$t._ZN4mbed19rpc_function_callerIPKc7PinNameS2_XadL_ZNS_4Base9constructINS_10DigitalOutES3_S2_EES2_T0_T1_EEEEvS2_Pc+0x18>)
     672:	f006 f8ad 	bl	67d0 <puts>
     676:	4850      	ldr	r0, [pc, #320]	; (7b8 <__ARM_grp_.debug_frame$t._ZN4mbed19rpc_function_callerIPKc7PinNameS2_XadL_ZNS_4Base9constructINS_10DigitalOutES3_S2_EES2_T0_T1_EEEEvS2_Pc+0x1c>)
     678:	f011 f906 	bl	11888 <opendir>
     67c:	4604      	mov	r4, r0
     67e:	484f      	ldr	r0, [pc, #316]	; (7bc <__ARM_grp_.debug_frame$t._ZN4mbed19rpc_function_callerIPKc7PinNameS2_XadL_ZNS_4Base9constructINS_10DigitalOutES3_S2_EES2_T0_T1_EEEEvS2_Pc+0x20>)
     680:	f006 f8a6 	bl	67d0 <puts>
     684:	2c00      	cmp	r4, #0
     686:	d025      	beq.n	6d4 <__ARM_grp_.debug_frame$t._ZN4mbed17rpc_method_callerINS_10DigitalOutEiXadL_ZNS1_5writeEiEEEEvPNS_4BaseEPKcPc+0x1c>
     688:	484d      	ldr	r0, [pc, #308]	; (7c0 <__ARM_grp_.debug_frame$t._ZN4mbed19rpc_function_callerIPKc7PinNameS2_XadL_ZNS_4Base9constructINS_10DigitalOutES3_S2_EES2_T0_T1_EEEEvS2_Pc+0x24>)
     68a:	f006 f8a1 	bl	67d0 <puts>
     68e:	e002      	b.n	696 <__ARM_grp_.debug_frame$i._ZN4mbed10DigitalOutD1Ev+0x22>
     690:	484c      	ldr	r0, [pc, #304]	; (7c4 <__ARM_grp_.debug_frame$t._ZN4mbed19rpc_function_callerIPKc7PinNameS2_XadL_ZNS_4Base9constructINS_10DigitalOutES3_S2_EES2_T0_T1_EEEEvS2_Pc+0x28>)
     692:	f006 f84d 	bl	6730 <printf>
     696:	4620      	mov	r0, r4
     698:	f011 f920 	bl	118dc <readdir>
     69c:	4601      	mov	r1, r0
     69e:	2800      	cmp	r0, #0
     6a0:	d1f6      	bne.n	690 <__ARM_grp_.debug_frame$i._ZN4mbed10DigitalOutD1Ev+0x1c>
     6a2:	4849      	ldr	r0, [pc, #292]	; (7c8 <__ARM_grp_.debug_frame$t._ZN4mbed19rpc_function_callerIPKc7PinNameS2_XadL_ZNS_4Base9constructINS_10DigitalOutES3_S2_EES2_T0_T1_EEEEvS2_Pc+0x2c>)
     6a4:	9101      	str	r1, [sp, #4]
     6a6:	f006 f893 	bl	67d0 <puts>
     6aa:	4620      	mov	r0, r4
     6ac:	f011 f8e8 	bl	11880 <closedir>
     6b0:	4846      	ldr	r0, [pc, #280]	; (7cc <__ARM_grp_.debug_frame$t._ZN4mbed19rpc_function_callerIPKc7PinNameS2_XadL_ZNS_4Base9constructINS_10DigitalOutES3_S2_EES2_T0_T1_EEEEvS2_Pc+0x30>)
     6b2:	f006 f88d 	bl	67d0 <puts>
     6b6:	9901      	ldr	r1, [sp, #4]
     6b8:	4608      	mov	r0, r1
     6ba:	b00a      	add	sp, #40	; 0x28
     6bc:	bd10      	pop	{r4, pc}
     6be:	4844      	ldr	r0, [pc, #272]	; (7d0 <__ARM_grp_.debug_frame$t._ZN4mbed19rpc_function_callerIPKc7PinNameS2_XadL_ZNS_4Base9constructINS_10DigitalOutES3_S2_EES2_T0_T1_EEEEvS2_Pc+0x34>)
     6c0:	4944      	ldr	r1, [pc, #272]	; (7d4 <__ARM_grp_.debug_frame$t._ZN4mbed19rpc_function_callerIPKc7PinNameS2_XadL_ZNS_4Base9constructINS_10DigitalOutES3_S2_EES2_T0_T1_EEEEvS2_Pc+0x38>)
     6c2:	6803      	ldr	r3, [r0, #0]
     6c4:	4a44      	ldr	r2, [pc, #272]	; (7d8 <__ARM_grp_.debug_frame$t._ZN4mbed19rpc_function_callerIPKc7PinNameS2_XadL_ZNS_4Base9constructINS_10DigitalOutES3_S2_EES2_T0_T1_EEEEvS2_Pc+0x3c>)
     6c6:	68d8      	ldr	r0, [r3, #12]
     6c8:	2361      	movs	r3, #97	; 0x61
     6ca:	f005 f85b 	bl	5784 <fprintf>
     6ce:	2001      	movs	r0, #1
     6d0:	f011 feba 	bl	12448 <exit>
     6d4:	4a3e      	ldr	r2, [pc, #248]	; (7d0 <__ARM_grp_.debug_frame$t._ZN4mbed19rpc_function_callerIPKc7PinNameS2_XadL_ZNS_4Base9constructINS_10DigitalOutES3_S2_EES2_T0_T1_EEEEvS2_Pc+0x34>)
     6d6:	4941      	ldr	r1, [pc, #260]	; (7dc <__ARM_grp_.debug_frame$t._ZN4mbed19rpc_function_callerIPKc7PinNameS2_XadL_ZNS_4Base9constructINS_10DigitalOutES3_S2_EES2_T0_T1_EEEEvS2_Pc+0x40>)
     6d8:	6814      	ldr	r4, [r2, #0]
     6da:	2399      	movs	r3, #153	; 0x99
     6dc:	4a3e      	ldr	r2, [pc, #248]	; (7d8 <__ARM_grp_.debug_frame$t._ZN4mbed19rpc_function_callerIPKc7PinNameS2_XadL_ZNS_4Base9constructINS_10DigitalOutES3_S2_EES2_T0_T1_EEEEvS2_Pc+0x3c>)
     6de:	68e0      	ldr	r0, [r4, #12]
     6e0:	f005 f850 	bl	5784 <fprintf>
     6e4:	2001      	movs	r0, #1
     6e6:	f011 feaf 	bl	12448 <exit>
     6ea:	4839      	ldr	r0, [pc, #228]	; (7d0 <__ARM_grp_.debug_frame$t._ZN4mbed19rpc_function_callerIPKc7PinNameS2_XadL_ZNS_4Base9constructINS_10DigitalOutES3_S2_EES2_T0_T1_EEEEvS2_Pc+0x34>)
     6ec:	493c      	ldr	r1, [pc, #240]	; (7e0 <__ARM_grp_.debug_frame$t._ZN4mbed19rpc_function_callerIPKc7PinNameS2_XadL_ZNS_4Base9constructINS_10DigitalOutES3_S2_EES2_T0_T1_EEEEvS2_Pc+0x44>)
     6ee:	6803      	ldr	r3, [r0, #0]
     6f0:	4a39      	ldr	r2, [pc, #228]	; (7d8 <__ARM_grp_.debug_frame$t._ZN4mbed19rpc_function_callerIPKc7PinNameS2_XadL_ZNS_4Base9constructINS_10DigitalOutES3_S2_EES2_T0_T1_EEEEvS2_Pc+0x3c>)
     6f2:	68d8      	ldr	r0, [r3, #12]
     6f4:	2390      	movs	r3, #144	; 0x90
     6f6:	f005 f845 	bl	5784 <fprintf>
     6fa:	2001      	movs	r0, #1
     6fc:	f011 fea4 	bl	12448 <exit>
     700:	4a33      	ldr	r2, [pc, #204]	; (7d0 <__ARM_grp_.debug_frame$t._ZN4mbed19rpc_function_callerIPKc7PinNameS2_XadL_ZNS_4Base9constructINS_10DigitalOutES3_S2_EES2_T0_T1_EEEEvS2_Pc+0x34>)
     702:	4938      	ldr	r1, [pc, #224]	; (7e4 <__ARM_grp_.debug_frame$t._ZN4mbed19rpc_function_callerIPKc7PinNameS2_XadL_ZNS_4Base9constructINS_10DigitalOutES3_S2_EES2_T0_T1_EEEEvS2_Pc+0x48>)
     704:	6814      	ldr	r4, [r2, #0]
     706:	2387      	movs	r3, #135	; 0x87
     708:	4a33      	ldr	r2, [pc, #204]	; (7d8 <__ARM_grp_.debug_frame$t._ZN4mbed19rpc_function_callerIPKc7PinNameS2_XadL_ZNS_4Base9constructINS_10DigitalOutES3_S2_EES2_T0_T1_EEEEvS2_Pc+0x3c>)
     70a:	68e0      	ldr	r0, [r4, #12]
     70c:	f005 f83a 	bl	5784 <fprintf>
     710:	2001      	movs	r0, #1
     712:	f011 fe99 	bl	12448 <exit>
     716:	482e      	ldr	r0, [pc, #184]	; (7d0 <__ARM_grp_.debug_frame$t._ZN4mbed19rpc_function_callerIPKc7PinNameS2_XadL_ZNS_4Base9constructINS_10DigitalOutES3_S2_EES2_T0_T1_EEEEvS2_Pc+0x34>)
     718:	4933      	ldr	r1, [pc, #204]	; (7e8 <__ARM_grp_.debug_frame$t._ZN4mbed19rpc_function_callerIPKc7PinNameS2_XadL_ZNS_4Base9constructINS_10DigitalOutES3_S2_EES2_T0_T1_EEEEvS2_Pc+0x4c>)
     71a:	6803      	ldr	r3, [r0, #0]
     71c:	4a2e      	ldr	r2, [pc, #184]	; (7d8 <__ARM_grp_.debug_frame$t._ZN4mbed19rpc_function_callerIPKc7PinNameS2_XadL_ZNS_4Base9constructINS_10DigitalOutES3_S2_EES2_T0_T1_EEEEvS2_Pc+0x3c>)
     71e:	68d8      	ldr	r0, [r3, #12]
     720:	237f      	movs	r3, #127	; 0x7f
     722:	f005 f82f 	bl	5784 <fprintf>
     726:	2001      	movs	r0, #1
     728:	f011 fe8e 	bl	12448 <exit>
     72c:	4a28      	ldr	r2, [pc, #160]	; (7d0 <__ARM_grp_.debug_frame$t._ZN4mbed19rpc_function_callerIPKc7PinNameS2_XadL_ZNS_4Base9constructINS_10DigitalOutES3_S2_EES2_T0_T1_EEEEvS2_Pc+0x34>)
     72e:	4929      	ldr	r1, [pc, #164]	; (7d4 <__ARM_grp_.debug_frame$t._ZN4mbed19rpc_function_callerIPKc7PinNameS2_XadL_ZNS_4Base9constructINS_10DigitalOutES3_S2_EES2_T0_T1_EEEEvS2_Pc+0x38>)
     730:	6814      	ldr	r4, [r2, #0]
     732:	2378      	movs	r3, #120	; 0x78
     734:	4a28      	ldr	r2, [pc, #160]	; (7d8 <__ARM_grp_.debug_frame$t._ZN4mbed19rpc_function_callerIPKc7PinNameS2_XadL_ZNS_4Base9constructINS_10DigitalOutES3_S2_EES2_T0_T1_EEEEvS2_Pc+0x3c>)
     736:	68e0      	ldr	r0, [r4, #12]
     738:	f005 f824 	bl	5784 <fprintf>
     73c:	2001      	movs	r0, #1
     73e:	f011 fe83 	bl	12448 <exit>
     742:	4823      	ldr	r0, [pc, #140]	; (7d0 <__ARM_grp_.debug_frame$t._ZN4mbed19rpc_function_callerIPKc7PinNameS2_XadL_ZNS_4Base9constructINS_10DigitalOutES3_S2_EES2_T0_T1_EEEEvS2_Pc+0x34>)
     744:	4927      	ldr	r1, [pc, #156]	; (7e4 <__ARM_grp_.debug_frame$t._ZN4mbed19rpc_function_callerIPKc7PinNameS2_XadL_ZNS_4Base9constructINS_10DigitalOutES3_S2_EES2_T0_T1_EEEEvS2_Pc+0x48>)
     746:	6803      	ldr	r3, [r0, #0]
     748:	4a23      	ldr	r2, [pc, #140]	; (7d8 <__ARM_grp_.debug_frame$t._ZN4mbed19rpc_function_callerIPKc7PinNameS2_XadL_ZNS_4Base9constructINS_10DigitalOutES3_S2_EES2_T0_T1_EEEEvS2_Pc+0x3c>)
     74a:	68d8      	ldr	r0, [r3, #12]
     74c:	236f      	movs	r3, #111	; 0x6f
     74e:	f005 f819 	bl	5784 <fprintf>
     752:	2001      	movs	r0, #1
     754:	f011 fe78 	bl	12448 <exit>
     758:	4a1d      	ldr	r2, [pc, #116]	; (7d0 <__ARM_grp_.debug_frame$t._ZN4mbed19rpc_function_callerIPKc7PinNameS2_XadL_ZNS_4Base9constructINS_10DigitalOutES3_S2_EES2_T0_T1_EEEEvS2_Pc+0x34>)
     75a:	4924      	ldr	r1, [pc, #144]	; (7ec <__ARM_grp_.debug_frame$t._ZN4mbed19rpc_function_callerIPKc7PinNameS2_XadL_ZNS_4Base9constructINS_10DigitalOutES3_S2_EES2_T0_T1_EEEEvS2_Pc+0x50>)
     75c:	6814      	ldr	r4, [r2, #0]
     75e:	2368      	movs	r3, #104	; 0x68
     760:	4a1d      	ldr	r2, [pc, #116]	; (7d8 <__ARM_grp_.debug_frame$t._ZN4mbed19rpc_function_callerIPKc7PinNameS2_XadL_ZNS_4Base9constructINS_10DigitalOutES3_S2_EES2_T0_T1_EEEEvS2_Pc+0x3c>)
     762:	68e0      	ldr	r0, [r4, #12]
     764:	f005 f80e 	bl	5784 <fprintf>
     768:	2001      	movs	r0, #1
     76a:	f011 fe6d 	bl	12448 <exit>
     76e:	bf00      	nop
     770:	100006a0 	.word	0x100006a0
     774:	00000481 	.word	0x00000481
     778:	0000f964 	.word	0x0000f964
     77c:	0000f980 	.word	0x0000f980
     780:	0000f99c 	.word	0x0000f99c
     784:	0000f9b8 	.word	0x0000f9b8
     788:	0000f9c4 	.word	0x0000f9c4
     78c:	0000f9ec 	.word	0x0000f9ec
     790:	0000fa00 	.word	0x0000fa00
     794:	0000fa2c 	.word	0x0000fa2c
     798:	0000fa6c 	.word	0x0000fa6c
     79c:	0000fa88 	.word	0x0000fa88
     7a0:	0000fa8c 	.word	0x0000fa8c
     7a4:	0000faa0 	.word	0x0000faa0
     7a8:	0000fac4 	.word	0x0000fac4
     7ac:	0000fae4 	.word	0x0000fae4
     7b0:	0000fb04 	.word	0x0000fb04
     7b4:	0000fb34 	.word	0x0000fb34
     7b8:	0000fb48 	.word	0x0000fb48
     7bc:	0000fb4c 	.word	0x0000fb4c
     7c0:	0000fb70 	.word	0x0000fb70
     7c4:	0000fb94 	.word	0x0000fb94
     7c8:	0000fb9c 	.word	0x0000fb9c
     7cc:	0000fbb0 	.word	0x0000fbb0
     7d0:	100001ec 	.word	0x100001ec
     7d4:	0000f9c8 	.word	0x0000f9c8
     7d8:	0000f9e0 	.word	0x0000f9e0
     7dc:	0000fb54 	.word	0x0000fb54
     7e0:	0000fb18 	.word	0x0000fb18
     7e4:	0000fa50 	.word	0x0000fa50
     7e8:	0000faa8 	.word	0x0000faa8
     7ec:	0000fa10 	.word	0x0000fa10

000007f0 <_ZN12SDFileSystemD0Ev>:
     7f0:	4a0c      	ldr	r2, [pc, #48]	; (824 <__ARM_grp_.debug_frame$i._ZN4mbed10DigitalOut5writeEi+0x14>)
     7f2:	490d      	ldr	r1, [pc, #52]	; (828 <__ARM_grp_.debug_frame$i._ZN4mbed10DigitalOut5writeEi+0x18>)
     7f4:	b510      	push	{r4, lr}
     7f6:	4604      	mov	r4, r0
     7f8:	6002      	str	r2, [r0, #0]
     7fa:	f8c0 1264 	str.w	r1, [r0, #612]	; 0x264
     7fe:	f500 7019 	add.w	r0, r0, #612	; 0x264
     802:	f010 fe81 	bl	11508 <_ZN4mbed4BaseD1Ev>
     806:	4b09      	ldr	r3, [pc, #36]	; (82c <__ARM_grp_.debug_frame$i._ZN4mbed10DigitalOut5writeEi+0x1c>)
     808:	f504 7011 	add.w	r0, r4, #580	; 0x244
     80c:	f8c4 3244 	str.w	r3, [r4, #580]	; 0x244
     810:	f010 fe7a 	bl	11508 <_ZN4mbed4BaseD1Ev>
     814:	4620      	mov	r0, r4
     816:	f012 facf 	bl	12db8 <_ZN4mbed13FATFileSystemD1Ev>
     81a:	4620      	mov	r0, r4
     81c:	f000 fe18 	bl	1450 <_ZdlPv>
     820:	4620      	mov	r0, r4
     822:	bd10      	pop	{r4, pc}
     824:	0000fbe0 	.word	0x0000fbe0
     828:	00014cbc 	.word	0x00014cbc
     82c:	00014e60 	.word	0x00014e60

00000830 <_GLOBAL__I_HardFault_Handler>:
     830:	b5f0      	push	{r4, r5, r6, r7, lr}
     832:	4f10      	ldr	r7, [pc, #64]	; (874 <__ARM_grp_.debug_frame$i._ZN4mbed10DigitalOut4readEv+0x20>)
     834:	b083      	sub	sp, #12
     836:	4e10      	ldr	r6, [pc, #64]	; (878 <__ARM_grp_.debug_frame$i._ZN4mbed10DigitalOut4readEv+0x24>)
     838:	4c10      	ldr	r4, [pc, #64]	; (87c <__ARM_grp_.debug_frame$i._ZN4mbed10DigitalOut4readEv+0x28>)
     83a:	9700      	str	r7, [sp, #0]
     83c:	4f10      	ldr	r7, [pc, #64]	; (880 <__ARM_grp_.debug_frame$i._ZN4mbed10DigitalOut4readEv+0x2c>)
     83e:	4b11      	ldr	r3, [pc, #68]	; (884 <__ARM_grp_.debug_frame$i._ZN4mbed10DigitalOut4readEv+0x30>)
     840:	4d11      	ldr	r5, [pc, #68]	; (888 <__ARM_grp_.debug_frame$i._ZN4mbed10DigitalOut4readEv+0x34>)
     842:	4912      	ldr	r1, [pc, #72]	; (88c <__ARM_grp_.debug_frame$i._ZN4mbed10DigitalOut4readEv+0x38>)
     844:	4a12      	ldr	r2, [pc, #72]	; (890 <__ARM_grp_.debug_frame$i._ZN4mbed10DigitalOut4readEv+0x3c>)
     846:	4630      	mov	r0, r6
     848:	9701      	str	r7, [sp, #4]
     84a:	f000 f881 	bl	950 <_ZN12SDFileSystemC1E7PinNameS0_S0_S0_PKc>
     84e:	4622      	mov	r2, r4
     850:	4910      	ldr	r1, [pc, #64]	; (894 <__ARM_grp_.debug_frame$i._ZN4mbed10DigitalOut4readEv+0x40>)
     852:	4630      	mov	r0, r6
     854:	f000 fd7c 	bl	1350 <__aeabi_atexit>
     858:	2200      	movs	r2, #0
     85a:	490f      	ldr	r1, [pc, #60]	; (898 <__ARM_grp_.debug_frame$i._ZN4mbed10DigitalOutD0Ev>)
     85c:	4628      	mov	r0, r5
     85e:	f011 fba7 	bl	11fb0 <_ZN4mbed11InterruptInC1E7PinNamePKc>
     862:	490e      	ldr	r1, [pc, #56]	; (89c <__ARM_grp_.debug_frame$i._ZN4mbed10DigitalOutD0Ev+0x4>)
     864:	4628      	mov	r0, r5
     866:	4622      	mov	r2, r4
     868:	b003      	add	sp, #12
     86a:	e8bd 40f0 	ldmia.w	sp!, {r4, r5, r6, r7, lr}
     86e:	f000 bd6f 	b.w	1350 <__aeabi_atexit>
     872:	bf00      	nop
     874:	2009c006 	.word	0x2009c006
     878:	100006ec 	.word	0x100006ec
     87c:	100000c4 	.word	0x100000c4
     880:	0000fbc4 	.word	0x0000fbc4
     884:	2009c007 	.word	0x2009c007
     888:	100006a0 	.word	0x100006a0
     88c:	2009c009 	.word	0x2009c009
     890:	2009c008 	.word	0x2009c008
     894:	00000445 	.word	0x00000445
     898:	2009c000 	.word	0x2009c000
     89c:	00011fe5 	.word	0x00011fe5

000008a0 <_ZN4mbed14FileSystemLike6renameEPKcS2_>:
     8a0:	f04f 30ff 	mov.w	r0, #4294967295
     8a4:	4770      	bx	lr
     8a6:	bf00      	nop

000008a8 <_ZN12SDFileSystem11disk_statusEv>:
     8a8:	2000      	movs	r0, #0
     8aa:	4770      	bx	lr

000008ac <_ZN12SDFileSystem9disk_syncEv>:
     8ac:	2000      	movs	r0, #0
     8ae:	4770      	bx	lr

000008b0 <_ZN12SDFileSystem12disk_sectorsEv>:
     8b0:	f8d0 0240 	ldr.w	r0, [r0, #576]	; 0x240
     8b4:	4770      	bx	lr
     8b6:	bf00      	nop

000008b8 <_ZL8ext_bitsPcii>:
     8b8:	1c4b      	adds	r3, r1, #1
     8ba:	1a9b      	subs	r3, r3, r2
     8bc:	2b00      	cmp	r3, #0
     8be:	e92d 01f0 	stmdb	sp!, {r4, r5, r6, r7, r8}
     8c2:	4607      	mov	r7, r0
     8c4:	dd41      	ble.n	94a <__ARM_grp_.debug_frame$5+0x16>
     8c6:	eba0 0ce2 	sub.w	ip, r0, r2, asr #3
     8ca:	f89c 000f 	ldrb.w	r0, [ip, #15]
     8ce:	f002 0107 	and.w	r1, r2, #7
     8d2:	4108      	asrs	r0, r1
     8d4:	2101      	movs	r1, #1
     8d6:	1e5c      	subs	r4, r3, #1
     8d8:	4299      	cmp	r1, r3
     8da:	ea04 0401 	and.w	r4, r4, r1
     8de:	ea00 0001 	and.w	r0, r0, r1
     8e2:	d02f      	beq.n	944 <__ARM_grp_.debug_frame$5+0x10>
     8e4:	b174      	cbz	r4, 904 <__ARM_grp_.debug_frame$i._ZN4mbed10parse_charEPKcPS1_+0x1c>
     8e6:	1c51      	adds	r1, r2, #1
     8e8:	eba7 0ce1 	sub.w	ip, r7, r1, asr #3
     8ec:	f89c 400f 	ldrb.w	r4, [ip, #15]
     8f0:	f001 0107 	and.w	r1, r1, #7
     8f4:	410c      	asrs	r4, r1
     8f6:	2102      	movs	r1, #2
     8f8:	f004 0401 	and.w	r4, r4, #1
     8fc:	4299      	cmp	r1, r3
     8fe:	ea40 0044 	orr.w	r0, r0, r4, lsl #1
     902:	d01f      	beq.n	944 <__ARM_grp_.debug_frame$5+0x10>
     904:	188e      	adds	r6, r1, r2
     906:	1c4c      	adds	r4, r1, #1
     908:	eba7 08e6 	sub.w	r8, r7, r6, asr #3
     90c:	18a5      	adds	r5, r4, r2
     90e:	f898 800f 	ldrb.w	r8, [r8, #15]
     912:	eba7 0ce5 	sub.w	ip, r7, r5, asr #3
     916:	f006 0607 	and.w	r6, r6, #7
     91a:	f89c c00f 	ldrb.w	ip, [ip, #15]
     91e:	fa48 f606 	asr.w	r6, r8, r6
     922:	f005 0507 	and.w	r5, r5, #7
     926:	fa4c fc05 	asr.w	ip, ip, r5
     92a:	f006 0601 	and.w	r6, r6, #1
     92e:	fa16 f101 	lsls.w	r1, r6, r1
     932:	f00c 0501 	and.w	r5, ip, #1
     936:	40a5      	lsls	r5, r4
     938:	4308      	orrs	r0, r1
     93a:	1c61      	adds	r1, r4, #1
     93c:	4299      	cmp	r1, r3
     93e:	ea40 0005 	orr.w	r0, r0, r5
     942:	d1df      	bne.n	904 <__ARM_grp_.debug_frame$i._ZN4mbed10parse_charEPKcPS1_+0x1c>
     944:	e8bd 01f0 	ldmia.w	sp!, {r4, r5, r6, r7, r8}
     948:	4770      	bx	lr
     94a:	2000      	movs	r0, #0
     94c:	e7fa      	b.n	944 <__ARM_grp_.debug_frame$5+0x10>
     94e:	bf00      	nop

00000950 <_ZN12SDFileSystemC1E7PinNameS0_S0_S0_PKc>:
     950:	e92d 41f0 	stmdb	sp!, {r4, r5, r6, r7, r8, lr}
     954:	b082      	sub	sp, #8
     956:	460e      	mov	r6, r1
     958:	9909      	ldr	r1, [sp, #36]	; 0x24
     95a:	4604      	mov	r4, r0
     95c:	4690      	mov	r8, r2
     95e:	461f      	mov	r7, r3
     960:	f012 f9c6 	bl	12cf0 <_ZN4mbed13FATFileSystemC2EPKc>
     964:	480c      	ldr	r0, [pc, #48]	; (998 <__ARM_grp_.debug_frame$8+0x20>)
     966:	463b      	mov	r3, r7
     968:	6020      	str	r0, [r4, #0]
     96a:	2500      	movs	r5, #0
     96c:	4631      	mov	r1, r6
     96e:	4642      	mov	r2, r8
     970:	f504 7011 	add.w	r0, r4, #580	; 0x244
     974:	9500      	str	r5, [sp, #0]
     976:	f011 f815 	bl	119a4 <_ZN4mbed3SPIC1E7PinNameS1_S1_PKc>
     97a:	462a      	mov	r2, r5
     97c:	f504 7019 	add.w	r0, r4, #612	; 0x264
     980:	9908      	ldr	r1, [sp, #32]
     982:	f010 fbd7 	bl	11134 <_ZN4mbed10DigitalOutC1E7PinNamePKc>
     986:	f8d4 3278 	ldr.w	r3, [r4, #632]	; 0x278
     98a:	f8d4 227c 	ldr.w	r2, [r4, #636]	; 0x27c
     98e:	4620      	mov	r0, r4
     990:	619a      	str	r2, [r3, #24]
     992:	b002      	add	sp, #8
     994:	e8bd 81f0 	ldmia.w	sp!, {r4, r5, r6, r7, r8, pc}
     998:	0000fbe0 	.word	0x0000fbe0

0000099c <_ZN12SDFileSystem4_cmdEii>:
     99c:	b5f8      	push	{r3, r4, r5, r6, r7, lr}
     99e:	f8d0 3278 	ldr.w	r3, [r0, #632]	; 0x278
     9a2:	4605      	mov	r5, r0
     9a4:	f8d0 027c 	ldr.w	r0, [r0, #636]	; 0x27c
     9a8:	f505 7411 	add.w	r4, r5, #580	; 0x244
     9ac:	4616      	mov	r6, r2
     9ae:	61d8      	str	r0, [r3, #28]
     9b0:	f041 0140 	orr.w	r1, r1, #64	; 0x40
     9b4:	4620      	mov	r0, r4
     9b6:	f010 ffc1 	bl	1193c <_ZN4mbed3SPI5writeEi>
     9ba:	1631      	asrs	r1, r6, #24
     9bc:	4620      	mov	r0, r4
     9be:	f010 ffbd 	bl	1193c <_ZN4mbed3SPI5writeEi>
     9c2:	1431      	asrs	r1, r6, #16
     9c4:	4620      	mov	r0, r4
     9c6:	f010 ffb9 	bl	1193c <_ZN4mbed3SPI5writeEi>
     9ca:	1231      	asrs	r1, r6, #8
     9cc:	4620      	mov	r0, r4
     9ce:	f010 ffb5 	bl	1193c <_ZN4mbed3SPI5writeEi>
     9d2:	4631      	mov	r1, r6
     9d4:	4620      	mov	r0, r4
     9d6:	f010 ffb1 	bl	1193c <_ZN4mbed3SPI5writeEi>
     9da:	4620      	mov	r0, r4
     9dc:	2195      	movs	r1, #149	; 0x95
     9de:	f010 ffad 	bl	1193c <_ZN4mbed3SPI5writeEi>
     9e2:	f241 3788 	movw	r7, #5000	; 0x1388
     9e6:	e007      	b.n	9f8 <__ARM_grp_.debug_frame$11+0x3c>
     9e8:	f010 ffa8 	bl	1193c <_ZN4mbed3SPI5writeEi>
     9ec:	f010 0f80 	tst.w	r0, #128	; 0x80
     9f0:	4606      	mov	r6, r0
     9f2:	d00d      	beq.n	a10 <__ARM_grp_.debug_frame$14+0x10>
     9f4:	3f01      	subs	r7, #1
     9f6:	d016      	beq.n	a26 <__ARM_grp_.debug_frame$14+0x26>
     9f8:	21ff      	movs	r1, #255	; 0xff
     9fa:	4620      	mov	r0, r4
     9fc:	f010 ff9e 	bl	1193c <_ZN4mbed3SPI5writeEi>
     a00:	4606      	mov	r6, r0
     a02:	21ff      	movs	r1, #255	; 0xff
     a04:	f016 0f80 	tst.w	r6, #128	; 0x80
     a08:	4620      	mov	r0, r4
     a0a:	f107 37ff 	add.w	r7, r7, #4294967295
     a0e:	d1eb      	bne.n	9e8 <__ARM_grp_.debug_frame$11+0x2c>
     a10:	f8d5 1278 	ldr.w	r1, [r5, #632]	; 0x278
     a14:	f8d5 227c 	ldr.w	r2, [r5, #636]	; 0x27c
     a18:	4620      	mov	r0, r4
     a1a:	618a      	str	r2, [r1, #24]
     a1c:	21ff      	movs	r1, #255	; 0xff
     a1e:	f010 ff8d 	bl	1193c <_ZN4mbed3SPI5writeEi>
     a22:	4630      	mov	r0, r6
     a24:	bdf8      	pop	{r3, r4, r5, r6, r7, pc}
     a26:	f8d5 627c 	ldr.w	r6, [r5, #636]	; 0x27c
     a2a:	f8d5 3278 	ldr.w	r3, [r5, #632]	; 0x278
     a2e:	4620      	mov	r0, r4
     a30:	619e      	str	r6, [r3, #24]
     a32:	21ff      	movs	r1, #255	; 0xff
     a34:	f04f 36ff 	mov.w	r6, #4294967295
     a38:	f010 ff80 	bl	1193c <_ZN4mbed3SPI5writeEi>
     a3c:	4630      	mov	r0, r6
     a3e:	bdf8      	pop	{r3, r4, r5, r6, r7, pc}

00000a40 <_ZN12SDFileSystem18initialise_card_v1Ev>:
     a40:	b538      	push	{r3, r4, r5, lr}
     a42:	4605      	mov	r5, r0
     a44:	f241 3488 	movw	r4, #5000	; 0x1388
     a48:	e00a      	b.n	a60 <__ARM_grp_.debug_frame$17+0x1c>
     a4a:	4628      	mov	r0, r5
     a4c:	f7ff ffa6 	bl	99c <_ZN12SDFileSystem4_cmdEii>
     a50:	4628      	mov	r0, r5
     a52:	2129      	movs	r1, #41	; 0x29
     a54:	2200      	movs	r2, #0
     a56:	f7ff ffa1 	bl	99c <_ZN12SDFileSystem4_cmdEii>
     a5a:	b180      	cbz	r0, a7e <__ARM_grp_.debug_frame$17+0x3a>
     a5c:	3c01      	subs	r4, #1
     a5e:	d010      	beq.n	a82 <__ARM_grp_.debug_frame$17+0x3e>
     a60:	2137      	movs	r1, #55	; 0x37
     a62:	2200      	movs	r2, #0
     a64:	4628      	mov	r0, r5
     a66:	f7ff ff99 	bl	99c <_ZN12SDFileSystem4_cmdEii>
     a6a:	2129      	movs	r1, #41	; 0x29
     a6c:	2200      	movs	r2, #0
     a6e:	4628      	mov	r0, r5
     a70:	f7ff ff94 	bl	99c <_ZN12SDFileSystem4_cmdEii>
     a74:	3c01      	subs	r4, #1
     a76:	2137      	movs	r1, #55	; 0x37
     a78:	2200      	movs	r2, #0
     a7a:	2800      	cmp	r0, #0
     a7c:	d1e5      	bne.n	a4a <__ARM_grp_.debug_frame$17+0x6>
     a7e:	2001      	movs	r0, #1
     a80:	bd38      	pop	{r3, r4, r5, pc}
     a82:	4905      	ldr	r1, [pc, #20]	; (a98 <__ARM_grp_.debug_frame$20+0x10>)
     a84:	4805      	ldr	r0, [pc, #20]	; (a9c <__ARM_grp_.debug_frame$20+0x14>)
     a86:	680b      	ldr	r3, [r1, #0]
     a88:	221e      	movs	r2, #30
     a8a:	2101      	movs	r1, #1
     a8c:	68db      	ldr	r3, [r3, #12]
     a8e:	f005 fb3b 	bl	6108 <fwrite>
     a92:	4620      	mov	r0, r4
     a94:	bd38      	pop	{r3, r4, r5, pc}
     a96:	bf00      	nop
     a98:	100001ec 	.word	0x100001ec
     a9c:	0000fc20 	.word	0x0000fc20

00000aa0 <_ZN12SDFileSystem5_cmdxEii>:
     aa0:	b570      	push	{r4, r5, r6, lr}
     aa2:	f8d0 3278 	ldr.w	r3, [r0, #632]	; 0x278
     aa6:	4605      	mov	r5, r0
     aa8:	f8d0 027c 	ldr.w	r0, [r0, #636]	; 0x27c
     aac:	f505 7411 	add.w	r4, r5, #580	; 0x244
     ab0:	4616      	mov	r6, r2
     ab2:	61d8      	str	r0, [r3, #28]
     ab4:	f041 0140 	orr.w	r1, r1, #64	; 0x40
     ab8:	4620      	mov	r0, r4
     aba:	f010 ff3f 	bl	1193c <_ZN4mbed3SPI5writeEi>
     abe:	1631      	asrs	r1, r6, #24
     ac0:	4620      	mov	r0, r4
     ac2:	f010 ff3b 	bl	1193c <_ZN4mbed3SPI5writeEi>
     ac6:	1431      	asrs	r1, r6, #16
     ac8:	4620      	mov	r0, r4
     aca:	f010 ff37 	bl	1193c <_ZN4mbed3SPI5writeEi>
     ace:	1231      	asrs	r1, r6, #8
     ad0:	4620      	mov	r0, r4
     ad2:	f010 ff33 	bl	1193c <_ZN4mbed3SPI5writeEi>
     ad6:	4631      	mov	r1, r6
     ad8:	4620      	mov	r0, r4
     ada:	f010 ff2f 	bl	1193c <_ZN4mbed3SPI5writeEi>
     ade:	4620      	mov	r0, r4
     ae0:	2195      	movs	r1, #149	; 0x95
     ae2:	f010 ff2b 	bl	1193c <_ZN4mbed3SPI5writeEi>
     ae6:	f241 3688 	movw	r6, #5000	; 0x1388
     aea:	e007      	b.n	afc <__ARM_grp_.debug_frame$23+0x20>
     aec:	f010 ff26 	bl	1193c <_ZN4mbed3SPI5writeEi>
     af0:	f010 0f80 	tst.w	r0, #128	; 0x80
     af4:	4603      	mov	r3, r0
     af6:	d00d      	beq.n	b14 <__ARM_grp_.debug_frame$23+0x38>
     af8:	3e01      	subs	r6, #1
     afa:	d00d      	beq.n	b18 <__ARM_grp_.debug_frame$23+0x3c>
     afc:	21ff      	movs	r1, #255	; 0xff
     afe:	4620      	mov	r0, r4
     b00:	f010 ff1c 	bl	1193c <_ZN4mbed3SPI5writeEi>
     b04:	4603      	mov	r3, r0
     b06:	21ff      	movs	r1, #255	; 0xff
     b08:	f013 0f80 	tst.w	r3, #128	; 0x80
     b0c:	4620      	mov	r0, r4
     b0e:	f106 36ff 	add.w	r6, r6, #4294967295
     b12:	d1eb      	bne.n	aec <__ARM_grp_.debug_frame$23+0x10>
     b14:	4618      	mov	r0, r3
     b16:	bd70      	pop	{r4, r5, r6, pc}
     b18:	f8d5 1278 	ldr.w	r1, [r5, #632]	; 0x278
     b1c:	f8d5 227c 	ldr.w	r2, [r5, #636]	; 0x27c
     b20:	4620      	mov	r0, r4
     b22:	618a      	str	r2, [r1, #24]
     b24:	21ff      	movs	r1, #255	; 0xff
     b26:	f010 ff09 	bl	1193c <_ZN4mbed3SPI5writeEi>
     b2a:	f04f 33ff 	mov.w	r3, #4294967295
     b2e:	4618      	mov	r0, r3
     b30:	bd70      	pop	{r4, r5, r6, pc}
     b32:	bf00      	nop

00000b34 <_ZN12SDFileSystem6_cmd58Ev>:
     b34:	b5f8      	push	{r3, r4, r5, r6, r7, lr}
     b36:	f8d0 227c 	ldr.w	r2, [r0, #636]	; 0x27c
     b3a:	f8d0 3278 	ldr.w	r3, [r0, #632]	; 0x278
     b3e:	f500 7511 	add.w	r5, r0, #580	; 0x244
     b42:	61da      	str	r2, [r3, #28]
     b44:	217a      	movs	r1, #122	; 0x7a
     b46:	4607      	mov	r7, r0
     b48:	4628      	mov	r0, r5
     b4a:	f010 fef7 	bl	1193c <_ZN4mbed3SPI5writeEi>
     b4e:	2100      	movs	r1, #0
     b50:	4628      	mov	r0, r5
     b52:	f010 fef3 	bl	1193c <_ZN4mbed3SPI5writeEi>
     b56:	2100      	movs	r1, #0
     b58:	4628      	mov	r0, r5
     b5a:	f010 feef 	bl	1193c <_ZN4mbed3SPI5writeEi>
     b5e:	2100      	movs	r1, #0
     b60:	4628      	mov	r0, r5
     b62:	f010 feeb 	bl	1193c <_ZN4mbed3SPI5writeEi>
     b66:	2100      	movs	r1, #0
     b68:	4628      	mov	r0, r5
     b6a:	f010 fee7 	bl	1193c <_ZN4mbed3SPI5writeEi>
     b6e:	4628      	mov	r0, r5
     b70:	2195      	movs	r1, #149	; 0x95
     b72:	f010 fee3 	bl	1193c <_ZN4mbed3SPI5writeEi>
     b76:	f241 3688 	movw	r6, #5000	; 0x1388
     b7a:	e007      	b.n	b8c <__ARM_grp_.debug_frame$29+0x1c>
     b7c:	f010 fede 	bl	1193c <_ZN4mbed3SPI5writeEi>
     b80:	f010 0f80 	tst.w	r0, #128	; 0x80
     b84:	4604      	mov	r4, r0
     b86:	d00d      	beq.n	ba4 <__ARM_grp_.debug_frame$29+0x34>
     b88:	3e01      	subs	r6, #1
     b8a:	d026      	beq.n	bda <__ARM_grp_.debug_frame$29+0x6a>
     b8c:	21ff      	movs	r1, #255	; 0xff
     b8e:	4628      	mov	r0, r5
     b90:	f010 fed4 	bl	1193c <_ZN4mbed3SPI5writeEi>
     b94:	4604      	mov	r4, r0
     b96:	21ff      	movs	r1, #255	; 0xff
     b98:	f014 0f80 	tst.w	r4, #128	; 0x80
     b9c:	4628      	mov	r0, r5
     b9e:	f106 36ff 	add.w	r6, r6, #4294967295
     ba2:	d1eb      	bne.n	b7c <__ARM_grp_.debug_frame$29+0xc>
     ba4:	21ff      	movs	r1, #255	; 0xff
     ba6:	4628      	mov	r0, r5
     ba8:	f010 fec8 	bl	1193c <_ZN4mbed3SPI5writeEi>
     bac:	21ff      	movs	r1, #255	; 0xff
     bae:	4628      	mov	r0, r5
     bb0:	f010 fec4 	bl	1193c <_ZN4mbed3SPI5writeEi>
     bb4:	21ff      	movs	r1, #255	; 0xff
     bb6:	4628      	mov	r0, r5
     bb8:	f010 fec0 	bl	1193c <_ZN4mbed3SPI5writeEi>
     bbc:	21ff      	movs	r1, #255	; 0xff
     bbe:	4628      	mov	r0, r5
     bc0:	f010 febc 	bl	1193c <_ZN4mbed3SPI5writeEi>
     bc4:	f8d7 127c 	ldr.w	r1, [r7, #636]	; 0x27c
     bc8:	f8d7 2278 	ldr.w	r2, [r7, #632]	; 0x278
     bcc:	4628      	mov	r0, r5
     bce:	6191      	str	r1, [r2, #24]
     bd0:	21ff      	movs	r1, #255	; 0xff
     bd2:	f010 feb3 	bl	1193c <_ZN4mbed3SPI5writeEi>
     bd6:	4620      	mov	r0, r4
     bd8:	bdf8      	pop	{r3, r4, r5, r6, r7, pc}
     bda:	f8d7 427c 	ldr.w	r4, [r7, #636]	; 0x27c
     bde:	f8d7 3278 	ldr.w	r3, [r7, #632]	; 0x278
     be2:	4628      	mov	r0, r5
     be4:	619c      	str	r4, [r3, #24]
     be6:	21ff      	movs	r1, #255	; 0xff
     be8:	f04f 34ff 	mov.w	r4, #4294967295
     bec:	f010 fea6 	bl	1193c <_ZN4mbed3SPI5writeEi>
     bf0:	4620      	mov	r0, r4
     bf2:	bdf8      	pop	{r3, r4, r5, r6, r7, pc}

00000bf4 <_ZN12SDFileSystem18initialise_card_v2Ev>:
     bf4:	b538      	push	{r3, r4, r5, lr}
     bf6:	4605      	mov	r5, r0
     bf8:	f241 3488 	movw	r4, #5000	; 0x1388
     bfc:	e00a      	b.n	c14 <_ZN12SDFileSystem18initialise_card_v2Ev+0x20>
     bfe:	4628      	mov	r0, r5
     c00:	f7ff fecc 	bl	99c <_ZN12SDFileSystem4_cmdEii>
     c04:	4628      	mov	r0, r5
     c06:	2129      	movs	r1, #41	; 0x29
     c08:	2200      	movs	r2, #0
     c0a:	f7ff fec7 	bl	99c <_ZN12SDFileSystem4_cmdEii>
     c0e:	b180      	cbz	r0, c32 <_ZN12SDFileSystem18initialise_card_v2Ev+0x3e>
     c10:	3c01      	subs	r4, #1
     c12:	d013      	beq.n	c3c <__ARM_grp_.debug_frame$35>
     c14:	2137      	movs	r1, #55	; 0x37
     c16:	2200      	movs	r2, #0
     c18:	4628      	mov	r0, r5
     c1a:	f7ff febf 	bl	99c <_ZN12SDFileSystem4_cmdEii>
     c1e:	2129      	movs	r1, #41	; 0x29
     c20:	2200      	movs	r2, #0
     c22:	4628      	mov	r0, r5
     c24:	f7ff feba 	bl	99c <_ZN12SDFileSystem4_cmdEii>
     c28:	3c01      	subs	r4, #1
     c2a:	2137      	movs	r1, #55	; 0x37
     c2c:	2200      	movs	r2, #0
     c2e:	2800      	cmp	r0, #0
     c30:	d1e5      	bne.n	bfe <_ZN12SDFileSystem18initialise_card_v2Ev+0xa>
     c32:	4628      	mov	r0, r5
     c34:	f7ff ff7e 	bl	b34 <_ZN12SDFileSystem6_cmd58Ev>
     c38:	2002      	movs	r0, #2
     c3a:	bd38      	pop	{r3, r4, r5, pc}
     c3c:	4904      	ldr	r1, [pc, #16]	; (c50 <__ARM_grp_.debug_frame$35+0x14>)
     c3e:	221e      	movs	r2, #30
     c40:	680b      	ldr	r3, [r1, #0]
     c42:	4804      	ldr	r0, [pc, #16]	; (c54 <__ARM_grp_.debug_frame$35+0x18>)
     c44:	2101      	movs	r1, #1
     c46:	68db      	ldr	r3, [r3, #12]
     c48:	f005 fa5e 	bl	6108 <fwrite>
     c4c:	4620      	mov	r0, r4
     c4e:	bd38      	pop	{r3, r4, r5, pc}
     c50:	100001ec 	.word	0x100001ec
     c54:	0000fc40 	.word	0x0000fc40

00000c58 <_ZN12SDFileSystem5_cmd8Ev>:
     c58:	b5f0      	push	{r4, r5, r6, r7, lr}
     c5a:	f8d0 3278 	ldr.w	r3, [r0, #632]	; 0x278
     c5e:	f8d0 227c 	ldr.w	r2, [r0, #636]	; 0x27c
     c62:	f500 7511 	add.w	r5, r0, #580	; 0x244
     c66:	b083      	sub	sp, #12
     c68:	61da      	str	r2, [r3, #28]
     c6a:	2148      	movs	r1, #72	; 0x48
     c6c:	4607      	mov	r7, r0
     c6e:	4628      	mov	r0, r5
     c70:	f010 fe64 	bl	1193c <_ZN4mbed3SPI5writeEi>
     c74:	2100      	movs	r1, #0
     c76:	4628      	mov	r0, r5
     c78:	f010 fe60 	bl	1193c <_ZN4mbed3SPI5writeEi>
     c7c:	2100      	movs	r1, #0
     c7e:	4628      	mov	r0, r5
     c80:	f010 fe5c 	bl	1193c <_ZN4mbed3SPI5writeEi>
     c84:	2101      	movs	r1, #1
     c86:	4628      	mov	r0, r5
     c88:	f010 fe58 	bl	1193c <_ZN4mbed3SPI5writeEi>
     c8c:	21aa      	movs	r1, #170	; 0xaa
     c8e:	4628      	mov	r0, r5
     c90:	f010 fe54 	bl	1193c <_ZN4mbed3SPI5writeEi>
     c94:	4628      	mov	r0, r5
     c96:	2187      	movs	r1, #135	; 0x87
     c98:	f010 fe50 	bl	1193c <_ZN4mbed3SPI5writeEi>
     c9c:	4e24      	ldr	r6, [pc, #144]	; (d30 <__ARM_grp_.debug_frame$44+0x4>)
     c9e:	2400      	movs	r4, #0
     ca0:	e00b      	b.n	cba <__ARM_grp_.debug_frame$38+0x2e>
     ca2:	f010 fe4b 	bl	1193c <_ZN4mbed3SPI5writeEi>
     ca6:	b2c0      	uxtb	r0, r0
     ca8:	3401      	adds	r4, #1
     caa:	f010 0f80 	tst.w	r0, #128	; 0x80
     cae:	f88d 0000 	strb.w	r0, [sp]
     cb2:	d00f      	beq.n	cd4 <__ARM_grp_.debug_frame$38+0x48>
     cb4:	3401      	adds	r4, #1
     cb6:	42b4      	cmp	r4, r6
     cb8:	d02d      	beq.n	d16 <__ARM_grp_.debug_frame$41+0x3a>
     cba:	21ff      	movs	r1, #255	; 0xff
     cbc:	4628      	mov	r0, r5
     cbe:	f010 fe3d 	bl	1193c <_ZN4mbed3SPI5writeEi>
     cc2:	fa5f fc80 	uxtb.w	ip, r0
     cc6:	21ff      	movs	r1, #255	; 0xff
     cc8:	f01c 0f80 	tst.w	ip, #128	; 0x80
     ccc:	4628      	mov	r0, r5
     cce:	f88d c000 	strb.w	ip, [sp]
     cd2:	d1e6      	bne.n	ca2 <__ARM_grp_.debug_frame$38+0x16>
     cd4:	21ff      	movs	r1, #255	; 0xff
     cd6:	4628      	mov	r0, r5
     cd8:	f010 fe30 	bl	1193c <_ZN4mbed3SPI5writeEi>
     cdc:	21ff      	movs	r1, #255	; 0xff
     cde:	4628      	mov	r0, r5
     ce0:	f010 fe2c 	bl	1193c <_ZN4mbed3SPI5writeEi>
     ce4:	21ff      	movs	r1, #255	; 0xff
     ce6:	4628      	mov	r0, r5
     ce8:	f010 fe28 	bl	1193c <_ZN4mbed3SPI5writeEi>
     cec:	21ff      	movs	r1, #255	; 0xff
     cee:	4628      	mov	r0, r5
     cf0:	f010 fe24 	bl	1193c <_ZN4mbed3SPI5writeEi>
     cf4:	f8d7 3278 	ldr.w	r3, [r7, #632]	; 0x278
     cf8:	f8d7 227c 	ldr.w	r2, [r7, #636]	; 0x27c
     cfc:	a902      	add	r1, sp, #8
     cfe:	190c      	adds	r4, r1, r4
     d00:	f804 0c08 	strb.w	r0, [r4, #-8]
     d04:	21ff      	movs	r1, #255	; 0xff
     d06:	619a      	str	r2, [r3, #24]
     d08:	4628      	mov	r0, r5
     d0a:	f010 fe17 	bl	1193c <_ZN4mbed3SPI5writeEi>
     d0e:	f89d 0000 	ldrb.w	r0, [sp]
     d12:	b003      	add	sp, #12
     d14:	bdf0      	pop	{r4, r5, r6, r7, pc}
     d16:	f8d7 3278 	ldr.w	r3, [r7, #632]	; 0x278
     d1a:	f8d7 227c 	ldr.w	r2, [r7, #636]	; 0x27c
     d1e:	4628      	mov	r0, r5
     d20:	619a      	str	r2, [r3, #24]
     d22:	21ff      	movs	r1, #255	; 0xff
     d24:	f010 fe0a 	bl	1193c <_ZN4mbed3SPI5writeEi>
     d28:	f04f 30ff 	mov.w	r0, #4294967295
     d2c:	e7f1      	b.n	d12 <__ARM_grp_.debug_frame$41+0x36>
     d2e:	bf00      	nop
     d30:	004c4b40 	.word	0x004c4b40

00000d34 <_ZN12SDFileSystem15initialise_cardEv>:
     d34:	b570      	push	{r4, r5, r6, lr}
     d36:	f500 7511 	add.w	r5, r0, #580	; 0x244
     d3a:	4604      	mov	r4, r0
     d3c:	493a      	ldr	r1, [pc, #232]	; (e28 <__ARM_grp_.debug_frame$i._ZN4mbed13BaseDirHandle7readdirEv+0x14>)
     d3e:	4628      	mov	r0, r5
     d40:	f010 fe28 	bl	11994 <_ZN4mbed3SPI9frequencyEi>
     d44:	f8d4 3278 	ldr.w	r3, [r4, #632]	; 0x278
     d48:	f8d4 227c 	ldr.w	r2, [r4, #636]	; 0x27c
     d4c:	21ff      	movs	r1, #255	; 0xff
     d4e:	619a      	str	r2, [r3, #24]
     d50:	4628      	mov	r0, r5
     d52:	f010 fdf3 	bl	1193c <_ZN4mbed3SPI5writeEi>
     d56:	21ff      	movs	r1, #255	; 0xff
     d58:	4628      	mov	r0, r5
     d5a:	f010 fdef 	bl	1193c <_ZN4mbed3SPI5writeEi>
     d5e:	21ff      	movs	r1, #255	; 0xff
     d60:	4628      	mov	r0, r5
     d62:	f010 fdeb 	bl	1193c <_ZN4mbed3SPI5writeEi>
     d66:	21ff      	movs	r1, #255	; 0xff
     d68:	4628      	mov	r0, r5
     d6a:	f010 fde7 	bl	1193c <_ZN4mbed3SPI5writeEi>
     d6e:	21ff      	movs	r1, #255	; 0xff
     d70:	4628      	mov	r0, r5
     d72:	f010 fde3 	bl	1193c <_ZN4mbed3SPI5writeEi>
     d76:	21ff      	movs	r1, #255	; 0xff
     d78:	4628      	mov	r0, r5
     d7a:	f010 fddf 	bl	1193c <_ZN4mbed3SPI5writeEi>
     d7e:	21ff      	movs	r1, #255	; 0xff
     d80:	4628      	mov	r0, r5
     d82:	f010 fddb 	bl	1193c <_ZN4mbed3SPI5writeEi>
     d86:	21ff      	movs	r1, #255	; 0xff
     d88:	4628      	mov	r0, r5
     d8a:	f010 fdd7 	bl	1193c <_ZN4mbed3SPI5writeEi>
     d8e:	21ff      	movs	r1, #255	; 0xff
     d90:	4628      	mov	r0, r5
     d92:	f010 fdd3 	bl	1193c <_ZN4mbed3SPI5writeEi>
     d96:	21ff      	movs	r1, #255	; 0xff
     d98:	4628      	mov	r0, r5
     d9a:	f010 fdcf 	bl	1193c <_ZN4mbed3SPI5writeEi>
     d9e:	21ff      	movs	r1, #255	; 0xff
     da0:	4628      	mov	r0, r5
     da2:	f010 fdcb 	bl	1193c <_ZN4mbed3SPI5writeEi>
     da6:	21ff      	movs	r1, #255	; 0xff
     da8:	4628      	mov	r0, r5
     daa:	f010 fdc7 	bl	1193c <_ZN4mbed3SPI5writeEi>
     dae:	21ff      	movs	r1, #255	; 0xff
     db0:	4628      	mov	r0, r5
     db2:	f010 fdc3 	bl	1193c <_ZN4mbed3SPI5writeEi>
     db6:	21ff      	movs	r1, #255	; 0xff
     db8:	4628      	mov	r0, r5
     dba:	f010 fdbf 	bl	1193c <_ZN4mbed3SPI5writeEi>
     dbe:	21ff      	movs	r1, #255	; 0xff
     dc0:	4628      	mov	r0, r5
     dc2:	f010 fdbb 	bl	1193c <_ZN4mbed3SPI5writeEi>
     dc6:	4628      	mov	r0, r5
     dc8:	21ff      	movs	r1, #255	; 0xff
     dca:	f010 fdb7 	bl	1193c <_ZN4mbed3SPI5writeEi>
     dce:	2100      	movs	r1, #0
     dd0:	4620      	mov	r0, r4
     dd2:	460a      	mov	r2, r1
     dd4:	f7ff fde2 	bl	99c <_ZN12SDFileSystem4_cmdEii>
     dd8:	2801      	cmp	r0, #1
     dda:	4605      	mov	r5, r0
     ddc:	d009      	beq.n	df2 <__ARM_grp_.debug_frame$i._ZN4mbed13BaseDirHandle8closedirEv+0x2a>
     dde:	4a13      	ldr	r2, [pc, #76]	; (e2c <__ARM_grp_.debug_frame$i._ZN4mbed13BaseDirHandle7readdirEv+0x18>)
     de0:	2101      	movs	r1, #1
     de2:	6810      	ldr	r0, [r2, #0]
     de4:	2237      	movs	r2, #55	; 0x37
     de6:	68c3      	ldr	r3, [r0, #12]
     de8:	4811      	ldr	r0, [pc, #68]	; (e30 <__ARM_grp_.debug_frame$i._ZN4mbed13BaseDirHandle7readdirEv+0x1c>)
     dea:	f005 f98d 	bl	6108 <fwrite>
     dee:	2000      	movs	r0, #0
     df0:	bd70      	pop	{r4, r5, r6, pc}
     df2:	4620      	mov	r0, r4
     df4:	f7ff ff30 	bl	c58 <_ZN12SDFileSystem5_cmd8Ev>
     df8:	2801      	cmp	r0, #1
     dfa:	d010      	beq.n	e1e <__ARM_grp_.debug_frame$i._ZN4mbed13BaseDirHandle7readdirEv+0xa>
     dfc:	2805      	cmp	r0, #5
     dfe:	d009      	beq.n	e14 <__ARM_grp_.debug_frame$i._ZN4mbed13BaseDirHandle7readdirEv>
     e00:	490a      	ldr	r1, [pc, #40]	; (e2c <__ARM_grp_.debug_frame$i._ZN4mbed13BaseDirHandle7readdirEv+0x18>)
     e02:	2237      	movs	r2, #55	; 0x37
     e04:	680b      	ldr	r3, [r1, #0]
     e06:	480b      	ldr	r0, [pc, #44]	; (e34 <__ARM_grp_.debug_frame$i._ZN4mbed13BaseDirHandle7readdirEv+0x20>)
     e08:	4629      	mov	r1, r5
     e0a:	68db      	ldr	r3, [r3, #12]
     e0c:	f005 f97c 	bl	6108 <fwrite>
     e10:	2000      	movs	r0, #0
     e12:	bd70      	pop	{r4, r5, r6, pc}
     e14:	4620      	mov	r0, r4
     e16:	e8bd 4070 	ldmia.w	sp!, {r4, r5, r6, lr}
     e1a:	f7ff be11 	b.w	a40 <_ZN12SDFileSystem18initialise_card_v1Ev>
     e1e:	4620      	mov	r0, r4
     e20:	e8bd 4070 	ldmia.w	sp!, {r4, r5, r6, lr}
     e24:	f7ff bee6 	b.w	bf4 <_ZN12SDFileSystem18initialise_card_v2Ev>
     e28:	000186a0 	.word	0x000186a0
     e2c:	100001ec 	.word	0x100001ec
     e30:	0000fc60 	.word	0x0000fc60
     e34:	0000fc98 	.word	0x0000fc98

00000e38 <_ZN12SDFileSystem5_readEPci>:
     e38:	e92d 43f8 	stmdb	sp!, {r3, r4, r5, r6, r7, r8, r9, lr}
     e3c:	4605      	mov	r5, r0
     e3e:	f8d0 3278 	ldr.w	r3, [r0, #632]	; 0x278
     e42:	f8d0 027c 	ldr.w	r0, [r0, #636]	; 0x27c
     e46:	460c      	mov	r4, r1
     e48:	4690      	mov	r8, r2
     e4a:	61d8      	str	r0, [r3, #28]
     e4c:	f505 7611 	add.w	r6, r5, #580	; 0x244
     e50:	21ff      	movs	r1, #255	; 0xff
     e52:	4630      	mov	r0, r6
     e54:	f010 fd72 	bl	1193c <_ZN4mbed3SPI5writeEi>
     e58:	28fe      	cmp	r0, #254	; 0xfe
     e5a:	d1f9      	bne.n	e50 <_ZN12SDFileSystem5_readEPci+0x18>
     e5c:	f1b8 0f00 	cmp.w	r8, #0
     e60:	dd24      	ble.n	eac <__ARM_grp_.debug_frame$i._ZN4mbed13BaseDirHandle7seekdirEl+0x4>
     e62:	21ff      	movs	r1, #255	; 0xff
     e64:	4630      	mov	r0, r6
     e66:	f010 fd69 	bl	1193c <_ZN4mbed3SPI5writeEi>
     e6a:	2701      	movs	r7, #1
     e6c:	f108 39ff 	add.w	r9, r8, #4294967295
     e70:	4547      	cmp	r7, r8
     e72:	f009 0901 	and.w	r9, r9, #1
     e76:	7020      	strb	r0, [r4, #0]
     e78:	d018      	beq.n	eac <__ARM_grp_.debug_frame$i._ZN4mbed13BaseDirHandle7seekdirEl+0x4>
     e7a:	f1b9 0f00 	cmp.w	r9, #0
     e7e:	d007      	beq.n	e90 <__ARM_grp_.debug_frame$i._ZN4mbed13BaseDirHandle7telldirEv+0x2c>
     e80:	21ff      	movs	r1, #255	; 0xff
     e82:	4630      	mov	r0, r6
     e84:	f010 fd5a 	bl	1193c <_ZN4mbed3SPI5writeEi>
     e88:	2702      	movs	r7, #2
     e8a:	4547      	cmp	r7, r8
     e8c:	7060      	strb	r0, [r4, #1]
     e8e:	d00d      	beq.n	eac <__ARM_grp_.debug_frame$i._ZN4mbed13BaseDirHandle7seekdirEl+0x4>
     e90:	21ff      	movs	r1, #255	; 0xff
     e92:	4630      	mov	r0, r6
     e94:	f010 fd52 	bl	1193c <_ZN4mbed3SPI5writeEi>
     e98:	21ff      	movs	r1, #255	; 0xff
     e9a:	55e0      	strb	r0, [r4, r7]
     e9c:	4630      	mov	r0, r6
     e9e:	f010 fd4d 	bl	1193c <_ZN4mbed3SPI5writeEi>
     ea2:	1c79      	adds	r1, r7, #1
     ea4:	3702      	adds	r7, #2
     ea6:	4547      	cmp	r7, r8
     ea8:	5460      	strb	r0, [r4, r1]
     eaa:	d1f1      	bne.n	e90 <__ARM_grp_.debug_frame$i._ZN4mbed13BaseDirHandle7telldirEv+0x2c>
     eac:	21ff      	movs	r1, #255	; 0xff
     eae:	4630      	mov	r0, r6
     eb0:	f010 fd44 	bl	1193c <_ZN4mbed3SPI5writeEi>
     eb4:	21ff      	movs	r1, #255	; 0xff
     eb6:	4630      	mov	r0, r6
     eb8:	f010 fd40 	bl	1193c <_ZN4mbed3SPI5writeEi>
     ebc:	f8d5 3278 	ldr.w	r3, [r5, #632]	; 0x278
     ec0:	f8d5 227c 	ldr.w	r2, [r5, #636]	; 0x27c
     ec4:	4630      	mov	r0, r6
     ec6:	619a      	str	r2, [r3, #24]
     ec8:	21ff      	movs	r1, #255	; 0xff
     eca:	f010 fd37 	bl	1193c <_ZN4mbed3SPI5writeEi>
     ece:	2000      	movs	r0, #0
     ed0:	e8bd 83f8 	ldmia.w	sp!, {r3, r4, r5, r6, r7, r8, r9, pc}

00000ed4 <_ZN12SDFileSystem9disk_readEPci>:
     ed4:	b570      	push	{r4, r5, r6, lr}
     ed6:	0252      	lsls	r2, r2, #9
     ed8:	460d      	mov	r5, r1
     eda:	2111      	movs	r1, #17
     edc:	4606      	mov	r6, r0
     ede:	f7ff fd5d 	bl	99c <_ZN12SDFileSystem4_cmdEii>
     ee2:	4604      	mov	r4, r0
     ee4:	b108      	cbz	r0, eea <_ZN12SDFileSystem9disk_readEPci+0x16>
     ee6:	2001      	movs	r0, #1
     ee8:	bd70      	pop	{r4, r5, r6, pc}
     eea:	4630      	mov	r0, r6
     eec:	4629      	mov	r1, r5
     eee:	f44f 7200 	mov.w	r2, #512	; 0x200
     ef2:	f7ff ffa1 	bl	e38 <_ZN12SDFileSystem5_readEPci>
     ef6:	4620      	mov	r0, r4
     ef8:	bd70      	pop	{r4, r5, r6, pc}
     efa:	bf00      	nop

00000efc <_ZN12SDFileSystem6_writeEPKci>:
     efc:	e92d 43f8 	stmdb	sp!, {r3, r4, r5, r6, r7, r8, r9, lr}
     f00:	f8d0 3278 	ldr.w	r3, [r0, #632]	; 0x278
     f04:	4606      	mov	r6, r0
     f06:	f8d0 027c 	ldr.w	r0, [r0, #636]	; 0x27c
     f0a:	f506 7411 	add.w	r4, r6, #580	; 0x244
     f0e:	4691      	mov	r9, r2
     f10:	61d8      	str	r0, [r3, #28]
     f12:	460d      	mov	r5, r1
     f14:	4620      	mov	r0, r4
     f16:	21fe      	movs	r1, #254	; 0xfe
     f18:	f010 fd10 	bl	1193c <_ZN4mbed3SPI5writeEi>
     f1c:	f1b9 0f00 	cmp.w	r9, #0
     f20:	dd22      	ble.n	f68 <__ARM_grp_.debug_frame$5+0x38>
     f22:	2701      	movs	r7, #1
     f24:	4620      	mov	r0, r4
     f26:	7829      	ldrb	r1, [r5, #0]
     f28:	f109 38ff 	add.w	r8, r9, #4294967295
     f2c:	f010 fd06 	bl	1193c <_ZN4mbed3SPI5writeEi>
     f30:	454f      	cmp	r7, r9
     f32:	ea08 0807 	and.w	r8, r8, r7
     f36:	d017      	beq.n	f68 <__ARM_grp_.debug_frame$5+0x38>
     f38:	f1b8 0f00 	cmp.w	r8, #0
     f3c:	d006      	beq.n	f4c <__ARM_grp_.debug_frame$5+0x1c>
     f3e:	4620      	mov	r0, r4
     f40:	7869      	ldrb	r1, [r5, #1]
     f42:	2702      	movs	r7, #2
     f44:	f010 fcfa 	bl	1193c <_ZN4mbed3SPI5writeEi>
     f48:	454f      	cmp	r7, r9
     f4a:	d00d      	beq.n	f68 <__ARM_grp_.debug_frame$5+0x38>
     f4c:	5de9      	ldrb	r1, [r5, r7]
     f4e:	f107 0801 	add.w	r8, r7, #1
     f52:	4620      	mov	r0, r4
     f54:	f010 fcf2 	bl	1193c <_ZN4mbed3SPI5writeEi>
     f58:	3702      	adds	r7, #2
     f5a:	4620      	mov	r0, r4
     f5c:	f815 1008 	ldrb.w	r1, [r5, r8]
     f60:	f010 fcec 	bl	1193c <_ZN4mbed3SPI5writeEi>
     f64:	454f      	cmp	r7, r9
     f66:	d1f1      	bne.n	f4c <__ARM_grp_.debug_frame$5+0x1c>
     f68:	21ff      	movs	r1, #255	; 0xff
     f6a:	4620      	mov	r0, r4
     f6c:	f010 fce6 	bl	1193c <_ZN4mbed3SPI5writeEi>
     f70:	21ff      	movs	r1, #255	; 0xff
     f72:	4620      	mov	r0, r4
     f74:	f010 fce2 	bl	1193c <_ZN4mbed3SPI5writeEi>
     f78:	21ff      	movs	r1, #255	; 0xff
     f7a:	4620      	mov	r0, r4
     f7c:	f010 fcde 	bl	1193c <_ZN4mbed3SPI5writeEi>
     f80:	f000 011f 	and.w	r1, r0, #31
     f84:	2905      	cmp	r1, #5
     f86:	d111      	bne.n	fac <__ARM_grp_.debug_frame$8+0x28>
     f88:	4620      	mov	r0, r4
     f8a:	21ff      	movs	r1, #255	; 0xff
     f8c:	f010 fcd6 	bl	1193c <_ZN4mbed3SPI5writeEi>
     f90:	2800      	cmp	r0, #0
     f92:	d0f9      	beq.n	f88 <__ARM_grp_.debug_frame$8+0x4>
     f94:	f8d6 127c 	ldr.w	r1, [r6, #636]	; 0x27c
     f98:	f8d6 2278 	ldr.w	r2, [r6, #632]	; 0x278
     f9c:	4620      	mov	r0, r4
     f9e:	6191      	str	r1, [r2, #24]
     fa0:	21ff      	movs	r1, #255	; 0xff
     fa2:	f010 fccb 	bl	1193c <_ZN4mbed3SPI5writeEi>
     fa6:	2000      	movs	r0, #0
     fa8:	e8bd 83f8 	ldmia.w	sp!, {r3, r4, r5, r6, r7, r8, r9, pc}
     fac:	f8d6 3278 	ldr.w	r3, [r6, #632]	; 0x278
     fb0:	f8d6 227c 	ldr.w	r2, [r6, #636]	; 0x27c
     fb4:	4620      	mov	r0, r4
     fb6:	619a      	str	r2, [r3, #24]
     fb8:	21ff      	movs	r1, #255	; 0xff
     fba:	f010 fcbf 	bl	1193c <_ZN4mbed3SPI5writeEi>
     fbe:	2001      	movs	r0, #1
     fc0:	e8bd 83f8 	ldmia.w	sp!, {r3, r4, r5, r6, r7, r8, r9, pc}

00000fc4 <_ZN12SDFileSystem10disk_writeEPKci>:
     fc4:	b570      	push	{r4, r5, r6, lr}
     fc6:	0252      	lsls	r2, r2, #9
     fc8:	460d      	mov	r5, r1
     fca:	2118      	movs	r1, #24
     fcc:	4606      	mov	r6, r0
     fce:	f7ff fce5 	bl	99c <_ZN12SDFileSystem4_cmdEii>
     fd2:	4604      	mov	r4, r0
     fd4:	b108      	cbz	r0, fda <__ARM_grp_.debug_frame$11+0x12>
     fd6:	2001      	movs	r0, #1
     fd8:	bd70      	pop	{r4, r5, r6, pc}
     fda:	4630      	mov	r0, r6
     fdc:	4629      	mov	r1, r5
     fde:	f44f 7200 	mov.w	r2, #512	; 0x200
     fe2:	f7ff ff8b 	bl	efc <_ZN12SDFileSystem6_writeEPKci>
     fe6:	4620      	mov	r0, r4
     fe8:	bd70      	pop	{r4, r5, r6, pc}
     fea:	bf00      	nop

00000fec <_ZN12SDFileSystem11_sd_sectorsEv>:
     fec:	e92d 41f0 	stmdb	sp!, {r4, r5, r6, r7, r8, lr}
     ff0:	2109      	movs	r1, #9
     ff2:	b084      	sub	sp, #16
     ff4:	2200      	movs	r2, #0
     ff6:	4605      	mov	r5, r0
     ff8:	f7ff fd52 	bl	aa0 <_ZN12SDFileSystem5_cmdxEii>
     ffc:	4604      	mov	r4, r0
     ffe:	2800      	cmp	r0, #0
    1000:	d133      	bne.n	106a <__ARM_grp_.debug_frame$14+0x4e>
    1002:	4628      	mov	r0, r5
    1004:	4669      	mov	r1, sp
    1006:	2210      	movs	r2, #16
    1008:	f7ff ff16 	bl	e38 <_ZN12SDFileSystem5_readEPci>
    100c:	4605      	mov	r5, r0
    100e:	2800      	cmp	r0, #0
    1010:	d135      	bne.n	107e <__ARM_grp_.debug_frame$17+0x12>
    1012:	217f      	movs	r1, #127	; 0x7f
    1014:	227e      	movs	r2, #126	; 0x7e
    1016:	4668      	mov	r0, sp
    1018:	f7ff fc4e 	bl	8b8 <_ZL8ext_bitsPcii>
    101c:	2149      	movs	r1, #73	; 0x49
    101e:	4606      	mov	r6, r0
    1020:	223e      	movs	r2, #62	; 0x3e
    1022:	4668      	mov	r0, sp
    1024:	f7ff fc48 	bl	8b8 <_ZL8ext_bitsPcii>
    1028:	2131      	movs	r1, #49	; 0x31
    102a:	222f      	movs	r2, #47	; 0x2f
    102c:	4607      	mov	r7, r0
    102e:	4668      	mov	r0, sp
    1030:	f7ff fc42 	bl	8b8 <_ZL8ext_bitsPcii>
    1034:	2153      	movs	r1, #83	; 0x53
    1036:	4680      	mov	r8, r0
    1038:	2250      	movs	r2, #80	; 0x50
    103a:	4668      	mov	r0, sp
    103c:	f7ff fc3c 	bl	8b8 <_ZL8ext_bitsPcii>
    1040:	2e00      	cmp	r6, #0
    1042:	d126      	bne.n	1092 <__ARM_grp_.debug_frame$17+0x26>
    1044:	2201      	movs	r2, #1
    1046:	fa12 f300 	lsls.w	r3, r2, r0
    104a:	f108 0102 	add.w	r1, r8, #2
    104e:	408a      	lsls	r2, r1
    1050:	fb07 3c03 	mla	ip, r7, r3, r3
    1054:	fb02 f00c 	mul.w	r0, r2, ip
    1058:	2800      	cmp	r0, #0
    105a:	bfbc      	itt	lt
    105c:	f500 70fe 	addlt.w	r0, r0, #508	; 0x1fc
    1060:	3003      	addlt	r0, #3
    1062:	1240      	asrs	r0, r0, #9
    1064:	b004      	add	sp, #16
    1066:	e8bd 81f0 	ldmia.w	sp!, {r4, r5, r6, r7, r8, pc}
    106a:	490f      	ldr	r1, [pc, #60]	; (10a8 <__ARM_grp_.debug_frame$17+0x3c>)
    106c:	480f      	ldr	r0, [pc, #60]	; (10ac <__ARM_grp_.debug_frame$17+0x40>)
    106e:	680b      	ldr	r3, [r1, #0]
    1070:	2224      	movs	r2, #36	; 0x24
    1072:	2101      	movs	r1, #1
    1074:	68db      	ldr	r3, [r3, #12]
    1076:	f005 f847 	bl	6108 <fwrite>
    107a:	2000      	movs	r0, #0
    107c:	e7f2      	b.n	1064 <__ARM_grp_.debug_frame$14+0x48>
    107e:	4a0a      	ldr	r2, [pc, #40]	; (10a8 <__ARM_grp_.debug_frame$17+0x3c>)
    1080:	480b      	ldr	r0, [pc, #44]	; (10b0 <__ARM_grp_.debug_frame$20>)
    1082:	6813      	ldr	r3, [r2, #0]
    1084:	2101      	movs	r1, #1
    1086:	2225      	movs	r2, #37	; 0x25
    1088:	68db      	ldr	r3, [r3, #12]
    108a:	f005 f83d 	bl	6108 <fwrite>
    108e:	4620      	mov	r0, r4
    1090:	e7e8      	b.n	1064 <__ARM_grp_.debug_frame$14+0x48>
    1092:	4905      	ldr	r1, [pc, #20]	; (10a8 <__ARM_grp_.debug_frame$17+0x3c>)
    1094:	4807      	ldr	r0, [pc, #28]	; (10b4 <__ARM_grp_.debug_frame$20+0x4>)
    1096:	680b      	ldr	r3, [r1, #0]
    1098:	2240      	movs	r2, #64	; 0x40
    109a:	2101      	movs	r1, #1
    109c:	68db      	ldr	r3, [r3, #12]
    109e:	f005 f833 	bl	6108 <fwrite>
    10a2:	4628      	mov	r0, r5
    10a4:	e7de      	b.n	1064 <__ARM_grp_.debug_frame$14+0x48>
    10a6:	bf00      	nop
    10a8:	100001ec 	.word	0x100001ec
    10ac:	0000fcd0 	.word	0x0000fcd0
    10b0:	0000fcf8 	.word	0x0000fcf8
    10b4:	0000fd20 	.word	0x0000fd20

000010b8 <_ZN12SDFileSystem15disk_initializeEv>:
    10b8:	b538      	push	{r3, r4, r5, lr}
    10ba:	4604      	mov	r4, r0
    10bc:	f7ff fe3a 	bl	d34 <_ZN12SDFileSystem15initialise_cardEv>
    10c0:	4620      	mov	r0, r4
    10c2:	f7ff ff93 	bl	fec <_ZN12SDFileSystem11_sd_sectorsEv>
    10c6:	2110      	movs	r1, #16
    10c8:	f8c4 0240 	str.w	r0, [r4, #576]	; 0x240
    10cc:	f44f 7200 	mov.w	r2, #512	; 0x200
    10d0:	4620      	mov	r0, r4
    10d2:	f7ff fc63 	bl	99c <_ZN12SDFileSystem4_cmdEii>
    10d6:	4605      	mov	r5, r0
    10d8:	b930      	cbnz	r0, 10e8 <_ZN12SDFileSystem15disk_initializeEv+0x30>
    10da:	f504 7011 	add.w	r0, r4, #580	; 0x244
    10de:	4907      	ldr	r1, [pc, #28]	; (10fc <__ARM_grp_.debug_frame$23>)
    10e0:	f010 fc58 	bl	11994 <_ZN4mbed3SPI9frequencyEi>
    10e4:	4628      	mov	r0, r5
    10e6:	bd38      	pop	{r3, r4, r5, pc}
    10e8:	4905      	ldr	r1, [pc, #20]	; (1100 <__ARM_grp_.debug_frame$23+0x4>)
    10ea:	4806      	ldr	r0, [pc, #24]	; (1104 <__ARM_grp_.debug_frame$23+0x8>)
    10ec:	680b      	ldr	r3, [r1, #0]
    10ee:	221d      	movs	r2, #29
    10f0:	2101      	movs	r1, #1
    10f2:	68db      	ldr	r3, [r3, #12]
    10f4:	f005 f808 	bl	6108 <fwrite>
    10f8:	2001      	movs	r0, #1
    10fa:	bd38      	pop	{r3, r4, r5, pc}
    10fc:	000f4240 	.word	0x000f4240
    1100:	100001ec 	.word	0x100001ec
    1104:	0000fd64 	.word	0x0000fd64

00001108 <DebugDumpStack>:
    1108:	e92d 4ff0 	stmdb	sp!, {r4, r5, r6, r7, r8, r9, sl, fp, lr}
    110c:	2000      	movs	r0, #0
    110e:	b087      	sub	sp, #28
    1110:	4b79      	ldr	r3, [pc, #484]	; (12f8 <__ARM_grp_.debug_frame$44+0x14>)
    1112:	6805      	ldr	r5, [r0, #0]
    1114:	4798      	blx	r3
    1116:	f010 0403 	ands.w	r4, r0, #3
    111a:	4606      	mov	r6, r0
    111c:	f040 80e1 	bne.w	12e2 <__ARM_grp_.debug_frame$41+0x42>
    1120:	ebc0 0b05 	rsb	fp, r0, r5
    1124:	ea5f 0b9b 	movs.w	fp, fp, lsr #2
    1128:	f000 80a6 	beq.w	1278 <__ARM_grp_.debug_frame$38+0x1c>
    112c:	f10b 38ff 	add.w	r8, fp, #4294967295
    1130:	f008 0703 	and.w	r7, r8, #3
    1134:	4d71      	ldr	r5, [pc, #452]	; (12fc <__ARM_grp_.debug_frame$44+0x18>)
    1136:	4601      	mov	r1, r0
    1138:	9700      	str	r7, [sp, #0]
    113a:	4871      	ldr	r0, [pc, #452]	; (1300 <__ARM_grp_.debug_frame$44+0x1c>)
    113c:	47a8      	blx	r5
    113e:	f8df a1e8 	ldr.w	sl, [pc, #488]	; 1328 <__ARM_grp_.debug_frame$44+0x44>
    1142:	2120      	movs	r1, #32
    1144:	2208      	movs	r2, #8
    1146:	a803      	add	r0, sp, #12
    1148:	47d0      	blx	sl
    114a:	f88d 4014 	strb.w	r4, [sp, #20]
    114e:	486d      	ldr	r0, [pc, #436]	; (1304 <__ARM_grp_.debug_frame$44+0x20>)
    1150:	f856 1b04 	ldr.w	r1, [r6], #4
    1154:	2701      	movs	r7, #1
    1156:	2404      	movs	r4, #4
    1158:	47a8      	blx	r5
    115a:	455f      	cmp	r7, fp
    115c:	46a8      	mov	r8, r5
    115e:	46a1      	mov	r9, r4
    1160:	9b00      	ldr	r3, [sp, #0]
    1162:	f000 8083 	beq.w	126c <__ARM_grp_.debug_frame$38+0x10>
    1166:	2b00      	cmp	r3, #0
    1168:	d033      	beq.n	11d2 <__ARM_grp_.debug_frame$29+0x4e>
    116a:	2b01      	cmp	r3, #1
    116c:	d020      	beq.n	11b0 <__ARM_grp_.debug_frame$29+0x2c>
    116e:	2b02      	cmp	r3, #2
    1170:	d00e      	beq.n	1190 <__ARM_grp_.debug_frame$29+0xc>
    1172:	2c00      	cmp	r4, #0
    1174:	f000 80ab 	beq.w	12ce <__ARM_grp_.debug_frame$41+0x2e>
    1178:	4862      	ldr	r0, [pc, #392]	; (1304 <__ARM_grp_.debug_frame$44+0x20>)
    117a:	f856 1b04 	ldr.w	r1, [r6], #4
    117e:	3404      	adds	r4, #4
    1180:	47a8      	blx	r5
    1182:	f014 090f 	ands.w	r9, r4, #15
    1186:	d102      	bne.n	118e <__ARM_grp_.debug_frame$29+0xa>
    1188:	485f      	ldr	r0, [pc, #380]	; (1308 <__ARM_grp_.debug_frame$44+0x24>)
    118a:	4960      	ldr	r1, [pc, #384]	; (130c <__ARM_grp_.debug_frame$44+0x28>)
    118c:	47c0      	blx	r8
    118e:	3701      	adds	r7, #1
    1190:	f1b9 0f00 	cmp.w	r9, #0
    1194:	f000 8091 	beq.w	12ba <__ARM_grp_.debug_frame$41+0x1a>
    1198:	485a      	ldr	r0, [pc, #360]	; (1304 <__ARM_grp_.debug_frame$44+0x20>)
    119a:	f856 1b04 	ldr.w	r1, [r6], #4
    119e:	3404      	adds	r4, #4
    11a0:	47a8      	blx	r5
    11a2:	f014 090f 	ands.w	r9, r4, #15
    11a6:	d102      	bne.n	11ae <__ARM_grp_.debug_frame$29+0x2a>
    11a8:	4857      	ldr	r0, [pc, #348]	; (1308 <__ARM_grp_.debug_frame$44+0x24>)
    11aa:	4958      	ldr	r1, [pc, #352]	; (130c <__ARM_grp_.debug_frame$44+0x28>)
    11ac:	47c0      	blx	r8
    11ae:	3701      	adds	r7, #1
    11b0:	f1b9 0f00 	cmp.w	r9, #0
    11b4:	d077      	beq.n	12a6 <__ARM_grp_.debug_frame$41+0x6>
    11b6:	4853      	ldr	r0, [pc, #332]	; (1304 <__ARM_grp_.debug_frame$44+0x20>)
    11b8:	f856 1b04 	ldr.w	r1, [r6], #4
    11bc:	3404      	adds	r4, #4
    11be:	47a8      	blx	r5
    11c0:	f014 090f 	ands.w	r9, r4, #15
    11c4:	d102      	bne.n	11cc <__ARM_grp_.debug_frame$29+0x48>
    11c6:	4850      	ldr	r0, [pc, #320]	; (1308 <__ARM_grp_.debug_frame$44+0x24>)
    11c8:	4950      	ldr	r1, [pc, #320]	; (130c <__ARM_grp_.debug_frame$44+0x28>)
    11ca:	47c0      	blx	r8
    11cc:	3701      	adds	r7, #1
    11ce:	455f      	cmp	r7, fp
    11d0:	d04c      	beq.n	126c <__ARM_grp_.debug_frame$38+0x10>
    11d2:	f1b9 0f00 	cmp.w	r9, #0
    11d6:	d05c      	beq.n	1292 <__ARM_grp_.debug_frame$38+0x36>
    11d8:	484a      	ldr	r0, [pc, #296]	; (1304 <__ARM_grp_.debug_frame$44+0x20>)
    11da:	f856 1b04 	ldr.w	r1, [r6], #4
    11de:	3404      	adds	r4, #4
    11e0:	47a8      	blx	r5
    11e2:	f014 090f 	ands.w	r9, r4, #15
    11e6:	d102      	bne.n	11ee <__ARM_grp_.debug_frame$32+0x1a>
    11e8:	4847      	ldr	r0, [pc, #284]	; (1308 <__ARM_grp_.debug_frame$44+0x24>)
    11ea:	4948      	ldr	r1, [pc, #288]	; (130c <__ARM_grp_.debug_frame$44+0x28>)
    11ec:	47c0      	blx	r8
    11ee:	1c7b      	adds	r3, r7, #1
    11f0:	9301      	str	r3, [sp, #4]
    11f2:	f1b9 0f00 	cmp.w	r9, #0
    11f6:	d042      	beq.n	127e <__ARM_grp_.debug_frame$38+0x22>
    11f8:	46b1      	mov	r9, r6
    11fa:	4842      	ldr	r0, [pc, #264]	; (1304 <__ARM_grp_.debug_frame$44+0x20>)
    11fc:	f859 1b04 	ldr.w	r1, [r9], #4
    1200:	47a8      	blx	r5
    1202:	1d20      	adds	r0, r4, #4
    1204:	f010 070f 	ands.w	r7, r0, #15
    1208:	d10b      	bne.n	1222 <__ARM_grp_.debug_frame$35+0xa>
    120a:	4940      	ldr	r1, [pc, #256]	; (130c <__ARM_grp_.debug_frame$44+0x28>)
    120c:	483e      	ldr	r0, [pc, #248]	; (1308 <__ARM_grp_.debug_frame$44+0x24>)
    120e:	47c0      	blx	r8
    1210:	4649      	mov	r1, r9
    1212:	483b      	ldr	r0, [pc, #236]	; (1300 <__ARM_grp_.debug_frame$44+0x1c>)
    1214:	47a8      	blx	r5
    1216:	a803      	add	r0, sp, #12
    1218:	2120      	movs	r1, #32
    121a:	2208      	movs	r2, #8
    121c:	47d0      	blx	sl
    121e:	f88d 7014 	strb.w	r7, [sp, #20]
    1222:	4838      	ldr	r0, [pc, #224]	; (1304 <__ARM_grp_.debug_frame$44+0x20>)
    1224:	6871      	ldr	r1, [r6, #4]
    1226:	47a8      	blx	r5
    1228:	f104 0c08 	add.w	ip, r4, #8
    122c:	f01c 070f 	ands.w	r7, ip, #15
    1230:	f106 0908 	add.w	r9, r6, #8
    1234:	d10b      	bne.n	124e <__ARM_grp_.debug_frame$35+0x36>
    1236:	4935      	ldr	r1, [pc, #212]	; (130c <__ARM_grp_.debug_frame$44+0x28>)
    1238:	4833      	ldr	r0, [pc, #204]	; (1308 <__ARM_grp_.debug_frame$44+0x24>)
    123a:	47c0      	blx	r8
    123c:	4649      	mov	r1, r9
    123e:	4830      	ldr	r0, [pc, #192]	; (1300 <__ARM_grp_.debug_frame$44+0x1c>)
    1240:	47a8      	blx	r5
    1242:	a803      	add	r0, sp, #12
    1244:	2120      	movs	r1, #32
    1246:	2208      	movs	r2, #8
    1248:	47d0      	blx	sl
    124a:	f88d 7014 	strb.w	r7, [sp, #20]
    124e:	68b1      	ldr	r1, [r6, #8]
    1250:	482c      	ldr	r0, [pc, #176]	; (1304 <__ARM_grp_.debug_frame$44+0x20>)
    1252:	340c      	adds	r4, #12
    1254:	47a8      	blx	r5
    1256:	360c      	adds	r6, #12
    1258:	f014 090f 	ands.w	r9, r4, #15
    125c:	d102      	bne.n	1264 <__ARM_grp_.debug_frame$38+0x8>
    125e:	482a      	ldr	r0, [pc, #168]	; (1308 <__ARM_grp_.debug_frame$44+0x24>)
    1260:	492a      	ldr	r1, [pc, #168]	; (130c <__ARM_grp_.debug_frame$44+0x28>)
    1262:	47c0      	blx	r8
    1264:	9a01      	ldr	r2, [sp, #4]
    1266:	1cd7      	adds	r7, r2, #3
    1268:	455f      	cmp	r7, fp
    126a:	d1b2      	bne.n	11d2 <__ARM_grp_.debug_frame$29+0x4e>
    126c:	f1b9 0f00 	cmp.w	r9, #0
    1270:	d002      	beq.n	1278 <__ARM_grp_.debug_frame$38+0x1c>
    1272:	4827      	ldr	r0, [pc, #156]	; (1310 <__ARM_grp_.debug_frame$44+0x2c>)
    1274:	4927      	ldr	r1, [pc, #156]	; (1314 <__ARM_grp_.debug_frame$44+0x30>)
    1276:	4788      	blx	r1
    1278:	b007      	add	sp, #28
    127a:	e8bd 8ff0 	ldmia.w	sp!, {r4, r5, r6, r7, r8, r9, sl, fp, pc}
    127e:	4631      	mov	r1, r6
    1280:	481f      	ldr	r0, [pc, #124]	; (1300 <__ARM_grp_.debug_frame$44+0x1c>)
    1282:	47a8      	blx	r5
    1284:	a803      	add	r0, sp, #12
    1286:	2120      	movs	r1, #32
    1288:	2208      	movs	r2, #8
    128a:	47d0      	blx	sl
    128c:	f88d 9014 	strb.w	r9, [sp, #20]
    1290:	e7b2      	b.n	11f8 <__ARM_grp_.debug_frame$32+0x24>
    1292:	4631      	mov	r1, r6
    1294:	481a      	ldr	r0, [pc, #104]	; (1300 <__ARM_grp_.debug_frame$44+0x1c>)
    1296:	47a8      	blx	r5
    1298:	a803      	add	r0, sp, #12
    129a:	2120      	movs	r1, #32
    129c:	2208      	movs	r2, #8
    129e:	47d0      	blx	sl
    12a0:	f88d 9014 	strb.w	r9, [sp, #20]
    12a4:	e798      	b.n	11d8 <__ARM_grp_.debug_frame$32+0x4>
    12a6:	4631      	mov	r1, r6
    12a8:	4815      	ldr	r0, [pc, #84]	; (1300 <__ARM_grp_.debug_frame$44+0x1c>)
    12aa:	47a8      	blx	r5
    12ac:	a803      	add	r0, sp, #12
    12ae:	2120      	movs	r1, #32
    12b0:	2208      	movs	r2, #8
    12b2:	47d0      	blx	sl
    12b4:	f88d 9014 	strb.w	r9, [sp, #20]
    12b8:	e77d      	b.n	11b6 <__ARM_grp_.debug_frame$29+0x32>
    12ba:	4631      	mov	r1, r6
    12bc:	4810      	ldr	r0, [pc, #64]	; (1300 <__ARM_grp_.debug_frame$44+0x1c>)
    12be:	47a8      	blx	r5
    12c0:	a803      	add	r0, sp, #12
    12c2:	2120      	movs	r1, #32
    12c4:	2208      	movs	r2, #8
    12c6:	47d0      	blx	sl
    12c8:	f88d 9014 	strb.w	r9, [sp, #20]
    12cc:	e764      	b.n	1198 <__ARM_grp_.debug_frame$29+0x14>
    12ce:	4631      	mov	r1, r6
    12d0:	480b      	ldr	r0, [pc, #44]	; (1300 <__ARM_grp_.debug_frame$44+0x1c>)
    12d2:	47a8      	blx	r5
    12d4:	a803      	add	r0, sp, #12
    12d6:	2120      	movs	r1, #32
    12d8:	2208      	movs	r2, #8
    12da:	47d0      	blx	sl
    12dc:	f88d 4014 	strb.w	r4, [sp, #20]
    12e0:	e74a      	b.n	1178 <__ARM_grp_.debug_frame$26+0x38>
    12e2:	4a0d      	ldr	r2, [pc, #52]	; (1318 <__ARM_grp_.debug_frame$44+0x34>)
    12e4:	490d      	ldr	r1, [pc, #52]	; (131c <__ARM_grp_.debug_frame$44+0x38>)
    12e6:	6815      	ldr	r5, [r2, #0]
    12e8:	2304      	movs	r3, #4
    12ea:	4602      	mov	r2, r0
    12ec:	4c0c      	ldr	r4, [pc, #48]	; (1320 <__ARM_grp_.debug_frame$44+0x3c>)
    12ee:	68e8      	ldr	r0, [r5, #12]
    12f0:	47a0      	blx	r4
    12f2:	2001      	movs	r0, #1
    12f4:	490b      	ldr	r1, [pc, #44]	; (1324 <__ARM_grp_.debug_frame$44+0x40>)
    12f6:	4788      	blx	r1
    12f8:	000120dd 	.word	0x000120dd
    12fc:	00006731 	.word	0x00006731
    1300:	0000fe1c 	.word	0x0000fe1c
    1304:	0000fe24 	.word	0x0000fe24
    1308:	0000fadc 	.word	0x0000fadc
    130c:	0000fa68 	.word	0x0000fa68
    1310:	0000fb14 	.word	0x0000fb14
    1314:	000067d1 	.word	0x000067d1
    1318:	100001ec 	.word	0x100001ec
    131c:	0000fd90 	.word	0x0000fd90
    1320:	00005785 	.word	0x00005785
    1324:	00012449 	.word	0x00012449
    1328:	000066f3 	.word	0x000066f3

0000132c <Reset_Handler>:
    132c:	4806      	ldr	r0, [pc, #24]	; (1348 <ADC_IRQHandler+0x2>)
    132e:	4780      	blx	r0
    1330:	4806      	ldr	r0, [pc, #24]	; (134c <ADC_IRQHandler+0x6>)
    1332:	4700      	bx	r0

00001334 <NMI_Handler>:
    1334:	e7fe      	b.n	1334 <NMI_Handler>
    1336:	e7fe      	b.n	1336 <NMI_Handler+0x2>
    1338:	e7fe      	b.n	1338 <NMI_Handler+0x4>
    133a:	e7fe      	b.n	133a <NMI_Handler+0x6>
    133c:	e7fe      	b.n	133c <__ARM_grp_.debug_frame$47>
    133e:	e7fe      	b.n	133e <__ARM_grp_.debug_frame$47+0x2>
    1340:	e7fe      	b.n	1340 <__ARM_grp_.debug_frame$47+0x4>
    1342:	e7fe      	b.n	1342 <__ARM_grp_.debug_frame$47+0x6>
    1344:	e7fe      	b.n	1344 <__ARM_grp_.debug_frame$47+0x8>

00001346 <ADC_IRQHandler>:
    1346:	e7fe      	b.n	1346 <ADC_IRQHandler>
    1348:	00012059 	.word	0x00012059
    134c:	000000f5 	.word	0x000000f5

00001350 <__aeabi_atexit>:
    1350:	4603      	mov	r3, r0
    1352:	4608      	mov	r0, r1
    1354:	4619      	mov	r1, r3
    1356:	f003 bfe9 	b.w	532c <__cxa_atexit>

0000135a <_ZNK10__cxxabiv117__class_type_info20__do_find_public_srcEiPKvPKS0_S2_>:
    135a:	9800      	ldr	r0, [sp, #0]
    135c:	4290      	cmp	r0, r2
    135e:	bf14      	ite	ne
    1360:	2001      	movne	r0, #1
    1362:	2006      	moveq	r0, #6
    1364:	4770      	bx	lr

00001366 <_ZNK10__cxxabiv117__class_type_info11__do_upcastEPKS0_PKvRNS0_15__upcast_resultE>:
    1366:	b538      	push	{r3, r4, r5, lr}
    1368:	4614      	mov	r4, r2
    136a:	461d      	mov	r5, r3
    136c:	f000 f9b5 	bl	16da <_ZNKSt9type_infoeqERKS_>
    1370:	b128      	cbz	r0, 137e <_ZNK10__cxxabiv117__class_type_info11__do_upcastEPKS0_PKvRNS0_15__upcast_resultE+0x18>
    1372:	2001      	movs	r0, #1
    1374:	2308      	movs	r3, #8
    1376:	602c      	str	r4, [r5, #0]
    1378:	60eb      	str	r3, [r5, #12]
    137a:	3b02      	subs	r3, #2
    137c:	712b      	strb	r3, [r5, #4]
    137e:	bd38      	pop	{r3, r4, r5, pc}

00001380 <_ZNK10__cxxabiv117__class_type_info12__do_dyncastEiNS0_10__sub_kindEPKS0_PKvS3_S5_RNS0_16__dyncast_resultE>:
    1380:	e92d 41f0 	stmdb	sp!, {r4, r5, r6, r7, r8, lr}
    1384:	4698      	mov	r8, r3
    1386:	9f06      	ldr	r7, [sp, #24]
    1388:	4604      	mov	r4, r0
    138a:	9b08      	ldr	r3, [sp, #32]
    138c:	4615      	mov	r5, r2
    138e:	9e09      	ldr	r6, [sp, #36]	; 0x24
    1390:	429f      	cmp	r7, r3
    1392:	d10c      	bne.n	13ae <_ZNK10__cxxabiv117__class_type_info12__do_dyncastEiNS0_10__sub_kindEPKS0_PKvS3_S5_RNS0_16__dyncast_resultE+0x2e>
    1394:	9907      	ldr	r1, [sp, #28]
    1396:	f000 f9a0 	bl	16da <_ZNKSt9type_infoeqERKS_>
    139a:	b140      	cbz	r0, 13ae <_ZNK10__cxxabiv117__class_type_info12__do_dyncastEiNS0_10__sub_kindEPKS0_PKvS3_S5_RNS0_16__dyncast_resultE+0x2e>
    139c:	7175      	strb	r5, [r6, #5]
    139e:	e003      	b.n	13a8 <_ZNK10__cxxabiv117__class_type_info12__do_dyncastEiNS0_10__sub_kindEPKS0_PKvS3_S5_RNS0_16__dyncast_resultE+0x28>
    13a0:	2301      	movs	r3, #1
    13a2:	6037      	str	r7, [r6, #0]
    13a4:	7135      	strb	r5, [r6, #4]
    13a6:	71b3      	strb	r3, [r6, #6]
    13a8:	2000      	movs	r0, #0
    13aa:	e8bd 81f0 	ldmia.w	sp!, {r4, r5, r6, r7, r8, pc}
    13ae:	4620      	mov	r0, r4
    13b0:	4641      	mov	r1, r8
    13b2:	f000 f992 	bl	16da <_ZNKSt9type_infoeqERKS_>
    13b6:	2800      	cmp	r0, #0
    13b8:	d1f2      	bne.n	13a0 <_ZNK10__cxxabiv117__class_type_info12__do_dyncastEiNS0_10__sub_kindEPKS0_PKvS3_S5_RNS0_16__dyncast_resultE+0x20>
    13ba:	e7f5      	b.n	13a8 <_ZNK10__cxxabiv117__class_type_info12__do_dyncastEiNS0_10__sub_kindEPKS0_PKvS3_S5_RNS0_16__dyncast_resultE+0x28>

000013bc <_ZNK10__cxxabiv117__class_type_info10__do_catchEPKSt9type_infoPPvj>:
    13bc:	b5f8      	push	{r3, r4, r5, r6, r7, lr}
    13be:	4605      	mov	r5, r0
    13c0:	460c      	mov	r4, r1
    13c2:	4616      	mov	r6, r2
    13c4:	461f      	mov	r7, r3
    13c6:	f000 f988 	bl	16da <_ZNKSt9type_infoeqERKS_>
    13ca:	b940      	cbnz	r0, 13de <__ARM_grp_.debug_frame$53+0x1a>
    13cc:	2f03      	cmp	r7, #3
    13ce:	d807      	bhi.n	13e0 <__ARM_grp_.debug_frame$53+0x1c>
    13d0:	6823      	ldr	r3, [r4, #0]
    13d2:	4620      	mov	r0, r4
    13d4:	4629      	mov	r1, r5
    13d6:	4632      	mov	r2, r6
    13d8:	695b      	ldr	r3, [r3, #20]
    13da:	4798      	blx	r3
    13dc:	bdf8      	pop	{r3, r4, r5, r6, r7, pc}
    13de:	2001      	movs	r0, #1
    13e0:	bdf8      	pop	{r3, r4, r5, r6, r7, pc}
	...

000013e4 <_ZN10__cxxabiv117__class_type_infoD1Ev>:
    13e4:	4b03      	ldr	r3, [pc, #12]	; (13f4 <_ZN10__cxxabiv117__class_type_infoD1Ev+0x10>)
    13e6:	b510      	push	{r4, lr}
    13e8:	4604      	mov	r4, r0
    13ea:	6003      	str	r3, [r0, #0]
    13ec:	f000 f95a 	bl	16a4 <_ZNSt9type_infoD1Ev>
    13f0:	4620      	mov	r0, r4
    13f2:	bd10      	pop	{r4, pc}
    13f4:	0000fe50 	.word	0x0000fe50

000013f8 <_ZN10__cxxabiv117__class_type_infoD0Ev>:
    13f8:	b510      	push	{r4, lr}
    13fa:	4604      	mov	r4, r0
    13fc:	f7ff fff2 	bl	13e4 <_ZN10__cxxabiv117__class_type_infoD1Ev>
    1400:	4620      	mov	r0, r4
    1402:	f000 f825 	bl	1450 <_ZdlPv>
    1406:	4620      	mov	r0, r4
    1408:	bd10      	pop	{r4, pc}

0000140a <_ZN10__cxxabiv117__class_type_info15__upcast_resultC1Ei>:
    140a:	2200      	movs	r2, #0
    140c:	6081      	str	r1, [r0, #8]
    140e:	6002      	str	r2, [r0, #0]
    1410:	7102      	strb	r2, [r0, #4]
    1412:	60c2      	str	r2, [r0, #12]
    1414:	4770      	bx	lr

00001416 <_ZNK10__cxxabiv117__class_type_info11__do_upcastEPKS0_PPv>:
    1416:	b5f0      	push	{r4, r5, r6, r7, lr}
    1418:	4606      	mov	r6, r0
    141a:	b085      	sub	sp, #20
    141c:	460f      	mov	r7, r1
    141e:	4668      	mov	r0, sp
    1420:	2110      	movs	r1, #16
    1422:	4614      	mov	r4, r2
    1424:	f7ff fff1 	bl	140a <_ZN10__cxxabiv117__class_type_info15__upcast_resultC1Ei>
    1428:	6833      	ldr	r3, [r6, #0]
    142a:	4630      	mov	r0, r6
    142c:	4639      	mov	r1, r7
    142e:	6822      	ldr	r2, [r4, #0]
    1430:	699d      	ldr	r5, [r3, #24]
    1432:	466b      	mov	r3, sp
    1434:	47a8      	blx	r5
    1436:	f89d 3004 	ldrb.w	r3, [sp, #4]
    143a:	f003 0306 	and.w	r3, r3, #6
    143e:	2b06      	cmp	r3, #6
    1440:	d103      	bne.n	144a <_ZNK10__cxxabiv117__class_type_info11__do_upcastEPKS0_PPv+0x34>
    1442:	9b00      	ldr	r3, [sp, #0]
    1444:	2001      	movs	r0, #1
    1446:	6023      	str	r3, [r4, #0]
    1448:	e000      	b.n	144c <__ARM_grp_.debug_frame$59>
    144a:	2000      	movs	r0, #0
    144c:	b005      	add	sp, #20
    144e:	bdf0      	pop	{r4, r5, r6, r7, pc}

00001450 <_ZdlPv>:
    1450:	b108      	cbz	r0, 1456 <_ZdlPv+0x6>
    1452:	f004 bf03 	b.w	625c <free>
    1456:	4770      	bx	lr

00001458 <_ZdaPv>:
    1458:	f7ff bffa 	b.w	1450 <_ZdlPv>

0000145c <_ZN10__cxxabiv112_GLOBAL__N_118contained_public_pENS_17__class_type_info10__sub_kindE>:
    145c:	f000 0006 	and.w	r0, r0, #6
    1460:	f1a0 0306 	sub.w	r3, r0, #6
    1464:	4258      	negs	r0, r3
    1466:	eb40 0003 	adc.w	r0, r0, r3
    146a:	4770      	bx	lr

0000146c <_ZN10__cxxabiv112_GLOBAL__N_114adjust_pointerIvEEPKT_PKvi>:
    146c:	1840      	adds	r0, r0, r1
    146e:	4770      	bx	lr

00001470 <_ZN10__cxxabiv117__class_type_info16__dyncast_resultC1Ei>:
    1470:	2200      	movs	r2, #0
    1472:	6081      	str	r1, [r0, #8]
    1474:	6002      	str	r2, [r0, #0]
    1476:	7102      	strb	r2, [r0, #4]
    1478:	7142      	strb	r2, [r0, #5]
    147a:	7182      	strb	r2, [r0, #6]
    147c:	4770      	bx	lr

0000147e <_ZNK10__cxxabiv117__class_type_info17__find_public_srcEiPKvPKS0_S2_>:
    147e:	b5f7      	push	{r0, r1, r2, r4, r5, r6, r7, lr}
    1480:	1e0e      	subs	r6, r1, #0
    1482:	9c08      	ldr	r4, [sp, #32]
    1484:	db07      	blt.n	1496 <__ARM_grp_.debug_frame$62+0x6>
    1486:	4610      	mov	r0, r2
    1488:	f7ff fff0 	bl	146c <_ZN10__cxxabiv112_GLOBAL__N_114adjust_pointerIvEEPKT_PKvi>
    148c:	4284      	cmp	r4, r0
    148e:	bf14      	ite	ne
    1490:	2001      	movne	r0, #1
    1492:	2006      	moveq	r0, #6
    1494:	e008      	b.n	14a8 <__ARM_grp_.debug_frame$62+0x18>
    1496:	f116 0f02 	cmn.w	r6, #2
    149a:	d004      	beq.n	14a6 <__ARM_grp_.debug_frame$62+0x16>
    149c:	6805      	ldr	r5, [r0, #0]
    149e:	9400      	str	r4, [sp, #0]
    14a0:	6a2c      	ldr	r4, [r5, #32]
    14a2:	47a0      	blx	r4
    14a4:	e000      	b.n	14a8 <__ARM_grp_.debug_frame$62+0x18>
    14a6:	2001      	movs	r0, #1
    14a8:	bdfe      	pop	{r1, r2, r3, r4, r5, r6, r7, pc}

000014aa <__dynamic_cast>:
    14aa:	e92d 47f0 	stmdb	sp!, {r4, r5, r6, r7, r8, r9, sl, lr}
    14ae:	461d      	mov	r5, r3
    14b0:	6803      	ldr	r3, [r0, #0]
    14b2:	b088      	sub	sp, #32
    14b4:	4688      	mov	r8, r1
    14b6:	4616      	mov	r6, r2
    14b8:	f1a3 0708 	sub.w	r7, r3, #8
    14bc:	4604      	mov	r4, r0
    14be:	f853 1c08 	ldr.w	r1, [r3, #-8]
    14c2:	f7ff ffd3 	bl	146c <_ZN10__cxxabiv112_GLOBAL__N_114adjust_pointerIvEEPKT_PKvi>
    14c6:	f8d7 9004 	ldr.w	r9, [r7, #4]
    14ca:	af05      	add	r7, sp, #20
    14cc:	2110      	movs	r1, #16
    14ce:	4682      	mov	sl, r0
    14d0:	4638      	mov	r0, r7
    14d2:	f7ff ffcd 	bl	1470 <_ZN10__cxxabiv117__class_type_info16__dyncast_resultC1Ei>
    14d6:	f8d9 3000 	ldr.w	r3, [r9]
    14da:	4648      	mov	r0, r9
    14dc:	f8cd a000 	str.w	sl, [sp]
    14e0:	f8cd 8004 	str.w	r8, [sp, #4]
    14e4:	4629      	mov	r1, r5
    14e6:	9402      	str	r4, [sp, #8]
    14e8:	2206      	movs	r2, #6
    14ea:	9703      	str	r7, [sp, #12]
    14ec:	69df      	ldr	r7, [r3, #28]
    14ee:	4633      	mov	r3, r6
    14f0:	47b8      	blx	r7
    14f2:	9f05      	ldr	r7, [sp, #20]
    14f4:	b33f      	cbz	r7, 1546 <__ARM_grp_.debug_frame$68+0x12>
    14f6:	f89d 901a 	ldrb.w	r9, [sp, #26]
    14fa:	4648      	mov	r0, r9
    14fc:	f7ff ffae 	bl	145c <_ZN10__cxxabiv112_GLOBAL__N_118contained_public_pENS_17__class_type_info10__sub_kindE>
    1500:	bb08      	cbnz	r0, 1546 <__ARM_grp_.debug_frame$68+0x12>
    1502:	f89d a019 	ldrb.w	sl, [sp, #25]
    1506:	f89d 0018 	ldrb.w	r0, [sp, #24]
    150a:	ea0a 0000 	and.w	r0, sl, r0
    150e:	f7ff ffa5 	bl	145c <_ZN10__cxxabiv112_GLOBAL__N_118contained_public_pENS_17__class_type_info10__sub_kindE>
    1512:	b9c0      	cbnz	r0, 1546 <__ARM_grp_.debug_frame$68+0x12>
    1514:	f00a 0a05 	and.w	sl, sl, #5
    1518:	f1ba 0f04 	cmp.w	sl, #4
    151c:	d012      	beq.n	1544 <__ARM_grp_.debug_frame$68+0x10>
    151e:	f1b9 0f00 	cmp.w	r9, #0
    1522:	d108      	bne.n	1536 <__ARM_grp_.debug_frame$68+0x2>
    1524:	4630      	mov	r0, r6
    1526:	4629      	mov	r1, r5
    1528:	463a      	mov	r2, r7
    152a:	4643      	mov	r3, r8
    152c:	9400      	str	r4, [sp, #0]
    152e:	f7ff ffa6 	bl	147e <_ZNK10__cxxabiv117__class_type_info17__find_public_srcEiPKvPKS0_S2_>
    1532:	f88d 001a 	strb.w	r0, [sp, #26]
    1536:	f89d 001a 	ldrb.w	r0, [sp, #26]
    153a:	f7ff ff8f 	bl	145c <_ZN10__cxxabiv112_GLOBAL__N_118contained_public_pENS_17__class_type_info10__sub_kindE>
    153e:	b108      	cbz	r0, 1544 <__ARM_grp_.debug_frame$68+0x10>
    1540:	9f05      	ldr	r7, [sp, #20]
    1542:	e000      	b.n	1546 <__ARM_grp_.debug_frame$68+0x12>
    1544:	4607      	mov	r7, r0
    1546:	4638      	mov	r0, r7
    1548:	b008      	add	sp, #32
    154a:	e8bd 87f0 	ldmia.w	sp!, {r4, r5, r6, r7, r8, r9, sl, pc}
	...

00001550 <_Znwj>:
    1550:	b510      	push	{r4, lr}
    1552:	2800      	cmp	r0, #0
    1554:	bf14      	ite	ne
    1556:	4604      	movne	r4, r0
    1558:	2401      	moveq	r4, #1
    155a:	e005      	b.n	1568 <_Znwj+0x18>
    155c:	4b05      	ldr	r3, [pc, #20]	; (1574 <_Znwj+0x24>)
    155e:	681b      	ldr	r3, [r3, #0]
    1560:	b90b      	cbnz	r3, 1566 <_Znwj+0x16>
    1562:	f003 feb7 	bl	52d4 <abort>
    1566:	4798      	blx	r3
    1568:	4620      	mov	r0, r4
    156a:	f004 fe6f 	bl	624c <malloc>
    156e:	2800      	cmp	r0, #0
    1570:	d0f4      	beq.n	155c <_Znwj+0xc>
    1572:	bd10      	pop	{r4, pc}
    1574:	10000a8c 	.word	0x10000a8c

00001578 <_Znaj>:
    1578:	f7ff bfea 	b.w	1550 <_Znwj>

0000157c <__cxa_pure_virtual>:
    157c:	b508      	push	{r3, lr}
    157e:	221b      	movs	r2, #27
    1580:	4902      	ldr	r1, [pc, #8]	; (158c <__ARM_grp_.debug_frame$i._ZN4mbed10FileHandle4flenEv+0x8>)
    1582:	2002      	movs	r0, #2
    1584:	f007 fb8a 	bl	8c9c <write>
    1588:	f000 fb56 	bl	1c38 <_ZSt9terminatev>
    158c:	0000fea6 	.word	0x0000fea6

00001590 <_ZNK10__cxxabiv120__si_class_type_info11__do_upcastEPKNS_17__class_type_infoEPKvRNS1_15__upcast_resultE>:
    1590:	b5f8      	push	{r3, r4, r5, r6, r7, lr}
    1592:	4604      	mov	r4, r0
    1594:	460f      	mov	r7, r1
    1596:	4616      	mov	r6, r2
    1598:	461d      	mov	r5, r3
    159a:	f7ff fee4 	bl	1366 <_ZNK10__cxxabiv117__class_type_info11__do_upcastEPKS0_PKvRNS0_15__upcast_resultE>
    159e:	b938      	cbnz	r0, 15b0 <_ZNK10__cxxabiv120__si_class_type_info11__do_upcastEPKNS_17__class_type_infoEPKvRNS1_15__upcast_resultE+0x20>
    15a0:	68a0      	ldr	r0, [r4, #8]
    15a2:	4639      	mov	r1, r7
    15a4:	4632      	mov	r2, r6
    15a6:	6803      	ldr	r3, [r0, #0]
    15a8:	699c      	ldr	r4, [r3, #24]
    15aa:	462b      	mov	r3, r5
    15ac:	47a0      	blx	r4
    15ae:	bdf8      	pop	{r3, r4, r5, r6, r7, pc}
    15b0:	2001      	movs	r0, #1
    15b2:	bdf8      	pop	{r3, r4, r5, r6, r7, pc}

000015b4 <_ZNK10__cxxabiv120__si_class_type_info12__do_dyncastEiNS_17__class_type_info10__sub_kindEPKS1_PKvS4_S6_RNS1_16__dyncast_resultE>:
    15b4:	e92d 4ff0 	stmdb	sp!, {r4, r5, r6, r7, r8, r9, sl, fp, lr}
    15b8:	b085      	sub	sp, #20
    15ba:	460c      	mov	r4, r1
    15bc:	4619      	mov	r1, r3
    15be:	4605      	mov	r5, r0
    15c0:	4616      	mov	r6, r2
    15c2:	461f      	mov	r7, r3
    15c4:	f8dd 9038 	ldr.w	r9, [sp, #56]	; 0x38
    15c8:	f8dd a040 	ldr.w	sl, [sp, #64]	; 0x40
    15cc:	f8dd 8044 	ldr.w	r8, [sp, #68]	; 0x44
    15d0:	f000 f883 	bl	16da <_ZNKSt9type_infoeqERKS_>
    15d4:	4683      	mov	fp, r0
    15d6:	b1b0      	cbz	r0, 1606 <__ARM_grp_.debug_frame$5+0x32>
    15d8:	2c00      	cmp	r4, #0
    15da:	f8c8 9000 	str.w	r9, [r8]
    15de:	f888 6004 	strb.w	r6, [r8, #4]
    15e2:	db09      	blt.n	15f8 <__ARM_grp_.debug_frame$5+0x24>
    15e4:	444c      	add	r4, r9
    15e6:	45a2      	cmp	sl, r4
    15e8:	bf14      	ite	ne
    15ea:	f04f 0a01 	movne.w	sl, #1
    15ee:	f04f 0a06 	moveq.w	sl, #6
    15f2:	f888 a006 	strb.w	sl, [r8, #6]
    15f6:	e011      	b.n	161c <__ARM_grp_.debug_frame$5+0x48>
    15f8:	f114 0f02 	cmn.w	r4, #2
    15fc:	d10e      	bne.n	161c <__ARM_grp_.debug_frame$5+0x48>
    15fe:	2301      	movs	r3, #1
    1600:	f888 3006 	strb.w	r3, [r8, #6]
    1604:	e00a      	b.n	161c <__ARM_grp_.debug_frame$5+0x48>
    1606:	45d1      	cmp	r9, sl
    1608:	d10c      	bne.n	1624 <__ARM_grp_.debug_frame$5+0x50>
    160a:	4628      	mov	r0, r5
    160c:	990f      	ldr	r1, [sp, #60]	; 0x3c
    160e:	f000 f864 	bl	16da <_ZNKSt9type_infoeqERKS_>
    1612:	b138      	cbz	r0, 1624 <__ARM_grp_.debug_frame$5+0x50>
    1614:	f888 6005 	strb.w	r6, [r8, #5]
    1618:	4658      	mov	r0, fp
    161a:	e000      	b.n	161e <__ARM_grp_.debug_frame$5+0x4a>
    161c:	2000      	movs	r0, #0
    161e:	b005      	add	sp, #20
    1620:	e8bd 8ff0 	ldmia.w	sp!, {r4, r5, r6, r7, r8, r9, sl, fp, pc}
    1624:	68a8      	ldr	r0, [r5, #8]
    1626:	4621      	mov	r1, r4
    1628:	9a0f      	ldr	r2, [sp, #60]	; 0x3c
    162a:	6803      	ldr	r3, [r0, #0]
    162c:	9201      	str	r2, [sp, #4]
    162e:	4632      	mov	r2, r6
    1630:	f8cd 9000 	str.w	r9, [sp]
    1634:	f8cd a008 	str.w	sl, [sp, #8]
    1638:	f8cd 800c 	str.w	r8, [sp, #12]
    163c:	69dd      	ldr	r5, [r3, #28]
    163e:	463b      	mov	r3, r7
    1640:	47a8      	blx	r5
    1642:	e7ec      	b.n	161e <__ARM_grp_.debug_frame$5+0x4a>

00001644 <_ZNK10__cxxabiv120__si_class_type_info20__do_find_public_srcEiPKvPKNS_17__class_type_infoES2_>:
    1644:	e92d 41f3 	stmdb	sp!, {r0, r1, r4, r5, r6, r7, r8, lr}
    1648:	4604      	mov	r4, r0
    164a:	f8dd 8020 	ldr.w	r8, [sp, #32]
    164e:	460d      	mov	r5, r1
    1650:	4617      	mov	r7, r2
    1652:	461e      	mov	r6, r3
    1654:	4590      	cmp	r8, r2
    1656:	d106      	bne.n	1666 <_ZNK10__cxxabiv120__si_class_type_info20__do_find_public_srcEiPKvPKNS_17__class_type_infoES2_+0x22>
    1658:	4619      	mov	r1, r3
    165a:	f000 f83e 	bl	16da <_ZNKSt9type_infoeqERKS_>
    165e:	b110      	cbz	r0, 1666 <_ZNK10__cxxabiv120__si_class_type_info20__do_find_public_srcEiPKvPKNS_17__class_type_infoES2_+0x22>
    1660:	2006      	movs	r0, #6
    1662:	e8bd 81fc 	ldmia.w	sp!, {r2, r3, r4, r5, r6, r7, r8, pc}
    1666:	68a0      	ldr	r0, [r4, #8]
    1668:	4629      	mov	r1, r5
    166a:	463a      	mov	r2, r7
    166c:	6803      	ldr	r3, [r0, #0]
    166e:	f8cd 8000 	str.w	r8, [sp]
    1672:	6a1c      	ldr	r4, [r3, #32]
    1674:	4633      	mov	r3, r6
    1676:	47a0      	blx	r4
    1678:	e7f3      	b.n	1662 <_ZNK10__cxxabiv120__si_class_type_info20__do_find_public_srcEiPKvPKNS_17__class_type_infoES2_+0x1e>
	...

0000167c <_ZN10__cxxabiv120__si_class_type_infoD1Ev>:
    167c:	4b03      	ldr	r3, [pc, #12]	; (168c <_ZN10__cxxabiv120__si_class_type_infoD1Ev+0x10>)
    167e:	b510      	push	{r4, lr}
    1680:	4604      	mov	r4, r0
    1682:	6003      	str	r3, [r0, #0]
    1684:	f7ff feae 	bl	13e4 <_ZN10__cxxabiv117__class_type_infoD1Ev>
    1688:	4620      	mov	r0, r4
    168a:	bd10      	pop	{r4, pc}
    168c:	0000fed0 	.word	0x0000fed0

00001690 <_ZN10__cxxabiv120__si_class_type_infoD0Ev>:
    1690:	b510      	push	{r4, lr}
    1692:	4604      	mov	r4, r0
    1694:	f7ff fff2 	bl	167c <_ZN10__cxxabiv120__si_class_type_infoD1Ev>
    1698:	4620      	mov	r0, r4
    169a:	f7ff fed9 	bl	1450 <_ZdlPv>
    169e:	4620      	mov	r0, r4
    16a0:	bd10      	pop	{r4, pc}
	...

000016a4 <_ZNSt9type_infoD1Ev>:
    16a4:	4b01      	ldr	r3, [pc, #4]	; (16ac <_ZNSt9type_infoD1Ev+0x8>)
    16a6:	6003      	str	r3, [r0, #0]
    16a8:	4770      	bx	lr
    16aa:	bf00      	nop
    16ac:	0000ff50 	.word	0x0000ff50

000016b0 <_ZNKSt9type_info14__is_pointer_pEv>:
    16b0:	2000      	movs	r0, #0
    16b2:	4770      	bx	lr

000016b4 <_ZNKSt9type_info15__is_function_pEv>:
    16b4:	2000      	movs	r0, #0
    16b6:	4770      	bx	lr

000016b8 <_ZNKSt9type_info11__do_upcastEPKN10__cxxabiv117__class_type_infoEPPv>:
    16b8:	2000      	movs	r0, #0
    16ba:	4770      	bx	lr

000016bc <_ZNSt9type_infoD0Ev>:
    16bc:	b510      	push	{r4, lr}
    16be:	4604      	mov	r4, r0
    16c0:	f7ff fff0 	bl	16a4 <_ZNSt9type_infoD1Ev>
    16c4:	4620      	mov	r0, r4
    16c6:	f7ff fec3 	bl	1450 <_ZdlPv>
    16ca:	4620      	mov	r0, r4
    16cc:	bd10      	pop	{r4, pc}

000016ce <_ZNKSt9type_info4nameEv>:
    16ce:	6840      	ldr	r0, [r0, #4]
    16d0:	7803      	ldrb	r3, [r0, #0]
    16d2:	2b2a      	cmp	r3, #42	; 0x2a
    16d4:	bf08      	it	eq
    16d6:	3001      	addeq	r0, #1
    16d8:	4770      	bx	lr

000016da <_ZNKSt9type_infoeqERKS_>:
    16da:	4281      	cmp	r1, r0
    16dc:	b538      	push	{r3, r4, r5, lr}
    16de:	460d      	mov	r5, r1
    16e0:	d011      	beq.n	1706 <__ARM_grp_.debug_frame$17+0x6>
    16e2:	f7ff fff4 	bl	16ce <_ZNKSt9type_info4nameEv>
    16e6:	7803      	ldrb	r3, [r0, #0]
    16e8:	4604      	mov	r4, r0
    16ea:	2b2a      	cmp	r3, #42	; 0x2a
    16ec:	d00d      	beq.n	170a <__ARM_grp_.debug_frame$17+0xa>
    16ee:	4628      	mov	r0, r5
    16f0:	f7ff ffed 	bl	16ce <_ZNKSt9type_info4nameEv>
    16f4:	4601      	mov	r1, r0
    16f6:	4620      	mov	r0, r4
    16f8:	f005 fb7d 	bl	6df6 <strcmp>
    16fc:	f1d0 0001 	rsbs	r0, r0, #1
    1700:	bf38      	it	cc
    1702:	2000      	movcc	r0, #0
    1704:	bd38      	pop	{r3, r4, r5, pc}
    1706:	2001      	movs	r0, #1
    1708:	bd38      	pop	{r3, r4, r5, pc}
    170a:	2000      	movs	r0, #0
    170c:	bd38      	pop	{r3, r4, r5, pc}

0000170e <_ZNKSt9type_info10__do_catchEPKS_PPvj>:
    170e:	f7ff bfe4 	b.w	16da <_ZNKSt9type_infoeqERKS_>

00001712 <_ZN10__cxxabiv112_GLOBAL__N_111contained_pENS_17__class_type_info10__sub_kindE>:
    1712:	2803      	cmp	r0, #3
    1714:	bf94      	ite	ls
    1716:	2000      	movls	r0, #0
    1718:	2001      	movhi	r0, #1
    171a:	4770      	bx	lr

0000171c <_ZN10__cxxabiv112_GLOBAL__N_19virtual_pENS_17__class_type_info10__sub_kindE>:
    171c:	f000 0001 	and.w	r0, r0, #1
    1720:	4770      	bx	lr

00001722 <_ZN10__cxxabiv112_GLOBAL__N_114adjust_pointerIvEEPKT_PKvi>:
    1722:	1840      	adds	r0, r0, r1
    1724:	4770      	bx	lr

00001726 <_ZN10__cxxabiv112_GLOBAL__N_115convert_to_baseEPKvbi>:
    1726:	b109      	cbz	r1, 172c <_ZN10__cxxabiv112_GLOBAL__N_115convert_to_baseEPKvbi+0x6>
    1728:	6803      	ldr	r3, [r0, #0]
    172a:	589a      	ldr	r2, [r3, r2]
    172c:	4611      	mov	r1, r2
    172e:	f7ff bff8 	b.w	1722 <_ZN10__cxxabiv112_GLOBAL__N_114adjust_pointerIvEEPKT_PKvi>
	...

00001734 <_ZN10__cxxabiv121__vmi_class_type_infoD1Ev>:
    1734:	4b03      	ldr	r3, [pc, #12]	; (1744 <_ZN10__cxxabiv121__vmi_class_type_infoD1Ev+0x10>)
    1736:	b510      	push	{r4, lr}
    1738:	4604      	mov	r4, r0
    173a:	6003      	str	r3, [r0, #0]
    173c:	f7ff fe52 	bl	13e4 <_ZN10__cxxabiv117__class_type_infoD1Ev>
    1740:	4620      	mov	r0, r4
    1742:	bd10      	pop	{r4, pc}
    1744:	0000ffa8 	.word	0x0000ffa8

00001748 <_ZN10__cxxabiv121__vmi_class_type_infoD0Ev>:
    1748:	b510      	push	{r4, lr}
    174a:	4604      	mov	r4, r0
    174c:	f7ff fff2 	bl	1734 <_ZN10__cxxabiv121__vmi_class_type_infoD1Ev>
    1750:	4620      	mov	r0, r4
    1752:	f7ff fe7d 	bl	1450 <_ZdlPv>
    1756:	4620      	mov	r0, r4
    1758:	bd10      	pop	{r4, pc}

0000175a <_ZNK10__cxxabiv122__base_class_type_info14__is_virtual_pEv>:
    175a:	6840      	ldr	r0, [r0, #4]
    175c:	f000 0001 	and.w	r0, r0, #1
    1760:	4770      	bx	lr

00001762 <_ZNK10__cxxabiv122__base_class_type_info13__is_public_pEv>:
    1762:	6840      	ldr	r0, [r0, #4]
    1764:	f3c0 0040 	ubfx	r0, r0, #1, #1
    1768:	4770      	bx	lr

0000176a <_ZNK10__cxxabiv122__base_class_type_info8__offsetEv>:
    176a:	6840      	ldr	r0, [r0, #4]
    176c:	1200      	asrs	r0, r0, #8
    176e:	4770      	bx	lr

00001770 <_ZNK10__cxxabiv121__vmi_class_type_info20__do_find_public_srcEiPKvPKNS_17__class_type_infoES2_>:
    1770:	e92d 4ff7 	stmdb	sp!, {r0, r1, r2, r4, r5, r6, r7, r8, r9, sl, fp, lr}
    1774:	468b      	mov	fp, r1
    1776:	990c      	ldr	r1, [sp, #48]	; 0x30
    1778:	4605      	mov	r5, r0
    177a:	4692      	mov	sl, r2
    177c:	4699      	mov	r9, r3
    177e:	428a      	cmp	r2, r1
    1780:	d13b      	bne.n	17fa <__ARM_grp_.debug_frame$i._ZN4mbed3SPID1Ev+0x1e>
    1782:	4619      	mov	r1, r3
    1784:	f7ff ffa9 	bl	16da <_ZNKSt9type_infoeqERKS_>
    1788:	2800      	cmp	r0, #0
    178a:	d132      	bne.n	17f2 <__ARM_grp_.debug_frame$i._ZN4mbed3SPID1Ev+0x16>
    178c:	e035      	b.n	17fa <__ARM_grp_.debug_frame$i._ZN4mbed3SPID1Ev+0x1e>
    178e:	3c01      	subs	r4, #1
    1790:	1ca6      	adds	r6, r4, #2
    1792:	eb05 06c6 	add.w	r6, r5, r6, lsl #3
    1796:	4630      	mov	r0, r6
    1798:	f7ff ffe3 	bl	1762 <_ZNK10__cxxabiv122__base_class_type_info13__is_public_pEv>
    179c:	b318      	cbz	r0, 17e6 <__ARM_grp_.debug_frame$i._ZN4mbed3SPID1Ev+0xa>
    179e:	4630      	mov	r0, r6
    17a0:	f7ff ffe3 	bl	176a <_ZNK10__cxxabiv122__base_class_type_info8__offsetEv>
    17a4:	4607      	mov	r7, r0
    17a6:	4630      	mov	r0, r6
    17a8:	f7ff ffd7 	bl	175a <_ZNK10__cxxabiv122__base_class_type_info14__is_virtual_pEv>
    17ac:	4606      	mov	r6, r0
    17ae:	b110      	cbz	r0, 17b6 <__ARM_grp_.debug_frame$23+0x1e>
    17b0:	f11b 0f03 	cmn.w	fp, #3
    17b4:	d017      	beq.n	17e6 <__ARM_grp_.debug_frame$i._ZN4mbed3SPID1Ev+0xa>
    17b6:	463a      	mov	r2, r7
    17b8:	4631      	mov	r1, r6
    17ba:	4650      	mov	r0, sl
    17bc:	f7ff ffb3 	bl	1726 <_ZN10__cxxabiv112_GLOBAL__N_115convert_to_baseEPKvbi>
    17c0:	990c      	ldr	r1, [sp, #48]	; 0x30
    17c2:	4602      	mov	r2, r0
    17c4:	f858 0c08 	ldr.w	r0, [r8, #-8]
    17c8:	6803      	ldr	r3, [r0, #0]
    17ca:	9100      	str	r1, [sp, #0]
    17cc:	4659      	mov	r1, fp
    17ce:	6a1f      	ldr	r7, [r3, #32]
    17d0:	464b      	mov	r3, r9
    17d2:	47b8      	blx	r7
    17d4:	4607      	mov	r7, r0
    17d6:	f7ff ff9c 	bl	1712 <_ZN10__cxxabiv112_GLOBAL__N_111contained_pENS_17__class_type_info10__sub_kindE>
    17da:	b120      	cbz	r0, 17e6 <__ARM_grp_.debug_frame$i._ZN4mbed3SPID1Ev+0xa>
    17dc:	b156      	cbz	r6, 17f4 <__ARM_grp_.debug_frame$i._ZN4mbed3SPID1Ev+0x18>
    17de:	f047 0701 	orr.w	r7, r7, #1
    17e2:	b2ff      	uxtb	r7, r7
    17e4:	e006      	b.n	17f4 <__ARM_grp_.debug_frame$i._ZN4mbed3SPID1Ev+0x18>
    17e6:	f1a8 0808 	sub.w	r8, r8, #8
    17ea:	2c00      	cmp	r4, #0
    17ec:	d1cf      	bne.n	178e <_ZNK10__cxxabiv121__vmi_class_type_info20__do_find_public_srcEiPKvPKNS_17__class_type_infoES2_+0x1e>
    17ee:	2701      	movs	r7, #1
    17f0:	e000      	b.n	17f4 <__ARM_grp_.debug_frame$i._ZN4mbed3SPID1Ev+0x18>
    17f2:	2706      	movs	r7, #6
    17f4:	4638      	mov	r0, r7
    17f6:	e8bd 8ffe 	ldmia.w	sp!, {r1, r2, r3, r4, r5, r6, r7, r8, r9, sl, fp, pc}
    17fa:	68ec      	ldr	r4, [r5, #12]
    17fc:	f104 0802 	add.w	r8, r4, #2
    1800:	eb05 08c8 	add.w	r8, r5, r8, lsl #3
    1804:	e7f1      	b.n	17ea <__ARM_grp_.debug_frame$i._ZN4mbed3SPID1Ev+0xe>

00001806 <_ZNK10__cxxabiv121__vmi_class_type_info11__do_upcastEPKNS_17__class_type_infoEPKvRNS1_15__upcast_resultE>:
    1806:	e92d 4ff0 	stmdb	sp!, {r4, r5, r6, r7, r8, r9, sl, fp, lr}
    180a:	b089      	sub	sp, #36	; 0x24
    180c:	4605      	mov	r5, r0
    180e:	4692      	mov	sl, r2
    1810:	9103      	str	r1, [sp, #12]
    1812:	461c      	mov	r4, r3
    1814:	f7ff fda7 	bl	1366 <_ZNK10__cxxabiv117__class_type_info11__do_upcastEPKS0_PKvRNS0_15__upcast_resultE>
    1818:	2800      	cmp	r0, #0
    181a:	f040 808d 	bne.w	1938 <__ARM_grp_.debug_frame$t._ZN4mbed17rpc_method_callerIiNS_3SPIEiXadL_ZNS1_5writeEiEEEEvPNS_4BaseEPKcPc+0x1c>
    181e:	f8d4 9008 	ldr.w	r9, [r4, #8]
    1822:	f8d5 800c 	ldr.w	r8, [r5, #12]
    1826:	f019 0f10 	tst.w	r9, #16
    182a:	f108 0602 	add.w	r6, r8, #2
    182e:	bf18      	it	ne
    1830:	f8d5 9008 	ldrne.w	r9, [r5, #8]
    1834:	eb05 06c6 	add.w	r6, r5, r6, lsl #3
    1838:	e076      	b.n	1928 <__ARM_grp_.debug_frame$t._ZN4mbed17rpc_method_callerIiNS_3SPIEiXadL_ZNS1_5writeEiEEEEvPNS_4BaseEPKcPc+0xc>
    183a:	4649      	mov	r1, r9
    183c:	f108 38ff 	add.w	r8, r8, #4294967295
    1840:	a804      	add	r0, sp, #16
    1842:	f7ff fde2 	bl	140a <_ZN10__cxxabiv117__class_type_info15__upcast_resultC1Ei>
    1846:	f108 0302 	add.w	r3, r8, #2
    184a:	eb05 03c3 	add.w	r3, r5, r3, lsl #3
    184e:	9301      	str	r3, [sp, #4]
    1850:	4618      	mov	r0, r3
    1852:	f7ff ff8a 	bl	176a <_ZNK10__cxxabiv122__base_class_type_info8__offsetEv>
    1856:	9b01      	ldr	r3, [sp, #4]
    1858:	4607      	mov	r7, r0
    185a:	4618      	mov	r0, r3
    185c:	f7ff ff7d 	bl	175a <_ZNK10__cxxabiv122__base_class_type_info14__is_virtual_pEv>
    1860:	9b01      	ldr	r3, [sp, #4]
    1862:	4683      	mov	fp, r0
    1864:	4618      	mov	r0, r3
    1866:	f7ff ff7c 	bl	1762 <_ZNK10__cxxabiv122__base_class_type_info13__is_public_pEv>
    186a:	9002      	str	r0, [sp, #8]
    186c:	b910      	cbnz	r0, 1874 <__ARM_grp_.debug_frame$t._ZN4mbed17rpc_method_callerINS_3SPIEiiXadL_ZNS1_6formatEiiEEEEvPNS_4BaseEPKcPc>
    186e:	f019 0f01 	tst.w	r9, #1
    1872:	d058      	beq.n	1926 <__ARM_grp_.debug_frame$t._ZN4mbed17rpc_method_callerIiNS_3SPIEiXadL_ZNS1_5writeEiEEEEvPNS_4BaseEPKcPc+0xa>
    1874:	f1ba 0f00 	cmp.w	sl, #0
    1878:	d006      	beq.n	1888 <__ARM_grp_.debug_frame$t._ZN4mbed17rpc_method_callerINS_3SPIEiiXadL_ZNS1_6formatEiiEEEEvPNS_4BaseEPKcPc+0x14>
    187a:	463a      	mov	r2, r7
    187c:	4650      	mov	r0, sl
    187e:	4659      	mov	r1, fp
    1880:	f7ff ff51 	bl	1726 <_ZN10__cxxabiv112_GLOBAL__N_115convert_to_baseEPKvbi>
    1884:	4602      	mov	r2, r0
    1886:	e000      	b.n	188a <__ARM_grp_.debug_frame$t._ZN4mbed17rpc_method_callerINS_3SPIEiiXadL_ZNS1_6formatEiiEEEEvPNS_4BaseEPKcPc+0x16>
    1888:	4652      	mov	r2, sl
    188a:	f856 0c08 	ldr.w	r0, [r6, #-8]
    188e:	9903      	ldr	r1, [sp, #12]
    1890:	6803      	ldr	r3, [r0, #0]
    1892:	699f      	ldr	r7, [r3, #24]
    1894:	ab04      	add	r3, sp, #16
    1896:	47b8      	blx	r7
    1898:	2800      	cmp	r0, #0
    189a:	d044      	beq.n	1926 <__ARM_grp_.debug_frame$t._ZN4mbed17rpc_method_callerIiNS_3SPIEiXadL_ZNS1_5writeEiEEEEvPNS_4BaseEPKcPc+0xa>
    189c:	9b07      	ldr	r3, [sp, #28]
    189e:	2b08      	cmp	r3, #8
    18a0:	d105      	bne.n	18ae <__ARM_grp_.debug_frame$t._ZN4mbed17rpc_method_callerINS_3SPIEiiXadL_ZNS1_6formatEiiEEEEvPNS_4BaseEPKcPc+0x3a>
    18a2:	f1bb 0f00 	cmp.w	fp, #0
    18a6:	d002      	beq.n	18ae <__ARM_grp_.debug_frame$t._ZN4mbed17rpc_method_callerINS_3SPIEiiXadL_ZNS1_6formatEiiEEEEvPNS_4BaseEPKcPc+0x3a>
    18a8:	f856 3c08 	ldr.w	r3, [r6, #-8]
    18ac:	9307      	str	r3, [sp, #28]
    18ae:	f89d 7014 	ldrb.w	r7, [sp, #20]
    18b2:	4638      	mov	r0, r7
    18b4:	f7ff ff2d 	bl	1712 <_ZN10__cxxabiv112_GLOBAL__N_111contained_pENS_17__class_type_info10__sub_kindE>
    18b8:	b128      	cbz	r0, 18c6 <__ARM_grp_.debug_frame$t._ZN4mbed17rpc_method_callerINS_3SPIEiiXadL_ZNS1_6formatEiiEEEEvPNS_4BaseEPKcPc+0x52>
    18ba:	9b02      	ldr	r3, [sp, #8]
    18bc:	b91b      	cbnz	r3, 18c6 <__ARM_grp_.debug_frame$t._ZN4mbed17rpc_method_callerINS_3SPIEiiXadL_ZNS1_6formatEiiEEEEvPNS_4BaseEPKcPc+0x52>
    18be:	f027 0702 	bic.w	r7, r7, #2
    18c2:	f88d 7014 	strb.w	r7, [sp, #20]
    18c6:	68e1      	ldr	r1, [r4, #12]
    18c8:	b9c9      	cbnz	r1, 18fe <__ARM_grp_.debug_frame$t._ZN4mbed17rpc_method_callerINS_3SPIEiXadL_ZNS1_9frequencyEiEEEEvPNS_4BaseEPKcPc+0x32>
    18ca:	ab04      	add	r3, sp, #16
    18cc:	cb0f      	ldmia	r3, {r0, r1, r2, r3}
    18ce:	e884 000f 	stmia.w	r4, {r0, r1, r2, r3}
    18d2:	7927      	ldrb	r7, [r4, #4]
    18d4:	4638      	mov	r0, r7
    18d6:	f7ff ff1c 	bl	1712 <_ZN10__cxxabiv112_GLOBAL__N_111contained_pENS_17__class_type_info10__sub_kindE>
    18da:	2800      	cmp	r0, #0
    18dc:	d02c      	beq.n	1938 <__ARM_grp_.debug_frame$t._ZN4mbed17rpc_method_callerIiNS_3SPIEiXadL_ZNS1_5writeEiEEEEvPNS_4BaseEPKcPc+0x1c>
    18de:	f017 0f02 	tst.w	r7, #2
    18e2:	d003      	beq.n	18ec <__ARM_grp_.debug_frame$t._ZN4mbed17rpc_method_callerINS_3SPIEiXadL_ZNS1_9frequencyEiEEEEvPNS_4BaseEPKcPc+0x20>
    18e4:	68ab      	ldr	r3, [r5, #8]
    18e6:	f013 0f01 	tst.w	r3, #1
    18ea:	e006      	b.n	18fa <__ARM_grp_.debug_frame$t._ZN4mbed17rpc_method_callerINS_3SPIEiXadL_ZNS1_9frequencyEiEEEEvPNS_4BaseEPKcPc+0x2e>
    18ec:	4638      	mov	r0, r7
    18ee:	f7ff ff15 	bl	171c <_ZN10__cxxabiv112_GLOBAL__N_19virtual_pENS_17__class_type_info10__sub_kindE>
    18f2:	b308      	cbz	r0, 1938 <__ARM_grp_.debug_frame$t._ZN4mbed17rpc_method_callerIiNS_3SPIEiXadL_ZNS1_5writeEiEEEEvPNS_4BaseEPKcPc+0x1c>
    18f4:	68ab      	ldr	r3, [r5, #8]
    18f6:	f013 0f02 	tst.w	r3, #2
    18fa:	d114      	bne.n	1926 <__ARM_grp_.debug_frame$t._ZN4mbed17rpc_method_callerIiNS_3SPIEiXadL_ZNS1_5writeEiEEEEvPNS_4BaseEPKcPc+0xa>
    18fc:	e01c      	b.n	1938 <__ARM_grp_.debug_frame$t._ZN4mbed17rpc_method_callerIiNS_3SPIEiXadL_ZNS1_5writeEiEEEEvPNS_4BaseEPKcPc+0x1c>
    18fe:	6823      	ldr	r3, [r4, #0]
    1900:	9a04      	ldr	r2, [sp, #16]
    1902:	4293      	cmp	r3, r2
    1904:	d003      	beq.n	190e <__ARM_grp_.debug_frame$t._ZN4mbed17rpc_method_callerINS_3SPIEiXadL_ZNS1_9frequencyEiEEEEvPNS_4BaseEPKcPc+0x42>
    1906:	2300      	movs	r3, #0
    1908:	6023      	str	r3, [r4, #0]
    190a:	3302      	adds	r3, #2
    190c:	e009      	b.n	1922 <__ARM_grp_.debug_frame$t._ZN4mbed17rpc_method_callerIiNS_3SPIEiXadL_ZNS1_5writeEiEEEEvPNS_4BaseEPKcPc+0x6>
    190e:	b9bb      	cbnz	r3, 1940 <__ARM_grp_.debug_frame$t._ZN4mbed17rpc_method_callerIiNS_3SPIEiXadL_ZNS1_5writeEiEEEEvPNS_4BaseEPKcPc+0x24>
    1910:	9807      	ldr	r0, [sp, #28]
    1912:	2808      	cmp	r0, #8
    1914:	d004      	beq.n	1920 <__ARM_grp_.debug_frame$t._ZN4mbed17rpc_method_callerIiNS_3SPIEiXadL_ZNS1_5writeEiEEEEvPNS_4BaseEPKcPc+0x4>
    1916:	2908      	cmp	r1, #8
    1918:	d002      	beq.n	1920 <__ARM_grp_.debug_frame$t._ZN4mbed17rpc_method_callerIiNS_3SPIEiXadL_ZNS1_5writeEiEEEEvPNS_4BaseEPKcPc+0x4>
    191a:	f7ff fede 	bl	16da <_ZNKSt9type_infoeqERKS_>
    191e:	b978      	cbnz	r0, 1940 <__ARM_grp_.debug_frame$t._ZN4mbed17rpc_method_callerIiNS_3SPIEiXadL_ZNS1_5writeEiEEEEvPNS_4BaseEPKcPc+0x24>
    1920:	2302      	movs	r3, #2
    1922:	7123      	strb	r3, [r4, #4]
    1924:	e008      	b.n	1938 <__ARM_grp_.debug_frame$t._ZN4mbed17rpc_method_callerIiNS_3SPIEiXadL_ZNS1_5writeEiEEEEvPNS_4BaseEPKcPc+0x1c>
    1926:	3e08      	subs	r6, #8
    1928:	f1b8 0f00 	cmp.w	r8, #0
    192c:	d185      	bne.n	183a <__ARM_grp_.debug_frame$i._ZN4mbed9parse_argI7PinNameEET_PKcPS4_+0x1a>
    192e:	7920      	ldrb	r0, [r4, #4]
    1930:	3800      	subs	r0, #0
    1932:	bf18      	it	ne
    1934:	2001      	movne	r0, #1
    1936:	e000      	b.n	193a <__ARM_grp_.debug_frame$t._ZN4mbed17rpc_method_callerIiNS_3SPIEiXadL_ZNS1_5writeEiEEEEvPNS_4BaseEPKcPc+0x1e>
    1938:	2001      	movs	r0, #1
    193a:	b009      	add	sp, #36	; 0x24
    193c:	e8bd 8ff0 	ldmia.w	sp!, {r4, r5, r6, r7, r8, r9, sl, fp, pc}
    1940:	7923      	ldrb	r3, [r4, #4]
    1942:	f89d 2014 	ldrb.w	r2, [sp, #20]
    1946:	ea42 0303 	orr.w	r3, r2, r3
    194a:	7123      	strb	r3, [r4, #4]
    194c:	e7eb      	b.n	1926 <__ARM_grp_.debug_frame$t._ZN4mbed17rpc_method_callerIiNS_3SPIEiXadL_ZNS1_5writeEiEEEEvPNS_4BaseEPKcPc+0xa>

0000194e <_ZNK10__cxxabiv121__vmi_class_type_info12__do_dyncastEiNS_17__class_type_info10__sub_kindEPKS1_PKvS4_S6_RNS1_16__dyncast_resultE>:
    194e:	e92d 4ff0 	stmdb	sp!, {r4, r5, r6, r7, r8, r9, sl, fp, lr}
    1952:	b091      	sub	sp, #68	; 0x44
    1954:	4607      	mov	r7, r0
    1956:	4689      	mov	r9, r1
    1958:	9c1d      	ldr	r4, [sp, #116]	; 0x74
    195a:	9307      	str	r3, [sp, #28]
    195c:	9206      	str	r2, [sp, #24]
    195e:	68a3      	ldr	r3, [r4, #8]
    1960:	9a1a      	ldr	r2, [sp, #104]	; 0x68
    1962:	f013 0f10 	tst.w	r3, #16
    1966:	bf1c      	itt	ne
    1968:	6883      	ldrne	r3, [r0, #8]
    196a:	60a3      	strne	r3, [r4, #8]
    196c:	9b1c      	ldr	r3, [sp, #112]	; 0x70
    196e:	429a      	cmp	r2, r3
    1970:	f040 813e 	bne.w	1bf0 <__ARM_grp_.debug_frame$17+0x50>
    1974:	991b      	ldr	r1, [sp, #108]	; 0x6c
    1976:	f7ff feb0 	bl	16da <_ZNKSt9type_infoeqERKS_>
    197a:	2800      	cmp	r0, #0
    197c:	f000 8138 	beq.w	1bf0 <__ARM_grp_.debug_frame$17+0x50>
    1980:	9a06      	ldr	r2, [sp, #24]
    1982:	7162      	strb	r2, [r4, #5]
    1984:	e12e      	b.n	1be4 <__ARM_grp_.debug_frame$17+0x44>
    1986:	9b1a      	ldr	r3, [sp, #104]	; 0x68
    1988:	f1b9 0f00 	cmp.w	r9, #0
    198c:	9a06      	ldr	r2, [sp, #24]
    198e:	6023      	str	r3, [r4, #0]
    1990:	7122      	strb	r2, [r4, #4]
    1992:	db0a      	blt.n	19aa <__ARM_grp_.debug_frame$t._ZN4mbed19rpc_function_callerIPKc7PinNameS3_S3_S2_XadL_ZNS_4Base9constructINS_3SPIES3_S3_S3_S2_EES2_T0_T1_T2_T3_EEEEvS2_Pc+0x3a>
    1994:	4618      	mov	r0, r3
    1996:	4649      	mov	r1, r9
    1998:	f7ff fec3 	bl	1722 <_ZN10__cxxabiv112_GLOBAL__N_114adjust_pointerIvEEPKT_PKvi>
    199c:	9b1c      	ldr	r3, [sp, #112]	; 0x70
    199e:	4283      	cmp	r3, r0
    19a0:	bf14      	ite	ne
    19a2:	2001      	movne	r0, #1
    19a4:	2006      	moveq	r0, #6
    19a6:	71a0      	strb	r0, [r4, #6]
    19a8:	e11c      	b.n	1be4 <__ARM_grp_.debug_frame$17+0x44>
    19aa:	f119 0f02 	cmn.w	r9, #2
    19ae:	f040 8119 	bne.w	1be4 <__ARM_grp_.debug_frame$17+0x44>
    19b2:	2301      	movs	r3, #1
    19b4:	71a3      	strb	r3, [r4, #6]
    19b6:	e115      	b.n	1be4 <__ARM_grp_.debug_frame$17+0x44>
    19b8:	f1b9 0f00 	cmp.w	r9, #0
    19bc:	db04      	blt.n	19c8 <__ARM_grp_.debug_frame$t._ZN4mbed19rpc_function_callerIPKc7PinNameS3_S3_S2_XadL_ZNS_4Base9constructINS_3SPIES3_S3_S3_S2_EES2_T0_T1_T2_T3_EEEEvS2_Pc+0x58>
    19be:	981c      	ldr	r0, [sp, #112]	; 0x70
    19c0:	f1c9 0100 	rsb	r1, r9, #0
    19c4:	f7ff fead 	bl	1722 <_ZN10__cxxabiv112_GLOBAL__N_114adjust_pointerIvEEPKT_PKvi>
    19c8:	f04f 0800 	mov.w	r8, #0
    19cc:	2201      	movs	r2, #1
    19ce:	9008      	str	r0, [sp, #32]
    19d0:	f8cd 802c 	str.w	r8, [sp, #44]	; 0x2c
    19d4:	9209      	str	r2, [sp, #36]	; 0x24
    19d6:	e001      	b.n	19dc <__ARM_grp_.debug_frame$i._ZN4mbed3SPID0Ev>
    19d8:	f8cd a024 	str.w	sl, [sp, #36]	; 0x24
    19dc:	f8d7 a00c 	ldr.w	sl, [r7, #12]
    19e0:	f10a 0302 	add.w	r3, sl, #2
    19e4:	eb07 03c3 	add.w	r3, r7, r3, lsl #3
    19e8:	930a      	str	r3, [sp, #40]	; 0x28
    19ea:	e0f0      	b.n	1bce <__ARM_grp_.debug_frame$17+0x2e>
    19ec:	f10a 3aff 	add.w	sl, sl, #4294967295
    19f0:	68a1      	ldr	r1, [r4, #8]
    19f2:	f10a 0502 	add.w	r5, sl, #2
    19f6:	a80d      	add	r0, sp, #52	; 0x34
    19f8:	f7ff fd3a 	bl	1470 <_ZN10__cxxabiv117__class_type_info16__dyncast_resultC1Ei>
    19fc:	eb07 05c5 	add.w	r5, r7, r5, lsl #3
    1a00:	4628      	mov	r0, r5
    1a02:	f7ff feb2 	bl	176a <_ZNK10__cxxabiv122__base_class_type_info8__offsetEv>
    1a06:	4683      	mov	fp, r0
    1a08:	4628      	mov	r0, r5
    1a0a:	f7ff fea6 	bl	175a <_ZNK10__cxxabiv122__base_class_type_info14__is_virtual_pEv>
    1a0e:	4601      	mov	r1, r0
    1a10:	b118      	cbz	r0, 1a1a <__ARM_grp_.debug_frame$i._ZN4mbed3SPID0Ev+0x3e>
    1a12:	9b06      	ldr	r3, [sp, #24]
    1a14:	f043 0601 	orr.w	r6, r3, #1
    1a18:	e000      	b.n	1a1c <__ARM_grp_.debug_frame$i._ZN4mbed3SPID0Ev+0x40>
    1a1a:	9e06      	ldr	r6, [sp, #24]
    1a1c:	465a      	mov	r2, fp
    1a1e:	981a      	ldr	r0, [sp, #104]	; 0x68
    1a20:	f7ff fe81 	bl	1726 <_ZN10__cxxabiv112_GLOBAL__N_115convert_to_baseEPKvbi>
    1a24:	9a08      	ldr	r2, [sp, #32]
    1a26:	4683      	mov	fp, r0
    1a28:	b13a      	cbz	r2, 1a3a <__ARM_grp_.debug_frame$i._ZN4mbed8next_argEPKc+0xe>
    1a2a:	4290      	cmp	r0, r2
    1a2c:	9a09      	ldr	r2, [sp, #36]	; 0x24
    1a2e:	bf94      	ite	ls
    1a30:	2300      	movls	r3, #0
    1a32:	2301      	movhi	r3, #1
    1a34:	4293      	cmp	r3, r2
    1a36:	f000 80c5 	beq.w	1bc4 <__ARM_grp_.debug_frame$17+0x24>
    1a3a:	4628      	mov	r0, r5
    1a3c:	f7ff fe91 	bl	1762 <_ZNK10__cxxabiv122__base_class_type_info13__is_public_pEv>
    1a40:	b948      	cbnz	r0, 1a56 <__ARM_grp_.debug_frame$i._ZN4mbed8next_argEPKc+0x2a>
    1a42:	f119 0f02 	cmn.w	r9, #2
    1a46:	d104      	bne.n	1a52 <__ARM_grp_.debug_frame$i._ZN4mbed8next_argEPKc+0x26>
    1a48:	68a3      	ldr	r3, [r4, #8]
    1a4a:	f013 0f03 	tst.w	r3, #3
    1a4e:	f000 80bb 	beq.w	1bc8 <__ARM_grp_.debug_frame$17+0x28>
    1a52:	f006 06fd 	and.w	r6, r6, #253	; 0xfd
    1a56:	9b0a      	ldr	r3, [sp, #40]	; 0x28
    1a58:	4649      	mov	r1, r9
    1a5a:	9a1b      	ldr	r2, [sp, #108]	; 0x6c
    1a5c:	f853 0c08 	ldr.w	r0, [r3, #-8]
    1a60:	6803      	ldr	r3, [r0, #0]
    1a62:	9201      	str	r2, [sp, #4]
    1a64:	9a1c      	ldr	r2, [sp, #112]	; 0x70
    1a66:	f8cd b000 	str.w	fp, [sp]
    1a6a:	9202      	str	r2, [sp, #8]
    1a6c:	aa0d      	add	r2, sp, #52	; 0x34
    1a6e:	9203      	str	r2, [sp, #12]
    1a70:	4632      	mov	r2, r6
    1a72:	69dd      	ldr	r5, [r3, #28]
    1a74:	9b07      	ldr	r3, [sp, #28]
    1a76:	47a8      	blx	r5
    1a78:	f89d 503a 	ldrb.w	r5, [sp, #58]	; 0x3a
    1a7c:	7963      	ldrb	r3, [r4, #5]
    1a7e:	f89d 2039 	ldrb.w	r2, [sp, #57]	; 0x39
    1a82:	2d06      	cmp	r5, #6
    1a84:	ea42 0303 	orr.w	r3, r2, r3
    1a88:	7163      	strb	r3, [r4, #5]
    1a8a:	d001      	beq.n	1a90 <__ARM_grp_.debug_frame$5+0x20>
    1a8c:	2d02      	cmp	r5, #2
    1a8e:	d106      	bne.n	1a9e <__ARM_grp_.debug_frame$5+0x2e>
    1a90:	9b0d      	ldr	r3, [sp, #52]	; 0x34
    1a92:	71a5      	strb	r5, [r4, #6]
    1a94:	6023      	str	r3, [r4, #0]
    1a96:	f89d 3038 	ldrb.w	r3, [sp, #56]	; 0x38
    1a9a:	7123      	strb	r3, [r4, #4]
    1a9c:	e0a5      	b.n	1bea <__ARM_grp_.debug_frame$17+0x4a>
    1a9e:	f8d4 b000 	ldr.w	fp, [r4]
    1aa2:	f1b8 0f00 	cmp.w	r8, #0
    1aa6:	d110      	bne.n	1aca <__ARM_grp_.debug_frame$8+0xa>
    1aa8:	f1bb 0f00 	cmp.w	fp, #0
    1aac:	d10d      	bne.n	1aca <__ARM_grp_.debug_frame$8+0xa>
    1aae:	9a0d      	ldr	r2, [sp, #52]	; 0x34
    1ab0:	f89d 1038 	ldrb.w	r1, [sp, #56]	; 0x38
    1ab4:	6022      	str	r2, [r4, #0]
    1ab6:	7121      	strb	r1, [r4, #4]
    1ab8:	2a00      	cmp	r2, #0
    1aba:	d07e      	beq.n	1bba <__ARM_grp_.debug_frame$17+0x1a>
    1abc:	2b00      	cmp	r3, #0
    1abe:	d07c      	beq.n	1bba <__ARM_grp_.debug_frame$17+0x1a>
    1ac0:	68bb      	ldr	r3, [r7, #8]
    1ac2:	f013 0f01 	tst.w	r3, #1
    1ac6:	d178      	bne.n	1bba <__ARM_grp_.debug_frame$17+0x1a>
    1ac8:	e08f      	b.n	1bea <__ARM_grp_.debug_frame$17+0x4a>
    1aca:	f1bb 0f00 	cmp.w	fp, #0
    1ace:	d00b      	beq.n	1ae8 <__ARM_grp_.debug_frame$8+0x28>
    1ad0:	9a0d      	ldr	r2, [sp, #52]	; 0x34
    1ad2:	4593      	cmp	fp, r2
    1ad4:	d106      	bne.n	1ae4 <__ARM_grp_.debug_frame$8+0x24>
    1ad6:	7923      	ldrb	r3, [r4, #4]
    1ad8:	f89d 2038 	ldrb.w	r2, [sp, #56]	; 0x38
    1adc:	ea42 0303 	orr.w	r3, r2, r3
    1ae0:	7123      	strb	r3, [r4, #4]
    1ae2:	e06b      	b.n	1bbc <__ARM_grp_.debug_frame$17+0x1c>
    1ae4:	b932      	cbnz	r2, 1af4 <__ARM_grp_.debug_frame$8+0x34>
    1ae6:	b928      	cbnz	r0, 1af4 <__ARM_grp_.debug_frame$8+0x34>
    1ae8:	9a0d      	ldr	r2, [sp, #52]	; 0x34
    1aea:	2a00      	cmp	r2, #0
    1aec:	d066      	beq.n	1bbc <__ARM_grp_.debug_frame$17+0x1c>
    1aee:	f1b8 0f00 	cmp.w	r8, #0
    1af2:	d063      	beq.n	1bbc <__ARM_grp_.debug_frame$17+0x1c>
    1af4:	4618      	mov	r0, r3
    1af6:	79a6      	ldrb	r6, [r4, #6]
    1af8:	9305      	str	r3, [sp, #20]
    1afa:	f7ff fe0a 	bl	1712 <_ZN10__cxxabiv112_GLOBAL__N_111contained_pENS_17__class_type_info10__sub_kindE>
    1afe:	9b05      	ldr	r3, [sp, #20]
    1b00:	2800      	cmp	r0, #0
    1b02:	d07d      	beq.n	1c00 <__ARM_grp_.debug_frame$20>
    1b04:	4618      	mov	r0, r3
    1b06:	f7ff fe09 	bl	171c <_ZN10__cxxabiv112_GLOBAL__N_19virtual_pENS_17__class_type_info10__sub_kindE>
    1b0a:	b118      	cbz	r0, 1b14 <__ARM_grp_.debug_frame$11+0x10>
    1b0c:	68a3      	ldr	r3, [r4, #8]
    1b0e:	f013 0f02 	tst.w	r3, #2
    1b12:	d175      	bne.n	1c00 <__ARM_grp_.debug_frame$20>
    1b14:	2e00      	cmp	r6, #0
    1b16:	bf08      	it	eq
    1b18:	2601      	moveq	r6, #1
    1b1a:	2d00      	cmp	r5, #0
    1b1c:	bf08      	it	eq
    1b1e:	2501      	moveq	r5, #1
    1b20:	e01e      	b.n	1b60 <__ARM_grp_.debug_frame$14+0x18>
    1b22:	4628      	mov	r0, r5
    1b24:	f7ff fdf5 	bl	1712 <_ZN10__cxxabiv112_GLOBAL__N_111contained_pENS_17__class_type_info10__sub_kindE>
    1b28:	2800      	cmp	r0, #0
    1b2a:	d06c      	beq.n	1c06 <__ARM_grp_.debug_frame$20+0x6>
    1b2c:	4628      	mov	r0, r5
    1b2e:	f7ff fdf5 	bl	171c <_ZN10__cxxabiv112_GLOBAL__N_19virtual_pENS_17__class_type_info10__sub_kindE>
    1b32:	b118      	cbz	r0, 1b3c <__ARM_grp_.debug_frame$11+0x38>
    1b34:	68bb      	ldr	r3, [r7, #8]
    1b36:	f013 0f02 	tst.w	r3, #2
    1b3a:	d164      	bne.n	1c06 <__ARM_grp_.debug_frame$20+0x6>
    1b3c:	2601      	movs	r6, #1
    1b3e:	b97d      	cbnz	r5, 1b60 <__ARM_grp_.debug_frame$14+0x18>
    1b40:	4630      	mov	r0, r6
    1b42:	f7ff fde6 	bl	1712 <_ZN10__cxxabiv112_GLOBAL__N_111contained_pENS_17__class_type_info10__sub_kindE>
    1b46:	2800      	cmp	r0, #0
    1b48:	d067      	beq.n	1c1a <__ARM_grp_.debug_frame$20+0x1a>
    1b4a:	4630      	mov	r0, r6
    1b4c:	f7ff fde6 	bl	171c <_ZN10__cxxabiv112_GLOBAL__N_19virtual_pENS_17__class_type_info10__sub_kindE>
    1b50:	b128      	cbz	r0, 1b5e <__ARM_grp_.debug_frame$14+0x16>
    1b52:	68bb      	ldr	r3, [r7, #8]
    1b54:	f013 0f02 	tst.w	r3, #2
    1b58:	d15f      	bne.n	1c1a <__ARM_grp_.debug_frame$20+0x1a>
    1b5a:	3501      	adds	r5, #1
    1b5c:	e000      	b.n	1b60 <__ARM_grp_.debug_frame$14+0x18>
    1b5e:	2501      	movs	r5, #1
    1b60:	ea86 0005 	eor.w	r0, r6, r5
    1b64:	b2c0      	uxtb	r0, r0
    1b66:	f7ff fdd4 	bl	1712 <_ZN10__cxxabiv112_GLOBAL__N_111contained_pENS_17__class_type_info10__sub_kindE>
    1b6a:	4683      	mov	fp, r0
    1b6c:	b1a0      	cbz	r0, 1b98 <__ARM_grp_.debug_frame$14+0x50>
    1b6e:	4628      	mov	r0, r5
    1b70:	f7ff fdcf 	bl	1712 <_ZN10__cxxabiv112_GLOBAL__N_111contained_pENS_17__class_type_info10__sub_kindE>
    1b74:	b138      	cbz	r0, 1b86 <__ARM_grp_.debug_frame$14+0x3e>
    1b76:	9b0d      	ldr	r3, [sp, #52]	; 0x34
    1b78:	462e      	mov	r6, r5
    1b7a:	f04f 0800 	mov.w	r8, #0
    1b7e:	6023      	str	r3, [r4, #0]
    1b80:	f89d 3038 	ldrb.w	r3, [sp, #56]	; 0x38
    1b84:	7123      	strb	r3, [r4, #4]
    1b86:	f016 0f02 	tst.w	r6, #2
    1b8a:	71a6      	strb	r6, [r4, #6]
    1b8c:	d12a      	bne.n	1be4 <__ARM_grp_.debug_frame$17+0x44>
    1b8e:	4630      	mov	r0, r6
    1b90:	f7ff fdc4 	bl	171c <_ZN10__cxxabiv112_GLOBAL__N_19virtual_pENS_17__class_type_info10__sub_kindE>
    1b94:	b990      	cbnz	r0, 1bbc <__ARM_grp_.debug_frame$17+0x1c>
    1b96:	e028      	b.n	1bea <__ARM_grp_.debug_frame$17+0x4a>
    1b98:	ea06 0505 	and.w	r5, r6, r5
    1b9c:	f04f 0801 	mov.w	r8, #1
    1ba0:	b2e8      	uxtb	r0, r5
    1ba2:	f7ff fdb6 	bl	1712 <_ZN10__cxxabiv112_GLOBAL__N_111contained_pENS_17__class_type_info10__sub_kindE>
    1ba6:	b120      	cbz	r0, 1bb2 <__ARM_grp_.debug_frame$17+0x12>
    1ba8:	2302      	movs	r3, #2
    1baa:	f8c4 b000 	str.w	fp, [r4]
    1bae:	71a3      	strb	r3, [r4, #6]
    1bb0:	e01a      	b.n	1be8 <__ARM_grp_.debug_frame$17+0x48>
    1bb2:	6020      	str	r0, [r4, #0]
    1bb4:	f884 8006 	strb.w	r8, [r4, #6]
    1bb8:	e000      	b.n	1bbc <__ARM_grp_.debug_frame$17+0x1c>
    1bba:	4680      	mov	r8, r0
    1bbc:	7963      	ldrb	r3, [r4, #5]
    1bbe:	2b04      	cmp	r3, #4
    1bc0:	d102      	bne.n	1bc8 <__ARM_grp_.debug_frame$17+0x28>
    1bc2:	e011      	b.n	1be8 <__ARM_grp_.debug_frame$17+0x48>
    1bc4:	2301      	movs	r3, #1
    1bc6:	930b      	str	r3, [sp, #44]	; 0x2c
    1bc8:	9a0a      	ldr	r2, [sp, #40]	; 0x28
    1bca:	3a08      	subs	r2, #8
    1bcc:	920a      	str	r2, [sp, #40]	; 0x28
    1bce:	f1ba 0f00 	cmp.w	sl, #0
    1bd2:	f47f af0b 	bne.w	19ec <__ARM_grp_.debug_frame$i._ZN4mbed3SPID0Ev+0x10>
    1bd6:	9b0b      	ldr	r3, [sp, #44]	; 0x2c
    1bd8:	b133      	cbz	r3, 1be8 <__ARM_grp_.debug_frame$17+0x48>
    1bda:	9a09      	ldr	r2, [sp, #36]	; 0x24
    1bdc:	2a00      	cmp	r2, #0
    1bde:	f47f aefb 	bne.w	19d8 <__ARM_grp_.debug_frame$t._ZN4mbed19rpc_function_callerIPKc7PinNameS3_S3_S2_XadL_ZNS_4Base9constructINS_3SPIES3_S3_S3_S2_EES2_T0_T1_T2_T3_EEEEvS2_Pc+0x68>
    1be2:	e001      	b.n	1be8 <__ARM_grp_.debug_frame$17+0x48>
    1be4:	2000      	movs	r0, #0
    1be6:	e000      	b.n	1bea <__ARM_grp_.debug_frame$17+0x4a>
    1be8:	4640      	mov	r0, r8
    1bea:	b011      	add	sp, #68	; 0x44
    1bec:	e8bd 8ff0 	ldmia.w	sp!, {r4, r5, r6, r7, r8, r9, sl, fp, pc}
    1bf0:	4638      	mov	r0, r7
    1bf2:	9907      	ldr	r1, [sp, #28]
    1bf4:	f7ff fd71 	bl	16da <_ZNKSt9type_infoeqERKS_>
    1bf8:	2800      	cmp	r0, #0
    1bfa:	f47f aec4 	bne.w	1986 <__ARM_grp_.debug_frame$t._ZN4mbed19rpc_function_callerIPKc7PinNameS3_S3_S2_XadL_ZNS_4Base9constructINS_3SPIES3_S3_S3_S2_EES2_T0_T1_T2_T3_EEEEvS2_Pc+0x16>
    1bfe:	e6db      	b.n	19b8 <__ARM_grp_.debug_frame$t._ZN4mbed19rpc_function_callerIPKc7PinNameS3_S3_S2_XadL_ZNS_4Base9constructINS_3SPIES3_S3_S3_S2_EES2_T0_T1_T2_T3_EEEEvS2_Pc+0x48>
    1c00:	2e00      	cmp	r6, #0
    1c02:	d19c      	bne.n	1b3e <__ARM_grp_.debug_frame$11+0x3a>
    1c04:	e78d      	b.n	1b22 <__ARM_grp_.debug_frame$11+0x1e>
    1c06:	9b1c      	ldr	r3, [sp, #112]	; 0x70
    1c08:	4649      	mov	r1, r9
    1c0a:	9807      	ldr	r0, [sp, #28]
    1c0c:	465a      	mov	r2, fp
    1c0e:	9300      	str	r3, [sp, #0]
    1c10:	9b1b      	ldr	r3, [sp, #108]	; 0x6c
    1c12:	f7ff fc34 	bl	147e <_ZNK10__cxxabiv117__class_type_info17__find_public_srcEiPKvPKS0_S2_>
    1c16:	4606      	mov	r6, r0
    1c18:	e791      	b.n	1b3e <__ARM_grp_.debug_frame$11+0x3a>
    1c1a:	9a1c      	ldr	r2, [sp, #112]	; 0x70
    1c1c:	4649      	mov	r1, r9
    1c1e:	9807      	ldr	r0, [sp, #28]
    1c20:	9b1b      	ldr	r3, [sp, #108]	; 0x6c
    1c22:	9200      	str	r2, [sp, #0]
    1c24:	9a0d      	ldr	r2, [sp, #52]	; 0x34
    1c26:	f7ff fc2a 	bl	147e <_ZNK10__cxxabiv117__class_type_info17__find_public_srcEiPKvPKS0_S2_>
    1c2a:	4605      	mov	r5, r0
    1c2c:	e798      	b.n	1b60 <__ARM_grp_.debug_frame$14+0x18>

00001c2e <_ZN10__cxxabiv111__terminateEPFvvE>:
    1c2e:	b508      	push	{r3, lr}
    1c30:	4780      	blx	r0
    1c32:	f003 fb4f 	bl	52d4 <abort>
	...

00001c38 <_ZSt9terminatev>:
    1c38:	b508      	push	{r3, lr}
    1c3a:	4b02      	ldr	r3, [pc, #8]	; (1c44 <_ZSt9terminatev+0xc>)
    1c3c:	6818      	ldr	r0, [r3, #0]
    1c3e:	f7ff fff6 	bl	1c2e <_ZN10__cxxabiv111__terminateEPFvvE>
    1c42:	bf00      	nop
    1c44:	100000f8 	.word	0x100000f8

00001c48 <_ZN9__gnu_cxx27__verbose_terminate_handlerEv>:
    1c48:	4b1d      	ldr	r3, [pc, #116]	; (1cc0 <__ARM_grp_.debug_frame$26+0x10>)
    1c4a:	b573      	push	{r0, r1, r4, r5, r6, lr}
    1c4c:	781e      	ldrb	r6, [r3, #0]
    1c4e:	4c1d      	ldr	r4, [pc, #116]	; (1cc4 <__ARM_grp_.debug_frame$26+0x14>)
    1c50:	b116      	cbz	r6, 1c58 <__ARM_grp_.debug_frame$23>
    1c52:	6823      	ldr	r3, [r4, #0]
    1c54:	481c      	ldr	r0, [pc, #112]	; (1cc8 <__ARM_grp_.debug_frame$26+0x18>)
    1c56:	e02d      	b.n	1cb4 <__ARM_grp_.debug_frame$26+0x4>
    1c58:	2201      	movs	r2, #1
    1c5a:	701a      	strb	r2, [r3, #0]
    1c5c:	f002 fb8e 	bl	437c <__cxa_current_exception_type>
    1c60:	b330      	cbz	r0, 1cb0 <__ARM_grp_.debug_frame$26>
    1c62:	f7ff fd34 	bl	16ce <_ZNKSt9type_info4nameEv>
    1c66:	ab02      	add	r3, sp, #8
    1c68:	4631      	mov	r1, r6
    1c6a:	f04f 32ff 	mov.w	r2, #4294967295
    1c6e:	f843 2d04 	str.w	r2, [r3, #-4]!
    1c72:	4632      	mov	r2, r6
    1c74:	4605      	mov	r5, r0
    1c76:	f002 fb11 	bl	429c <__cxa_demangle>
    1c7a:	6823      	ldr	r3, [r4, #0]
    1c7c:	68d9      	ldr	r1, [r3, #12]
    1c7e:	4606      	mov	r6, r0
    1c80:	4812      	ldr	r0, [pc, #72]	; (1ccc <__ARM_grp_.debug_frame$26+0x1c>)
    1c82:	f003 fdcb 	bl	581c <fputs>
    1c86:	9b01      	ldr	r3, [sp, #4]
    1c88:	b913      	cbnz	r3, 1c90 <__ARM_grp_.debug_frame$23+0x38>
    1c8a:	6823      	ldr	r3, [r4, #0]
    1c8c:	4630      	mov	r0, r6
    1c8e:	e001      	b.n	1c94 <__ARM_grp_.debug_frame$23+0x3c>
    1c90:	6823      	ldr	r3, [r4, #0]
    1c92:	4628      	mov	r0, r5
    1c94:	68d9      	ldr	r1, [r3, #12]
    1c96:	f003 fdc1 	bl	581c <fputs>
    1c9a:	6823      	ldr	r3, [r4, #0]
    1c9c:	480c      	ldr	r0, [pc, #48]	; (1cd0 <__ARM_grp_.debug_frame$26+0x20>)
    1c9e:	68d9      	ldr	r1, [r3, #12]
    1ca0:	f003 fdbc 	bl	581c <fputs>
    1ca4:	9b01      	ldr	r3, [sp, #4]
    1ca6:	b943      	cbnz	r3, 1cba <__ARM_grp_.debug_frame$26+0xa>
    1ca8:	4630      	mov	r0, r6
    1caa:	f004 fad7 	bl	625c <free>
    1cae:	e004      	b.n	1cba <__ARM_grp_.debug_frame$26+0xa>
    1cb0:	6823      	ldr	r3, [r4, #0]
    1cb2:	4808      	ldr	r0, [pc, #32]	; (1cd4 <__ARM_grp_.debug_frame$26+0x24>)
    1cb4:	68d9      	ldr	r1, [r3, #12]
    1cb6:	f003 fdb1 	bl	581c <fputs>
    1cba:	f003 fb0b 	bl	52d4 <abort>
    1cbe:	bf00      	nop
    1cc0:	10000a90 	.word	0x10000a90
    1cc4:	100001ec 	.word	0x100001ec
    1cc8:	0000ffd0 	.word	0x0000ffd0
    1ccc:	0000ffee 	.word	0x0000ffee
    1cd0:	0001001f 	.word	0x0001001f
    1cd4:	00010022 	.word	0x00010022

00001cd8 <d_make_empty>:
    1cd8:	6942      	ldr	r2, [r0, #20]
    1cda:	4603      	mov	r3, r0
    1cdc:	6981      	ldr	r1, [r0, #24]
    1cde:	428a      	cmp	r2, r1
    1ce0:	da06      	bge.n	1cf0 <d_make_empty+0x18>
    1ce2:	6901      	ldr	r1, [r0, #16]
    1ce4:	200c      	movs	r0, #12
    1ce6:	fb00 1002 	mla	r0, r0, r2, r1
    1cea:	3201      	adds	r2, #1
    1cec:	615a      	str	r2, [r3, #20]
    1cee:	4770      	bx	lr
    1cf0:	2000      	movs	r0, #0
    1cf2:	4770      	bx	lr

00001cf4 <d_make_comp>:
    1cf4:	b570      	push	{r4, r5, r6, lr}
    1cf6:	461e      	mov	r6, r3
    1cf8:	1e4b      	subs	r3, r1, #1
    1cfa:	460c      	mov	r4, r1
    1cfc:	4615      	mov	r5, r2
    1cfe:	2b40      	cmp	r3, #64	; 0x40
    1d00:	d82f      	bhi.n	1d62 <__ARM_grp_.debug_frame$i._ZN4mbed11InterruptInD0Ev+0x2a>
    1d02:	e8df f003 	tbb	[pc, r3]
    1d06:	2121      	.short	0x2121
    1d08:	2e2e2121 	.word	0x2e2e2121
    1d0c:	24242e2e 	.word	0x24242e2e
    1d10:	24242421 	.word	0x24242421
    1d14:	24242424 	.word	0x24242424
    1d18:	2e242424 	.word	0x2e242424
    1d1c:	27272727 	.word	0x27272727
    1d20:	24212727 	.word	0x24212727
    1d24:	24242424 	.word	0x24242424
    1d28:	2627242e 	.word	0x2627242e
    1d2c:	27212e21 	.word	0x27212e21
    1d30:	242e2e27 	.word	0x242e2e27
    1d34:	21212121 	.word	0x21212121
    1d38:	21212121 	.word	0x21212121
    1d3c:	2e2e2124 	.word	0x2e2e2124
    1d40:	2e242424 	.word	0x2e242424
    1d44:	2e2e      	.short	0x2e2e
    1d46:	24          	.byte	0x24
    1d47:	00          	.byte	0x00
    1d48:	b17d      	cbz	r5, 1d6a <__ARM_grp_.debug_frame$i._ZN4mbed11InterruptInD0Ev+0x32>
    1d4a:	b91e      	cbnz	r6, 1d54 <__ARM_grp_.debug_frame$i._ZN4mbed11InterruptInD0Ev+0x1c>
    1d4c:	e00b      	b.n	1d66 <__ARM_grp_.debug_frame$i._ZN4mbed11InterruptInD0Ev+0x2e>
    1d4e:	b90d      	cbnz	r5, 1d54 <__ARM_grp_.debug_frame$i._ZN4mbed11InterruptInD0Ev+0x1c>
    1d50:	e00b      	b.n	1d6a <__ARM_grp_.debug_frame$i._ZN4mbed11InterruptInD0Ev+0x32>
    1d52:	b166      	cbz	r6, 1d6e <__ARM_grp_.debug_frame$i._ZN4mbed11InterruptInD0Ev+0x36>
    1d54:	f7ff ffc0 	bl	1cd8 <d_make_empty>
    1d58:	b150      	cbz	r0, 1d70 <__ARM_grp_.debug_frame$i._ZN4mbed11InterruptInD0Ev+0x38>
    1d5a:	7004      	strb	r4, [r0, #0]
    1d5c:	6045      	str	r5, [r0, #4]
    1d5e:	6086      	str	r6, [r0, #8]
    1d60:	bd70      	pop	{r4, r5, r6, pc}
    1d62:	2000      	movs	r0, #0
    1d64:	bd70      	pop	{r4, r5, r6, pc}
    1d66:	4630      	mov	r0, r6
    1d68:	bd70      	pop	{r4, r5, r6, pc}
    1d6a:	4628      	mov	r0, r5
    1d6c:	bd70      	pop	{r4, r5, r6, pc}
    1d6e:	4630      	mov	r0, r6
    1d70:	bd70      	pop	{r4, r5, r6, pc}

00001d72 <d_make_name>:
    1d72:	b538      	push	{r3, r4, r5, lr}
    1d74:	460c      	mov	r4, r1
    1d76:	4615      	mov	r5, r2
    1d78:	f7ff ffae 	bl	1cd8 <d_make_empty>
    1d7c:	b148      	cbz	r0, 1d92 <__ARM_grp_.debug_frame$5+0xa>
    1d7e:	b12c      	cbz	r4, 1d8c <__ARM_grp_.debug_frame$5+0x4>
    1d80:	b135      	cbz	r5, 1d90 <__ARM_grp_.debug_frame$5+0x8>
    1d82:	2300      	movs	r3, #0
    1d84:	6044      	str	r4, [r0, #4]
    1d86:	7003      	strb	r3, [r0, #0]
    1d88:	6085      	str	r5, [r0, #8]
    1d8a:	bd38      	pop	{r3, r4, r5, pc}
    1d8c:	4620      	mov	r0, r4
    1d8e:	bd38      	pop	{r3, r4, r5, pc}
    1d90:	4628      	mov	r0, r5
    1d92:	bd38      	pop	{r3, r4, r5, pc}

00001d94 <d_make_builtin_type>:
    1d94:	b510      	push	{r4, lr}
    1d96:	460c      	mov	r4, r1
    1d98:	b131      	cbz	r1, 1da8 <d_make_builtin_type+0x14>
    1d9a:	f7ff ff9d 	bl	1cd8 <d_make_empty>
    1d9e:	b120      	cbz	r0, 1daa <d_make_builtin_type+0x16>
    1da0:	2323      	movs	r3, #35	; 0x23
    1da2:	6044      	str	r4, [r0, #4]
    1da4:	7003      	strb	r3, [r0, #0]
    1da6:	bd10      	pop	{r4, pc}
    1da8:	4608      	mov	r0, r1
    1daa:	bd10      	pop	{r4, pc}

00001dac <d_make_sub>:
    1dac:	b538      	push	{r3, r4, r5, lr}
    1dae:	460c      	mov	r4, r1
    1db0:	4615      	mov	r5, r2
    1db2:	f7ff ff91 	bl	1cd8 <d_make_empty>
    1db6:	b118      	cbz	r0, 1dc0 <d_make_sub+0x14>
    1db8:	2316      	movs	r3, #22
    1dba:	6044      	str	r4, [r0, #4]
    1dbc:	7003      	strb	r3, [r0, #0]
    1dbe:	6085      	str	r5, [r0, #8]
    1dc0:	bd38      	pop	{r3, r4, r5, pc}

00001dc2 <d_cv_qualifiers>:
    1dc2:	b570      	push	{r4, r5, r6, lr}
    1dc4:	4604      	mov	r4, r0
    1dc6:	460d      	mov	r5, r1
    1dc8:	4616      	mov	r6, r2
    1dca:	68c3      	ldr	r3, [r0, #12]
    1dcc:	e022      	b.n	1e14 <__ARM_grp_.debug_frame$11+0x4>
    1dce:	68e2      	ldr	r2, [r4, #12]
    1dd0:	3201      	adds	r2, #1
    1dd2:	2b72      	cmp	r3, #114	; 0x72
    1dd4:	60e2      	str	r2, [r4, #12]
    1dd6:	d105      	bne.n	1de4 <__ARM_grp_.debug_frame$8+0x18>
    1dd8:	2e00      	cmp	r6, #0
    1dda:	bf0c      	ite	eq
    1ddc:	2117      	moveq	r1, #23
    1dde:	211a      	movne	r1, #26
    1de0:	6b23      	ldr	r3, [r4, #48]	; 0x30
    1de2:	e006      	b.n	1df2 <__ARM_grp_.debug_frame$8+0x26>
    1de4:	2b56      	cmp	r3, #86	; 0x56
    1de6:	6b23      	ldr	r3, [r4, #48]	; 0x30
    1de8:	d105      	bne.n	1df6 <__ARM_grp_.debug_frame$8+0x2a>
    1dea:	2e00      	cmp	r6, #0
    1dec:	bf0c      	ite	eq
    1dee:	2118      	moveq	r1, #24
    1df0:	211b      	movne	r1, #27
    1df2:	3309      	adds	r3, #9
    1df4:	e004      	b.n	1e00 <__ARM_grp_.debug_frame$8+0x34>
    1df6:	2e00      	cmp	r6, #0
    1df8:	bf0c      	ite	eq
    1dfa:	2119      	moveq	r1, #25
    1dfc:	211c      	movne	r1, #28
    1dfe:	3306      	adds	r3, #6
    1e00:	2200      	movs	r2, #0
    1e02:	6323      	str	r3, [r4, #48]	; 0x30
    1e04:	4620      	mov	r0, r4
    1e06:	4613      	mov	r3, r2
    1e08:	f7ff ff74 	bl	1cf4 <d_make_comp>
    1e0c:	6028      	str	r0, [r5, #0]
    1e0e:	b148      	cbz	r0, 1e24 <__ARM_grp_.debug_frame$11+0x14>
    1e10:	68e3      	ldr	r3, [r4, #12]
    1e12:	1d05      	adds	r5, r0, #4
    1e14:	781b      	ldrb	r3, [r3, #0]
    1e16:	2b56      	cmp	r3, #86	; 0x56
    1e18:	d0d9      	beq.n	1dce <__ARM_grp_.debug_frame$8+0x2>
    1e1a:	2b72      	cmp	r3, #114	; 0x72
    1e1c:	d0d7      	beq.n	1dce <__ARM_grp_.debug_frame$8+0x2>
    1e1e:	2b4b      	cmp	r3, #75	; 0x4b
    1e20:	d101      	bne.n	1e26 <__ARM_grp_.debug_frame$11+0x16>
    1e22:	e7d4      	b.n	1dce <__ARM_grp_.debug_frame$8+0x2>
    1e24:	4605      	mov	r5, r0
    1e26:	4628      	mov	r0, r5
    1e28:	bd70      	pop	{r4, r5, r6, pc}

00001e2a <d_add_substitution>:
    1e2a:	b151      	cbz	r1, 1e42 <d_add_substitution+0x18>
    1e2c:	6a03      	ldr	r3, [r0, #32]
    1e2e:	6a42      	ldr	r2, [r0, #36]	; 0x24
    1e30:	4293      	cmp	r3, r2
    1e32:	da08      	bge.n	1e46 <d_add_substitution+0x1c>
    1e34:	69c2      	ldr	r2, [r0, #28]
    1e36:	f842 1023 	str.w	r1, [r2, r3, lsl #2]
    1e3a:	3301      	adds	r3, #1
    1e3c:	6203      	str	r3, [r0, #32]
    1e3e:	2001      	movs	r0, #1
    1e40:	4770      	bx	lr
    1e42:	4608      	mov	r0, r1
    1e44:	4770      	bx	lr
    1e46:	2000      	movs	r0, #0
    1e48:	4770      	bx	lr

00001e4a <d_substitution>:
    1e4a:	68c3      	ldr	r3, [r0, #12]
    1e4c:	b570      	push	{r4, r5, r6, lr}
    1e4e:	4604      	mov	r4, r0
    1e50:	781a      	ldrb	r2, [r3, #0]
    1e52:	2a53      	cmp	r2, #83	; 0x53
    1e54:	d16f      	bne.n	1f36 <__ARM_grp_.debug_frame$8+0x92>
    1e56:	1c5a      	adds	r2, r3, #1
    1e58:	60c2      	str	r2, [r0, #12]
    1e5a:	785b      	ldrb	r3, [r3, #1]
    1e5c:	b11b      	cbz	r3, 1e66 <__ARM_grp_.debug_frame$5+0x12>
    1e5e:	3201      	adds	r2, #1
    1e60:	2b5f      	cmp	r3, #95	; 0x5f
    1e62:	60c2      	str	r2, [r0, #12]
    1e64:	d02e      	beq.n	1ec4 <__ARM_grp_.debug_frame$8+0x20>
    1e66:	f1a3 0230 	sub.w	r2, r3, #48	; 0x30
    1e6a:	b2d2      	uxtb	r2, r2
    1e6c:	2a09      	cmp	r2, #9
    1e6e:	d801      	bhi.n	1e74 <__ARM_grp_.debug_frame$5+0x20>
    1e70:	2200      	movs	r2, #0
    1e72:	e006      	b.n	1e82 <__ARM_grp_.debug_frame$5+0x2e>
    1e74:	f1a3 0241 	sub.w	r2, r3, #65	; 0x41
    1e78:	b2d2      	uxtb	r2, r2
    1e7a:	2a19      	cmp	r2, #25
    1e7c:	d9f8      	bls.n	1e70 <__ARM_grp_.debug_frame$5+0x1c>
    1e7e:	e02c      	b.n	1eda <__ARM_grp_.debug_frame$8+0x36>
    1e80:	460a      	mov	r2, r1
    1e82:	f1a3 0130 	sub.w	r1, r3, #48	; 0x30
    1e86:	b2c9      	uxtb	r1, r1
    1e88:	2909      	cmp	r1, #9
    1e8a:	d805      	bhi.n	1e98 <__ARM_grp_.debug_frame$5+0x44>
    1e8c:	2124      	movs	r1, #36	; 0x24
    1e8e:	fb01 3302 	mla	r3, r1, r2, r3
    1e92:	f1a3 0130 	sub.w	r1, r3, #48	; 0x30
    1e96:	e009      	b.n	1eac <__ARM_grp_.debug_frame$8+0x8>
    1e98:	f1a3 0141 	sub.w	r1, r3, #65	; 0x41
    1e9c:	b2c9      	uxtb	r1, r1
    1e9e:	2919      	cmp	r1, #25
    1ea0:	d849      	bhi.n	1f36 <__ARM_grp_.debug_frame$8+0x92>
    1ea2:	2124      	movs	r1, #36	; 0x24
    1ea4:	fb01 3302 	mla	r3, r1, r2, r3
    1ea8:	f1a3 0137 	sub.w	r1, r3, #55	; 0x37
    1eac:	4291      	cmp	r1, r2
    1eae:	d342      	bcc.n	1f36 <__ARM_grp_.debug_frame$8+0x92>
    1eb0:	68e2      	ldr	r2, [r4, #12]
    1eb2:	7813      	ldrb	r3, [r2, #0]
    1eb4:	2b00      	cmp	r3, #0
    1eb6:	d0e3      	beq.n	1e80 <__ARM_grp_.debug_frame$5+0x2c>
    1eb8:	3201      	adds	r2, #1
    1eba:	2b5f      	cmp	r3, #95	; 0x5f
    1ebc:	60e2      	str	r2, [r4, #12]
    1ebe:	d1df      	bne.n	1e80 <__ARM_grp_.debug_frame$5+0x2c>
    1ec0:	3101      	adds	r1, #1
    1ec2:	e000      	b.n	1ec6 <__ARM_grp_.debug_frame$8+0x22>
    1ec4:	2100      	movs	r1, #0
    1ec6:	6a23      	ldr	r3, [r4, #32]
    1ec8:	4299      	cmp	r1, r3
    1eca:	d236      	bcs.n	1f3a <__ARM_grp_.debug_frame$8+0x96>
    1ecc:	6aa3      	ldr	r3, [r4, #40]	; 0x28
    1ece:	3301      	adds	r3, #1
    1ed0:	62a3      	str	r3, [r4, #40]	; 0x28
    1ed2:	69e3      	ldr	r3, [r4, #28]
    1ed4:	f853 0021 	ldr.w	r0, [r3, r1, lsl #2]
    1ed8:	bd70      	pop	{r4, r5, r6, pc}
    1eda:	68a2      	ldr	r2, [r4, #8]
    1edc:	f012 0f08 	tst.w	r2, #8
    1ee0:	d109      	bne.n	1ef6 <__ARM_grp_.debug_frame$8+0x52>
    1ee2:	b151      	cbz	r1, 1efa <__ARM_grp_.debug_frame$8+0x56>
    1ee4:	68e2      	ldr	r2, [r4, #12]
    1ee6:	7816      	ldrb	r6, [r2, #0]
    1ee8:	3e43      	subs	r6, #67	; 0x43
    1eea:	b2f6      	uxtb	r6, r6
    1eec:	2e01      	cmp	r6, #1
    1eee:	bf8c      	ite	hi
    1ef0:	2600      	movhi	r6, #0
    1ef2:	2601      	movls	r6, #1
    1ef4:	e002      	b.n	1efc <__ARM_grp_.debug_frame$8+0x58>
    1ef6:	2601      	movs	r6, #1
    1ef8:	e000      	b.n	1efc <__ARM_grp_.debug_frame$8+0x58>
    1efa:	460e      	mov	r6, r1
    1efc:	2200      	movs	r2, #0
    1efe:	4910      	ldr	r1, [pc, #64]	; (1f40 <__ARM_grp_.debug_frame$8+0x9c>)
    1f00:	188d      	adds	r5, r1, r2
    1f02:	5c89      	ldrb	r1, [r1, r2]
    1f04:	4299      	cmp	r1, r3
    1f06:	d113      	bne.n	1f30 <__ARM_grp_.debug_frame$8+0x8c>
    1f08:	6969      	ldr	r1, [r5, #20]
    1f0a:	b121      	cbz	r1, 1f16 <__ARM_grp_.debug_frame$8+0x72>
    1f0c:	4620      	mov	r0, r4
    1f0e:	69aa      	ldr	r2, [r5, #24]
    1f10:	f7ff ff4c 	bl	1dac <d_make_sub>
    1f14:	62e0      	str	r0, [r4, #44]	; 0x2c
    1f16:	b116      	cbz	r6, 1f1e <__ARM_grp_.debug_frame$8+0x7a>
    1f18:	68e9      	ldr	r1, [r5, #12]
    1f1a:	692a      	ldr	r2, [r5, #16]
    1f1c:	e001      	b.n	1f22 <__ARM_grp_.debug_frame$8+0x7e>
    1f1e:	6869      	ldr	r1, [r5, #4]
    1f20:	68aa      	ldr	r2, [r5, #8]
    1f22:	6b23      	ldr	r3, [r4, #48]	; 0x30
    1f24:	4620      	mov	r0, r4
    1f26:	189b      	adds	r3, r3, r2
    1f28:	6323      	str	r3, [r4, #48]	; 0x30
    1f2a:	e8bd 4070 	ldmia.w	sp!, {r4, r5, r6, lr}
    1f2e:	e73d      	b.n	1dac <d_make_sub>
    1f30:	321c      	adds	r2, #28
    1f32:	2ac4      	cmp	r2, #196	; 0xc4
    1f34:	d1e3      	bne.n	1efe <__ARM_grp_.debug_frame$8+0x5a>
    1f36:	2000      	movs	r0, #0
    1f38:	bd70      	pop	{r4, r5, r6, pc}
    1f3a:	2000      	movs	r0, #0
    1f3c:	bd70      	pop	{r4, r5, r6, pc}
    1f3e:	bf00      	nop
    1f40:	00010050 	.word	0x00010050

00001f44 <d_print_flush>:
    1f44:	f8d0 1104 	ldr.w	r1, [r0, #260]	; 0x104
    1f48:	b538      	push	{r3, r4, r5, lr}
    1f4a:	4604      	mov	r4, r0
    1f4c:	1843      	adds	r3, r0, r1
    1f4e:	2500      	movs	r5, #0
    1f50:	f8d4 2110 	ldr.w	r2, [r4, #272]	; 0x110
    1f54:	711d      	strb	r5, [r3, #4]
    1f56:	f8d0 310c 	ldr.w	r3, [r0, #268]	; 0x10c
    1f5a:	3004      	adds	r0, #4
    1f5c:	4798      	blx	r3
    1f5e:	f8d4 3124 	ldr.w	r3, [r4, #292]	; 0x124
    1f62:	f8c4 5104 	str.w	r5, [r4, #260]	; 0x104
    1f66:	3301      	adds	r3, #1
    1f68:	f8c4 3124 	str.w	r3, [r4, #292]	; 0x124
    1f6c:	bd38      	pop	{r3, r4, r5, pc}

00001f6e <d_append_char>:
    1f6e:	b538      	push	{r3, r4, r5, lr}
    1f70:	4604      	mov	r4, r0
    1f72:	f8d0 3104 	ldr.w	r3, [r0, #260]	; 0x104
    1f76:	460d      	mov	r5, r1
    1f78:	2bff      	cmp	r3, #255	; 0xff
    1f7a:	d101      	bne.n	1f80 <d_append_char+0x12>
    1f7c:	f7ff ffe2 	bl	1f44 <d_print_flush>
    1f80:	f8d4 3104 	ldr.w	r3, [r4, #260]	; 0x104
    1f84:	f884 5108 	strb.w	r5, [r4, #264]	; 0x108
    1f88:	18e2      	adds	r2, r4, r3
    1f8a:	3301      	adds	r3, #1
    1f8c:	f8c4 3104 	str.w	r3, [r4, #260]	; 0x104
    1f90:	7115      	strb	r5, [r2, #4]
    1f92:	bd38      	pop	{r3, r4, r5, pc}

00001f94 <d_append_buffer>:
    1f94:	b5f8      	push	{r3, r4, r5, r6, r7, lr}
    1f96:	4605      	mov	r5, r0
    1f98:	460c      	mov	r4, r1
    1f9a:	4617      	mov	r7, r2
    1f9c:	2600      	movs	r6, #0
    1f9e:	e004      	b.n	1faa <d_append_buffer+0x16>
    1fa0:	5da1      	ldrb	r1, [r4, r6]
    1fa2:	4628      	mov	r0, r5
    1fa4:	f7ff ffe3 	bl	1f6e <d_append_char>
    1fa8:	3601      	adds	r6, #1
    1faa:	42be      	cmp	r6, r7
    1fac:	d1f8      	bne.n	1fa0 <d_append_buffer+0xc>
    1fae:	bdf8      	pop	{r3, r4, r5, r6, r7, pc}

00001fb0 <d_index_template_argument>:
    1fb0:	e006      	b.n	1fc0 <d_index_template_argument+0x10>
    1fb2:	7803      	ldrb	r3, [r0, #0]
    1fb4:	2b2b      	cmp	r3, #43	; 0x2b
    1fb6:	d109      	bne.n	1fcc <__ARM_grp_.debug_frame$5>
    1fb8:	2900      	cmp	r1, #0
    1fba:	dd03      	ble.n	1fc4 <d_index_template_argument+0x14>
    1fbc:	6880      	ldr	r0, [r0, #8]
    1fbe:	3901      	subs	r1, #1
    1fc0:	2800      	cmp	r0, #0
    1fc2:	d1f6      	bne.n	1fb2 <d_index_template_argument+0x2>
    1fc4:	b921      	cbnz	r1, 1fd0 <__ARM_grp_.debug_frame$5+0x4>
    1fc6:	b120      	cbz	r0, 1fd2 <__ARM_grp_.debug_frame$5+0x6>
    1fc8:	6840      	ldr	r0, [r0, #4]
    1fca:	4770      	bx	lr
    1fcc:	2000      	movs	r0, #0
    1fce:	4770      	bx	lr
    1fd0:	2000      	movs	r0, #0
    1fd2:	4770      	bx	lr

00001fd4 <d_append_string>:
    1fd4:	b570      	push	{r4, r5, r6, lr}
    1fd6:	4604      	mov	r4, r0
    1fd8:	4608      	mov	r0, r1
    1fda:	460d      	mov	r5, r1
    1fdc:	f004 ff1e 	bl	6e1c <strlen>
    1fe0:	4629      	mov	r1, r5
    1fe2:	4602      	mov	r2, r0
    1fe4:	4620      	mov	r0, r4
    1fe6:	e8bd 4070 	ldmia.w	sp!, {r4, r5, r6, lr}
    1fea:	e7d3      	b.n	1f94 <d_append_buffer>

00001fec <d_append_num>:
    1fec:	b510      	push	{r4, lr}
    1fee:	b088      	sub	sp, #32
    1ff0:	4604      	mov	r4, r0
    1ff2:	460a      	mov	r2, r1
    1ff4:	a801      	add	r0, sp, #4
    1ff6:	4904      	ldr	r1, [pc, #16]	; (2008 <d_append_num+0x1c>)
    1ff8:	f004 fe68 	bl	6ccc <sprintf>
    1ffc:	4620      	mov	r0, r4
    1ffe:	a901      	add	r1, sp, #4
    2000:	f7ff ffe8 	bl	1fd4 <d_append_string>
    2004:	b008      	add	sp, #32
    2006:	bd10      	pop	{r4, pc}
    2008:	00010df5 	.word	0x00010df5

0000200c <d_growable_string_resize>:
    200c:	68c3      	ldr	r3, [r0, #12]
    200e:	b570      	push	{r4, r5, r6, lr}
    2010:	4604      	mov	r4, r0
    2012:	b9c3      	cbnz	r3, 2046 <__ARM_grp_.debug_frame$8+0x36>
    2014:	6885      	ldr	r5, [r0, #8]
    2016:	2d00      	cmp	r5, #0
    2018:	bf08      	it	eq
    201a:	2502      	moveq	r5, #2
    201c:	e000      	b.n	2020 <__ARM_grp_.debug_frame$8+0x10>
    201e:	006d      	lsls	r5, r5, #1
    2020:	428d      	cmp	r5, r1
    2022:	d3fc      	bcc.n	201e <__ARM_grp_.debug_frame$8+0xe>
    2024:	6820      	ldr	r0, [r4, #0]
    2026:	4629      	mov	r1, r5
    2028:	f004 fbda 	bl	67e0 <realloc>
    202c:	4606      	mov	r6, r0
    202e:	b940      	cbnz	r0, 2042 <__ARM_grp_.debug_frame$8+0x32>
    2030:	6820      	ldr	r0, [r4, #0]
    2032:	f004 f913 	bl	625c <free>
    2036:	2301      	movs	r3, #1
    2038:	6026      	str	r6, [r4, #0]
    203a:	6066      	str	r6, [r4, #4]
    203c:	60a6      	str	r6, [r4, #8]
    203e:	60e3      	str	r3, [r4, #12]
    2040:	bd70      	pop	{r4, r5, r6, pc}
    2042:	6020      	str	r0, [r4, #0]
    2044:	60a5      	str	r5, [r4, #8]
    2046:	bd70      	pop	{r4, r5, r6, pc}

00002048 <d_growable_string_callback_adapter>:
    2048:	b5f8      	push	{r3, r4, r5, r6, r7, lr}
    204a:	460d      	mov	r5, r1
    204c:	6851      	ldr	r1, [r2, #4]
    204e:	4607      	mov	r7, r0
    2050:	6893      	ldr	r3, [r2, #8]
    2052:	4614      	mov	r4, r2
    2054:	3101      	adds	r1, #1
    2056:	1949      	adds	r1, r1, r5
    2058:	4299      	cmp	r1, r3
    205a:	d902      	bls.n	2062 <d_growable_string_callback_adapter+0x1a>
    205c:	4610      	mov	r0, r2
    205e:	f7ff ffd5 	bl	200c <d_growable_string_resize>
    2062:	68e6      	ldr	r6, [r4, #12]
    2064:	b96e      	cbnz	r6, 2082 <d_growable_string_callback_adapter+0x3a>
    2066:	6863      	ldr	r3, [r4, #4]
    2068:	462a      	mov	r2, r5
    206a:	6820      	ldr	r0, [r4, #0]
    206c:	4639      	mov	r1, r7
    206e:	18c0      	adds	r0, r0, r3
    2070:	f004 fb1c 	bl	66ac <memcpy>
    2074:	6822      	ldr	r2, [r4, #0]
    2076:	6863      	ldr	r3, [r4, #4]
    2078:	1952      	adds	r2, r2, r5
    207a:	54d6      	strb	r6, [r2, r3]
    207c:	6863      	ldr	r3, [r4, #4]
    207e:	195d      	adds	r5, r3, r5
    2080:	6065      	str	r5, [r4, #4]
    2082:	bdf8      	pop	{r3, r4, r5, r6, r7, pc}

00002084 <d_number.clone.0>:
    2084:	6803      	ldr	r3, [r0, #0]
    2086:	b510      	push	{r4, lr}
    2088:	781a      	ldrb	r2, [r3, #0]
    208a:	2a6e      	cmp	r2, #110	; 0x6e
    208c:	d104      	bne.n	2098 <d_number.clone.0+0x14>
    208e:	1c5a      	adds	r2, r3, #1
    2090:	2101      	movs	r1, #1
    2092:	6002      	str	r2, [r0, #0]
    2094:	785a      	ldrb	r2, [r3, #1]
    2096:	e000      	b.n	209a <d_number.clone.0+0x16>
    2098:	2100      	movs	r1, #0
    209a:	2300      	movs	r3, #0
    209c:	f1a2 0430 	sub.w	r4, r2, #48	; 0x30
    20a0:	b2e4      	uxtb	r4, r4
    20a2:	2c09      	cmp	r4, #9
    20a4:	d903      	bls.n	20ae <d_number.clone.0+0x2a>
    20a6:	b101      	cbz	r1, 20aa <d_number.clone.0+0x26>
    20a8:	425b      	negs	r3, r3
    20aa:	4618      	mov	r0, r3
    20ac:	bd10      	pop	{r4, pc}
    20ae:	240a      	movs	r4, #10
    20b0:	fb04 2303 	mla	r3, r4, r3, r2
    20b4:	6802      	ldr	r2, [r0, #0]
    20b6:	1c54      	adds	r4, r2, #1
    20b8:	6004      	str	r4, [r0, #0]
    20ba:	3b30      	subs	r3, #48	; 0x30
    20bc:	7852      	ldrb	r2, [r2, #1]
    20be:	e7ed      	b.n	209c <d_number.clone.0+0x18>

000020c0 <d_call_offset>:
    20c0:	b538      	push	{r3, r4, r5, lr}
    20c2:	4604      	mov	r4, r0
    20c4:	b929      	cbnz	r1, 20d2 <d_call_offset+0x12>
    20c6:	68c3      	ldr	r3, [r0, #12]
    20c8:	7818      	ldrb	r0, [r3, #0]
    20ca:	b310      	cbz	r0, 2112 <__ARM_grp_.debug_frame$5+0x2a>
    20cc:	4601      	mov	r1, r0
    20ce:	3301      	adds	r3, #1
    20d0:	60e3      	str	r3, [r4, #12]
    20d2:	2968      	cmp	r1, #104	; 0x68
    20d4:	d102      	bne.n	20dc <d_call_offset+0x1c>
    20d6:	f104 000c 	add.w	r0, r4, #12
    20da:	e00d      	b.n	20f8 <__ARM_grp_.debug_frame$5+0x10>
    20dc:	2976      	cmp	r1, #118	; 0x76
    20de:	d115      	bne.n	210c <__ARM_grp_.debug_frame$5+0x24>
    20e0:	f104 050c 	add.w	r5, r4, #12
    20e4:	4628      	mov	r0, r5
    20e6:	f7ff ffcd 	bl	2084 <d_number.clone.0>
    20ea:	68e3      	ldr	r3, [r4, #12]
    20ec:	781a      	ldrb	r2, [r3, #0]
    20ee:	2a5f      	cmp	r2, #95	; 0x5f
    20f0:	d10c      	bne.n	210c <__ARM_grp_.debug_frame$5+0x24>
    20f2:	4628      	mov	r0, r5
    20f4:	3301      	adds	r3, #1
    20f6:	60e3      	str	r3, [r4, #12]
    20f8:	f7ff ffc4 	bl	2084 <d_number.clone.0>
    20fc:	68e3      	ldr	r3, [r4, #12]
    20fe:	781a      	ldrb	r2, [r3, #0]
    2100:	2a5f      	cmp	r2, #95	; 0x5f
    2102:	d105      	bne.n	2110 <__ARM_grp_.debug_frame$5+0x28>
    2104:	3301      	adds	r3, #1
    2106:	2001      	movs	r0, #1
    2108:	60e3      	str	r3, [r4, #12]
    210a:	bd38      	pop	{r3, r4, r5, pc}
    210c:	2000      	movs	r0, #0
    210e:	bd38      	pop	{r3, r4, r5, pc}
    2110:	2000      	movs	r0, #0
    2112:	bd38      	pop	{r3, r4, r5, pc}

00002114 <d_compact_number>:
    2114:	68c3      	ldr	r3, [r0, #12]
    2116:	b510      	push	{r4, lr}
    2118:	4604      	mov	r4, r0
    211a:	781b      	ldrb	r3, [r3, #0]
    211c:	2b5f      	cmp	r3, #95	; 0x5f
    211e:	d006      	beq.n	212e <d_compact_number+0x1a>
    2120:	2b6e      	cmp	r3, #110	; 0x6e
    2122:	d00c      	beq.n	213e <__ARM_grp_.debug_frame$8+0x6>
    2124:	300c      	adds	r0, #12
    2126:	f7ff ffad 	bl	2084 <d_number.clone.0>
    212a:	3001      	adds	r0, #1
    212c:	e000      	b.n	2130 <d_compact_number+0x1c>
    212e:	2000      	movs	r0, #0
    2130:	68e3      	ldr	r3, [r4, #12]
    2132:	781a      	ldrb	r2, [r3, #0]
    2134:	2a5f      	cmp	r2, #95	; 0x5f
    2136:	d105      	bne.n	2144 <__ARM_grp_.debug_frame$8+0xc>
    2138:	3301      	adds	r3, #1
    213a:	60e3      	str	r3, [r4, #12]
    213c:	bd10      	pop	{r4, pc}
    213e:	f04f 30ff 	mov.w	r0, #4294967295
    2142:	bd10      	pop	{r4, pc}
    2144:	f04f 30ff 	mov.w	r0, #4294967295
    2148:	bd10      	pop	{r4, pc}

0000214a <d_template_param>:
    214a:	b538      	push	{r3, r4, r5, lr}
    214c:	4604      	mov	r4, r0
    214e:	68c3      	ldr	r3, [r0, #12]
    2150:	781a      	ldrb	r2, [r3, #0]
    2152:	2a54      	cmp	r2, #84	; 0x54
    2154:	d110      	bne.n	2178 <d_template_param+0x2e>
    2156:	3301      	adds	r3, #1
    2158:	60c3      	str	r3, [r0, #12]
    215a:	f7ff ffdb 	bl	2114 <d_compact_number>
    215e:	1e05      	subs	r5, r0, #0
    2160:	db0c      	blt.n	217c <d_template_param+0x32>
    2162:	6aa3      	ldr	r3, [r4, #40]	; 0x28
    2164:	4620      	mov	r0, r4
    2166:	3301      	adds	r3, #1
    2168:	62a3      	str	r3, [r4, #40]	; 0x28
    216a:	f7ff fdb5 	bl	1cd8 <d_make_empty>
    216e:	b130      	cbz	r0, 217e <d_template_param+0x34>
    2170:	2305      	movs	r3, #5
    2172:	6045      	str	r5, [r0, #4]
    2174:	7003      	strb	r3, [r0, #0]
    2176:	bd38      	pop	{r3, r4, r5, pc}
    2178:	2000      	movs	r0, #0
    217a:	bd38      	pop	{r3, r4, r5, pc}
    217c:	2000      	movs	r0, #0
    217e:	bd38      	pop	{r3, r4, r5, pc}

00002180 <d_discriminator>:
    2180:	b508      	push	{r3, lr}
    2182:	68c3      	ldr	r3, [r0, #12]
    2184:	781a      	ldrb	r2, [r3, #0]
    2186:	2a5f      	cmp	r2, #95	; 0x5f
    2188:	d107      	bne.n	219a <__ARM_grp_.debug_frame$11+0x2>
    218a:	3301      	adds	r3, #1
    218c:	f840 3f0c 	str.w	r3, [r0, #12]!
    2190:	f7ff ff78 	bl	2084 <d_number.clone.0>
    2194:	43c0      	mvns	r0, r0
    2196:	0fc0      	lsrs	r0, r0, #31
    2198:	bd08      	pop	{r3, pc}
    219a:	2001      	movs	r0, #1
    219c:	bd08      	pop	{r3, pc}

0000219e <d_source_name>:
    219e:	b570      	push	{r4, r5, r6, lr}
    21a0:	4604      	mov	r4, r0
    21a2:	300c      	adds	r0, #12
    21a4:	f7ff ff6e 	bl	2084 <d_number.clone.0>
    21a8:	1e06      	subs	r6, r0, #0
    21aa:	dd34      	ble.n	2216 <__ARM_grp_.debug_frame$14+0x2e>
    21ac:	68e5      	ldr	r5, [r4, #12]
    21ae:	6863      	ldr	r3, [r4, #4]
    21b0:	1b5b      	subs	r3, r3, r5
    21b2:	42b3      	cmp	r3, r6
    21b4:	db2c      	blt.n	2210 <__ARM_grp_.debug_frame$14+0x28>
    21b6:	68a2      	ldr	r2, [r4, #8]
    21b8:	19ab      	adds	r3, r5, r6
    21ba:	60e3      	str	r3, [r4, #12]
    21bc:	f012 0f04 	tst.w	r2, #4
    21c0:	d004      	beq.n	21cc <d_source_name+0x2e>
    21c2:	5daa      	ldrb	r2, [r5, r6]
    21c4:	2a24      	cmp	r2, #36	; 0x24
    21c6:	d101      	bne.n	21cc <d_source_name+0x2e>
    21c8:	3301      	adds	r3, #1
    21ca:	60e3      	str	r3, [r4, #12]
    21cc:	2e09      	cmp	r6, #9
    21ce:	dd19      	ble.n	2204 <__ARM_grp_.debug_frame$14+0x1c>
    21d0:	4628      	mov	r0, r5
    21d2:	4912      	ldr	r1, [pc, #72]	; (221c <__ARM_grp_.debug_frame$14+0x34>)
    21d4:	2208      	movs	r2, #8
    21d6:	f004 fa5b 	bl	6690 <memcmp>
    21da:	b998      	cbnz	r0, 2204 <__ARM_grp_.debug_frame$14+0x1c>
    21dc:	7a2b      	ldrb	r3, [r5, #8]
    21de:	f105 0208 	add.w	r2, r5, #8
    21e2:	2b2e      	cmp	r3, #46	; 0x2e
    21e4:	d003      	beq.n	21ee <__ARM_grp_.debug_frame$14+0x6>
    21e6:	2b5f      	cmp	r3, #95	; 0x5f
    21e8:	d001      	beq.n	21ee <__ARM_grp_.debug_frame$14+0x6>
    21ea:	2b24      	cmp	r3, #36	; 0x24
    21ec:	d10a      	bne.n	2204 <__ARM_grp_.debug_frame$14+0x1c>
    21ee:	7853      	ldrb	r3, [r2, #1]
    21f0:	2b4e      	cmp	r3, #78	; 0x4e
    21f2:	d107      	bne.n	2204 <__ARM_grp_.debug_frame$14+0x1c>
    21f4:	6b23      	ldr	r3, [r4, #48]	; 0x30
    21f6:	4620      	mov	r0, r4
    21f8:	4909      	ldr	r1, [pc, #36]	; (2220 <__ARM_grp_.debug_frame$14+0x38>)
    21fa:	2215      	movs	r2, #21
    21fc:	3316      	adds	r3, #22
    21fe:	1b9e      	subs	r6, r3, r6
    2200:	6326      	str	r6, [r4, #48]	; 0x30
    2202:	e002      	b.n	220a <__ARM_grp_.debug_frame$14+0x22>
    2204:	4620      	mov	r0, r4
    2206:	4629      	mov	r1, r5
    2208:	4632      	mov	r2, r6
    220a:	f7ff fdb2 	bl	1d72 <d_make_name>
    220e:	e000      	b.n	2212 <__ARM_grp_.debug_frame$14+0x2a>
    2210:	2000      	movs	r0, #0
    2212:	62e0      	str	r0, [r4, #44]	; 0x2c
    2214:	bd70      	pop	{r4, r5, r6, pc}
    2216:	2000      	movs	r0, #0
    2218:	bd70      	pop	{r4, r5, r6, pc}
    221a:	bf00      	nop
    221c:	000106e4 	.word	0x000106e4
    2220:	000106ed 	.word	0x000106ed

00002224 <d_encoding>:
    2224:	68c3      	ldr	r3, [r0, #12]
    2226:	e92d 41f0 	stmdb	sp!, {r4, r5, r6, r7, r8, lr}
    222a:	4604      	mov	r4, r0
    222c:	781a      	ldrb	r2, [r3, #0]
    222e:	460d      	mov	r5, r1
    2230:	2a47      	cmp	r2, #71	; 0x47
    2232:	d002      	beq.n	223a <__ARM_grp_.debug_frame$17+0xe>
    2234:	2a54      	cmp	r2, #84	; 0x54
    2236:	f040 8137 	bne.w	24a8 <__ARM_grp_.debug_frame$8+0x3c>
    223a:	6b22      	ldr	r2, [r4, #48]	; 0x30
    223c:	f102 0114 	add.w	r1, r2, #20
    2240:	6321      	str	r1, [r4, #48]	; 0x30
    2242:	7819      	ldrb	r1, [r3, #0]
    2244:	2954      	cmp	r1, #84	; 0x54
    2246:	d105      	bne.n	2254 <__ARM_grp_.debug_frame$17+0x28>
    2248:	1c58      	adds	r0, r3, #1
    224a:	60e0      	str	r0, [r4, #12]
    224c:	7859      	ldrb	r1, [r3, #1]
    224e:	b929      	cbnz	r1, 225c <__ARM_grp_.debug_frame$17+0x30>
    2250:	460e      	mov	r6, r1
    2252:	e17d      	b.n	2550 <__ARM_grp_.debug_frame$14+0x3c>
    2254:	2947      	cmp	r1, #71	; 0x47
    2256:	f040 8125 	bne.w	24a4 <__ARM_grp_.debug_frame$8+0x38>
    225a:	e09e      	b.n	239a <__ARM_grp_.debug_frame$32+0x1a>
    225c:	3001      	adds	r0, #1
    225e:	2953      	cmp	r1, #83	; 0x53
    2260:	60e0      	str	r0, [r4, #12]
    2262:	d037      	beq.n	22d4 <__ARM_grp_.debug_frame$23+0x20>
    2264:	d80d      	bhi.n	2282 <__ARM_grp_.debug_frame$20+0x12>
    2266:	2946      	cmp	r1, #70	; 0x46
    2268:	f000 8089 	beq.w	237e <__ARM_grp_.debug_frame$29+0x42>
    226c:	d803      	bhi.n	2276 <__ARM_grp_.debug_frame$20+0x6>
    226e:	2943      	cmp	r1, #67	; 0x43
    2270:	f040 8118 	bne.w	24a4 <__ARM_grp_.debug_frame$8+0x38>
    2274:	e067      	b.n	2346 <__ARM_grp_.debug_frame$29+0xa>
    2276:	2949      	cmp	r1, #73	; 0x49
    2278:	d025      	beq.n	22c6 <__ARM_grp_.debug_frame$23+0x12>
    227a:	294a      	cmp	r1, #74	; 0x4a
    227c:	f040 8112 	bne.w	24a4 <__ARM_grp_.debug_frame$8+0x38>
    2280:	e084      	b.n	238c <__ARM_grp_.debug_frame$32+0xc>
    2282:	2963      	cmp	r1, #99	; 0x63
    2284:	d049      	beq.n	231a <__ARM_grp_.debug_frame$26+0x22>
    2286:	d805      	bhi.n	2294 <__ARM_grp_.debug_frame$20+0x24>
    2288:	2954      	cmp	r1, #84	; 0x54
    228a:	d012      	beq.n	22b2 <__ARM_grp_.debug_frame$20+0x42>
    228c:	2956      	cmp	r1, #86	; 0x56
    228e:	f040 8109 	bne.w	24a4 <__ARM_grp_.debug_frame$8+0x38>
    2292:	e005      	b.n	22a0 <__ARM_grp_.debug_frame$20+0x30>
    2294:	2968      	cmp	r1, #104	; 0x68
    2296:	d024      	beq.n	22e2 <__ARM_grp_.debug_frame$23+0x2e>
    2298:	2976      	cmp	r1, #118	; 0x76
    229a:	f040 8103 	bne.w	24a4 <__ARM_grp_.debug_frame$8+0x38>
    229e:	e02e      	b.n	22fe <__ARM_grp_.debug_frame$26+0x6>
    22a0:	320f      	adds	r2, #15
    22a2:	4620      	mov	r0, r4
    22a4:	6322      	str	r2, [r4, #48]	; 0x30
    22a6:	f000 fb38 	bl	291a <d_type>
    22aa:	2109      	movs	r1, #9
    22ac:	4602      	mov	r2, r0
    22ae:	4620      	mov	r0, r4
    22b0:	e007      	b.n	22c2 <__ARM_grp_.debug_frame$23+0xe>
    22b2:	320a      	adds	r2, #10
    22b4:	4620      	mov	r0, r4
    22b6:	6322      	str	r2, [r4, #48]	; 0x30
    22b8:	f000 fb2f 	bl	291a <d_type>
    22bc:	210a      	movs	r1, #10
    22be:	4602      	mov	r2, r0
    22c0:	4620      	mov	r0, r4
    22c2:	2300      	movs	r3, #0
    22c4:	e140      	b.n	2548 <__ARM_grp_.debug_frame$14+0x34>
    22c6:	4620      	mov	r0, r4
    22c8:	f000 fb27 	bl	291a <d_type>
    22cc:	210c      	movs	r1, #12
    22ce:	4602      	mov	r2, r0
    22d0:	4620      	mov	r0, r4
    22d2:	e7f6      	b.n	22c2 <__ARM_grp_.debug_frame$23+0xe>
    22d4:	4620      	mov	r0, r4
    22d6:	f000 fb20 	bl	291a <d_type>
    22da:	210d      	movs	r1, #13
    22dc:	4602      	mov	r2, r0
    22de:	4620      	mov	r0, r4
    22e0:	e7ef      	b.n	22c2 <__ARM_grp_.debug_frame$23+0xe>
    22e2:	4620      	mov	r0, r4
    22e4:	f7ff feec 	bl	20c0 <d_call_offset>
    22e8:	2800      	cmp	r0, #0
    22ea:	f000 80d9 	beq.w	24a0 <__ARM_grp_.debug_frame$8+0x34>
    22ee:	2100      	movs	r1, #0
    22f0:	4620      	mov	r0, r4
    22f2:	f7ff ff97 	bl	2224 <d_encoding>
    22f6:	210f      	movs	r1, #15
    22f8:	4602      	mov	r2, r0
    22fa:	4620      	mov	r0, r4
    22fc:	e7e1      	b.n	22c2 <__ARM_grp_.debug_frame$23+0xe>
    22fe:	4620      	mov	r0, r4
    2300:	f7ff fede 	bl	20c0 <d_call_offset>
    2304:	2800      	cmp	r0, #0
    2306:	f000 80cb 	beq.w	24a0 <__ARM_grp_.debug_frame$8+0x34>
    230a:	2100      	movs	r1, #0
    230c:	4620      	mov	r0, r4
    230e:	f7ff ff89 	bl	2224 <d_encoding>
    2312:	2110      	movs	r1, #16
    2314:	4602      	mov	r2, r0
    2316:	4620      	mov	r0, r4
    2318:	e7d3      	b.n	22c2 <__ARM_grp_.debug_frame$23+0xe>
    231a:	4620      	mov	r0, r4
    231c:	2100      	movs	r1, #0
    231e:	f7ff fecf 	bl	20c0 <d_call_offset>
    2322:	2800      	cmp	r0, #0
    2324:	f000 80bc 	beq.w	24a0 <__ARM_grp_.debug_frame$8+0x34>
    2328:	4620      	mov	r0, r4
    232a:	2100      	movs	r1, #0
    232c:	f7ff fec8 	bl	20c0 <d_call_offset>
    2330:	2800      	cmp	r0, #0
    2332:	f000 80b5 	beq.w	24a0 <__ARM_grp_.debug_frame$8+0x34>
    2336:	2100      	movs	r1, #0
    2338:	4620      	mov	r0, r4
    233a:	f7ff ff73 	bl	2224 <d_encoding>
    233e:	2111      	movs	r1, #17
    2340:	4602      	mov	r2, r0
    2342:	4620      	mov	r0, r4
    2344:	e7bd      	b.n	22c2 <__ARM_grp_.debug_frame$23+0xe>
    2346:	4620      	mov	r0, r4
    2348:	f000 fae7 	bl	291a <d_type>
    234c:	4605      	mov	r5, r0
    234e:	f104 000c 	add.w	r0, r4, #12
    2352:	f7ff fe97 	bl	2084 <d_number.clone.0>
    2356:	2800      	cmp	r0, #0
    2358:	f2c0 80a4 	blt.w	24a4 <__ARM_grp_.debug_frame$8+0x38>
    235c:	68e3      	ldr	r3, [r4, #12]
    235e:	781a      	ldrb	r2, [r3, #0]
    2360:	2a5f      	cmp	r2, #95	; 0x5f
    2362:	f040 809f 	bne.w	24a4 <__ARM_grp_.debug_frame$8+0x38>
    2366:	3301      	adds	r3, #1
    2368:	4620      	mov	r0, r4
    236a:	60e3      	str	r3, [r4, #12]
    236c:	f000 fad5 	bl	291a <d_type>
    2370:	6b23      	ldr	r3, [r4, #48]	; 0x30
    2372:	210b      	movs	r1, #11
    2374:	3305      	adds	r3, #5
    2376:	6323      	str	r3, [r4, #48]	; 0x30
    2378:	4602      	mov	r2, r0
    237a:	4620      	mov	r0, r4
    237c:	e0e3      	b.n	2546 <__ARM_grp_.debug_frame$14+0x32>
    237e:	4620      	mov	r0, r4
    2380:	f000 facb 	bl	291a <d_type>
    2384:	210e      	movs	r1, #14
    2386:	4602      	mov	r2, r0
    2388:	4620      	mov	r0, r4
    238a:	e79a      	b.n	22c2 <__ARM_grp_.debug_frame$23+0xe>
    238c:	4620      	mov	r0, r4
    238e:	f000 fac4 	bl	291a <d_type>
    2392:	2112      	movs	r1, #18
    2394:	4602      	mov	r2, r0
    2396:	4620      	mov	r0, r4
    2398:	e793      	b.n	22c2 <__ARM_grp_.debug_frame$23+0xe>
    239a:	1c5a      	adds	r2, r3, #1
    239c:	60e2      	str	r2, [r4, #12]
    239e:	785e      	ldrb	r6, [r3, #1]
    23a0:	2e00      	cmp	r6, #0
    23a2:	f000 80d5 	beq.w	2550 <__ARM_grp_.debug_frame$14+0x3c>
    23a6:	1c9a      	adds	r2, r3, #2
    23a8:	2e52      	cmp	r6, #82	; 0x52
    23aa:	60e2      	str	r2, [r4, #12]
    23ac:	d00f      	beq.n	23ce <__ARM_grp_.debug_frame$5+0xa>
    23ae:	d802      	bhi.n	23b6 <__ARM_grp_.debug_frame$32+0x36>
    23b0:	2e41      	cmp	r6, #65	; 0x41
    23b2:	d177      	bne.n	24a4 <__ARM_grp_.debug_frame$8+0x38>
    23b4:	e012      	b.n	23dc <__ARM_grp_.debug_frame$5+0x18>
    23b6:	2e56      	cmp	r6, #86	; 0x56
    23b8:	d002      	beq.n	23c0 <__ARM_grp_.debug_frame$32+0x40>
    23ba:	2e72      	cmp	r6, #114	; 0x72
    23bc:	d172      	bne.n	24a4 <__ARM_grp_.debug_frame$8+0x38>
    23be:	e015      	b.n	23ec <__ARM_grp_.debug_frame$5+0x28>
    23c0:	4620      	mov	r0, r4
    23c2:	f000 f978 	bl	26b6 <d_name>
    23c6:	2113      	movs	r1, #19
    23c8:	4602      	mov	r2, r0
    23ca:	4620      	mov	r0, r4
    23cc:	e779      	b.n	22c2 <__ARM_grp_.debug_frame$23+0xe>
    23ce:	4620      	mov	r0, r4
    23d0:	f000 f971 	bl	26b6 <d_name>
    23d4:	2114      	movs	r1, #20
    23d6:	4602      	mov	r2, r0
    23d8:	4620      	mov	r0, r4
    23da:	e772      	b.n	22c2 <__ARM_grp_.debug_frame$23+0xe>
    23dc:	2100      	movs	r1, #0
    23de:	4620      	mov	r0, r4
    23e0:	f7ff ff20 	bl	2224 <d_encoding>
    23e4:	2115      	movs	r1, #21
    23e6:	4602      	mov	r2, r0
    23e8:	4620      	mov	r0, r4
    23ea:	e76a      	b.n	22c2 <__ARM_grp_.debug_frame$23+0xe>
    23ec:	f104 000c 	add.w	r0, r4, #12
    23f0:	f7ff fe48 	bl	2084 <d_number.clone.0>
    23f4:	2801      	cmp	r0, #1
    23f6:	dd55      	ble.n	24a4 <__ARM_grp_.debug_frame$8+0x38>
    23f8:	68e5      	ldr	r5, [r4, #12]
    23fa:	782e      	ldrb	r6, [r5, #0]
    23fc:	2e00      	cmp	r6, #0
    23fe:	f000 80a7 	beq.w	2550 <__ARM_grp_.debug_frame$14+0x3c>
    2402:	3501      	adds	r5, #1
    2404:	2e5f      	cmp	r6, #95	; 0x5f
    2406:	60e5      	str	r5, [r4, #12]
    2408:	d14c      	bne.n	24a4 <__ARM_grp_.debug_frame$8+0x38>
    240a:	1e46      	subs	r6, r0, #1
    240c:	f04f 0800 	mov.w	r8, #0
    2410:	e000      	b.n	2414 <__ARM_grp_.debug_frame$5+0x50>
    2412:	4698      	mov	r8, r3
    2414:	782f      	ldrb	r7, [r5, #0]
    2416:	2f00      	cmp	r7, #0
    2418:	d03e      	beq.n	2498 <__ARM_grp_.debug_frame$8+0x2c>
    241a:	2f24      	cmp	r7, #36	; 0x24
    241c:	d11c      	bne.n	2458 <__ARM_grp_.debug_frame$5+0x40>
    241e:	786b      	ldrb	r3, [r5, #1]
    2420:	2b53      	cmp	r3, #83	; 0x53
    2422:	d004      	beq.n	242e <__ARM_grp_.debug_frame$5+0x16>
    2424:	2b5f      	cmp	r3, #95	; 0x5f
    2426:	d004      	beq.n	2432 <__ARM_grp_.debug_frame$5+0x1a>
    2428:	2b24      	cmp	r3, #36	; 0x24
    242a:	d13b      	bne.n	24a4 <__ARM_grp_.debug_frame$8+0x38>
    242c:	e002      	b.n	2434 <__ARM_grp_.debug_frame$5+0x1c>
    242e:	272f      	movs	r7, #47	; 0x2f
    2430:	e000      	b.n	2434 <__ARM_grp_.debug_frame$5+0x1c>
    2432:	272e      	movs	r7, #46	; 0x2e
    2434:	4620      	mov	r0, r4
    2436:	f7ff fc4f 	bl	1cd8 <d_make_empty>
    243a:	4603      	mov	r3, r0
    243c:	b110      	cbz	r0, 2444 <__ARM_grp_.debug_frame$5+0x2c>
    243e:	2239      	movs	r2, #57	; 0x39
    2440:	6047      	str	r7, [r0, #4]
    2442:	7002      	strb	r2, [r0, #0]
    2444:	68e5      	ldr	r5, [r4, #12]
    2446:	3502      	adds	r5, #2
    2448:	60e5      	str	r5, [r4, #12]
    244a:	b33b      	cbz	r3, 249c <__ARM_grp_.debug_frame$8+0x30>
    244c:	3e02      	subs	r6, #2
    244e:	e013      	b.n	2478 <__ARM_grp_.debug_frame$8+0xc>
    2450:	3701      	adds	r7, #1
    2452:	42b7      	cmp	r7, r6
    2454:	db01      	blt.n	245a <__ARM_grp_.debug_frame$5+0x42>
    2456:	e004      	b.n	2462 <__ARM_grp_.debug_frame$5+0x4a>
    2458:	2700      	movs	r7, #0
    245a:	5deb      	ldrb	r3, [r5, r7]
    245c:	b10b      	cbz	r3, 2462 <__ARM_grp_.debug_frame$5+0x4a>
    245e:	2b24      	cmp	r3, #36	; 0x24
    2460:	d1f6      	bne.n	2450 <__ARM_grp_.debug_frame$5+0x38>
    2462:	4629      	mov	r1, r5
    2464:	4620      	mov	r0, r4
    2466:	463a      	mov	r2, r7
    2468:	f7ff fc83 	bl	1d72 <d_make_name>
    246c:	68e5      	ldr	r5, [r4, #12]
    246e:	19ed      	adds	r5, r5, r7
    2470:	60e5      	str	r5, [r4, #12]
    2472:	4603      	mov	r3, r0
    2474:	b1a0      	cbz	r0, 24a0 <__ARM_grp_.debug_frame$8+0x34>
    2476:	1bf6      	subs	r6, r6, r7
    2478:	f1b8 0f00 	cmp.w	r8, #0
    247c:	d006      	beq.n	248c <__ARM_grp_.debug_frame$8+0x20>
    247e:	4620      	mov	r0, r4
    2480:	2138      	movs	r1, #56	; 0x38
    2482:	4642      	mov	r2, r8
    2484:	f7ff fc36 	bl	1cf4 <d_make_comp>
    2488:	4603      	mov	r3, r0
    248a:	b148      	cbz	r0, 24a0 <__ARM_grp_.debug_frame$8+0x34>
    248c:	2e00      	cmp	r6, #0
    248e:	dcc0      	bgt.n	2412 <__ARM_grp_.debug_frame$5+0x4e>
    2490:	4620      	mov	r0, r4
    2492:	2137      	movs	r1, #55	; 0x37
    2494:	461a      	mov	r2, r3
    2496:	e714      	b.n	22c2 <__ARM_grp_.debug_frame$23+0xe>
    2498:	463e      	mov	r6, r7
    249a:	e059      	b.n	2550 <__ARM_grp_.debug_frame$14+0x3c>
    249c:	461e      	mov	r6, r3
    249e:	e057      	b.n	2550 <__ARM_grp_.debug_frame$14+0x3c>
    24a0:	4606      	mov	r6, r0
    24a2:	e055      	b.n	2550 <__ARM_grp_.debug_frame$14+0x3c>
    24a4:	2600      	movs	r6, #0
    24a6:	e053      	b.n	2550 <__ARM_grp_.debug_frame$14+0x3c>
    24a8:	f000 f905 	bl	26b6 <d_name>
    24ac:	4606      	mov	r6, r0
    24ae:	b1c0      	cbz	r0, 24e2 <__ARM_grp_.debug_frame$11+0x26>
    24b0:	b1bd      	cbz	r5, 24e2 <__ARM_grp_.debug_frame$11+0x26>
    24b2:	68a3      	ldr	r3, [r4, #8]
    24b4:	f013 0f01 	tst.w	r3, #1
    24b8:	d113      	bne.n	24e2 <__ARM_grp_.debug_frame$11+0x26>
    24ba:	e000      	b.n	24be <__ARM_grp_.debug_frame$11+0x2>
    24bc:	6876      	ldr	r6, [r6, #4]
    24be:	7833      	ldrb	r3, [r6, #0]
    24c0:	f1a3 021a 	sub.w	r2, r3, #26
    24c4:	b2d2      	uxtb	r2, r2
    24c6:	2a02      	cmp	r2, #2
    24c8:	d9f8      	bls.n	24bc <__ARM_grp_.debug_frame$11>
    24ca:	2b02      	cmp	r3, #2
    24cc:	d140      	bne.n	2550 <__ARM_grp_.debug_frame$14+0x3c>
    24ce:	68b3      	ldr	r3, [r6, #8]
    24d0:	e000      	b.n	24d4 <__ARM_grp_.debug_frame$11+0x18>
    24d2:	685b      	ldr	r3, [r3, #4]
    24d4:	781a      	ldrb	r2, [r3, #0]
    24d6:	3a1a      	subs	r2, #26
    24d8:	b2d2      	uxtb	r2, r2
    24da:	2a02      	cmp	r2, #2
    24dc:	d9f9      	bls.n	24d2 <__ARM_grp_.debug_frame$11+0x16>
    24de:	60b3      	str	r3, [r6, #8]
    24e0:	e036      	b.n	2550 <__ARM_grp_.debug_frame$14+0x3c>
    24e2:	68e3      	ldr	r3, [r4, #12]
    24e4:	781b      	ldrb	r3, [r3, #0]
    24e6:	2e00      	cmp	r6, #0
    24e8:	d032      	beq.n	2550 <__ARM_grp_.debug_frame$14+0x3c>
    24ea:	2b00      	cmp	r3, #0
    24ec:	d030      	beq.n	2550 <__ARM_grp_.debug_frame$14+0x3c>
    24ee:	2b45      	cmp	r3, #69	; 0x45
    24f0:	d02e      	beq.n	2550 <__ARM_grp_.debug_frame$14+0x3c>
    24f2:	4631      	mov	r1, r6
    24f4:	780b      	ldrb	r3, [r1, #0]
    24f6:	2b04      	cmp	r3, #4
    24f8:	d004      	beq.n	2504 <__ARM_grp_.debug_frame$11+0x48>
    24fa:	d31c      	bcc.n	2536 <__ARM_grp_.debug_frame$14+0x22>
    24fc:	3b1a      	subs	r3, #26
    24fe:	2b02      	cmp	r3, #2
    2500:	d819      	bhi.n	2536 <__ARM_grp_.debug_frame$14+0x22>
    2502:	e014      	b.n	252e <__ARM_grp_.debug_frame$14+0x1a>
    2504:	6849      	ldr	r1, [r1, #4]
    2506:	b179      	cbz	r1, 2528 <__ARM_grp_.debug_frame$14+0x14>
    2508:	780b      	ldrb	r3, [r1, #0]
    250a:	2b08      	cmp	r3, #8
    250c:	d805      	bhi.n	251a <__ARM_grp_.debug_frame$14+0x6>
    250e:	2b07      	cmp	r3, #7
    2510:	d209      	bcs.n	2526 <__ARM_grp_.debug_frame$14+0x12>
    2512:	3b01      	subs	r3, #1
    2514:	2b01      	cmp	r3, #1
    2516:	d802      	bhi.n	251e <__ARM_grp_.debug_frame$14+0xa>
    2518:	e003      	b.n	2522 <__ARM_grp_.debug_frame$14+0xe>
    251a:	2b2e      	cmp	r3, #46	; 0x2e
    251c:	d003      	beq.n	2526 <__ARM_grp_.debug_frame$14+0x12>
    251e:	2100      	movs	r1, #0
    2520:	e002      	b.n	2528 <__ARM_grp_.debug_frame$14+0x14>
    2522:	6889      	ldr	r1, [r1, #8]
    2524:	e7ef      	b.n	2506 <__ARM_grp_.debug_frame$11+0x4a>
    2526:	2101      	movs	r1, #1
    2528:	f081 0101 	eor.w	r1, r1, #1
    252c:	e004      	b.n	2538 <__ARM_grp_.debug_frame$14+0x24>
    252e:	6849      	ldr	r1, [r1, #4]
    2530:	2900      	cmp	r1, #0
    2532:	d1df      	bne.n	24f4 <__ARM_grp_.debug_frame$11+0x38>
    2534:	e000      	b.n	2538 <__ARM_grp_.debug_frame$14+0x24>
    2536:	2100      	movs	r1, #0
    2538:	4620      	mov	r0, r4
    253a:	f000 fc5e 	bl	2dfa <d_bare_function_type>
    253e:	2103      	movs	r1, #3
    2540:	4632      	mov	r2, r6
    2542:	4605      	mov	r5, r0
    2544:	4620      	mov	r0, r4
    2546:	462b      	mov	r3, r5
    2548:	e8bd 41f0 	ldmia.w	sp!, {r4, r5, r6, r7, r8, lr}
    254c:	f7ff bbd2 	b.w	1cf4 <d_make_comp>
    2550:	4630      	mov	r0, r6
    2552:	e8bd 81f0 	ldmia.w	sp!, {r4, r5, r6, r7, r8, pc}

00002556 <d_mangled_name>:
    2556:	68c3      	ldr	r3, [r0, #12]
    2558:	781a      	ldrb	r2, [r3, #0]
    255a:	2a5f      	cmp	r2, #95	; 0x5f
    255c:	d10a      	bne.n	2574 <__ARM_grp_.debug_frame$17+0x1c>
    255e:	3301      	adds	r3, #1
    2560:	60c3      	str	r3, [r0, #12]
    2562:	68c3      	ldr	r3, [r0, #12]
    2564:	781a      	ldrb	r2, [r3, #0]
    2566:	2a5a      	cmp	r2, #90	; 0x5a
    2568:	d102      	bne.n	2570 <__ARM_grp_.debug_frame$17+0x18>
    256a:	3301      	adds	r3, #1
    256c:	60c3      	str	r3, [r0, #12]
    256e:	e659      	b.n	2224 <d_encoding>
    2570:	2000      	movs	r0, #0
    2572:	4770      	bx	lr
    2574:	2900      	cmp	r1, #0
    2576:	d1fb      	bne.n	2570 <__ARM_grp_.debug_frame$17+0x18>
    2578:	e7f3      	b.n	2562 <__ARM_grp_.debug_frame$17+0xa>

0000257a <d_expr_primary>:
    257a:	68c3      	ldr	r3, [r0, #12]
    257c:	b570      	push	{r4, r5, r6, lr}
    257e:	4604      	mov	r4, r0
    2580:	781a      	ldrb	r2, [r3, #0]
    2582:	2a4c      	cmp	r2, #76	; 0x4c
    2584:	d13d      	bne.n	2602 <__ARM_grp_.debug_frame$23+0x22>
    2586:	1c5a      	adds	r2, r3, #1
    2588:	60c2      	str	r2, [r0, #12]
    258a:	785b      	ldrb	r3, [r3, #1]
    258c:	2b5f      	cmp	r3, #95	; 0x5f
    258e:	d001      	beq.n	2594 <d_expr_primary+0x1a>
    2590:	2b5a      	cmp	r3, #90	; 0x5a
    2592:	d104      	bne.n	259e <__ARM_grp_.debug_frame$20+0x2>
    2594:	4620      	mov	r0, r4
    2596:	2100      	movs	r1, #0
    2598:	f7ff ffdd 	bl	2556 <d_mangled_name>
    259c:	e02a      	b.n	25f4 <__ARM_grp_.debug_frame$23+0x14>
    259e:	f000 f9bc 	bl	291a <d_type>
    25a2:	4605      	mov	r5, r0
    25a4:	2800      	cmp	r0, #0
    25a6:	d02e      	beq.n	2606 <__ARM_grp_.debug_frame$23+0x26>
    25a8:	7803      	ldrb	r3, [r0, #0]
    25aa:	2b23      	cmp	r3, #35	; 0x23
    25ac:	d106      	bne.n	25bc <__ARM_grp_.debug_frame$20+0x20>
    25ae:	6843      	ldr	r3, [r0, #4]
    25b0:	7c1a      	ldrb	r2, [r3, #16]
    25b2:	b11a      	cbz	r2, 25bc <__ARM_grp_.debug_frame$20+0x20>
    25b4:	6b22      	ldr	r2, [r4, #48]	; 0x30
    25b6:	685b      	ldr	r3, [r3, #4]
    25b8:	1ad3      	subs	r3, r2, r3
    25ba:	6323      	str	r3, [r4, #48]	; 0x30
    25bc:	68e3      	ldr	r3, [r4, #12]
    25be:	781a      	ldrb	r2, [r3, #0]
    25c0:	2a6e      	cmp	r2, #110	; 0x6e
    25c2:	d103      	bne.n	25cc <__ARM_grp_.debug_frame$20+0x30>
    25c4:	3301      	adds	r3, #1
    25c6:	2636      	movs	r6, #54	; 0x36
    25c8:	60e3      	str	r3, [r4, #12]
    25ca:	e000      	b.n	25ce <__ARM_grp_.debug_frame$20+0x32>
    25cc:	2635      	movs	r6, #53	; 0x35
    25ce:	68e1      	ldr	r1, [r4, #12]
    25d0:	e002      	b.n	25d8 <__ARM_grp_.debug_frame$20+0x3c>
    25d2:	b1d0      	cbz	r0, 260a <__ARM_grp_.debug_frame$23+0x2a>
    25d4:	3201      	adds	r2, #1
    25d6:	60e2      	str	r2, [r4, #12]
    25d8:	68e2      	ldr	r2, [r4, #12]
    25da:	7810      	ldrb	r0, [r2, #0]
    25dc:	2845      	cmp	r0, #69	; 0x45
    25de:	d1f8      	bne.n	25d2 <__ARM_grp_.debug_frame$20+0x36>
    25e0:	1a52      	subs	r2, r2, r1
    25e2:	4620      	mov	r0, r4
    25e4:	f7ff fbc5 	bl	1d72 <d_make_name>
    25e8:	4631      	mov	r1, r6
    25ea:	462a      	mov	r2, r5
    25ec:	4603      	mov	r3, r0
    25ee:	4620      	mov	r0, r4
    25f0:	f7ff fb80 	bl	1cf4 <d_make_comp>
    25f4:	68e3      	ldr	r3, [r4, #12]
    25f6:	781a      	ldrb	r2, [r3, #0]
    25f8:	2a45      	cmp	r2, #69	; 0x45
    25fa:	d105      	bne.n	2608 <__ARM_grp_.debug_frame$23+0x28>
    25fc:	3301      	adds	r3, #1
    25fe:	60e3      	str	r3, [r4, #12]
    2600:	bd70      	pop	{r4, r5, r6, pc}
    2602:	2000      	movs	r0, #0
    2604:	bd70      	pop	{r4, r5, r6, pc}
    2606:	bd70      	pop	{r4, r5, r6, pc}
    2608:	2000      	movs	r0, #0
    260a:	bd70      	pop	{r4, r5, r6, pc}

0000260c <d_template_args>:
    260c:	68c3      	ldr	r3, [r0, #12]
    260e:	b573      	push	{r0, r1, r4, r5, r6, lr}
    2610:	4604      	mov	r4, r0
    2612:	781a      	ldrb	r2, [r3, #0]
    2614:	6ac6      	ldr	r6, [r0, #44]	; 0x2c
    2616:	2a49      	cmp	r2, #73	; 0x49
    2618:	d148      	bne.n	26ac <__ARM_grp_.debug_frame$5>
    261a:	1c5a      	adds	r2, r3, #1
    261c:	60c2      	str	r2, [r0, #12]
    261e:	785b      	ldrb	r3, [r3, #1]
    2620:	2b45      	cmp	r3, #69	; 0x45
    2622:	d109      	bne.n	2638 <__ARM_grp_.debug_frame$26+0x14>
    2624:	3201      	adds	r2, #1
    2626:	60c2      	str	r2, [r0, #12]
    2628:	2200      	movs	r2, #0
    262a:	212b      	movs	r1, #43	; 0x2b
    262c:	4613      	mov	r3, r2
    262e:	b002      	add	sp, #8
    2630:	e8bd 4070 	ldmia.w	sp!, {r4, r5, r6, lr}
    2634:	f7ff bb5e 	b.w	1cf4 <d_make_comp>
    2638:	ad02      	add	r5, sp, #8
    263a:	2300      	movs	r3, #0
    263c:	f845 3d04 	str.w	r3, [r5, #-4]!
    2640:	68e2      	ldr	r2, [r4, #12]
    2642:	7813      	ldrb	r3, [r2, #0]
    2644:	2b4c      	cmp	r3, #76	; 0x4c
    2646:	d011      	beq.n	266c <__ARM_grp_.debug_frame$29+0x4>
    2648:	2b58      	cmp	r3, #88	; 0x58
    264a:	d002      	beq.n	2652 <__ARM_grp_.debug_frame$26+0x2e>
    264c:	2b49      	cmp	r3, #73	; 0x49
    264e:	d115      	bne.n	267c <__ARM_grp_.debug_frame$29+0x14>
    2650:	e010      	b.n	2674 <__ARM_grp_.debug_frame$29+0xc>
    2652:	3201      	adds	r2, #1
    2654:	4620      	mov	r0, r4
    2656:	60e2      	str	r2, [r4, #12]
    2658:	f000 fd15 	bl	3086 <d_expression>
    265c:	68e3      	ldr	r3, [r4, #12]
    265e:	7819      	ldrb	r1, [r3, #0]
    2660:	2945      	cmp	r1, #69	; 0x45
    2662:	4602      	mov	r2, r0
    2664:	d122      	bne.n	26ac <__ARM_grp_.debug_frame$5>
    2666:	3301      	adds	r3, #1
    2668:	60e3      	str	r3, [r4, #12]
    266a:	e00b      	b.n	2684 <__ARM_grp_.debug_frame$29+0x1c>
    266c:	4620      	mov	r0, r4
    266e:	f7ff ff84 	bl	257a <d_expr_primary>
    2672:	e006      	b.n	2682 <__ARM_grp_.debug_frame$29+0x1a>
    2674:	4620      	mov	r0, r4
    2676:	f7ff ffc9 	bl	260c <d_template_args>
    267a:	e002      	b.n	2682 <__ARM_grp_.debug_frame$29+0x1a>
    267c:	4620      	mov	r0, r4
    267e:	f000 f94c 	bl	291a <d_type>
    2682:	4602      	mov	r2, r0
    2684:	b1a2      	cbz	r2, 26b0 <__ARM_grp_.debug_frame$5+0x4>
    2686:	4620      	mov	r0, r4
    2688:	212b      	movs	r1, #43	; 0x2b
    268a:	2300      	movs	r3, #0
    268c:	f7ff fb32 	bl	1cf4 <d_make_comp>
    2690:	6028      	str	r0, [r5, #0]
    2692:	b170      	cbz	r0, 26b2 <__ARM_grp_.debug_frame$5+0x6>
    2694:	68e3      	ldr	r3, [r4, #12]
    2696:	781a      	ldrb	r2, [r3, #0]
    2698:	2a45      	cmp	r2, #69	; 0x45
    269a:	d002      	beq.n	26a2 <__ARM_grp_.debug_frame$29+0x3a>
    269c:	f100 0508 	add.w	r5, r0, #8
    26a0:	e7ce      	b.n	2640 <__ARM_grp_.debug_frame$26+0x1c>
    26a2:	3301      	adds	r3, #1
    26a4:	62e6      	str	r6, [r4, #44]	; 0x2c
    26a6:	60e3      	str	r3, [r4, #12]
    26a8:	9801      	ldr	r0, [sp, #4]
    26aa:	e002      	b.n	26b2 <__ARM_grp_.debug_frame$5+0x6>
    26ac:	2000      	movs	r0, #0
    26ae:	e000      	b.n	26b2 <__ARM_grp_.debug_frame$5+0x6>
    26b0:	4610      	mov	r0, r2
    26b2:	b002      	add	sp, #8
    26b4:	bd70      	pop	{r4, r5, r6, pc}

000026b6 <d_name>:
    26b6:	68c3      	ldr	r3, [r0, #12]
    26b8:	e92d 41f3 	stmdb	sp!, {r0, r1, r4, r5, r6, r7, r8, lr}
    26bc:	4604      	mov	r4, r0
    26be:	781a      	ldrb	r2, [r3, #0]
    26c0:	3a4c      	subs	r2, #76	; 0x4c
    26c2:	2a0e      	cmp	r2, #14
    26c4:	f200 8105 	bhi.w	28d2 <__ARM_grp_.debug_frame$11+0x2>
    26c8:	e8df f012 	tbh	[pc, r2, lsl #1]
    26cc:	010300d7 	.word	0x010300d7
    26d0:	0103000f 	.word	0x0103000f
    26d4:	01030103 	.word	0x01030103
    26d8:	00da0103 	.word	0x00da0103
    26dc:	00d70103 	.word	0x00d70103
    26e0:	01030103 	.word	0x01030103
    26e4:	01030103 	.word	0x01030103
    26e8:	0087      	.short	0x0087
    26ea:	3301      	adds	r3, #1
    26ec:	a901      	add	r1, sp, #4
    26ee:	60c3      	str	r3, [r0, #12]
    26f0:	2201      	movs	r2, #1
    26f2:	f7ff fb66 	bl	1dc2 <d_cv_qualifiers>
    26f6:	4606      	mov	r6, r0
    26f8:	2800      	cmp	r0, #0
    26fa:	f000 8103 	beq.w	2904 <__ARM_grp_.debug_frame$11+0x34>
    26fe:	f04f 0800 	mov.w	r8, #0
    2702:	e000      	b.n	2706 <__ARM_grp_.debug_frame$8+0x16>
    2704:	46b8      	mov	r8, r7
    2706:	68e3      	ldr	r3, [r4, #12]
    2708:	781d      	ldrb	r5, [r3, #0]
    270a:	2d00      	cmp	r5, #0
    270c:	d052      	beq.n	27b4 <__ARM_grp_.debug_frame$11+0x6c>
    270e:	f1a5 0230 	sub.w	r2, r5, #48	; 0x30
    2712:	b2d2      	uxtb	r2, r2
    2714:	2a09      	cmp	r2, #9
    2716:	d90d      	bls.n	2734 <__ARM_grp_.debug_frame$8+0x44>
    2718:	f1a5 0261 	sub.w	r2, r5, #97	; 0x61
    271c:	b2d2      	uxtb	r2, r2
    271e:	2a19      	cmp	r2, #25
    2720:	d908      	bls.n	2734 <__ARM_grp_.debug_frame$8+0x44>
    2722:	f1a5 0243 	sub.w	r2, r5, #67	; 0x43
    2726:	b2d1      	uxtb	r1, r2
    2728:	2912      	cmp	r1, #18
    272a:	d807      	bhi.n	273c <__ARM_grp_.debug_frame$8+0x4c>
    272c:	4977      	ldr	r1, [pc, #476]	; (290c <__ARM_grp_.debug_frame$11+0x3c>)
    272e:	b252      	sxtb	r2, r2
    2730:	4091      	lsls	r1, r2
    2732:	d503      	bpl.n	273c <__ARM_grp_.debug_frame$8+0x4c>
    2734:	4620      	mov	r0, r4
    2736:	f000 fbe1 	bl	2efc <d_unqualified_name>
    273a:	e016      	b.n	276a <__ARM_grp_.debug_frame$11+0x22>
    273c:	2d53      	cmp	r5, #83	; 0x53
    273e:	d104      	bne.n	274a <__ARM_grp_.debug_frame$11+0x2>
    2740:	4620      	mov	r0, r4
    2742:	2101      	movs	r1, #1
    2744:	f7ff fb81 	bl	1e4a <d_substitution>
    2748:	e00f      	b.n	276a <__ARM_grp_.debug_frame$11+0x22>
    274a:	2d49      	cmp	r5, #73	; 0x49
    274c:	d108      	bne.n	2760 <__ARM_grp_.debug_frame$11+0x18>
    274e:	f1b8 0f00 	cmp.w	r8, #0
    2752:	d033      	beq.n	27bc <__ARM_grp_.debug_frame$11+0x74>
    2754:	4620      	mov	r0, r4
    2756:	f7ff ff59 	bl	260c <d_template_args>
    275a:	2104      	movs	r1, #4
    275c:	4607      	mov	r7, r0
    275e:	e015      	b.n	278c <__ARM_grp_.debug_frame$11+0x44>
    2760:	2d54      	cmp	r5, #84	; 0x54
    2762:	d107      	bne.n	2774 <__ARM_grp_.debug_frame$11+0x2c>
    2764:	4620      	mov	r0, r4
    2766:	f7ff fcf0 	bl	214a <d_template_param>
    276a:	4607      	mov	r7, r0
    276c:	f1b8 0f00 	cmp.w	r8, #0
    2770:	d10b      	bne.n	278a <__ARM_grp_.debug_frame$11+0x42>
    2772:	e011      	b.n	2798 <__ARM_grp_.debug_frame$11+0x50>
    2774:	2d45      	cmp	r5, #69	; 0x45
    2776:	d021      	beq.n	27bc <__ARM_grp_.debug_frame$11+0x74>
    2778:	2d4d      	cmp	r5, #77	; 0x4d
    277a:	d11d      	bne.n	27b8 <__ARM_grp_.debug_frame$11+0x70>
    277c:	f1b8 0f00 	cmp.w	r8, #0
    2780:	d01c      	beq.n	27bc <__ARM_grp_.debug_frame$11+0x74>
    2782:	3301      	adds	r3, #1
    2784:	4647      	mov	r7, r8
    2786:	60e3      	str	r3, [r4, #12]
    2788:	e7bc      	b.n	2704 <__ARM_grp_.debug_frame$8+0x14>
    278a:	2101      	movs	r1, #1
    278c:	463b      	mov	r3, r7
    278e:	4620      	mov	r0, r4
    2790:	4642      	mov	r2, r8
    2792:	f7ff faaf 	bl	1cf4 <d_make_comp>
    2796:	4607      	mov	r7, r0
    2798:	2d53      	cmp	r5, #83	; 0x53
    279a:	d0b3      	beq.n	2704 <__ARM_grp_.debug_frame$8+0x14>
    279c:	68e3      	ldr	r3, [r4, #12]
    279e:	781b      	ldrb	r3, [r3, #0]
    27a0:	2b45      	cmp	r3, #69	; 0x45
    27a2:	d0af      	beq.n	2704 <__ARM_grp_.debug_frame$8+0x14>
    27a4:	4620      	mov	r0, r4
    27a6:	4639      	mov	r1, r7
    27a8:	f7ff fb3f 	bl	1e2a <d_add_substitution>
    27ac:	2800      	cmp	r0, #0
    27ae:	d1a9      	bne.n	2704 <__ARM_grp_.debug_frame$8+0x14>
    27b0:	4680      	mov	r8, r0
    27b2:	e003      	b.n	27bc <__ARM_grp_.debug_frame$11+0x74>
    27b4:	46a8      	mov	r8, r5
    27b6:	e001      	b.n	27bc <__ARM_grp_.debug_frame$11+0x74>
    27b8:	f04f 0800 	mov.w	r8, #0
    27bc:	f8c6 8000 	str.w	r8, [r6]
    27c0:	f1b8 0f00 	cmp.w	r8, #0
    27c4:	d007      	beq.n	27d6 <__ARM_grp_.debug_frame$14+0x16>
    27c6:	68e3      	ldr	r3, [r4, #12]
    27c8:	781a      	ldrb	r2, [r3, #0]
    27ca:	2a45      	cmp	r2, #69	; 0x45
    27cc:	d153      	bne.n	2876 <__ARM_grp_.debug_frame$5+0x2e>
    27ce:	3301      	adds	r3, #1
    27d0:	9e01      	ldr	r6, [sp, #4]
    27d2:	60e3      	str	r3, [r4, #12]
    27d4:	e096      	b.n	2904 <__ARM_grp_.debug_frame$11+0x34>
    27d6:	4646      	mov	r6, r8
    27d8:	e094      	b.n	2904 <__ARM_grp_.debug_frame$11+0x34>
    27da:	3301      	adds	r3, #1
    27dc:	2100      	movs	r1, #0
    27de:	60c3      	str	r3, [r0, #12]
    27e0:	f7ff fd20 	bl	2224 <d_encoding>
    27e4:	68e3      	ldr	r3, [r4, #12]
    27e6:	781a      	ldrb	r2, [r3, #0]
    27e8:	2a45      	cmp	r2, #69	; 0x45
    27ea:	4607      	mov	r7, r0
    27ec:	d143      	bne.n	2876 <__ARM_grp_.debug_frame$5+0x2e>
    27ee:	1c5a      	adds	r2, r3, #1
    27f0:	60e2      	str	r2, [r4, #12]
    27f2:	785b      	ldrb	r3, [r3, #1]
    27f4:	2b73      	cmp	r3, #115	; 0x73
    27f6:	d110      	bne.n	281a <__ARM_grp_.debug_frame$17+0x16>
    27f8:	3201      	adds	r2, #1
    27fa:	4620      	mov	r0, r4
    27fc:	60e2      	str	r2, [r4, #12]
    27fe:	f7ff fcbf 	bl	2180 <d_discriminator>
    2802:	2800      	cmp	r0, #0
    2804:	d07d      	beq.n	2902 <__ARM_grp_.debug_frame$11+0x32>
    2806:	4942      	ldr	r1, [pc, #264]	; (2910 <__ARM_grp_.debug_frame$11+0x40>)
    2808:	220e      	movs	r2, #14
    280a:	4620      	mov	r0, r4
    280c:	f7ff fab1 	bl	1d72 <d_make_name>
    2810:	2102      	movs	r1, #2
    2812:	463a      	mov	r2, r7
    2814:	4603      	mov	r3, r0
    2816:	4620      	mov	r0, r4
    2818:	e06e      	b.n	28f8 <__ARM_grp_.debug_frame$11+0x28>
    281a:	2b64      	cmp	r3, #100	; 0x64
    281c:	d108      	bne.n	2830 <__ARM_grp_.debug_frame$17+0x2c>
    281e:	3201      	adds	r2, #1
    2820:	4620      	mov	r0, r4
    2822:	60e2      	str	r2, [r4, #12]
    2824:	f7ff fc76 	bl	2114 <d_compact_number>
    2828:	f1b0 0800 	subs.w	r8, r0, #0
    282c:	da02      	bge.n	2834 <__ARM_grp_.debug_frame$17+0x30>
    282e:	e022      	b.n	2876 <__ARM_grp_.debug_frame$5+0x2e>
    2830:	f04f 38ff 	mov.w	r8, #4294967295
    2834:	4620      	mov	r0, r4
    2836:	f7ff ff3e 	bl	26b6 <d_name>
    283a:	4605      	mov	r5, r0
    283c:	b148      	cbz	r0, 2852 <__ARM_grp_.debug_frame$5+0xa>
    283e:	7803      	ldrb	r3, [r0, #0]
    2840:	2b3e      	cmp	r3, #62	; 0x3e
    2842:	d006      	beq.n	2852 <__ARM_grp_.debug_frame$5+0xa>
    2844:	2b40      	cmp	r3, #64	; 0x40
    2846:	d004      	beq.n	2852 <__ARM_grp_.debug_frame$5+0xa>
    2848:	4620      	mov	r0, r4
    284a:	f7ff fc99 	bl	2180 <d_discriminator>
    284e:	2800      	cmp	r0, #0
    2850:	d057      	beq.n	2902 <__ARM_grp_.debug_frame$11+0x32>
    2852:	f1b8 3fff 	cmp.w	r8, #4294967295
    2856:	d009      	beq.n	286c <__ARM_grp_.debug_frame$5+0x24>
    2858:	4620      	mov	r0, r4
    285a:	f7ff fa3d 	bl	1cd8 <d_make_empty>
    285e:	b120      	cbz	r0, 286a <__ARM_grp_.debug_frame$5+0x22>
    2860:	233f      	movs	r3, #63	; 0x3f
    2862:	f8c0 8008 	str.w	r8, [r0, #8]
    2866:	7003      	strb	r3, [r0, #0]
    2868:	6045      	str	r5, [r0, #4]
    286a:	4605      	mov	r5, r0
    286c:	4620      	mov	r0, r4
    286e:	2102      	movs	r1, #2
    2870:	463a      	mov	r2, r7
    2872:	462b      	mov	r3, r5
    2874:	e040      	b.n	28f8 <__ARM_grp_.debug_frame$11+0x28>
    2876:	2600      	movs	r6, #0
    2878:	e044      	b.n	2904 <__ARM_grp_.debug_frame$11+0x34>
    287a:	f000 fb3f 	bl	2efc <d_unqualified_name>
    287e:	e040      	b.n	2902 <__ARM_grp_.debug_frame$11+0x32>
    2880:	785a      	ldrb	r2, [r3, #1]
    2882:	2a74      	cmp	r2, #116	; 0x74
    2884:	d005      	beq.n	2892 <__ARM_grp_.debug_frame$8+0x6>
    2886:	2100      	movs	r1, #0
    2888:	2501      	movs	r5, #1
    288a:	f7ff fade 	bl	1e4a <d_substitution>
    288e:	4606      	mov	r6, r0
    2890:	e014      	b.n	28bc <__ARM_grp_.debug_frame$8+0x30>
    2892:	3302      	adds	r3, #2
    2894:	491f      	ldr	r1, [pc, #124]	; (2914 <__ARM_grp_.debug_frame$14>)
    2896:	60c3      	str	r3, [r0, #12]
    2898:	2203      	movs	r2, #3
    289a:	f7ff fa6a 	bl	1d72 <d_make_name>
    289e:	4605      	mov	r5, r0
    28a0:	4620      	mov	r0, r4
    28a2:	f000 fb2b 	bl	2efc <d_unqualified_name>
    28a6:	462a      	mov	r2, r5
    28a8:	2101      	movs	r1, #1
    28aa:	2500      	movs	r5, #0
    28ac:	4603      	mov	r3, r0
    28ae:	4620      	mov	r0, r4
    28b0:	f7ff fa20 	bl	1cf4 <d_make_comp>
    28b4:	6b23      	ldr	r3, [r4, #48]	; 0x30
    28b6:	3303      	adds	r3, #3
    28b8:	6323      	str	r3, [r4, #48]	; 0x30
    28ba:	4606      	mov	r6, r0
    28bc:	68e3      	ldr	r3, [r4, #12]
    28be:	781b      	ldrb	r3, [r3, #0]
    28c0:	2b49      	cmp	r3, #73	; 0x49
    28c2:	d11f      	bne.n	2904 <__ARM_grp_.debug_frame$11+0x34>
    28c4:	b98d      	cbnz	r5, 28ea <__ARM_grp_.debug_frame$11+0x1a>
    28c6:	4620      	mov	r0, r4
    28c8:	4631      	mov	r1, r6
    28ca:	f7ff faae 	bl	1e2a <d_add_substitution>
    28ce:	b960      	cbnz	r0, 28ea <__ARM_grp_.debug_frame$11+0x1a>
    28d0:	e015      	b.n	28fe <__ARM_grp_.debug_frame$11+0x2e>
    28d2:	f000 fb13 	bl	2efc <d_unqualified_name>
    28d6:	68e3      	ldr	r3, [r4, #12]
    28d8:	781b      	ldrb	r3, [r3, #0]
    28da:	2b49      	cmp	r3, #73	; 0x49
    28dc:	4606      	mov	r6, r0
    28de:	d111      	bne.n	2904 <__ARM_grp_.debug_frame$11+0x34>
    28e0:	4620      	mov	r0, r4
    28e2:	4631      	mov	r1, r6
    28e4:	f7ff faa1 	bl	1e2a <d_add_substitution>
    28e8:	b158      	cbz	r0, 2902 <__ARM_grp_.debug_frame$11+0x32>
    28ea:	4620      	mov	r0, r4
    28ec:	f7ff fe8e 	bl	260c <d_template_args>
    28f0:	2104      	movs	r1, #4
    28f2:	4632      	mov	r2, r6
    28f4:	4603      	mov	r3, r0
    28f6:	4620      	mov	r0, r4
    28f8:	f7ff f9fc 	bl	1cf4 <d_make_comp>
    28fc:	e001      	b.n	2902 <__ARM_grp_.debug_frame$11+0x32>
    28fe:	462e      	mov	r6, r5
    2900:	e000      	b.n	2904 <__ARM_grp_.debug_frame$11+0x34>
    2902:	4606      	mov	r6, r0
    2904:	4630      	mov	r0, r6
    2906:	e8bd 81fc 	ldmia.w	sp!, {r2, r3, r4, r5, r6, r7, r8, pc}
    290a:	bf00      	nop
    290c:	c0402000 	.word	0xc0402000
    2910:	00010703 	.word	0x00010703
    2914:	00010712 	.word	0x00010712

00002918 <d_class_enum_type>:
    2918:	e6cd      	b.n	26b6 <d_name>

0000291a <d_type>:
    291a:	b5f7      	push	{r0, r1, r2, r4, r5, r6, r7, lr}
    291c:	4604      	mov	r4, r0
    291e:	68c2      	ldr	r2, [r0, #12]
    2920:	7813      	ldrb	r3, [r2, #0]
    2922:	2b56      	cmp	r3, #86	; 0x56
    2924:	d003      	beq.n	292e <d_type+0x14>
    2926:	2b72      	cmp	r3, #114	; 0x72
    2928:	d001      	beq.n	292e <d_type+0x14>
    292a:	2b4b      	cmp	r3, #75	; 0x4b
    292c:	d110      	bne.n	2950 <d_type+0x36>
    292e:	4620      	mov	r0, r4
    2930:	a901      	add	r1, sp, #4
    2932:	2200      	movs	r2, #0
    2934:	f7ff fa45 	bl	1dc2 <d_cv_qualifiers>
    2938:	4605      	mov	r5, r0
    293a:	2800      	cmp	r0, #0
    293c:	f000 8219 	beq.w	2d72 <__ARM_grp_.debug_frame$29+0x12>
    2940:	4620      	mov	r0, r4
    2942:	f7ff ffea 	bl	291a <d_type>
    2946:	6028      	str	r0, [r5, #0]
    2948:	2800      	cmp	r0, #0
    294a:	f000 8211 	beq.w	2d70 <__ARM_grp_.debug_frame$29+0x10>
    294e:	e212      	b.n	2d76 <__ARM_grp_.debug_frame$29+0x16>
    2950:	f1a3 0130 	sub.w	r1, r3, #48	; 0x30
    2954:	294a      	cmp	r1, #74	; 0x4a
    2956:	f200 8209 	bhi.w	2d6c <__ARM_grp_.debug_frame$29+0xc>
    295a:	e8df f011 	tbh	[pc, r1, lsl #1]
    295e:	0077      	.short	0x0077
    2960:	00770077 	.word	0x00770077
    2964:	00770077 	.word	0x00770077
    2968:	00770077 	.word	0x00770077
    296c:	00770077 	.word	0x00770077
    2970:	02070077 	.word	0x02070077
    2974:	02070207 	.word	0x02070207
    2978:	02070207 	.word	0x02070207
    297c:	02070207 	.word	0x02070207
    2980:	0207007b 	.word	0x0207007b
    2984:	01490125 	.word	0x01490125
    2988:	00650207 	.word	0x00650207
    298c:	0207012e 	.word	0x0207012e
    2990:	02070207 	.word	0x02070207
    2994:	02070207 	.word	0x02070207
    2998:	007700a8 	.word	0x007700a8
    299c:	0113010a 	.word	0x0113010a
    29a0:	011c0207 	.word	0x011c0207
    29a4:	00cd00df 	.word	0x00cd00df
    29a8:	0207013b 	.word	0x0207013b
    29ac:	02070207 	.word	0x02070207
    29b0:	00770207 	.word	0x00770207
    29b4:	02070207 	.word	0x02070207
    29b8:	02070207 	.word	0x02070207
    29bc:	02070207 	.word	0x02070207
    29c0:	004b004b 	.word	0x004b004b
    29c4:	004b004b 	.word	0x004b004b
    29c8:	004b004b 	.word	0x004b004b
    29cc:	004b004b 	.word	0x004b004b
    29d0:	004b004b 	.word	0x004b004b
    29d4:	004b0207 	.word	0x004b0207
    29d8:	004b004b 	.word	0x004b004b
    29dc:	0207004b 	.word	0x0207004b
    29e0:	02070207 	.word	0x02070207
    29e4:	004b004b 	.word	0x004b004b
    29e8:	004b005c 	.word	0x004b005c
    29ec:	004b004b 	.word	0x004b004b
    29f0:	004b004b 	.word	0x004b004b
    29f4:	4a93      	ldr	r2, [pc, #588]	; (2c44 <__ARM_grp_.debug_frame$17+0x10>)
    29f6:	2114      	movs	r1, #20
    29f8:	4620      	mov	r0, r4
    29fa:	fb01 2103 	mla	r1, r1, r3, r2
    29fe:	f7ff f9c9 	bl	1d94 <d_make_builtin_type>
    2a02:	6b22      	ldr	r2, [r4, #48]	; 0x30
    2a04:	6843      	ldr	r3, [r0, #4]
    2a06:	9001      	str	r0, [sp, #4]
    2a08:	685b      	ldr	r3, [r3, #4]
    2a0a:	18d3      	adds	r3, r2, r3
    2a0c:	6323      	str	r3, [r4, #48]	; 0x30
    2a0e:	68e3      	ldr	r3, [r4, #12]
    2a10:	3301      	adds	r3, #1
    2a12:	60e3      	str	r3, [r4, #12]
    2a14:	e1a8      	b.n	2d68 <__ARM_grp_.debug_frame$29+0x8>
    2a16:	3201      	adds	r2, #1
    2a18:	4620      	mov	r0, r4
    2a1a:	60e2      	str	r2, [r4, #12]
    2a1c:	f7ff fbbf 	bl	219e <d_source_name>
    2a20:	2124      	movs	r1, #36	; 0x24
    2a22:	4602      	mov	r2, r0
    2a24:	4620      	mov	r0, r4
    2a26:	e0d0      	b.n	2bca <__ARM_grp_.debug_frame$11+0x26>
    2a28:	1c53      	adds	r3, r2, #1
    2a2a:	60e3      	str	r3, [r4, #12]
    2a2c:	7852      	ldrb	r2, [r2, #1]
    2a2e:	2a59      	cmp	r2, #89	; 0x59
    2a30:	d101      	bne.n	2a36 <__ARM_grp_.debug_frame$8+0x4a>
    2a32:	3301      	adds	r3, #1
    2a34:	60e3      	str	r3, [r4, #12]
    2a36:	2101      	movs	r1, #1
    2a38:	4620      	mov	r0, r4
    2a3a:	f000 f9de 	bl	2dfa <d_bare_function_type>
    2a3e:	68e3      	ldr	r3, [r4, #12]
    2a40:	781a      	ldrb	r2, [r3, #0]
    2a42:	2a45      	cmp	r2, #69	; 0x45
    2a44:	d131      	bne.n	2aaa <__ARM_grp_.debug_frame$14+0x2a>
    2a46:	3301      	adds	r3, #1
    2a48:	60e3      	str	r3, [r4, #12]
    2a4a:	e0c1      	b.n	2bd0 <__ARM_grp_.debug_frame$11+0x2c>
    2a4c:	4620      	mov	r0, r4
    2a4e:	f7ff ff63 	bl	2918 <d_class_enum_type>
    2a52:	e0bd      	b.n	2bd0 <__ARM_grp_.debug_frame$11+0x2c>
    2a54:	1c51      	adds	r1, r2, #1
    2a56:	60e1      	str	r1, [r4, #12]
    2a58:	7853      	ldrb	r3, [r2, #1]
    2a5a:	2b5f      	cmp	r3, #95	; 0x5f
    2a5c:	d017      	beq.n	2a8e <__ARM_grp_.debug_frame$14+0xe>
    2a5e:	3b30      	subs	r3, #48	; 0x30
    2a60:	b2db      	uxtb	r3, r3
    2a62:	2b09      	cmp	r3, #9
    2a64:	d80c      	bhi.n	2a80 <__ARM_grp_.debug_frame$14>
    2a66:	68e3      	ldr	r3, [r4, #12]
    2a68:	1c5a      	adds	r2, r3, #1
    2a6a:	60e2      	str	r2, [r4, #12]
    2a6c:	785b      	ldrb	r3, [r3, #1]
    2a6e:	3b30      	subs	r3, #48	; 0x30
    2a70:	b2db      	uxtb	r3, r3
    2a72:	2b09      	cmp	r3, #9
    2a74:	d9f7      	bls.n	2a66 <__ARM_grp_.debug_frame$11+0x2a>
    2a76:	4620      	mov	r0, r4
    2a78:	1a52      	subs	r2, r2, r1
    2a7a:	f7ff f97a 	bl	1d72 <d_make_name>
    2a7e:	e002      	b.n	2a86 <__ARM_grp_.debug_frame$14+0x6>
    2a80:	4620      	mov	r0, r4
    2a82:	f000 fb00 	bl	3086 <d_expression>
    2a86:	4605      	mov	r5, r0
    2a88:	2800      	cmp	r0, #0
    2a8a:	d034      	beq.n	2af6 <__ARM_grp_.debug_frame$17+0x32>
    2a8c:	e000      	b.n	2a90 <__ARM_grp_.debug_frame$14+0x10>
    2a8e:	2500      	movs	r5, #0
    2a90:	68e3      	ldr	r3, [r4, #12]
    2a92:	781a      	ldrb	r2, [r3, #0]
    2a94:	2a5f      	cmp	r2, #95	; 0x5f
    2a96:	d108      	bne.n	2aaa <__ARM_grp_.debug_frame$14+0x2a>
    2a98:	3301      	adds	r3, #1
    2a9a:	4620      	mov	r0, r4
    2a9c:	60e3      	str	r3, [r4, #12]
    2a9e:	f7ff ff3c 	bl	291a <d_type>
    2aa2:	2126      	movs	r1, #38	; 0x26
    2aa4:	4603      	mov	r3, r0
    2aa6:	4620      	mov	r0, r4
    2aa8:	e055      	b.n	2b56 <__ARM_grp_.debug_frame$5+0x4e>
    2aaa:	2000      	movs	r0, #0
    2aac:	e090      	b.n	2bd0 <__ARM_grp_.debug_frame$11+0x2c>
    2aae:	3201      	adds	r2, #1
    2ab0:	4620      	mov	r0, r4
    2ab2:	60e2      	str	r2, [r4, #12]
    2ab4:	466d      	mov	r5, sp
    2ab6:	f7ff ff30 	bl	291a <d_type>
    2aba:	4669      	mov	r1, sp
    2abc:	2201      	movs	r2, #1
    2abe:	4606      	mov	r6, r0
    2ac0:	4620      	mov	r0, r4
    2ac2:	f7ff f97e 	bl	1dc2 <d_cv_qualifiers>
    2ac6:	4607      	mov	r7, r0
    2ac8:	b1a8      	cbz	r0, 2af6 <__ARM_grp_.debug_frame$17+0x32>
    2aca:	4620      	mov	r0, r4
    2acc:	f7ff ff25 	bl	291a <d_type>
    2ad0:	6038      	str	r0, [r7, #0]
    2ad2:	2800      	cmp	r0, #0
    2ad4:	d07c      	beq.n	2bd0 <__ARM_grp_.debug_frame$11+0x2c>
    2ad6:	42af      	cmp	r7, r5
    2ad8:	d008      	beq.n	2aec <__ARM_grp_.debug_frame$17+0x28>
    2ada:	7803      	ldrb	r3, [r0, #0]
    2adc:	2b25      	cmp	r3, #37	; 0x25
    2ade:	d005      	beq.n	2aec <__ARM_grp_.debug_frame$17+0x28>
    2ae0:	4620      	mov	r0, r4
    2ae2:	9900      	ldr	r1, [sp, #0]
    2ae4:	f7ff f9a1 	bl	1e2a <d_add_substitution>
    2ae8:	2800      	cmp	r0, #0
    2aea:	d071      	beq.n	2bd0 <__ARM_grp_.debug_frame$11+0x2c>
    2aec:	4620      	mov	r0, r4
    2aee:	2127      	movs	r1, #39	; 0x27
    2af0:	4632      	mov	r2, r6
    2af2:	9b00      	ldr	r3, [sp, #0]
    2af4:	e06a      	b.n	2bcc <__ARM_grp_.debug_frame$11+0x28>
    2af6:	e06b      	b.n	2bd0 <__ARM_grp_.debug_frame$11+0x2c>
    2af8:	4620      	mov	r0, r4
    2afa:	f7ff fb26 	bl	214a <d_template_param>
    2afe:	68e3      	ldr	r3, [r4, #12]
    2b00:	9001      	str	r0, [sp, #4]
    2b02:	4601      	mov	r1, r0
    2b04:	781b      	ldrb	r3, [r3, #0]
    2b06:	2b49      	cmp	r3, #73	; 0x49
    2b08:	f040 8135 	bne.w	2d76 <__ARM_grp_.debug_frame$29+0x16>
    2b0c:	4620      	mov	r0, r4
    2b0e:	f7ff f98c 	bl	1e2a <d_add_substitution>
    2b12:	2800      	cmp	r0, #0
    2b14:	f000 812c 	beq.w	2d70 <__ARM_grp_.debug_frame$29+0x10>
    2b18:	9d01      	ldr	r5, [sp, #4]
    2b1a:	e016      	b.n	2b4a <__ARM_grp_.debug_frame$5+0x42>
    2b1c:	7853      	ldrb	r3, [r2, #1]
    2b1e:	f1a3 0230 	sub.w	r2, r3, #48	; 0x30
    2b22:	b2d2      	uxtb	r2, r2
    2b24:	2a09      	cmp	r2, #9
    2b26:	d905      	bls.n	2b34 <__ARM_grp_.debug_frame$5+0x2c>
    2b28:	2b5f      	cmp	r3, #95	; 0x5f
    2b2a:	d003      	beq.n	2b34 <__ARM_grp_.debug_frame$5+0x2c>
    2b2c:	3b41      	subs	r3, #65	; 0x41
    2b2e:	b2db      	uxtb	r3, r3
    2b30:	2b19      	cmp	r3, #25
    2b32:	d812      	bhi.n	2b5a <__ARM_grp_.debug_frame$8+0x2>
    2b34:	2100      	movs	r1, #0
    2b36:	4620      	mov	r0, r4
    2b38:	f7ff f987 	bl	1e4a <d_substitution>
    2b3c:	68e3      	ldr	r3, [r4, #12]
    2b3e:	9001      	str	r0, [sp, #4]
    2b40:	4605      	mov	r5, r0
    2b42:	781b      	ldrb	r3, [r3, #0]
    2b44:	2b49      	cmp	r3, #73	; 0x49
    2b46:	f040 810f 	bne.w	2d68 <__ARM_grp_.debug_frame$29+0x8>
    2b4a:	4620      	mov	r0, r4
    2b4c:	f7ff fd5e 	bl	260c <d_template_args>
    2b50:	2104      	movs	r1, #4
    2b52:	4603      	mov	r3, r0
    2b54:	4620      	mov	r0, r4
    2b56:	462a      	mov	r2, r5
    2b58:	e038      	b.n	2bcc <__ARM_grp_.debug_frame$11+0x28>
    2b5a:	4620      	mov	r0, r4
    2b5c:	f7ff fedc 	bl	2918 <d_class_enum_type>
    2b60:	9001      	str	r0, [sp, #4]
    2b62:	2800      	cmp	r0, #0
    2b64:	f000 8107 	beq.w	2d76 <__ARM_grp_.debug_frame$29+0x16>
    2b68:	7803      	ldrb	r3, [r0, #0]
    2b6a:	2b16      	cmp	r3, #22
    2b6c:	f040 8103 	bne.w	2d76 <__ARM_grp_.debug_frame$29+0x16>
    2b70:	e0fa      	b.n	2d68 <__ARM_grp_.debug_frame$29+0x8>
    2b72:	3201      	adds	r2, #1
    2b74:	4620      	mov	r0, r4
    2b76:	60e2      	str	r2, [r4, #12]
    2b78:	f7ff fecf 	bl	291a <d_type>
    2b7c:	2120      	movs	r1, #32
    2b7e:	4602      	mov	r2, r0
    2b80:	4620      	mov	r0, r4
    2b82:	e022      	b.n	2bca <__ARM_grp_.debug_frame$11+0x26>
    2b84:	3201      	adds	r2, #1
    2b86:	4620      	mov	r0, r4
    2b88:	60e2      	str	r2, [r4, #12]
    2b8a:	f7ff fec6 	bl	291a <d_type>
    2b8e:	211e      	movs	r1, #30
    2b90:	4602      	mov	r2, r0
    2b92:	4620      	mov	r0, r4
    2b94:	e019      	b.n	2bca <__ARM_grp_.debug_frame$11+0x26>
    2b96:	3201      	adds	r2, #1
    2b98:	4620      	mov	r0, r4
    2b9a:	60e2      	str	r2, [r4, #12]
    2b9c:	f7ff febd 	bl	291a <d_type>
    2ba0:	211f      	movs	r1, #31
    2ba2:	4602      	mov	r2, r0
    2ba4:	4620      	mov	r0, r4
    2ba6:	e010      	b.n	2bca <__ARM_grp_.debug_frame$11+0x26>
    2ba8:	3201      	adds	r2, #1
    2baa:	4620      	mov	r0, r4
    2bac:	60e2      	str	r2, [r4, #12]
    2bae:	f7ff feb4 	bl	291a <d_type>
    2bb2:	2121      	movs	r1, #33	; 0x21
    2bb4:	4602      	mov	r2, r0
    2bb6:	4620      	mov	r0, r4
    2bb8:	e007      	b.n	2bca <__ARM_grp_.debug_frame$11+0x26>
    2bba:	3201      	adds	r2, #1
    2bbc:	4620      	mov	r0, r4
    2bbe:	60e2      	str	r2, [r4, #12]
    2bc0:	f7ff feab 	bl	291a <d_type>
    2bc4:	2122      	movs	r1, #34	; 0x22
    2bc6:	4602      	mov	r2, r0
    2bc8:	4620      	mov	r0, r4
    2bca:	2300      	movs	r3, #0
    2bcc:	f7ff f892 	bl	1cf4 <d_make_comp>
    2bd0:	9001      	str	r0, [sp, #4]
    2bd2:	e0d0      	b.n	2d76 <__ARM_grp_.debug_frame$29+0x16>
    2bd4:	3201      	adds	r2, #1
    2bd6:	4620      	mov	r0, r4
    2bd8:	60e2      	str	r2, [r4, #12]
    2bda:	f7ff fae0 	bl	219e <d_source_name>
    2bde:	9001      	str	r0, [sp, #4]
    2be0:	4620      	mov	r0, r4
    2be2:	f7ff fe9a 	bl	291a <d_type>
    2be6:	211d      	movs	r1, #29
    2be8:	9b01      	ldr	r3, [sp, #4]
    2bea:	4602      	mov	r2, r0
    2bec:	4620      	mov	r0, r4
    2bee:	e7ed      	b.n	2bcc <__ARM_grp_.debug_frame$11+0x28>
    2bf0:	1c53      	adds	r3, r2, #1
    2bf2:	60e3      	str	r3, [r4, #12]
    2bf4:	7855      	ldrb	r5, [r2, #1]
    2bf6:	2d00      	cmp	r5, #0
    2bf8:	f000 80bb 	beq.w	2d72 <__ARM_grp_.debug_frame$29+0x12>
    2bfc:	1c5a      	adds	r2, r3, #1
    2bfe:	2d68      	cmp	r5, #104	; 0x68
    2c00:	60e2      	str	r2, [r4, #12]
    2c02:	d049      	beq.n	2c98 <__ARM_grp_.debug_frame$20+0x18>
    2c04:	d80e      	bhi.n	2c24 <__ARM_grp_.debug_frame$14+0x38>
    2c06:	2d64      	cmp	r5, #100	; 0x64
    2c08:	d040      	beq.n	2c8c <__ARM_grp_.debug_frame$20+0xc>
    2c0a:	d805      	bhi.n	2c18 <__ARM_grp_.debug_frame$14+0x2c>
    2c0c:	2d46      	cmp	r5, #70	; 0x46
    2c0e:	d054      	beq.n	2cba <__ARM_grp_.debug_frame$20+0x3a>
    2c10:	2d54      	cmp	r5, #84	; 0x54
    2c12:	f040 80ab 	bne.w	2d6c <__ARM_grp_.debug_frame$29+0xc>
    2c16:	e017      	b.n	2c48 <__ARM_grp_.debug_frame$17+0x14>
    2c18:	2d65      	cmp	r5, #101	; 0x65
    2c1a:	d03a      	beq.n	2c92 <__ARM_grp_.debug_frame$20+0x12>
    2c1c:	2d66      	cmp	r5, #102	; 0x66
    2c1e:	f040 80a5 	bne.w	2d6c <__ARM_grp_.debug_frame$29+0xc>
    2c22:	e030      	b.n	2c86 <__ARM_grp_.debug_frame$20+0x6>
    2c24:	2d73      	cmp	r5, #115	; 0x73
    2c26:	d03a      	beq.n	2c9e <__ARM_grp_.debug_frame$20+0x1e>
    2c28:	d805      	bhi.n	2c36 <__ARM_grp_.debug_frame$17+0x2>
    2c2a:	2d69      	cmp	r5, #105	; 0x69
    2c2c:	d03a      	beq.n	2ca4 <__ARM_grp_.debug_frame$20+0x24>
    2c2e:	2d70      	cmp	r5, #112	; 0x70
    2c30:	f040 809c 	bne.w	2d6c <__ARM_grp_.debug_frame$29+0xc>
    2c34:	e01f      	b.n	2c76 <__ARM_grp_.debug_frame$17+0x42>
    2c36:	2d74      	cmp	r5, #116	; 0x74
    2c38:	d006      	beq.n	2c48 <__ARM_grp_.debug_frame$17+0x14>
    2c3a:	2d76      	cmp	r5, #118	; 0x76
    2c3c:	f040 8096 	bne.w	2d6c <__ARM_grp_.debug_frame$29+0xc>
    2c40:	e069      	b.n	2d16 <__ARM_grp_.debug_frame$26+0x2>
    2c42:	bf00      	nop
    2c44:	0000f980 	.word	0x0000f980
    2c48:	4620      	mov	r0, r4
    2c4a:	f000 fa1c 	bl	3086 <d_expression>
    2c4e:	213b      	movs	r1, #59	; 0x3b
    2c50:	2300      	movs	r3, #0
    2c52:	4602      	mov	r2, r0
    2c54:	4620      	mov	r0, r4
    2c56:	f7ff f84d 	bl	1cf4 <d_make_comp>
    2c5a:	9001      	str	r0, [sp, #4]
    2c5c:	2800      	cmp	r0, #0
    2c5e:	f000 8083 	beq.w	2d68 <__ARM_grp_.debug_frame$29+0x8>
    2c62:	68e2      	ldr	r2, [r4, #12]
    2c64:	7813      	ldrb	r3, [r2, #0]
    2c66:	b11b      	cbz	r3, 2c70 <__ARM_grp_.debug_frame$17+0x3c>
    2c68:	3201      	adds	r2, #1
    2c6a:	2b45      	cmp	r3, #69	; 0x45
    2c6c:	60e2      	str	r2, [r4, #12]
    2c6e:	d07b      	beq.n	2d68 <__ARM_grp_.debug_frame$29+0x8>
    2c70:	2300      	movs	r3, #0
    2c72:	9301      	str	r3, [sp, #4]
    2c74:	e078      	b.n	2d68 <__ARM_grp_.debug_frame$29+0x8>
    2c76:	4620      	mov	r0, r4
    2c78:	f7ff fe4f 	bl	291a <d_type>
    2c7c:	2141      	movs	r1, #65	; 0x41
    2c7e:	2300      	movs	r3, #0
    2c80:	4602      	mov	r2, r0
    2c82:	4620      	mov	r0, r4
    2c84:	e06b      	b.n	2d5e <__ARM_grp_.debug_frame$26+0x4a>
    2c86:	4620      	mov	r0, r4
    2c88:	493e      	ldr	r1, [pc, #248]	; (2d84 <__ARM_grp_.debug_frame$29+0x24>)
    2c8a:	e00d      	b.n	2ca8 <__ARM_grp_.debug_frame$20+0x28>
    2c8c:	4620      	mov	r0, r4
    2c8e:	493e      	ldr	r1, [pc, #248]	; (2d88 <__ARM_grp_.debug_frame$29+0x28>)
    2c90:	e00a      	b.n	2ca8 <__ARM_grp_.debug_frame$20+0x28>
    2c92:	4620      	mov	r0, r4
    2c94:	493d      	ldr	r1, [pc, #244]	; (2d8c <__ARM_grp_.debug_frame$29+0x2c>)
    2c96:	e007      	b.n	2ca8 <__ARM_grp_.debug_frame$20+0x28>
    2c98:	4620      	mov	r0, r4
    2c9a:	493d      	ldr	r1, [pc, #244]	; (2d90 <__ARM_grp_.debug_frame$29+0x30>)
    2c9c:	e004      	b.n	2ca8 <__ARM_grp_.debug_frame$20+0x28>
    2c9e:	4620      	mov	r0, r4
    2ca0:	493c      	ldr	r1, [pc, #240]	; (2d94 <__ARM_grp_.debug_frame$29+0x34>)
    2ca2:	e001      	b.n	2ca8 <__ARM_grp_.debug_frame$20+0x28>
    2ca4:	493c      	ldr	r1, [pc, #240]	; (2d98 <__ARM_grp_.debug_frame$29+0x38>)
    2ca6:	4620      	mov	r0, r4
    2ca8:	f7ff f874 	bl	1d94 <d_make_builtin_type>
    2cac:	6b22      	ldr	r2, [r4, #48]	; 0x30
    2cae:	9001      	str	r0, [sp, #4]
    2cb0:	6843      	ldr	r3, [r0, #4]
    2cb2:	685b      	ldr	r3, [r3, #4]
    2cb4:	18d3      	adds	r3, r2, r3
    2cb6:	6323      	str	r3, [r4, #48]	; 0x30
    2cb8:	e056      	b.n	2d68 <__ARM_grp_.debug_frame$29+0x8>
    2cba:	4620      	mov	r0, r4
    2cbc:	f7ff f80c 	bl	1cd8 <d_make_empty>
    2cc0:	2328      	movs	r3, #40	; 0x28
    2cc2:	9001      	str	r0, [sp, #4]
    2cc4:	7003      	strb	r3, [r0, #0]
    2cc6:	68e3      	ldr	r3, [r4, #12]
    2cc8:	781b      	ldrb	r3, [r3, #0]
    2cca:	3b30      	subs	r3, #48	; 0x30
    2ccc:	b2db      	uxtb	r3, r3
    2cce:	2b09      	cmp	r3, #9
    2cd0:	bf8c      	ite	hi
    2cd2:	2300      	movhi	r3, #0
    2cd4:	2301      	movls	r3, #1
    2cd6:	8103      	strh	r3, [r0, #8]
    2cd8:	b11b      	cbz	r3, 2ce2 <__ARM_grp_.debug_frame$23+0x1a>
    2cda:	f104 000c 	add.w	r0, r4, #12
    2cde:	f7ff f9d1 	bl	2084 <d_number.clone.0>
    2ce2:	4620      	mov	r0, r4
    2ce4:	9d01      	ldr	r5, [sp, #4]
    2ce6:	f7ff fe18 	bl	291a <d_type>
    2cea:	9b01      	ldr	r3, [sp, #4]
    2cec:	6068      	str	r0, [r5, #4]
    2cee:	685d      	ldr	r5, [r3, #4]
    2cf0:	2d00      	cmp	r5, #0
    2cf2:	d03e      	beq.n	2d72 <__ARM_grp_.debug_frame$29+0x12>
    2cf4:	f104 000c 	add.w	r0, r4, #12
    2cf8:	f7ff f9c4 	bl	2084 <d_number.clone.0>
    2cfc:	68e2      	ldr	r2, [r4, #12]
    2cfe:	7813      	ldrb	r3, [r2, #0]
    2d00:	b10b      	cbz	r3, 2d06 <__ARM_grp_.debug_frame$23+0x3e>
    2d02:	3201      	adds	r2, #1
    2d04:	60e2      	str	r2, [r4, #12]
    2d06:	f1a3 0273 	sub.w	r2, r3, #115	; 0x73
    2d0a:	4253      	negs	r3, r2
    2d0c:	eb43 0302 	adc.w	r3, r3, r2
    2d10:	9a01      	ldr	r2, [sp, #4]
    2d12:	8153      	strh	r3, [r2, #10]
    2d14:	e028      	b.n	2d68 <__ARM_grp_.debug_frame$29+0x8>
    2d16:	785b      	ldrb	r3, [r3, #1]
    2d18:	2b5f      	cmp	r3, #95	; 0x5f
    2d1a:	d106      	bne.n	2d2a <__ARM_grp_.debug_frame$26+0x16>
    2d1c:	3201      	adds	r2, #1
    2d1e:	4620      	mov	r0, r4
    2d20:	60e2      	str	r2, [r4, #12]
    2d22:	f000 f9b0 	bl	3086 <d_expression>
    2d26:	4605      	mov	r5, r0
    2d28:	e00b      	b.n	2d42 <__ARM_grp_.debug_frame$26+0x2e>
    2d2a:	4620      	mov	r0, r4
    2d2c:	f7fe ffd4 	bl	1cd8 <d_make_empty>
    2d30:	4605      	mov	r5, r0
    2d32:	b1b8      	cbz	r0, 2d64 <__ARM_grp_.debug_frame$29+0x4>
    2d34:	233a      	movs	r3, #58	; 0x3a
    2d36:	7003      	strb	r3, [r0, #0]
    2d38:	f104 000c 	add.w	r0, r4, #12
    2d3c:	f7ff f9a2 	bl	2084 <d_number.clone.0>
    2d40:	6068      	str	r0, [r5, #4]
    2d42:	b17d      	cbz	r5, 2d64 <__ARM_grp_.debug_frame$29+0x4>
    2d44:	68e3      	ldr	r3, [r4, #12]
    2d46:	781a      	ldrb	r2, [r3, #0]
    2d48:	2a5f      	cmp	r2, #95	; 0x5f
    2d4a:	d10b      	bne.n	2d64 <__ARM_grp_.debug_frame$29+0x4>
    2d4c:	3301      	adds	r3, #1
    2d4e:	4620      	mov	r0, r4
    2d50:	60e3      	str	r3, [r4, #12]
    2d52:	f7ff fde2 	bl	291a <d_type>
    2d56:	2129      	movs	r1, #41	; 0x29
    2d58:	462a      	mov	r2, r5
    2d5a:	4603      	mov	r3, r0
    2d5c:	4620      	mov	r0, r4
    2d5e:	f7fe ffc9 	bl	1cf4 <d_make_comp>
    2d62:	e000      	b.n	2d66 <__ARM_grp_.debug_frame$29+0x6>
    2d64:	2000      	movs	r0, #0
    2d66:	9001      	str	r0, [sp, #4]
    2d68:	9d01      	ldr	r5, [sp, #4]
    2d6a:	e002      	b.n	2d72 <__ARM_grp_.debug_frame$29+0x12>
    2d6c:	2500      	movs	r5, #0
    2d6e:	e000      	b.n	2d72 <__ARM_grp_.debug_frame$29+0x12>
    2d70:	4605      	mov	r5, r0
    2d72:	4628      	mov	r0, r5
    2d74:	bdfe      	pop	{r1, r2, r3, r4, r5, r6, r7, pc}
    2d76:	4620      	mov	r0, r4
    2d78:	9901      	ldr	r1, [sp, #4]
    2d7a:	f7ff f856 	bl	1e2a <d_add_substitution>
    2d7e:	2800      	cmp	r0, #0
    2d80:	d1f2      	bne.n	2d68 <__ARM_grp_.debug_frame$29+0x8>
    2d82:	e7f5      	b.n	2d70 <__ARM_grp_.debug_frame$29+0x10>
    2d84:	0001031c 	.word	0x0001031c
    2d88:	00010330 	.word	0x00010330
    2d8c:	00010344 	.word	0x00010344
    2d90:	00010358 	.word	0x00010358
    2d94:	0001036c 	.word	0x0001036c
    2d98:	00010380 	.word	0x00010380

00002d9c <d_parmlist>:
    2d9c:	b537      	push	{r0, r1, r2, r4, r5, lr}
    2d9e:	4604      	mov	r4, r0
    2da0:	ad02      	add	r5, sp, #8
    2da2:	2300      	movs	r3, #0
    2da4:	f845 3d04 	str.w	r3, [r5, #-4]!
    2da8:	68e3      	ldr	r3, [r4, #12]
    2daa:	781b      	ldrb	r3, [r3, #0]
    2dac:	b183      	cbz	r3, 2dd0 <__ARM_grp_.debug_frame$32+0x20>
    2dae:	2b45      	cmp	r3, #69	; 0x45
    2db0:	d00e      	beq.n	2dd0 <__ARM_grp_.debug_frame$32+0x20>
    2db2:	4620      	mov	r0, r4
    2db4:	f7ff fdb1 	bl	291a <d_type>
    2db8:	4602      	mov	r2, r0
    2dba:	b1e0      	cbz	r0, 2df6 <__ARM_grp_.debug_frame$32+0x46>
    2dbc:	4620      	mov	r0, r4
    2dbe:	212a      	movs	r1, #42	; 0x2a
    2dc0:	2300      	movs	r3, #0
    2dc2:	f7fe ff97 	bl	1cf4 <d_make_comp>
    2dc6:	6028      	str	r0, [r5, #0]
    2dc8:	b1a0      	cbz	r0, 2df4 <__ARM_grp_.debug_frame$32+0x44>
    2dca:	f100 0508 	add.w	r5, r0, #8
    2dce:	e7eb      	b.n	2da8 <d_parmlist+0xc>
    2dd0:	9a01      	ldr	r2, [sp, #4]
    2dd2:	b182      	cbz	r2, 2df6 <__ARM_grp_.debug_frame$32+0x46>
    2dd4:	6893      	ldr	r3, [r2, #8]
    2dd6:	b973      	cbnz	r3, 2df6 <__ARM_grp_.debug_frame$32+0x46>
    2dd8:	6851      	ldr	r1, [r2, #4]
    2dda:	7808      	ldrb	r0, [r1, #0]
    2ddc:	2823      	cmp	r0, #35	; 0x23
    2dde:	d10a      	bne.n	2df6 <__ARM_grp_.debug_frame$32+0x46>
    2de0:	6849      	ldr	r1, [r1, #4]
    2de2:	7c08      	ldrb	r0, [r1, #16]
    2de4:	2809      	cmp	r0, #9
    2de6:	d106      	bne.n	2df6 <__ARM_grp_.debug_frame$32+0x46>
    2de8:	6b20      	ldr	r0, [r4, #48]	; 0x30
    2dea:	6849      	ldr	r1, [r1, #4]
    2dec:	1a41      	subs	r1, r0, r1
    2dee:	6321      	str	r1, [r4, #48]	; 0x30
    2df0:	6053      	str	r3, [r2, #4]
    2df2:	e000      	b.n	2df6 <__ARM_grp_.debug_frame$32+0x46>
    2df4:	4602      	mov	r2, r0
    2df6:	4610      	mov	r0, r2
    2df8:	bd3e      	pop	{r1, r2, r3, r4, r5, pc}

00002dfa <d_bare_function_type>:
    2dfa:	68c3      	ldr	r3, [r0, #12]
    2dfc:	b570      	push	{r4, r5, r6, lr}
    2dfe:	4604      	mov	r4, r0
    2e00:	781a      	ldrb	r2, [r3, #0]
    2e02:	2a4a      	cmp	r2, #74	; 0x4a
    2e04:	d102      	bne.n	2e0c <__ARM_grp_.debug_frame$35+0xc>
    2e06:	3301      	adds	r3, #1
    2e08:	60c3      	str	r3, [r0, #12]
    2e0a:	e000      	b.n	2e0e <__ARM_grp_.debug_frame$35+0xe>
    2e0c:	b129      	cbz	r1, 2e1a <__ARM_grp_.debug_frame$35+0x1a>
    2e0e:	4620      	mov	r0, r4
    2e10:	f7ff fd83 	bl	291a <d_type>
    2e14:	4605      	mov	r5, r0
    2e16:	b168      	cbz	r0, 2e34 <__ARM_grp_.debug_frame$35+0x34>
    2e18:	e000      	b.n	2e1c <__ARM_grp_.debug_frame$35+0x1c>
    2e1a:	460d      	mov	r5, r1
    2e1c:	4620      	mov	r0, r4
    2e1e:	f7ff ffbd 	bl	2d9c <d_parmlist>
    2e22:	4603      	mov	r3, r0
    2e24:	b138      	cbz	r0, 2e36 <__ARM_grp_.debug_frame$35+0x36>
    2e26:	4620      	mov	r0, r4
    2e28:	2125      	movs	r1, #37	; 0x25
    2e2a:	462a      	mov	r2, r5
    2e2c:	e8bd 4070 	ldmia.w	sp!, {r4, r5, r6, lr}
    2e30:	f7fe bf60 	b.w	1cf4 <d_make_comp>
    2e34:	bd70      	pop	{r4, r5, r6, pc}
    2e36:	bd70      	pop	{r4, r5, r6, pc}

00002e38 <d_operator_name>:
    2e38:	68c3      	ldr	r3, [r0, #12]
    2e3a:	e92d 41f0 	stmdb	sp!, {r4, r5, r6, r7, r8, lr}
    2e3e:	4604      	mov	r4, r0
    2e40:	7819      	ldrb	r1, [r3, #0]
    2e42:	b109      	cbz	r1, 2e48 <__ARM_grp_.debug_frame$38>
    2e44:	3301      	adds	r3, #1
    2e46:	60c3      	str	r3, [r0, #12]
    2e48:	68e3      	ldr	r3, [r4, #12]
    2e4a:	7818      	ldrb	r0, [r3, #0]
    2e4c:	b108      	cbz	r0, 2e52 <__ARM_grp_.debug_frame$38+0xa>
    2e4e:	3301      	adds	r3, #1
    2e50:	60e3      	str	r3, [r4, #12]
    2e52:	2976      	cmp	r1, #118	; 0x76
    2e54:	d117      	bne.n	2e86 <__ARM_grp_.debug_frame$38+0x3e>
    2e56:	f1a0 0630 	sub.w	r6, r0, #48	; 0x30
    2e5a:	b2f3      	uxtb	r3, r6
    2e5c:	2b09      	cmp	r3, #9
    2e5e:	d821      	bhi.n	2ea4 <__ARM_grp_.debug_frame$41+0x14>
    2e60:	4620      	mov	r0, r4
    2e62:	f7ff f99c 	bl	219e <d_source_name>
    2e66:	4605      	mov	r5, r0
    2e68:	4620      	mov	r0, r4
    2e6a:	f7fe ff35 	bl	1cd8 <d_make_empty>
    2e6e:	2800      	cmp	r0, #0
    2e70:	d03f      	beq.n	2ef2 <__ARM_grp_.debug_frame$5+0x1e>
    2e72:	b12d      	cbz	r5, 2e80 <__ARM_grp_.debug_frame$38+0x38>
    2e74:	232d      	movs	r3, #45	; 0x2d
    2e76:	6046      	str	r6, [r0, #4]
    2e78:	7003      	strb	r3, [r0, #0]
    2e7a:	6085      	str	r5, [r0, #8]
    2e7c:	e8bd 81f0 	ldmia.w	sp!, {r4, r5, r6, r7, r8, pc}
    2e80:	4628      	mov	r0, r5
    2e82:	e8bd 81f0 	ldmia.w	sp!, {r4, r5, r6, r7, r8, pc}
    2e86:	2963      	cmp	r1, #99	; 0x63
    2e88:	d10c      	bne.n	2ea4 <__ARM_grp_.debug_frame$41+0x14>
    2e8a:	2876      	cmp	r0, #118	; 0x76
    2e8c:	d10a      	bne.n	2ea4 <__ARM_grp_.debug_frame$41+0x14>
    2e8e:	4620      	mov	r0, r4
    2e90:	f7ff fd43 	bl	291a <d_type>
    2e94:	212e      	movs	r1, #46	; 0x2e
    2e96:	2300      	movs	r3, #0
    2e98:	4602      	mov	r2, r0
    2e9a:	4620      	mov	r0, r4
    2e9c:	e8bd 41f0 	ldmia.w	sp!, {r4, r5, r6, r7, r8, lr}
    2ea0:	f7fe bf28 	b.w	1cf4 <d_make_comp>
    2ea4:	2234      	movs	r2, #52	; 0x34
    2ea6:	2300      	movs	r3, #0
    2ea8:	1ad6      	subs	r6, r2, r3
    2eaa:	f8df c04c 	ldr.w	ip, [pc, #76]	; 2ef8 <__ARM_grp_.debug_frame$5+0x24>
    2eae:	eb06 76d6 	add.w	r6, r6, r6, lsr #31
    2eb2:	f50c 7551 	add.w	r5, ip, #836	; 0x344
    2eb6:	eb03 0666 	add.w	r6, r3, r6, asr #1
    2eba:	0137      	lsls	r7, r6, #4
    2ebc:	19ed      	adds	r5, r5, r7
    2ebe:	4467      	add	r7, ip
    2ec0:	f8d7 7344 	ldr.w	r7, [r7, #836]	; 0x344
    2ec4:	f897 c000 	ldrb.w	ip, [r7]
    2ec8:	4561      	cmp	r1, ip
    2eca:	d10b      	bne.n	2ee4 <__ARM_grp_.debug_frame$5+0x10>
    2ecc:	787f      	ldrb	r7, [r7, #1]
    2ece:	42b8      	cmp	r0, r7
    2ed0:	d108      	bne.n	2ee4 <__ARM_grp_.debug_frame$5+0x10>
    2ed2:	4620      	mov	r0, r4
    2ed4:	f7fe ff00 	bl	1cd8 <d_make_empty>
    2ed8:	b158      	cbz	r0, 2ef2 <__ARM_grp_.debug_frame$5+0x1e>
    2eda:	232c      	movs	r3, #44	; 0x2c
    2edc:	6045      	str	r5, [r0, #4]
    2ede:	7003      	strb	r3, [r0, #0]
    2ee0:	e8bd 81f0 	ldmia.w	sp!, {r4, r5, r6, r7, r8, pc}
    2ee4:	d301      	bcc.n	2eea <__ARM_grp_.debug_frame$5+0x16>
    2ee6:	1c73      	adds	r3, r6, #1
    2ee8:	e000      	b.n	2eec <__ARM_grp_.debug_frame$5+0x18>
    2eea:	4632      	mov	r2, r6
    2eec:	4293      	cmp	r3, r2
    2eee:	d1db      	bne.n	2ea8 <__ARM_grp_.debug_frame$41+0x18>
    2ef0:	2000      	movs	r0, #0
    2ef2:	e8bd 81f0 	ldmia.w	sp!, {r4, r5, r6, r7, r8, pc}
    2ef6:	bf00      	nop
    2ef8:	00010050 	.word	0x00010050

00002efc <d_unqualified_name>:
    2efc:	68c3      	ldr	r3, [r0, #12]
    2efe:	e92d 41f0 	stmdb	sp!, {r4, r5, r6, r7, r8, lr}
    2f02:	4605      	mov	r5, r0
    2f04:	781a      	ldrb	r2, [r3, #0]
    2f06:	f1a2 0130 	sub.w	r1, r2, #48	; 0x30
    2f0a:	b2c9      	uxtb	r1, r1
    2f0c:	2909      	cmp	r1, #9
    2f0e:	d803      	bhi.n	2f18 <d_unqualified_name+0x1c>
    2f10:	e8bd 41f0 	ldmia.w	sp!, {r4, r5, r6, r7, r8, lr}
    2f14:	f7ff b943 	b.w	219e <d_source_name>
    2f18:	f1a2 0161 	sub.w	r1, r2, #97	; 0x61
    2f1c:	b2c9      	uxtb	r1, r1
    2f1e:	2919      	cmp	r1, #25
    2f20:	d810      	bhi.n	2f44 <__ARM_grp_.debug_frame$8+0x1c>
    2f22:	f7ff ff89 	bl	2e38 <d_operator_name>
    2f26:	4604      	mov	r4, r0
    2f28:	2800      	cmp	r0, #0
    2f2a:	f000 80a9 	beq.w	3080 <__ARM_grp_.debug_frame$5+0x30>
    2f2e:	7803      	ldrb	r3, [r0, #0]
    2f30:	2b2c      	cmp	r3, #44	; 0x2c
    2f32:	f040 80a5 	bne.w	3080 <__ARM_grp_.debug_frame$5+0x30>
    2f36:	6843      	ldr	r3, [r0, #4]
    2f38:	6b2a      	ldr	r2, [r5, #48]	; 0x30
    2f3a:	689b      	ldr	r3, [r3, #8]
    2f3c:	18d3      	adds	r3, r2, r3
    2f3e:	3307      	adds	r3, #7
    2f40:	632b      	str	r3, [r5, #48]	; 0x30
    2f42:	e09d      	b.n	3080 <__ARM_grp_.debug_frame$5+0x30>
    2f44:	f1a2 0143 	sub.w	r1, r2, #67	; 0x43
    2f48:	b2c9      	uxtb	r1, r1
    2f4a:	2901      	cmp	r1, #1
    2f4c:	d846      	bhi.n	2fdc <__ARM_grp_.debug_frame$14+0x14>
    2f4e:	6ac3      	ldr	r3, [r0, #44]	; 0x2c
    2f50:	b13b      	cbz	r3, 2f62 <__ARM_grp_.debug_frame$8+0x3a>
    2f52:	781a      	ldrb	r2, [r3, #0]
    2f54:	b10a      	cbz	r2, 2f5a <__ARM_grp_.debug_frame$8+0x32>
    2f56:	2a16      	cmp	r2, #22
    2f58:	d103      	bne.n	2f62 <__ARM_grp_.debug_frame$8+0x3a>
    2f5a:	6b02      	ldr	r2, [r0, #48]	; 0x30
    2f5c:	689b      	ldr	r3, [r3, #8]
    2f5e:	18d3      	adds	r3, r2, r3
    2f60:	6303      	str	r3, [r0, #48]	; 0x30
    2f62:	68eb      	ldr	r3, [r5, #12]
    2f64:	781a      	ldrb	r2, [r3, #0]
    2f66:	2a43      	cmp	r2, #67	; 0x43
    2f68:	d003      	beq.n	2f72 <__ARM_grp_.debug_frame$11+0x6>
    2f6a:	2a44      	cmp	r2, #68	; 0x44
    2f6c:	f040 8087 	bne.w	307e <__ARM_grp_.debug_frame$5+0x2e>
    2f70:	e017      	b.n	2fa2 <__ARM_grp_.debug_frame$11+0x36>
    2f72:	785a      	ldrb	r2, [r3, #1]
    2f74:	2a32      	cmp	r2, #50	; 0x32
    2f76:	d007      	beq.n	2f88 <__ARM_grp_.debug_frame$11+0x1c>
    2f78:	2a33      	cmp	r2, #51	; 0x33
    2f7a:	d003      	beq.n	2f84 <__ARM_grp_.debug_frame$11+0x18>
    2f7c:	2a31      	cmp	r2, #49	; 0x31
    2f7e:	d17e      	bne.n	307e <__ARM_grp_.debug_frame$5+0x2e>
    2f80:	2701      	movs	r7, #1
    2f82:	e002      	b.n	2f8a <__ARM_grp_.debug_frame$11+0x1e>
    2f84:	2703      	movs	r7, #3
    2f86:	e000      	b.n	2f8a <__ARM_grp_.debug_frame$11+0x1e>
    2f88:	2702      	movs	r7, #2
    2f8a:	3302      	adds	r3, #2
    2f8c:	4628      	mov	r0, r5
    2f8e:	60eb      	str	r3, [r5, #12]
    2f90:	6aee      	ldr	r6, [r5, #44]	; 0x2c
    2f92:	f7fe fea1 	bl	1cd8 <d_make_empty>
    2f96:	4604      	mov	r4, r0
    2f98:	2800      	cmp	r0, #0
    2f9a:	d071      	beq.n	3080 <__ARM_grp_.debug_frame$5+0x30>
    2f9c:	b1e6      	cbz	r6, 2fd8 <__ARM_grp_.debug_frame$14+0x10>
    2f9e:	2307      	movs	r3, #7
    2fa0:	e016      	b.n	2fd0 <__ARM_grp_.debug_frame$14+0x8>
    2fa2:	785a      	ldrb	r2, [r3, #1]
    2fa4:	2a31      	cmp	r2, #49	; 0x31
    2fa6:	d007      	beq.n	2fb8 <__ARM_grp_.debug_frame$11+0x4c>
    2fa8:	2a32      	cmp	r2, #50	; 0x32
    2faa:	d003      	beq.n	2fb4 <__ARM_grp_.debug_frame$11+0x48>
    2fac:	2a30      	cmp	r2, #48	; 0x30
    2fae:	d166      	bne.n	307e <__ARM_grp_.debug_frame$5+0x2e>
    2fb0:	2701      	movs	r7, #1
    2fb2:	e002      	b.n	2fba <__ARM_grp_.debug_frame$11+0x4e>
    2fb4:	2703      	movs	r7, #3
    2fb6:	e000      	b.n	2fba <__ARM_grp_.debug_frame$11+0x4e>
    2fb8:	2702      	movs	r7, #2
    2fba:	3302      	adds	r3, #2
    2fbc:	4628      	mov	r0, r5
    2fbe:	60eb      	str	r3, [r5, #12]
    2fc0:	6aee      	ldr	r6, [r5, #44]	; 0x2c
    2fc2:	f7fe fe89 	bl	1cd8 <d_make_empty>
    2fc6:	4604      	mov	r4, r0
    2fc8:	2800      	cmp	r0, #0
    2fca:	d059      	beq.n	3080 <__ARM_grp_.debug_frame$5+0x30>
    2fcc:	b126      	cbz	r6, 2fd8 <__ARM_grp_.debug_frame$14+0x10>
    2fce:	2308      	movs	r3, #8
    2fd0:	7003      	strb	r3, [r0, #0]
    2fd2:	7107      	strb	r7, [r0, #4]
    2fd4:	6086      	str	r6, [r0, #8]
    2fd6:	e053      	b.n	3080 <__ARM_grp_.debug_frame$5+0x30>
    2fd8:	4634      	mov	r4, r6
    2fda:	e051      	b.n	3080 <__ARM_grp_.debug_frame$5+0x30>
    2fdc:	2a4c      	cmp	r2, #76	; 0x4c
    2fde:	d10a      	bne.n	2ff6 <__ARM_grp_.debug_frame$14+0x2e>
    2fe0:	3301      	adds	r3, #1
    2fe2:	60c3      	str	r3, [r0, #12]
    2fe4:	f7ff f8db 	bl	219e <d_source_name>
    2fe8:	4604      	mov	r4, r0
    2fea:	2800      	cmp	r0, #0
    2fec:	d048      	beq.n	3080 <__ARM_grp_.debug_frame$5+0x30>
    2fee:	4628      	mov	r0, r5
    2ff0:	f7ff f8c6 	bl	2180 <d_discriminator>
    2ff4:	e03f      	b.n	3076 <__ARM_grp_.debug_frame$5+0x26>
    2ff6:	2a55      	cmp	r2, #85	; 0x55
    2ff8:	d141      	bne.n	307e <__ARM_grp_.debug_frame$5+0x2e>
    2ffa:	7859      	ldrb	r1, [r3, #1]
    2ffc:	1c5a      	adds	r2, r3, #1
    2ffe:	296c      	cmp	r1, #108	; 0x6c
    3000:	d002      	beq.n	3008 <__ARM_grp_.debug_frame$14+0x40>
    3002:	2974      	cmp	r1, #116	; 0x74
    3004:	d13b      	bne.n	307e <__ARM_grp_.debug_frame$5+0x2e>
    3006:	e020      	b.n	304a <__ARM_grp_.debug_frame$17+0x3e>
    3008:	60c2      	str	r2, [r0, #12]
    300a:	785b      	ldrb	r3, [r3, #1]
    300c:	2b6c      	cmp	r3, #108	; 0x6c
    300e:	d136      	bne.n	307e <__ARM_grp_.debug_frame$5+0x2e>
    3010:	3201      	adds	r2, #1
    3012:	60c2      	str	r2, [r0, #12]
    3014:	f7ff fec2 	bl	2d9c <d_parmlist>
    3018:	4606      	mov	r6, r0
    301a:	b1a0      	cbz	r0, 3046 <__ARM_grp_.debug_frame$17+0x3a>
    301c:	68eb      	ldr	r3, [r5, #12]
    301e:	781a      	ldrb	r2, [r3, #0]
    3020:	2a45      	cmp	r2, #69	; 0x45
    3022:	d12c      	bne.n	307e <__ARM_grp_.debug_frame$5+0x2e>
    3024:	3301      	adds	r3, #1
    3026:	4628      	mov	r0, r5
    3028:	60eb      	str	r3, [r5, #12]
    302a:	f7ff f873 	bl	2114 <d_compact_number>
    302e:	1e07      	subs	r7, r0, #0
    3030:	db25      	blt.n	307e <__ARM_grp_.debug_frame$5+0x2e>
    3032:	4628      	mov	r0, r5
    3034:	f7fe fe50 	bl	1cd8 <d_make_empty>
    3038:	4604      	mov	r4, r0
    303a:	b1c0      	cbz	r0, 306e <__ARM_grp_.debug_frame$5+0x1e>
    303c:	233e      	movs	r3, #62	; 0x3e
    303e:	6046      	str	r6, [r0, #4]
    3040:	7003      	strb	r3, [r0, #0]
    3042:	6087      	str	r7, [r0, #8]
    3044:	e013      	b.n	306e <__ARM_grp_.debug_frame$5+0x1e>
    3046:	4604      	mov	r4, r0
    3048:	e01a      	b.n	3080 <__ARM_grp_.debug_frame$5+0x30>
    304a:	60c2      	str	r2, [r0, #12]
    304c:	785b      	ldrb	r3, [r3, #1]
    304e:	2b74      	cmp	r3, #116	; 0x74
    3050:	d115      	bne.n	307e <__ARM_grp_.debug_frame$5+0x2e>
    3052:	3201      	adds	r2, #1
    3054:	60c2      	str	r2, [r0, #12]
    3056:	f7ff f85d 	bl	2114 <d_compact_number>
    305a:	1e06      	subs	r6, r0, #0
    305c:	db0f      	blt.n	307e <__ARM_grp_.debug_frame$5+0x2e>
    305e:	4628      	mov	r0, r5
    3060:	f7fe fe3a 	bl	1cd8 <d_make_empty>
    3064:	4604      	mov	r4, r0
    3066:	b110      	cbz	r0, 306e <__ARM_grp_.debug_frame$5+0x1e>
    3068:	2340      	movs	r3, #64	; 0x40
    306a:	6046      	str	r6, [r0, #4]
    306c:	7003      	strb	r3, [r0, #0]
    306e:	4628      	mov	r0, r5
    3070:	4621      	mov	r1, r4
    3072:	f7fe feda 	bl	1e2a <d_add_substitution>
    3076:	2800      	cmp	r0, #0
    3078:	bf08      	it	eq
    307a:	2400      	moveq	r4, #0
    307c:	e000      	b.n	3080 <__ARM_grp_.debug_frame$5+0x30>
    307e:	2400      	movs	r4, #0
    3080:	4620      	mov	r0, r4
    3082:	e8bd 81f0 	ldmia.w	sp!, {r4, r5, r6, r7, r8, pc}

00003086 <d_expression>:
    3086:	68c3      	ldr	r3, [r0, #12]
    3088:	e92d 41f0 	stmdb	sp!, {r4, r5, r6, r7, r8, lr}
    308c:	4604      	mov	r4, r0
    308e:	781a      	ldrb	r2, [r3, #0]
    3090:	2a4c      	cmp	r2, #76	; 0x4c
    3092:	d103      	bne.n	309c <d_expression+0x16>
    3094:	e8bd 41f0 	ldmia.w	sp!, {r4, r5, r6, r7, r8, lr}
    3098:	f7ff ba6f 	b.w	257a <d_expr_primary>
    309c:	2a54      	cmp	r2, #84	; 0x54
    309e:	d103      	bne.n	30a8 <__ARM_grp_.debug_frame$8+0x8>
    30a0:	e8bd 41f0 	ldmia.w	sp!, {r4, r5, r6, r7, r8, lr}
    30a4:	f7ff b851 	b.w	214a <d_template_param>
    30a8:	2a73      	cmp	r2, #115	; 0x73
    30aa:	d12c      	bne.n	3106 <__ARM_grp_.debug_frame$11+0x16>
    30ac:	7859      	ldrb	r1, [r3, #1]
    30ae:	2972      	cmp	r1, #114	; 0x72
    30b0:	d11e      	bne.n	30f0 <__ARM_grp_.debug_frame$11>
    30b2:	3302      	adds	r3, #2
    30b4:	60c3      	str	r3, [r0, #12]
    30b6:	f7ff fc30 	bl	291a <d_type>
    30ba:	4605      	mov	r5, r0
    30bc:	4620      	mov	r0, r4
    30be:	f7ff ff1d 	bl	2efc <d_unqualified_name>
    30c2:	68e3      	ldr	r3, [r4, #12]
    30c4:	781b      	ldrb	r3, [r3, #0]
    30c6:	2b49      	cmp	r3, #73	; 0x49
    30c8:	4606      	mov	r6, r0
    30ca:	d004      	beq.n	30d6 <__ARM_grp_.debug_frame$8+0x36>
    30cc:	4620      	mov	r0, r4
    30ce:	2101      	movs	r1, #1
    30d0:	462a      	mov	r2, r5
    30d2:	4633      	mov	r3, r6
    30d4:	e0dd      	b.n	3292 <__ARM_grp_.debug_frame$14+0x32>
    30d6:	4620      	mov	r0, r4
    30d8:	f7ff fa98 	bl	260c <d_template_args>
    30dc:	2104      	movs	r1, #4
    30de:	4632      	mov	r2, r6
    30e0:	4603      	mov	r3, r0
    30e2:	4620      	mov	r0, r4
    30e4:	f7fe fe06 	bl	1cf4 <d_make_comp>
    30e8:	2101      	movs	r1, #1
    30ea:	4603      	mov	r3, r0
    30ec:	4620      	mov	r0, r4
    30ee:	e0cf      	b.n	3290 <__ARM_grp_.debug_frame$14+0x30>
    30f0:	2970      	cmp	r1, #112	; 0x70
    30f2:	d11f      	bne.n	3134 <__ARM_grp_.debug_frame$11+0x44>
    30f4:	3302      	adds	r3, #2
    30f6:	60c3      	str	r3, [r0, #12]
    30f8:	f7ff ffc5 	bl	3086 <d_expression>
    30fc:	2141      	movs	r1, #65	; 0x41
    30fe:	2300      	movs	r3, #0
    3100:	4602      	mov	r2, r0
    3102:	4620      	mov	r0, r4
    3104:	e0c5      	b.n	3292 <__ARM_grp_.debug_frame$14+0x32>
    3106:	2a66      	cmp	r2, #102	; 0x66
    3108:	d114      	bne.n	3134 <__ARM_grp_.debug_frame$11+0x44>
    310a:	7859      	ldrb	r1, [r3, #1]
    310c:	2970      	cmp	r1, #112	; 0x70
    310e:	d111      	bne.n	3134 <__ARM_grp_.debug_frame$11+0x44>
    3110:	3302      	adds	r3, #2
    3112:	60c3      	str	r3, [r0, #12]
    3114:	f7fe fffe 	bl	2114 <d_compact_number>
    3118:	1e06      	subs	r6, r0, #0
    311a:	f2c0 80be 	blt.w	329a <__ARM_grp_.debug_frame$14+0x3a>
    311e:	4620      	mov	r0, r4
    3120:	f7fe fdda 	bl	1cd8 <d_make_empty>
    3124:	4605      	mov	r5, r0
    3126:	2800      	cmp	r0, #0
    3128:	f000 80b8 	beq.w	329c <__ARM_grp_.debug_frame$14+0x3c>
    312c:	2306      	movs	r3, #6
    312e:	6046      	str	r6, [r0, #4]
    3130:	7003      	strb	r3, [r0, #0]
    3132:	e0b3      	b.n	329c <__ARM_grp_.debug_frame$14+0x3c>
    3134:	f1a2 0130 	sub.w	r1, r2, #48	; 0x30
    3138:	b2c9      	uxtb	r1, r1
    313a:	2909      	cmp	r1, #9
    313c:	d906      	bls.n	314c <__ARM_grp_.debug_frame$5+0xc>
    313e:	2a6f      	cmp	r2, #111	; 0x6f
    3140:	d117      	bne.n	3172 <__ARM_grp_.debug_frame$5+0x32>
    3142:	785a      	ldrb	r2, [r3, #1]
    3144:	2a6e      	cmp	r2, #110	; 0x6e
    3146:	d114      	bne.n	3172 <__ARM_grp_.debug_frame$5+0x32>
    3148:	3302      	adds	r3, #2
    314a:	60e3      	str	r3, [r4, #12]
    314c:	4620      	mov	r0, r4
    314e:	f7ff fed5 	bl	2efc <d_unqualified_name>
    3152:	4605      	mov	r5, r0
    3154:	2800      	cmp	r0, #0
    3156:	f000 80a1 	beq.w	329c <__ARM_grp_.debug_frame$14+0x3c>
    315a:	68e3      	ldr	r3, [r4, #12]
    315c:	781b      	ldrb	r3, [r3, #0]
    315e:	2b49      	cmp	r3, #73	; 0x49
    3160:	f040 809c 	bne.w	329c <__ARM_grp_.debug_frame$14+0x3c>
    3164:	4620      	mov	r0, r4
    3166:	f7ff fa51 	bl	260c <d_template_args>
    316a:	2104      	movs	r1, #4
    316c:	4603      	mov	r3, r0
    316e:	4620      	mov	r0, r4
    3170:	e08e      	b.n	3290 <__ARM_grp_.debug_frame$14+0x30>
    3172:	4620      	mov	r0, r4
    3174:	f7ff fe60 	bl	2e38 <d_operator_name>
    3178:	4605      	mov	r5, r0
    317a:	2800      	cmp	r0, #0
    317c:	f000 808e 	beq.w	329c <__ARM_grp_.debug_frame$14+0x3c>
    3180:	7806      	ldrb	r6, [r0, #0]
    3182:	2e2c      	cmp	r6, #44	; 0x2c
    3184:	d10e      	bne.n	31a4 <__ARM_grp_.debug_frame$5+0x10>
    3186:	6843      	ldr	r3, [r0, #4]
    3188:	6b21      	ldr	r1, [r4, #48]	; 0x30
    318a:	689a      	ldr	r2, [r3, #8]
    318c:	6818      	ldr	r0, [r3, #0]
    318e:	188a      	adds	r2, r1, r2
    3190:	4944      	ldr	r1, [pc, #272]	; (32a4 <__ARM_grp_.debug_frame$17>)
    3192:	3a02      	subs	r2, #2
    3194:	6322      	str	r2, [r4, #48]	; 0x30
    3196:	f003 fe2e 	bl	6df6 <strcmp>
    319a:	b948      	cbnz	r0, 31b0 <__ARM_grp_.debug_frame$5+0x1c>
    319c:	4620      	mov	r0, r4
    319e:	f7ff fbbc 	bl	291a <d_type>
    31a2:	e01e      	b.n	31e2 <__ARM_grp_.debug_frame$8+0xa>
    31a4:	2e2d      	cmp	r6, #45	; 0x2d
    31a6:	d006      	beq.n	31b6 <__ARM_grp_.debug_frame$5+0x22>
    31a8:	2e2e      	cmp	r6, #46	; 0x2e
    31aa:	d00d      	beq.n	31c8 <__ARM_grp_.debug_frame$5+0x34>
    31ac:	2e2c      	cmp	r6, #44	; 0x2c
    31ae:	d174      	bne.n	329a <__ARM_grp_.debug_frame$14+0x3a>
    31b0:	686b      	ldr	r3, [r5, #4]
    31b2:	68db      	ldr	r3, [r3, #12]
    31b4:	e000      	b.n	31b8 <__ARM_grp_.debug_frame$5+0x24>
    31b6:	6843      	ldr	r3, [r0, #4]
    31b8:	2b02      	cmp	r3, #2
    31ba:	d016      	beq.n	31ea <__ARM_grp_.debug_frame$8+0x12>
    31bc:	2b03      	cmp	r3, #3
    31be:	d04d      	beq.n	325c <__ARM_grp_.debug_frame$11+0x40>
    31c0:	2b01      	cmp	r3, #1
    31c2:	d16a      	bne.n	329a <__ARM_grp_.debug_frame$14+0x3a>
    31c4:	2e2e      	cmp	r6, #46	; 0x2e
    31c6:	d109      	bne.n	31dc <__ARM_grp_.debug_frame$8+0x4>
    31c8:	68e3      	ldr	r3, [r4, #12]
    31ca:	781a      	ldrb	r2, [r3, #0]
    31cc:	2a5f      	cmp	r2, #95	; 0x5f
    31ce:	d105      	bne.n	31dc <__ARM_grp_.debug_frame$8+0x4>
    31d0:	3301      	adds	r3, #1
    31d2:	4620      	mov	r0, r4
    31d4:	60e3      	str	r3, [r4, #12]
    31d6:	f000 f86d 	bl	32b4 <d_exprlist>
    31da:	e002      	b.n	31e2 <__ARM_grp_.debug_frame$8+0xa>
    31dc:	4620      	mov	r0, r4
    31de:	f7ff ff52 	bl	3086 <d_expression>
    31e2:	4603      	mov	r3, r0
    31e4:	212f      	movs	r1, #47	; 0x2f
    31e6:	4620      	mov	r0, r4
    31e8:	e052      	b.n	3290 <__ARM_grp_.debug_frame$14+0x30>
    31ea:	686b      	ldr	r3, [r5, #4]
    31ec:	4620      	mov	r0, r4
    31ee:	681f      	ldr	r7, [r3, #0]
    31f0:	f7ff ff49 	bl	3086 <d_expression>
    31f4:	492c      	ldr	r1, [pc, #176]	; (32a8 <__ARM_grp_.debug_frame$17+0x4>)
    31f6:	4606      	mov	r6, r0
    31f8:	4638      	mov	r0, r7
    31fa:	f003 fdfc 	bl	6df6 <strcmp>
    31fe:	b918      	cbnz	r0, 3208 <__ARM_grp_.debug_frame$8+0x30>
    3200:	4620      	mov	r0, r4
    3202:	f000 f857 	bl	32b4 <d_exprlist>
    3206:	e01e      	b.n	3246 <__ARM_grp_.debug_frame$11+0x2a>
    3208:	4638      	mov	r0, r7
    320a:	4928      	ldr	r1, [pc, #160]	; (32ac <__ARM_grp_.debug_frame$17+0x8>)
    320c:	f003 fdf3 	bl	6df6 <strcmp>
    3210:	b120      	cbz	r0, 321c <__ARM_grp_.debug_frame$11>
    3212:	4638      	mov	r0, r7
    3214:	4926      	ldr	r1, [pc, #152]	; (32b0 <__ARM_grp_.debug_frame$17+0xc>)
    3216:	f003 fdee 	bl	6df6 <strcmp>
    321a:	b988      	cbnz	r0, 3240 <__ARM_grp_.debug_frame$11+0x24>
    321c:	4620      	mov	r0, r4
    321e:	f7ff fe6d 	bl	2efc <d_unqualified_name>
    3222:	68e3      	ldr	r3, [r4, #12]
    3224:	781b      	ldrb	r3, [r3, #0]
    3226:	2b49      	cmp	r3, #73	; 0x49
    3228:	4607      	mov	r7, r0
    322a:	d10d      	bne.n	3248 <__ARM_grp_.debug_frame$11+0x2c>
    322c:	4620      	mov	r0, r4
    322e:	f7ff f9ed 	bl	260c <d_template_args>
    3232:	2104      	movs	r1, #4
    3234:	463a      	mov	r2, r7
    3236:	4603      	mov	r3, r0
    3238:	4620      	mov	r0, r4
    323a:	f7fe fd5b 	bl	1cf4 <d_make_comp>
    323e:	e002      	b.n	3246 <__ARM_grp_.debug_frame$11+0x2a>
    3240:	4620      	mov	r0, r4
    3242:	f7ff ff20 	bl	3086 <d_expression>
    3246:	4607      	mov	r7, r0
    3248:	2131      	movs	r1, #49	; 0x31
    324a:	463b      	mov	r3, r7
    324c:	4620      	mov	r0, r4
    324e:	4632      	mov	r2, r6
    3250:	f7fe fd50 	bl	1cf4 <d_make_comp>
    3254:	2130      	movs	r1, #48	; 0x30
    3256:	4603      	mov	r3, r0
    3258:	4620      	mov	r0, r4
    325a:	e019      	b.n	3290 <__ARM_grp_.debug_frame$14+0x30>
    325c:	4620      	mov	r0, r4
    325e:	f7ff ff12 	bl	3086 <d_expression>
    3262:	4606      	mov	r6, r0
    3264:	4620      	mov	r0, r4
    3266:	f7ff ff0e 	bl	3086 <d_expression>
    326a:	4607      	mov	r7, r0
    326c:	4620      	mov	r0, r4
    326e:	f7ff ff0a 	bl	3086 <d_expression>
    3272:	2134      	movs	r1, #52	; 0x34
    3274:	463a      	mov	r2, r7
    3276:	4603      	mov	r3, r0
    3278:	4620      	mov	r0, r4
    327a:	f7fe fd3b 	bl	1cf4 <d_make_comp>
    327e:	2133      	movs	r1, #51	; 0x33
    3280:	4632      	mov	r2, r6
    3282:	4603      	mov	r3, r0
    3284:	4620      	mov	r0, r4
    3286:	f7fe fd35 	bl	1cf4 <d_make_comp>
    328a:	2132      	movs	r1, #50	; 0x32
    328c:	4603      	mov	r3, r0
    328e:	4620      	mov	r0, r4
    3290:	462a      	mov	r2, r5
    3292:	e8bd 41f0 	ldmia.w	sp!, {r4, r5, r6, r7, r8, lr}
    3296:	f7fe bd2d 	b.w	1cf4 <d_make_comp>
    329a:	2500      	movs	r5, #0
    329c:	4628      	mov	r0, r5
    329e:	e8bd 81f0 	ldmia.w	sp!, {r4, r5, r6, r7, r8, pc}
    32a2:	bf00      	nop
    32a4:	000108d5 	.word	0x000108d5
    32a8:	00010716 	.word	0x00010716
    32ac:	00010719 	.word	0x00010719
    32b0:	0001071c 	.word	0x0001071c

000032b4 <d_exprlist>:
    32b4:	68c3      	ldr	r3, [r0, #12]
    32b6:	b537      	push	{r0, r1, r2, r4, r5, lr}
    32b8:	2200      	movs	r2, #0
    32ba:	9201      	str	r2, [sp, #4]
    32bc:	4604      	mov	r4, r0
    32be:	7819      	ldrb	r1, [r3, #0]
    32c0:	2945      	cmp	r1, #69	; 0x45
    32c2:	d001      	beq.n	32c8 <d_exprlist+0x14>
    32c4:	ad01      	add	r5, sp, #4
    32c6:	e008      	b.n	32da <d_exprlist+0x26>
    32c8:	3301      	adds	r3, #1
    32ca:	212a      	movs	r1, #42	; 0x2a
    32cc:	60c3      	str	r3, [r0, #12]
    32ce:	4613      	mov	r3, r2
    32d0:	b003      	add	sp, #12
    32d2:	e8bd 4030 	ldmia.w	sp!, {r4, r5, lr}
    32d6:	f7fe bd0d 	b.w	1cf4 <d_make_comp>
    32da:	4620      	mov	r0, r4
    32dc:	f7ff fed3 	bl	3086 <d_expression>
    32e0:	4602      	mov	r2, r0
    32e2:	b188      	cbz	r0, 3308 <__ARM_grp_.debug_frame$20+0x20>
    32e4:	4620      	mov	r0, r4
    32e6:	212a      	movs	r1, #42	; 0x2a
    32e8:	2300      	movs	r3, #0
    32ea:	f7fe fd03 	bl	1cf4 <d_make_comp>
    32ee:	6028      	str	r0, [r5, #0]
    32f0:	b150      	cbz	r0, 3308 <__ARM_grp_.debug_frame$20+0x20>
    32f2:	68e3      	ldr	r3, [r4, #12]
    32f4:	781a      	ldrb	r2, [r3, #0]
    32f6:	2a45      	cmp	r2, #69	; 0x45
    32f8:	d002      	beq.n	3300 <__ARM_grp_.debug_frame$20+0x18>
    32fa:	f100 0508 	add.w	r5, r0, #8
    32fe:	e7ec      	b.n	32da <d_exprlist+0x26>
    3300:	3301      	adds	r3, #1
    3302:	9801      	ldr	r0, [sp, #4]
    3304:	60e3      	str	r3, [r4, #12]
    3306:	e7ff      	b.n	3308 <__ARM_grp_.debug_frame$20+0x20>
    3308:	b003      	add	sp, #12
    330a:	bd30      	pop	{r4, r5, pc}

0000330c <d_print_error.clone.1>:
    330c:	2301      	movs	r3, #1
    330e:	6003      	str	r3, [r0, #0]
    3310:	4770      	bx	lr

00003312 <d_print_saw_error.clone.2>:
    3312:	3800      	subs	r0, #0
    3314:	bf18      	it	ne
    3316:	2001      	movne	r0, #1
    3318:	4770      	bx	lr

0000331a <d_lookup_template_argument.clone.4>:
    331a:	b510      	push	{r4, lr}
    331c:	f8d0 4114 	ldr.w	r4, [r0, #276]	; 0x114
    3320:	b92c      	cbnz	r4, 332e <__ARM_grp_.debug_frame$23+0x2>
    3322:	f500 708e 	add.w	r0, r0, #284	; 0x11c
    3326:	f7ff fff1 	bl	330c <d_print_error.clone.1>
    332a:	4620      	mov	r0, r4
    332c:	bd10      	pop	{r4, pc}
    332e:	6863      	ldr	r3, [r4, #4]
    3330:	6809      	ldr	r1, [r1, #0]
    3332:	6898      	ldr	r0, [r3, #8]
    3334:	e8bd 4010 	ldmia.w	sp!, {r4, lr}
    3338:	f7fe be3a 	b.w	1fb0 <d_index_template_argument>

0000333c <d_find_pack>:
    333c:	b538      	push	{r3, r4, r5, lr}
    333e:	4605      	mov	r5, r0
    3340:	460c      	mov	r4, r1
    3342:	2c00      	cmp	r4, #0
    3344:	d02d      	beq.n	33a2 <d_find_pack+0x66>
    3346:	7823      	ldrb	r3, [r4, #0]
    3348:	2b16      	cmp	r3, #22
    334a:	d02c      	beq.n	33a6 <d_find_pack+0x6a>
    334c:	d80c      	bhi.n	3368 <d_find_pack+0x2c>
    334e:	2b06      	cmp	r3, #6
    3350:	d029      	beq.n	33a6 <d_find_pack+0x6a>
    3352:	d804      	bhi.n	335e <d_find_pack+0x22>
    3354:	2b00      	cmp	r3, #0
    3356:	d026      	beq.n	33a6 <d_find_pack+0x6a>
    3358:	2b05      	cmp	r3, #5
    335a:	d11b      	bne.n	3394 <d_find_pack+0x58>
    335c:	e010      	b.n	3380 <d_find_pack+0x44>
    335e:	2b07      	cmp	r3, #7
    3360:	d01d      	beq.n	339e <d_find_pack+0x62>
    3362:	2b08      	cmp	r3, #8
    3364:	d116      	bne.n	3394 <d_find_pack+0x58>
    3366:	e01a      	b.n	339e <d_find_pack+0x62>
    3368:	2b2d      	cmp	r3, #45	; 0x2d
    336a:	d018      	beq.n	339e <d_find_pack+0x62>
    336c:	d803      	bhi.n	3376 <d_find_pack+0x3a>
    336e:	2b23      	cmp	r3, #35	; 0x23
    3370:	d019      	beq.n	33a6 <d_find_pack+0x6a>
    3372:	2b2c      	cmp	r3, #44	; 0x2c
    3374:	e002      	b.n	337c <d_find_pack+0x40>
    3376:	2b39      	cmp	r3, #57	; 0x39
    3378:	d015      	beq.n	33a6 <d_find_pack+0x6a>
    337a:	2b41      	cmp	r3, #65	; 0x41
    337c:	d10a      	bne.n	3394 <d_find_pack+0x58>
    337e:	e012      	b.n	33a6 <d_find_pack+0x6a>
    3380:	4628      	mov	r0, r5
    3382:	1d21      	adds	r1, r4, #4
    3384:	f7ff ffc9 	bl	331a <d_lookup_template_argument.clone.4>
    3388:	b170      	cbz	r0, 33a8 <d_find_pack+0x6c>
    338a:	7803      	ldrb	r3, [r0, #0]
    338c:	2b2b      	cmp	r3, #43	; 0x2b
    338e:	bf18      	it	ne
    3390:	2000      	movne	r0, #0
    3392:	bd38      	pop	{r3, r4, r5, pc}
    3394:	4628      	mov	r0, r5
    3396:	6861      	ldr	r1, [r4, #4]
    3398:	f7ff ffd0 	bl	333c <d_find_pack>
    339c:	b920      	cbnz	r0, 33a8 <d_find_pack+0x6c>
    339e:	68a4      	ldr	r4, [r4, #8]
    33a0:	e7cf      	b.n	3342 <d_find_pack+0x6>
    33a2:	4620      	mov	r0, r4
    33a4:	bd38      	pop	{r3, r4, r5, pc}
    33a6:	2000      	movs	r0, #0
    33a8:	bd38      	pop	{r3, r4, r5, pc}

000033aa <d_print_cast.clone.6>:
    33aa:	b573      	push	{r0, r1, r4, r5, r6, lr}
    33ac:	460d      	mov	r5, r1
    33ae:	6809      	ldr	r1, [r1, #0]
    33b0:	4604      	mov	r4, r0
    33b2:	780b      	ldrb	r3, [r1, #0]
    33b4:	2b04      	cmp	r3, #4
    33b6:	d002      	beq.n	33be <d_print_cast.clone.6+0x14>
    33b8:	f000 f834 	bl	3424 <d_print_comp>
    33bc:	e031      	b.n	3422 <d_print_cast.clone.6+0x78>
    33be:	f8d0 2114 	ldr.w	r2, [r0, #276]	; 0x114
    33c2:	2300      	movs	r3, #0
    33c4:	f8d0 6118 	ldr.w	r6, [r0, #280]	; 0x118
    33c8:	f8c0 3118 	str.w	r3, [r0, #280]	; 0x118
    33cc:	ab02      	add	r3, sp, #8
    33ce:	9101      	str	r1, [sp, #4]
    33d0:	f843 2d08 	str.w	r2, [r3, #-8]!
    33d4:	f8c0 3114 	str.w	r3, [r0, #276]	; 0x114
    33d8:	6849      	ldr	r1, [r1, #4]
    33da:	f000 f823 	bl	3424 <d_print_comp>
    33de:	9b00      	ldr	r3, [sp, #0]
    33e0:	f8c4 3114 	str.w	r3, [r4, #276]	; 0x114
    33e4:	f894 3108 	ldrb.w	r3, [r4, #264]	; 0x108
    33e8:	2b3c      	cmp	r3, #60	; 0x3c
    33ea:	d103      	bne.n	33f4 <d_print_cast.clone.6+0x4a>
    33ec:	4620      	mov	r0, r4
    33ee:	2120      	movs	r1, #32
    33f0:	f7fe fdbd 	bl	1f6e <d_append_char>
    33f4:	213c      	movs	r1, #60	; 0x3c
    33f6:	4620      	mov	r0, r4
    33f8:	f7fe fdb9 	bl	1f6e <d_append_char>
    33fc:	682b      	ldr	r3, [r5, #0]
    33fe:	4620      	mov	r0, r4
    3400:	6899      	ldr	r1, [r3, #8]
    3402:	f000 f80f 	bl	3424 <d_print_comp>
    3406:	f894 3108 	ldrb.w	r3, [r4, #264]	; 0x108
    340a:	2b3e      	cmp	r3, #62	; 0x3e
    340c:	d103      	bne.n	3416 <d_print_cast.clone.6+0x6c>
    340e:	4620      	mov	r0, r4
    3410:	2120      	movs	r1, #32
    3412:	f7fe fdac 	bl	1f6e <d_append_char>
    3416:	4620      	mov	r0, r4
    3418:	213e      	movs	r1, #62	; 0x3e
    341a:	f7fe fda8 	bl	1f6e <d_append_char>
    341e:	f8c4 6118 	str.w	r6, [r4, #280]	; 0x118
    3422:	bd7c      	pop	{r2, r3, r4, r5, r6, pc}

00003424 <d_print_comp>:
    3424:	e92d 47f0 	stmdb	sp!, {r4, r5, r6, r7, r8, r9, sl, lr}
    3428:	4604      	mov	r4, r0
    342a:	b092      	sub	sp, #72	; 0x48
    342c:	460d      	mov	r5, r1
    342e:	b919      	cbnz	r1, 3438 <d_print_comp+0x14>
    3430:	f500 708e 	add.w	r0, r0, #284	; 0x11c
    3434:	f000 bcab 	b.w	3d8e <d_print_comp+0x96a>
    3438:	f8d0 011c 	ldr.w	r0, [r0, #284]	; 0x11c
    343c:	f7ff ff69 	bl	3312 <d_print_saw_error.clone.2>
    3440:	2800      	cmp	r0, #0
    3442:	f040 84a6 	bne.w	3d92 <d_print_comp+0x96e>
    3446:	782b      	ldrb	r3, [r5, #0]
    3448:	2b41      	cmp	r3, #65	; 0x41
    344a:	f200 849e 	bhi.w	3d8a <d_print_comp+0x966>
    344e:	e8df f013 	tbh	[pc, r3, lsl #1]
    3452:	0042      	.short	0x0042
    3454:	008b008b 	.word	0x008b008b
    3458:	011d0099 	.word	0x011d0099
    345c:	0471015d 	.word	0x0471015d
    3460:	017b0433 	.word	0x017b0433
    3464:	01830180 	.word	0x01830180
    3468:	01910186 	.word	0x01910186
    346c:	01970194 	.word	0x01970194
    3470:	019d019a 	.word	0x019d019a
    3474:	01a301a0 	.word	0x01a301a0
