Archive member included because of file (symbol)

../../external/mbed/LPC1768/mbed.ar(DigitalOut.LPC1768.o)
                              ./main.o (_ZTVN4mbed10DigitalOutE)
../../external/mbed/LPC1768/mbed.ar(Base.LPC1768.o)
                              ../../external/mbed/LPC1768/mbed.ar(DigitalOut.LPC1768.o) (_ZTIN4mbed4BaseE)
../../external/mbed/LPC1768/mbed.ar(stdio.LPC1768.o)
                              ../../external/mbed/LPC1768/mbed.ar(Base.LPC1768.o) (_ZTIN4mbed8FileLikeE)
../../external/mbed/LPC1768/mbed.ar(SPI.LPC1768.o)
                              ./main.o (_ZTVN4mbed3SPIE)
../../external/mbed/LPC1768/capi.ar(startup_LPC17xx.LPC1768.o)
                              (Reset_Handler)
../../external/mbed/LPC1768/capi.ar(system_LPC17xx.LPC1768.o)
                              ../../external/mbed/LPC1768/capi.ar(startup_LPC17xx.LPC1768.o) (SystemInit)
../../external/mbed/LPC1768/capi.ar(core_cm3.LPC1768.o)
                              ../../src/syscalls.o (__get_MSP)
../../external/mbed/LPC1768/capi.ar(serial_api.LPC1768.o)
                              ../../external/mbed/LPC1768/mbed.ar(stdio.LPC1768.o) (serial_baud)
../../external/mbed/LPC1768/capi.ar(exit.LPC1768.o)
                              ../../src/gcc4mbed.o (exit)
../../external/mbed/LPC1768/capi.ar(spi_api.LPC1768.o)
                              ../../external/mbed/LPC1768/mbed.ar(SPI.LPC1768.o) (spi_format)
../../external/mbed/LPC1768/capi.ar(pinmap.LPC1768.o)
                              ../../external/mbed/LPC1768/capi.ar(serial_api.LPC1768.o) (pinmap_merge)
../../external/mbed/LPC1768/capi.ar(gpio_api.LPC1768.o)
                              ../../external/mbed/LPC1768/mbed.ar(DigitalOut.LPC1768.o) (gpio_output)
../../external/mbed/LPC1768/capi.ar(semihost_api.LPC1768.o)
                              ../../external/mbed/LPC1768/capi.ar(exit.LPC1768.o) (semihost_exit)
../../external/mbed/LPC1768/capi.ar(utils_api.LPC1768.o)
                              ../../external/mbed/LPC1768/capi.ar(exit.LPC1768.o) (mbed_die)
../../external/mbed/LPC1768/capi.ar(wait_api.LPC1768.o)
                              ../../external/mbed/LPC1768/capi.ar(utils_api.LPC1768.o) (wait_ms)
../../external/mbed/LPC1768/capi.ar(us_ticker_api.LPC1768.o)
                              ../../external/mbed/LPC1768/capi.ar(wait_api.LPC1768.o) (us_ticker_read)
../../external/mbed/LPC1768/capi.ar(timer_api.LPC1768.o)
                              ../../external/mbed/LPC1768/capi.ar(us_ticker_api.LPC1768.o) (timer_frequency)
../../external/FATFileSystem/LPC1768/FATFileSystem.ar(FATFileSystem.cpp.lpc1768.arm.o)
                              ./SDFileSystem/SDFileSystem.o (_ZTIN4mbed13FATFileSystemE)
../../external/FATFileSystem/LPC1768/FATFileSystem.ar(FATDirHandle.cpp.lpc1768.arm.o)
                              ../../external/FATFileSystem/LPC1768/FATFileSystem.ar(FATFileSystem.cpp.lpc1768.arm.o) (_ZN4mbed12FATDirHandleC1ERK4_DIR)
../../external/FATFileSystem/LPC1768/FATFileSystem.ar(FATFileHandle.cpp.lpc1768.arm.o)
                              ../../external/FATFileSystem/LPC1768/FATFileSystem.ar(FATFileSystem.cpp.lpc1768.arm.o) (_ZN4mbed13FATFileHandleC1E4_FIL)
../../external/FATFileSystem/LPC1768/FATFileSystem.ar(ff.c.lpc1768.arm.o)
                              ../../external/FATFileSystem/LPC1768/FATFileSystem.ar(FATFileHandle.cpp.lpc1768.arm.o) (f_close)
../../external/FATFileSystem/LPC1768/FATFileSystem.ar(diskio.cpp.lpc1768.arm.o)
                              ../../external/FATFileSystem/LPC1768/FATFileSystem.ar(ff.c.lpc1768.arm.o) (disk_initialize)
../../external/gcc/LPC1768/libstdc++.a(atexit_arm.o)
                              ./main.o (__aeabi_atexit)
../../external/gcc/LPC1768/libstdc++.a(class_type_info.o)
                              ../../external/mbed/LPC1768/mbed.ar(Base.LPC1768.o) (_ZTVN10__cxxabiv117__class_type_infoE)
../../external/gcc/LPC1768/libstdc++.a(del_op.o)
                              ./main.o (_ZdlPv)
../../external/gcc/LPC1768/libstdc++.a(del_opv.o)
                              ../../external/mbed/LPC1768/mbed.ar(Base.LPC1768.o) (_ZdaPv)
../../external/gcc/LPC1768/libstdc++.a(dyncast.o)
                              ../../external/mbed/LPC1768/mbed.ar(Base.LPC1768.o) (__dynamic_cast)
../../external/gcc/LPC1768/libstdc++.a(new_op.o)
                              ../../external/mbed/LPC1768/mbed.ar(DigitalOut.LPC1768.o) (_Znwj)
../../external/gcc/LPC1768/libstdc++.a(new_opv.o)
                              ../../external/mbed/LPC1768/mbed.ar(DigitalOut.LPC1768.o) (_Znaj)
../../external/gcc/LPC1768/libstdc++.a(pure.o)
                              ../../external/mbed/LPC1768/mbed.ar(stdio.LPC1768.o) (__cxa_pure_virtual)
../../external/gcc/LPC1768/libstdc++.a(si_class_type_info.o)
                              ./SDFileSystem/SDFileSystem.o (_ZTVN10__cxxabiv120__si_class_type_infoE)
../../external/gcc/LPC1768/libstdc++.a(tinfo.o)
                              ../../external/gcc/LPC1768/libstdc++.a(class_type_info.o) (_ZNSt9type_infoD2Ev)
../../external/gcc/LPC1768/libstdc++.a(vmi_class_type_info.o)
                              ../../external/mbed/LPC1768/mbed.ar(stdio.LPC1768.o) (_ZTVN10__cxxabiv121__vmi_class_type_infoE)
../../external/gcc/LPC1768/libstdc++.a(eh_terminate.o)
                              ../../external/gcc/LPC1768/libstdc++.a(pure.o) (_ZSt9terminatev)
../../external/gcc/LPC1768/libstdc++.a(eh_unex_handler.o)
                              ../../external/gcc/LPC1768/libstdc++.a(eh_terminate.o) (_ZN10__cxxabiv120__unexpected_handlerE)
../../external/gcc/LPC1768/libstdc++.a(new_handler.o)
                              ../../external/gcc/LPC1768/libstdc++.a(new_op.o) (__new_handler)
../../external/gcc/LPC1768/libstdc++.a(eh_exception.o)
                              ../../external/gcc/LPC1768/libstdc++.a(new_handler.o) (_ZNSt9exceptionD2Ev)
../../external/gcc/LPC1768/libstdc++.a(eh_term_handler.o)
                              ../../external/gcc/LPC1768/libstdc++.a(eh_terminate.o) (_ZN10__cxxabiv119__terminate_handlerE)
../../external/gcc/LPC1768/libstdc++.a(vterminate.o)
                              ../../external/gcc/LPC1768/libstdc++.a(eh_term_handler.o) (_ZN9__gnu_cxx27__verbose_terminate_handlerEv)
../../external/gcc/LPC1768/libstdc++.a(cp-demangle.o)
                              ../../external/gcc/LPC1768/libstdc++.a(vterminate.o) (__cxa_demangle)
../../external/gcc/LPC1768/libstdc++.a(eh_type.o)
                              ../../external/gcc/LPC1768/libstdc++.a(vterminate.o) (__cxa_current_exception_type)
../../external/gcc/LPC1768/libstdc++.a(eh_globals.o)
                              ../../external/gcc/LPC1768/libstdc++.a(eh_type.o) (__cxa_get_globals)
../../external/gcc/LPC1768/libm.a(lib_a-s_scalbn.o)
                              ../../external/mbed/LPC1768/capi.ar(serial_api.LPC1768.o) (scalbn)
../../external/gcc/LPC1768/libm.a(lib_a-s_copysign.o)
                              ../../external/gcc/LPC1768/libm.a(lib_a-s_scalbn.o) (copysign)
/media/6aafac43-5450-453e-a142-f588400933c0/Sandbox/arm/bin/../lib/gcc/arm-none-eabi/4.5.2/thumb2/libgcc.a(_arm_addsubdf3.o)
                              ../../external/gcc/LPC1768/libm.a(lib_a-s_scalbn.o) (__aeabi_dadd)
/media/6aafac43-5450-453e-a142-f588400933c0/Sandbox/arm/bin/../lib/gcc/arm-none-eabi/4.5.2/thumb2/libgcc.a(_arm_muldivdf3.o)
                              ../../external/mbed/LPC1768/capi.ar(serial_api.LPC1768.o) (__aeabi_dmul)
/media/6aafac43-5450-453e-a142-f588400933c0/Sandbox/arm/bin/../lib/gcc/arm-none-eabi/4.5.2/thumb2/libgcc.a(_arm_fixdfsi.o)
                              ../../external/mbed/LPC1768/capi.ar(wait_api.LPC1768.o) (__aeabi_d2iz)
/media/6aafac43-5450-453e-a142-f588400933c0/Sandbox/arm/bin/../lib/gcc/arm-none-eabi/4.5.2/thumb2/libgcc.a(_arm_truncdfsf2.o)
                              ../../external/mbed/LPC1768/capi.ar(serial_api.LPC1768.o) (__aeabi_d2f)
/media/6aafac43-5450-453e-a142-f588400933c0/Sandbox/arm/bin/../lib/gcc/arm-none-eabi/4.5.2/thumb2/libgcc.a(_arm_addsubsf3.o)
                              ../../external/mbed/LPC1768/capi.ar(serial_api.LPC1768.o) (__aeabi_fsub)
/media/6aafac43-5450-453e-a142-f588400933c0/Sandbox/arm/bin/../lib/gcc/arm-none-eabi/4.5.2/thumb2/libgcc.a(_arm_muldivsf3.o)
                              ../../external/mbed/LPC1768/capi.ar(serial_api.LPC1768.o) (__aeabi_fdiv)
/media/6aafac43-5450-453e-a142-f588400933c0/Sandbox/arm/bin/../lib/gcc/arm-none-eabi/4.5.2/thumb2/libgcc.a(_arm_cmpsf2.o)
                              ../../external/mbed/LPC1768/capi.ar(serial_api.LPC1768.o) (__aeabi_cfcmple)
../../external/gcc/LPC1768/libc.a(lib_a-abort.o)
                              ../../src/syscalls.o (abort)
../../external/gcc/LPC1768/libc.a(lib_a-aeabi_memclr.o)
                              ../../external/FATFileSystem/LPC1768/FATFileSystem.ar(ff.c.lpc1768.arm.o) (__aeabi_memclr)
../../external/gcc/LPC1768/libc.a(lib_a-aeabi_memcpy.o)
                              ../../external/mbed/LPC1768/mbed.ar(DigitalOut.LPC1768.o) (__aeabi_memcpy)
../../external/gcc/LPC1768/libc.a(lib_a-aeabi_memset.o)
                              ../../external/FATFileSystem/LPC1768/FATFileSystem.ar(ff.c.lpc1768.arm.o) (__aeabi_memset)
../../external/gcc/LPC1768/libc.a(lib_a-clibabi_assert.o)
                              ../../external/mbed/LPC1768/capi.ar(serial_api.LPC1768.o) (__aeabi_assert)
../../external/gcc/LPC1768/libc.a(lib_a-clibabi_ctype.o)
                              ../../external/mbed/LPC1768/mbed.ar(DigitalOut.LPC1768.o) (__aeabi_ctype_table_)
../../external/gcc/LPC1768/libc.a(lib_a-clibabi_stdio.o)
                              ../../external/mbed/LPC1768/capi.ar(serial_api.LPC1768.o) (__aeabi_stderr)
../../external/gcc/LPC1768/libc.a(lib_a-cxa_atexit.o)
                              ../../external/gcc/LPC1768/libstdc++.a(atexit_arm.o) (__cxa_atexit)
../../external/gcc/LPC1768/libc.a(lib_a-fclose.o)
                              ./main.o (fclose)
../../external/gcc/LPC1768/libc.a(lib_a-fflush.o)
                              ../../external/gcc/LPC1768/libc.a(lib_a-fclose.o) (_fflush_r)
../../external/gcc/LPC1768/libc.a(lib_a-findfp.o)
                              ../../external/gcc/LPC1768/libc.a(lib_a-fclose.o) (__sinit)
../../external/gcc/LPC1768/libc.a(lib_a-fopen.o)
                              ./main.o (fopen)
../../external/gcc/LPC1768/libc.a(lib_a-fprintf.o)
                              ./main.o (fprintf)
../../external/gcc/LPC1768/libc.a(lib_a-fputs.o)
                              ../../external/gcc/LPC1768/libstdc++.a(vterminate.o) (fputs)
../../external/gcc/LPC1768/libc.a(lib_a-freer.o)
                              ../../external/gcc/LPC1768/libc.a(lib_a-fclose.o) (_free_r)
../../external/gcc/LPC1768/libc.a(lib_a-fscanf.o)
                              ./main.o (fscanf)
../../external/gcc/LPC1768/libc.a(lib_a-fseek.o)
                              ../../external/gcc/LPC1768/libc.a(lib_a-fopen.o) (_fseek_r)
../../external/gcc/LPC1768/libc.a(lib_a-fstatr.o)
                              ../../external/gcc/LPC1768/libc.a(lib_a-fseek.o) (_fstat_r)
../../external/gcc/LPC1768/libc.a(lib_a-fvwrite.o)
                              ../../external/gcc/LPC1768/libc.a(lib_a-fputs.o) (__sfvwrite_r)
../../external/gcc/LPC1768/libc.a(lib_a-fwalk.o)
                              ../../external/gcc/LPC1768/libc.a(lib_a-findfp.o) (_fwalk)
../../external/gcc/LPC1768/libc.a(lib_a-fwrite.o)
                              ../../src/syscalls.o (fwrite)
../../external/gcc/LPC1768/libc.a(lib_a-impure.o)
                              ../../src/syscalls.o (_impure_ptr)
../../external/gcc/LPC1768/libc.a(lib_a-init.o)
                              ../../src/gcc4mbed.o (__libc_init_array)
../../external/gcc/LPC1768/libc.a(lib_a-makebuf.o)
                              ../../external/gcc/LPC1768/libc.a(lib_a-fseek.o) (__smakebuf_r)
../../external/gcc/LPC1768/libc.a(lib_a-malloc.o)
                              ../../external/gcc/LPC1768/libstdc++.a(new_op.o) (malloc)
../../external/gcc/LPC1768/libc.a(lib_a-mallocr.o)
                              ../../external/gcc/LPC1768/libc.a(lib_a-findfp.o) (_malloc_r)
../../external/gcc/LPC1768/libc.a(lib_a-memchr.o)
                              ../../external/gcc/LPC1768/libc.a(lib_a-fvwrite.o) (memchr)
../../external/gcc/LPC1768/libc.a(lib_a-memcmp.o)
                              ../../external/FATFileSystem/LPC1768/FATFileSystem.ar(ff.c.lpc1768.arm.o) (memcmp)
../../external/gcc/LPC1768/libc.a(lib_a-memcpy.o)
                              ../../external/gcc/LPC1768/libstdc++.a(cp-demangle.o) (memcpy)
../../external/gcc/LPC1768/libc.a(lib_a-memmove.o)
                              ../../external/gcc/LPC1768/libc.a(lib_a-fvwrite.o) (memmove)
../../external/gcc/LPC1768/libc.a(lib_a-memset.o)
                              ../../external/gcc/LPC1768/libc.a(lib_a-aeabi_memset.o) (memset)
../../external/gcc/LPC1768/libc.a(lib_a-mlock.o)
                              ../../external/gcc/LPC1768/libc.a(lib_a-freer.o) (__malloc_lock)
../../external/gcc/LPC1768/libc.a(lib_a-openr.o)
                              ../../external/gcc/LPC1768/libc.a(lib_a-fopen.o) (_open_r)
../../external/gcc/LPC1768/libc.a(lib_a-printf.o)
                              ./main.o (printf)
../../external/gcc/LPC1768/libc.a(lib_a-puts.o)
                              ./main.o (puts)
../../external/gcc/LPC1768/libc.a(lib_a-realloc.o)
                              ../../external/gcc/LPC1768/libstdc++.a(cp-demangle.o) (realloc)
../../external/gcc/LPC1768/libc.a(lib_a-reallocr.o)
                              ../../external/gcc/LPC1768/libc.a(lib_a-fvwrite.o) (_realloc_r)
../../external/gcc/LPC1768/libc.a(lib_a-reent.o)
                              ../../src/syscalls.o (errno)
../../external/gcc/LPC1768/libc.a(lib_a-refill.o)
                              ../../external/gcc/LPC1768/libc.a(lib_a-fseek.o) (__srefill_r)
../../external/gcc/LPC1768/libc.a(lib_a-sbrkr.o)
                              ../../external/gcc/LPC1768/libc.a(lib_a-freer.o) (_sbrk_r)
../../external/gcc/LPC1768/libc.a(lib_a-signal.o)
                              ../../external/gcc/LPC1768/libc.a(lib_a-abort.o) (raise)
../../external/gcc/LPC1768/libc.a(lib_a-signalr.o)
                              ../../external/gcc/LPC1768/libc.a(lib_a-signal.o) (_kill_r)
../../external/gcc/LPC1768/libc.a(lib_a-sprintf.o)
                              ../../external/mbed/LPC1768/mbed.ar(DigitalOut.LPC1768.o) (sprintf)
../../external/gcc/LPC1768/libc.a(lib_a-sscanf.o)
                              ../../external/mbed/LPC1768/mbed.ar(stdio.LPC1768.o) (sscanf)
../../external/gcc/LPC1768/libc.a(lib_a-stdio.o)
                              ../../external/gcc/LPC1768/libc.a(lib_a-findfp.o) (__sread)
../../external/gcc/LPC1768/libc.a(lib_a-strcmp.o)
                              ../../external/mbed/LPC1768/mbed.ar(Base.LPC1768.o) (strcmp)
../../external/gcc/LPC1768/libc.a(lib_a-strcpy.o)
                              ../../external/mbed/LPC1768/mbed.ar(DigitalOut.LPC1768.o) (strcpy)
../../external/gcc/LPC1768/libc.a(lib_a-strlen.o)
                              ../../external/mbed/LPC1768/mbed.ar(Base.LPC1768.o) (strlen)
../../external/gcc/LPC1768/libc.a(lib_a-strncmp.o)
                              ../../external/mbed/LPC1768/mbed.ar(Base.LPC1768.o) (strncmp)
../../external/gcc/LPC1768/libc.a(lib_a-strncpy.o)
                              ../../external/mbed/LPC1768/mbed.ar(Base.LPC1768.o) (strncpy)
../../external/gcc/LPC1768/libc.a(lib_a-strtol.o)
                              ../../external/mbed/LPC1768/mbed.ar(DigitalOut.LPC1768.o) (strtol)
../../external/gcc/LPC1768/libc.a(lib_a-svfprintf.o)
                              ../../external/gcc/LPC1768/libc.a(lib_a-sprintf.o) (_svfprintf_r)
../../external/gcc/LPC1768/libc.a(lib_a-svfscanf.o)
                              ../../external/gcc/LPC1768/libc.a(lib_a-sscanf.o) (__ssvfscanf_r)
../../external/gcc/LPC1768/libc.a(lib_a-syswrite.o)
                              ../../external/gcc/LPC1768/libstdc++.a(pure.o) (write)
../../external/gcc/LPC1768/libc.a(lib_a-vfprintf.o)
                              ../../external/gcc/LPC1768/libc.a(lib_a-fprintf.o) (_vfprintf_r)
../../external/gcc/LPC1768/libc.a(lib_a-vfscanf.o)
                              ../../external/gcc/LPC1768/libc.a(lib_a-fscanf.o) (__svfscanf_r)
../../external/gcc/LPC1768/libc.a(lib_a-writer.o)
                              ../../external/gcc/LPC1768/libc.a(lib_a-stdio.o) (_write_r)
../../external/gcc/LPC1768/libc.a(lib_a-wsetup.o)
                              ../../external/gcc/LPC1768/libc.a(lib_a-fvwrite.o) (__swsetup_r)
../../external/gcc/LPC1768/libc.a(lib_a-__atexit.o)
                              ../../external/gcc/LPC1768/libc.a(lib_a-cxa_atexit.o) (__register_exitproc)
../../external/gcc/LPC1768/libc.a(lib_a-assert.o)
                              ../../external/gcc/LPC1768/libc.a(lib_a-clibabi_assert.o) (__assert)
../../external/gcc/LPC1768/libc.a(lib_a-closer.o)
                              ../../external/gcc/LPC1768/libc.a(lib_a-stdio.o) (_close_r)
../../external/gcc/LPC1768/libc.a(lib_a-ctype_.o)
                              ../../external/gcc/LPC1768/libc.a(lib_a-strtol.o) (__ctype_ptr__)
../../external/gcc/LPC1768/libc.a(lib_a-dtoa.o)
                              ../../external/gcc/LPC1768/libc.a(lib_a-svfprintf.o) (_dtoa_r)
../../external/gcc/LPC1768/libc.a(lib_a-fiprintf.o)
                              ../../external/gcc/LPC1768/libc.a(lib_a-assert.o) (fiprintf)
../../external/gcc/LPC1768/libc.a(lib_a-flags.o)
                              ../../external/gcc/LPC1768/libc.a(lib_a-fopen.o) (__sflags)
../../external/gcc/LPC1768/libc.a(lib_a-fread.o)
                              ../../external/gcc/LPC1768/libc.a(lib_a-vfscanf.o) (_fread_r)
../../external/gcc/LPC1768/libc.a(lib_a-isattyr.o)
                              ../../external/gcc/LPC1768/libc.a(lib_a-makebuf.o) (_isatty_r)
../../external/gcc/LPC1768/libc.a(lib_a-iswspace.o)
                              ../../external/gcc/LPC1768/libc.a(lib_a-svfscanf.o) (iswspace)
../../external/gcc/LPC1768/libc.a(lib_a-locale.o)
                              ../../external/gcc/LPC1768/libc.a(lib_a-svfscanf.o) (__locale_mb_cur_max)
../../external/gcc/LPC1768/libc.a(lib_a-lseekr.o)
                              ../../external/gcc/LPC1768/libc.a(lib_a-stdio.o) (_lseek_r)
../../external/gcc/LPC1768/libc.a(lib_a-mbrtowc.o)
                              ../../external/gcc/LPC1768/libc.a(lib_a-svfscanf.o) (_mbrtowc_r)
../../external/gcc/LPC1768/libc.a(lib_a-mbtowc_r.o)
                              ../../external/gcc/LPC1768/libc.a(lib_a-mbrtowc.o) (__mbtowc)
../../external/gcc/LPC1768/libc.a(lib_a-mprec.o)
                              ../../external/gcc/LPC1768/libc.a(lib_a-dtoa.o) (_Balloc)
../../external/gcc/LPC1768/libc.a(lib_a-readr.o)
                              ../../external/gcc/LPC1768/libc.a(lib_a-stdio.o) (_read_r)
../../external/gcc/LPC1768/libc.a(lib_a-s_fpclassify.o)
                              ../../external/gcc/LPC1768/libc.a(lib_a-svfprintf.o) (__fpclassifyd)
../../external/gcc/LPC1768/libc.a(lib_a-sccl.o)
                              ../../external/gcc/LPC1768/libc.a(lib_a-svfscanf.o) (__sccl)
../../external/gcc/LPC1768/libc.a(lib_a-sf_nan.o)
                              ../../external/gcc/LPC1768/libc.a(lib_a-svfscanf.o) (nanf)
../../external/gcc/LPC1768/libc.a(lib_a-strtod.o)
                              ../../external/gcc/LPC1768/libc.a(lib_a-svfscanf.o) (_strtod_r)
../../external/gcc/LPC1768/libc.a(lib_a-strtoll_r.o)
                              ../../external/gcc/LPC1768/libc.a(lib_a-svfscanf.o) (_strtoll_r)
../../external/gcc/LPC1768/libc.a(lib_a-strtoul.o)
                              ../../external/gcc/LPC1768/libc.a(lib_a-svfscanf.o) (_strtoul_r)
../../external/gcc/LPC1768/libc.a(lib_a-strtoull_r.o)
                              ../../external/gcc/LPC1768/libc.a(lib_a-svfscanf.o) (_strtoull_r)
../../external/gcc/LPC1768/libc.a(lib_a-svfiprintf.o)
                              ../../external/gcc/LPC1768/libc.a(lib_a-svfprintf.o) (__ssprint_r)
../../external/gcc/LPC1768/libc.a(lib_a-svfiscanf.o)
                              ../../external/gcc/LPC1768/libc.a(lib_a-svfscanf.o) (_sungetc_r)
../../external/gcc/LPC1768/libc.a(lib_a-ungetc.o)
                              ../../external/gcc/LPC1768/libc.a(lib_a-svfiscanf.o) (__submore)
../../external/gcc/LPC1768/libc.a(lib_a-vfiprintf.o)
                              ../../external/gcc/LPC1768/libc.a(lib_a-vfprintf.o) (__sprint_r)
../../external/gcc/LPC1768/libc.a(lib_a-callocr.o)
                              ../../external/gcc/LPC1768/libc.a(lib_a-mprec.o) (_calloc_r)
../../external/gcc/LPC1768/libc.a(lib_a-fputwc.o)
                              ../../external/gcc/LPC1768/libc.a(lib_a-vfiprintf.o) (_fputwc_r)
../../external/gcc/LPC1768/libc.a(lib_a-gdtoa-gethex.o)
                              ../../external/gcc/LPC1768/libc.a(lib_a-strtod.o) (__gethex)
../../external/gcc/LPC1768/libc.a(lib_a-gdtoa-hexnan.o)
                              ../../external/gcc/LPC1768/libc.a(lib_a-strtod.o) (__hexnan)
../../external/gcc/LPC1768/libc.a(lib_a-wbuf.o)
                              ../../external/gcc/LPC1768/libc.a(lib_a-fputwc.o) (__swbuf_r)
../../external/gcc/LPC1768/libc.a(lib_a-wcrtomb.o)
                              ../../external/gcc/LPC1768/libc.a(lib_a-fputwc.o) (_wcrtomb_r)
../../external/gcc/LPC1768/libc.a(lib_a-wctomb_r.o)
                              ../../external/gcc/LPC1768/libc.a(lib_a-wcrtomb.o) (__wctomb)
/media/6aafac43-5450-453e-a142-f588400933c0/Sandbox/arm/bin/../lib/gcc/arm-none-eabi/4.5.2/thumb2/libgcc.a(_udivsi3.o)
                              ../../external/gcc/LPC1768/libc.a(lib_a-fwrite.o) (__aeabi_uidiv)
/media/6aafac43-5450-453e-a142-f588400933c0/Sandbox/arm/bin/../lib/gcc/arm-none-eabi/4.5.2/thumb2/libgcc.a(_divsi3.o)
                              ../../external/gcc/LPC1768/libc.a(lib_a-svfprintf.o) (__aeabi_idiv)
/media/6aafac43-5450-453e-a142-f588400933c0/Sandbox/arm/bin/../lib/gcc/arm-none-eabi/4.5.2/thumb2/libgcc.a(_dvmd_tls.o)
                              /media/6aafac43-5450-453e-a142-f588400933c0/Sandbox/arm/bin/../lib/gcc/arm-none-eabi/4.5.2/thumb2/libgcc.a(_udivsi3.o) (__aeabi_idiv0)
/media/6aafac43-5450-453e-a142-f588400933c0/Sandbox/arm/bin/../lib/gcc/arm-none-eabi/4.5.2/thumb2/libgcc.a(_arm_cmpdf2.o)
                              ../../external/gcc/LPC1768/libc.a(lib_a-svfprintf.o) (__aeabi_dcmpeq)
/media/6aafac43-5450-453e-a142-f588400933c0/Sandbox/arm/bin/../lib/gcc/arm-none-eabi/4.5.2/thumb2/libgcc.a(_arm_fixunsdfsi.o)
                              ../../external/gcc/LPC1768/libc.a(lib_a-strtod.o) (__aeabi_d2uiz)
/media/6aafac43-5450-453e-a142-f588400933c0/Sandbox/arm/bin/../lib/gcc/arm-none-eabi/4.5.2/thumb2/libgcc.a(_aeabi_uldivmod.o)
                              ../../external/gcc/LPC1768/libc.a(lib_a-svfprintf.o) (__aeabi_uldivmod)
/media/6aafac43-5450-453e-a142-f588400933c0/Sandbox/arm/bin/../lib/gcc/arm-none-eabi/4.5.2/thumb2/libgcc.a(bpabi.o)
                              /media/6aafac43-5450-453e-a142-f588400933c0/Sandbox/arm/bin/../lib/gcc/arm-none-eabi/4.5.2/thumb2/libgcc.a(_aeabi_uldivmod.o) (__gnu_uldivmod_helper)
/media/6aafac43-5450-453e-a142-f588400933c0/Sandbox/arm/bin/../lib/gcc/arm-none-eabi/4.5.2/thumb2/libgcc.a(_divdi3.o)
                              /media/6aafac43-5450-453e-a142-f588400933c0/Sandbox/arm/bin/../lib/gcc/arm-none-eabi/4.5.2/thumb2/libgcc.a(bpabi.o) (__divdi3)
/media/6aafac43-5450-453e-a142-f588400933c0/Sandbox/arm/bin/../lib/gcc/arm-none-eabi/4.5.2/thumb2/libgcc.a(_udivdi3.o)
                              /media/6aafac43-5450-453e-a142-f588400933c0/Sandbox/arm/bin/../lib/gcc/arm-none-eabi/4.5.2/thumb2/libgcc.a(bpabi.o) (__udivdi3)

Allocating common symbols
Common symbol       size              file

errno               0x4               ../../external/gcc/LPC1768/libc.a(lib_a-reent.o)
__aeabi_stdin       0x4               ../../external/gcc/LPC1768/libc.a(lib_a-clibabi_stdio.o)
__hexdig            0x100             ../../external/gcc/LPC1768/libc.a(lib_a-gdtoa-gethex.o)
__aeabi_stdout      0x4               ../../external/gcc/LPC1768/libc.a(lib_a-clibabi_stdio.o)
__aeabi_stderr      0x4               ../../external/gcc/LPC1768/libc.a(lib_a-clibabi_stdio.o)

Discarded input sections

 .text          0x00000000        0x0 /media/6aafac43-5450-453e-a142-f588400933c0/Sandbox/arm/bin/../lib/gcc/arm-none-eabi/4.5.2/thumb2/crti.o
 .data          0x00000000        0x0 /media/6aafac43-5450-453e-a142-f588400933c0/Sandbox/arm/bin/../lib/gcc/arm-none-eabi/4.5.2/thumb2/crti.o
 .bss           0x00000000        0x0 /media/6aafac43-5450-453e-a142-f588400933c0/Sandbox/arm/bin/../lib/gcc/arm-none-eabi/4.5.2/thumb2/crti.o
 .text          0x00000000        0x0 ../../src/gcc4mbed.o
 .data          0x00000000        0x0 ../../src/gcc4mbed.o
 .bss           0x00000000        0x0 ../../src/gcc4mbed.o
 .text          0x00000000        0x0 ../../src/syscalls.o
 .data          0x00000000        0x0 ../../src/syscalls.o
 .bss           0x00000000        0x0 ../../src/syscalls.o
 .text._system  0x00000000       0x14 ../../src/syscalls.o
 .group         0x00000000        0xc ./main.o
 .text          0x00000000        0x0 ./main.o
 .data          0x00000000        0x0 ./main.o
 .bss           0x00000000        0x0 ./main.o
 .group         0x00000000        0x8 ./SDFileSystem/SDFileSystem.o
 .group         0x00000000        0xc ./SDFileSystem/SDFileSystem.o
 .text          0x00000000        0x0 ./SDFileSystem/SDFileSystem.o
 .data          0x00000000        0x0 ./SDFileSystem/SDFileSystem.o
 .bss           0x00000000        0x0 ./SDFileSystem/SDFileSystem.o
 .text._ZN12SDFileSystemD2Ev
                0x00000000       0x3c ./SDFileSystem/SDFileSystem.o
 .text._ZN12SDFileSystemD0Ev
                0x00000000       0x40 ./SDFileSystem/SDFileSystem.o
 _ZTVN4mbed10DigitalOutE
                0x00000000        0xc ../../external/mbed/LPC1768/mbed.ar(DigitalOut.LPC1768.o)
 __ARM__ZN4mbed10parse_pinsEPKc_anon0
                0x00000000        0x8 ../../external/mbed/LPC1768/mbed.ar(DigitalOut.LPC1768.o)
 __ARM__ZN4mbed12write_resultIiEEvT_Pc_anon0
                0x00000000        0x8 ../../external/mbed/LPC1768/mbed.ar(DigitalOut.LPC1768.o)
 _ZN4mbed10DigitalOutD1Ev
                0x00000000        0xc ../../external/mbed/LPC1768/mbed.ar(DigitalOut.LPC1768.o)
 _ZN4mbed17rpc_method_callerINS_10DigitalOutEiXadL_ZNS1_5writeEiEEEEvPNS_4BaseEPKcPc
                0x00000000        0xc ../../external/mbed/LPC1768/mbed.ar(DigitalOut.LPC1768.o)
 _ZN4mbed17rpc_method_callerIiNS_10DigitalOutEXadL_ZNS1_4readEvEEEEvPNS_4BaseEPKcPc
                0x00000000        0xc ../../external/mbed/LPC1768/mbed.ar(DigitalOut.LPC1768.o)
 _ZN4mbed9rpc_superINS_4BaseEEEPKNS_10rpc_methodEPS1_
                0x00000000        0xc ../../external/mbed/LPC1768/mbed.ar(DigitalOut.LPC1768.o)
 _ZN4mbed19rpc_function_callerIPKc7PinNameS2_XadL_ZNS_4Base9constructINS_10DigitalOutES3_S2_EES2_T0_T1_EEEEvS2_Pc
                0x00000000        0xc ../../external/mbed/LPC1768/mbed.ar(DigitalOut.LPC1768.o)
 _ZN4mbed10DigitalOut5writeEi
                0x00000000        0xc ../../external/mbed/LPC1768/mbed.ar(DigitalOut.LPC1768.o)
 _ZN4mbed10DigitalOut4readEv
                0x00000000        0xc ../../external/mbed/LPC1768/mbed.ar(DigitalOut.LPC1768.o)
 _ZN4mbed10DigitalOutD0Ev
                0x00000000        0xc ../../external/mbed/LPC1768/mbed.ar(DigitalOut.LPC1768.o)
 _ZN4mbed10parse_charEPKcPS1_
                0x00000000        0xc ../../external/mbed/LPC1768/mbed.ar(DigitalOut.LPC1768.o)
 _ZTIN4mbed10DigitalOutE
                0x00000000        0x8 ../../external/mbed/LPC1768/mbed.ar(DigitalOut.LPC1768.o)
 _ZTSN4mbed10DigitalOutE
                0x00000000        0x8 ../../external/mbed/LPC1768/mbed.ar(DigitalOut.LPC1768.o)
 i._ZN4mbed10DigitalOut13get_rpc_classEv
                0x00000000        0x8 ../../external/mbed/LPC1768/mbed.ar(DigitalOut.LPC1768.o)
 .ARM.exidx     0x00000000        0x8 ../../external/mbed/LPC1768/mbed.ar(DigitalOut.LPC1768.o)
 .constdata     0x00000000       0x10 ../../external/mbed/LPC1768/mbed.ar(DigitalOut.LPC1768.o)
 .conststring   0x00000000        0x4 ../../external/mbed/LPC1768/mbed.ar(DigitalOut.LPC1768.o)
 .data          0x00000000        0xc ../../external/mbed/LPC1768/mbed.ar(DigitalOut.LPC1768.o)
 t._ZN4mbed19rpc_function_callerIPKc7PinNameS2_XadL_ZNS_4Base9constructINS_10DigitalOutES3_S2_EES2_T0_T1_EEEEvS2_Pc
                0x00000000      0x2c0 ../../external/mbed/LPC1768/mbed.ar(DigitalOut.LPC1768.o)
 .ARM.exidx     0x00000000        0x8 ../../external/mbed/LPC1768/mbed.ar(DigitalOut.LPC1768.o)
 _ZTVN4mbed4BaseE
                0x00000000        0xc ../../external/mbed/LPC1768/mbed.ar(Base.LPC1768.o)
 _ZN4mbed17rpc_method_callerINS_4BaseEXadL_ZNS1_11delete_selfEvEEEEvPS1_PKcPc
                0x00000000        0xc ../../external/mbed/LPC1768/mbed.ar(Base.LPC1768.o)
 _ZTIN4mbed4BaseE
                0x00000000        0x8 ../../external/mbed/LPC1768/mbed.ar(Base.LPC1768.o)
 _ZTVN4mbed13BaseDirHandleE
                0x00000000        0xc ../../external/mbed/LPC1768/mbed.ar(Base.LPC1768.o)
 _ZTIN4mbed13BaseDirHandleE
                0x00000000        0x8 ../../external/mbed/LPC1768/mbed.ar(Base.LPC1768.o)
 _ZTSN4mbed4BaseE
                0x00000000        0x8 ../../external/mbed/LPC1768/mbed.ar(Base.LPC1768.o)
 _ZTIN4mbed9DirHandleE
                0x00000000        0x8 ../../external/mbed/LPC1768/mbed.ar(Base.LPC1768.o)
 _ZTSN4mbed13BaseDirHandleE
                0x00000000        0x8 ../../external/mbed/LPC1768/mbed.ar(Base.LPC1768.o)
 _ZTSN4mbed9DirHandleE
                0x00000000        0x8 ../../external/mbed/LPC1768/mbed.ar(Base.LPC1768.o)
 _ZN4mbed13BaseDirHandle8closedirEv
                0x00000000        0xc ../../external/mbed/LPC1768/mbed.ar(Base.LPC1768.o)
 _ZN4mbed13BaseDirHandle7readdirEv
                0x00000000        0xc ../../external/mbed/LPC1768/mbed.ar(Base.LPC1768.o)
 _ZN4mbed13BaseDirHandle7telldirEv
                0x00000000        0xc ../../external/mbed/LPC1768/mbed.ar(Base.LPC1768.o)
 _ZN4mbed13BaseDirHandle7seekdirEl
                0x00000000        0xc ../../external/mbed/LPC1768/mbed.ar(Base.LPC1768.o)
 _ZN4mbed13BaseDirHandle9rewinddirEv
                0x00000000        0xc ../../external/mbed/LPC1768/mbed.ar(Base.LPC1768.o)
 _ZTIN4mbed14FileSystemLikeE
                0x00000000        0x8 ../../external/mbed/LPC1768/mbed.ar(Base.LPC1768.o)
 _ZTSN4mbed14FileSystemLikeE
                0x00000000        0x8 ../../external/mbed/LPC1768/mbed.ar(Base.LPC1768.o)
 i._ZN4mbed4Base3rpcEPKcS2_S2_Pc
                0x00000000      0x150 ../../external/mbed/LPC1768/mbed.ar(Base.LPC1768.o)
 i._ZN4mbed4Base4nameEv
                0x00000000        0x4 ../../external/mbed/LPC1768/mbed.ar(Base.LPC1768.o)
 .ARM.exidx     0x00000000        0x8 ../../external/mbed/LPC1768/mbed.ar(Base.LPC1768.o)
 .ARM.exidx     0x00000000        0x8 ../../external/mbed/LPC1768/mbed.ar(Base.LPC1768.o)
 .arm_vfe_vcallinfoi._ZN4mbed4Base11delete_selfEv
                0x00000000       0x24 ../../external/mbed/LPC1768/mbed.ar(Base.LPC1768.o)
 .arm_vfe_vcallinfoi._ZN4mbed4Base3rpcEPKcS2_Pc
                0x00000000       0x24 ../../external/mbed/LPC1768/mbed.ar(Base.LPC1768.o)
 .arm_vfe_vcallinfoi._ZN4mbed4Base3rpcEPKcS2_S2_Pc
                0x00000000       0x24 ../../external/mbed/LPC1768/mbed.ar(Base.LPC1768.o)
 .arm_vfe_vcallinfoi._ZN4mbed4Base5clearEPKcPc
                0x00000000       0x24 ../../external/mbed/LPC1768/mbed.ar(Base.LPC1768.o)
 _ZTVN4mbed8FileLikeE
                0x00000000        0xc ../../external/mbed/LPC1768/mbed.ar(stdio.LPC1768.o)
 _ZN4mbed10FileHandle4flenEv
                0x00000000       0x10 ../../external/mbed/LPC1768/mbed.ar(stdio.LPC1768.o)
 _ZTIN4mbed8FileLikeE
                0x00000000        0x8 ../../external/mbed/LPC1768/mbed.ar(stdio.LPC1768.o)
 _ZTIN4mbed14FileSystemLikeE
                0x00000000        0x8 ../../external/mbed/LPC1768/mbed.ar(stdio.LPC1768.o)
 _ZTIN4mbed10FileHandleE
                0x00000000        0x8 ../../external/mbed/LPC1768/mbed.ar(stdio.LPC1768.o)
 _ZTSN4mbed8FileLikeE
                0x00000000        0x8 ../../external/mbed/LPC1768/mbed.ar(stdio.LPC1768.o)
 _ZTSN4mbed14FileSystemLikeE
                0x00000000        0x8 ../../external/mbed/LPC1768/mbed.ar(stdio.LPC1768.o)
 _ZTSN4mbed10FileHandleE
                0x00000000        0x8 ../../external/mbed/LPC1768/mbed.ar(stdio.LPC1768.o)
 i._ZN4mbed8FileLikeD0Ev
                0x00000000       0x3c ../../external/mbed/LPC1768/mbed.ar(stdio.LPC1768.o)
 i._ZN4mbed8FileLikeD2Ev
                0x00000000       0x34 ../../external/mbed/LPC1768/mbed.ar(stdio.LPC1768.o)
 i._sys_command_string
                0x00000000        0x4 ../../external/mbed/LPC1768/mbed.ar(stdio.LPC1768.o)
 i._sys_ensure  0x00000000       0x28 ../../external/mbed/LPC1768/mbed.ar(stdio.LPC1768.o)
 i._sys_flen    0x00000000       0x28 ../../external/mbed/LPC1768/mbed.ar(stdio.LPC1768.o)
 i.mkdir        0x00000000       0x54 ../../external/mbed/LPC1768/mbed.ar(stdio.LPC1768.o)
 i.rename       0x00000000        0x6 ../../external/mbed/LPC1768/mbed.ar(stdio.LPC1768.o)
 i.rewinddir    0x00000000        0x6 ../../external/mbed/LPC1768/mbed.ar(stdio.LPC1768.o)
 i.seekdir      0x00000000        0x6 ../../external/mbed/LPC1768/mbed.ar(stdio.LPC1768.o)
 i.telldir      0x00000000        0x6 ../../external/mbed/LPC1768/mbed.ar(stdio.LPC1768.o)
 i.tmpfile      0x00000000        0x4 ../../external/mbed/LPC1768/mbed.ar(stdio.LPC1768.o)
 i.tmpnam       0x00000000        0x4 ../../external/mbed/LPC1768/mbed.ar(stdio.LPC1768.o)
 .ARM.exidx     0x00000000        0x8 ../../external/mbed/LPC1768/mbed.ar(stdio.LPC1768.o)
 .ARM.exidx     0x00000000        0x8 ../../external/mbed/LPC1768/mbed.ar(stdio.LPC1768.o)
 .ARM.exidx     0x00000000        0x8 ../../external/mbed/LPC1768/mbed.ar(stdio.LPC1768.o)
 .ARM.exidx     0x00000000        0x8 ../../external/mbed/LPC1768/mbed.ar(stdio.LPC1768.o)
 .ARM.exidx     0x00000000        0x8 ../../external/mbed/LPC1768/mbed.ar(stdio.LPC1768.o)
 .ARM.exidx     0x00000000        0x8 ../../external/mbed/LPC1768/mbed.ar(stdio.LPC1768.o)
 .ARM.exidx     0x00000000        0x8 ../../external/mbed/LPC1768/mbed.ar(stdio.LPC1768.o)
 .ARM.exidx     0x00000000        0x8 ../../external/mbed/LPC1768/mbed.ar(stdio.LPC1768.o)
 .ARM.exidx     0x00000000        0x8 ../../external/mbed/LPC1768/mbed.ar(stdio.LPC1768.o)
 .ARM.exidx     0x00000000        0x8 ../../external/mbed/LPC1768/mbed.ar(stdio.LPC1768.o)
 .ARM.exidx     0x00000000        0x8 ../../external/mbed/LPC1768/mbed.ar(stdio.LPC1768.o)
 .ARM.exidx     0x00000000        0x8 ../../external/mbed/LPC1768/mbed.ar(stdio.LPC1768.o)
 .arm_vfe_vcallinfoi._sys_close
                0x00000000       0x24 ../../external/mbed/LPC1768/mbed.ar(stdio.LPC1768.o)
 .arm_vfe_vcallinfoi._sys_ensure
                0x00000000       0x24 ../../external/mbed/LPC1768/mbed.ar(stdio.LPC1768.o)
 .arm_vfe_vcallinfoi._sys_flen
                0x00000000       0x24 ../../external/mbed/LPC1768/mbed.ar(stdio.LPC1768.o)
 .arm_vfe_vcallinfoi._sys_istty
                0x00000000       0x24 ../../external/mbed/LPC1768/mbed.ar(stdio.LPC1768.o)
 .arm_vfe_vcallinfoi._sys_open
                0x00000000       0x38 ../../external/mbed/LPC1768/mbed.ar(stdio.LPC1768.o)
 .arm_vfe_vcallinfoi._sys_read
                0x00000000       0x24 ../../external/mbed/LPC1768/mbed.ar(stdio.LPC1768.o)
 .arm_vfe_vcallinfoi._sys_seek
                0x00000000       0x24 ../../external/mbed/LPC1768/mbed.ar(stdio.LPC1768.o)
 .arm_vfe_vcallinfoi._sys_write
                0x00000000       0x24 ../../external/mbed/LPC1768/mbed.ar(stdio.LPC1768.o)
 .arm_vfe_vcallinfoi.closedir
                0x00000000       0x24 ../../external/mbed/LPC1768/mbed.ar(stdio.LPC1768.o)
 .arm_vfe_vcallinfoi.mkdir
                0x00000000       0x38 ../../external/mbed/LPC1768/mbed.ar(stdio.LPC1768.o)
 .arm_vfe_vcallinfoi.opendir
                0x00000000       0x38 ../../external/mbed/LPC1768/mbed.ar(stdio.LPC1768.o)
 .arm_vfe_vcallinfoi.readdir
                0x00000000       0x24 ../../external/mbed/LPC1768/mbed.ar(stdio.LPC1768.o)
 .arm_vfe_vcallinfoi.remove
                0x00000000       0x38 ../../external/mbed/LPC1768/mbed.ar(stdio.LPC1768.o)
 .arm_vfe_vcallinfoi.rewinddir
                0x00000000       0x24 ../../external/mbed/LPC1768/mbed.ar(stdio.LPC1768.o)
 .arm_vfe_vcallinfoi.seekdir
                0x00000000       0x24 ../../external/mbed/LPC1768/mbed.ar(stdio.LPC1768.o)
 .arm_vfe_vcallinfoi.telldir
                0x00000000       0x24 ../../external/mbed/LPC1768/mbed.ar(stdio.LPC1768.o)
 .arm_vfe_vtableinfo_ZTVN4mbed8FileLikeE
                0x00000000       0x54 ../../external/mbed/LPC1768/mbed.ar(stdio.LPC1768.o)
 .constdata__ZTVN4mbed8FileLikeE
                0x00000000       0x3c ../../external/mbed/LPC1768/mbed.ar(stdio.LPC1768.o)
 i._ZN4mbed10FileHandle4flenEv
                0x00000000       0x3a ../../external/mbed/LPC1768/mbed.ar(stdio.LPC1768.o)
 .ARM.exidx     0x00000000        0x8 ../../external/mbed/LPC1768/mbed.ar(stdio.LPC1768.o)
 .arm_vfe_vcallinfoi._ZN4mbed10FileHandle4flenEv
                0x00000000       0x24 ../../external/mbed/LPC1768/mbed.ar(stdio.LPC1768.o)
 .constdata__ZTIN4mbed14FileSystemLikeE
                0x00000000        0xc ../../external/mbed/LPC1768/mbed.ar(stdio.LPC1768.o)
 .constdata__ZTSN4mbed14FileSystemLikeE
                0x00000000       0x18 ../../external/mbed/LPC1768/mbed.ar(stdio.LPC1768.o)
 _ZTVN4mbed3SPIE
                0x00000000        0xc ../../external/mbed/LPC1768/mbed.ar(SPI.LPC1768.o)
 __ARM__ZN4mbed10parse_pinsEPKc_anon0
                0x00000000        0x8 ../../external/mbed/LPC1768/mbed.ar(SPI.LPC1768.o)
 __ARM__ZN4mbed12write_resultIiEEvT_Pc_anon0
                0x00000000        0x8 ../../external/mbed/LPC1768/mbed.ar(SPI.LPC1768.o)
 _ZN4mbed3SPID1Ev
                0x00000000        0xc ../../external/mbed/LPC1768/mbed.ar(SPI.LPC1768.o)
 _ZN4mbed9parse_argI7PinNameEET_PKcPS4_
                0x00000000        0xc ../../external/mbed/LPC1768/mbed.ar(SPI.LPC1768.o)
 _ZN4mbed17rpc_method_callerINS_3SPIEiiXadL_ZNS1_6formatEiiEEEEvPNS_4BaseEPKcPc
                0x00000000        0xc ../../external/mbed/LPC1768/mbed.ar(SPI.LPC1768.o)
 _ZN4mbed17rpc_method_callerINS_3SPIEiXadL_ZNS1_9frequencyEiEEEEvPNS_4BaseEPKcPc
                0x00000000        0xc ../../external/mbed/LPC1768/mbed.ar(SPI.LPC1768.o)
 _ZN4mbed17rpc_method_callerIiNS_3SPIEiXadL_ZNS1_5writeEiEEEEvPNS_4BaseEPKcPc
                0x00000000        0xc ../../external/mbed/LPC1768/mbed.ar(SPI.LPC1768.o)
 _ZN4mbed9rpc_superINS_4BaseEEEPKNS_10rpc_methodEPS1_
                0x00000000        0xc ../../external/mbed/LPC1768/mbed.ar(SPI.LPC1768.o)
 _ZN4mbed19rpc_function_callerIPKc7PinNameS3_S3_S2_XadL_ZNS_4Base9constructINS_3SPIES3_S3_S3_S2_EES2_T0_T1_T2_T3_EEEEvS2_Pc
                0x00000000        0xc ../../external/mbed/LPC1768/mbed.ar(SPI.LPC1768.o)
 _ZN4mbed3SPID0Ev
                0x00000000        0xc ../../external/mbed/LPC1768/mbed.ar(SPI.LPC1768.o)
 _ZN4mbed10parse_charEPKcPS1_
                0x00000000        0xc ../../external/mbed/LPC1768/mbed.ar(SPI.LPC1768.o)
 _ZN4mbed8next_argEPKc
                0x00000000        0xc ../../external/mbed/LPC1768/mbed.ar(SPI.LPC1768.o)
 _ZTIN4mbed3SPIE
                0x00000000        0x8 ../../external/mbed/LPC1768/mbed.ar(SPI.LPC1768.o)
 _ZTSN4mbed3SPIE
                0x00000000        0x8 ../../external/mbed/LPC1768/mbed.ar(SPI.LPC1768.o)
 i._ZN4mbed3SPI13get_rpc_classEv
                0x00000000        0x8 ../../external/mbed/LPC1768/mbed.ar(SPI.LPC1768.o)
 .ARM.exidx     0x00000000        0x8 ../../external/mbed/LPC1768/mbed.ar(SPI.LPC1768.o)
 .arm_vfe_global_vcallinfo
                0x00000000       0x20 ../../external/mbed/LPC1768/mbed.ar(SPI.LPC1768.o)
 .constdata___ARM__ZN4mbed10parse_pinsEPKc_anon0
                0x00000000       0x68 ../../external/mbed/LPC1768/mbed.ar(SPI.LPC1768.o)
 .constdata___ARM__ZN4mbed12write_resultIiEEvT_Pc_anon0
                0x00000000        0x3 ../../external/mbed/LPC1768/mbed.ar(SPI.LPC1768.o)
 t._ZN4mbed9rpc_superINS_4BaseEEEPKNS_10rpc_methodEPS1_
                0x00000000        0x4 ../../external/mbed/LPC1768/mbed.ar(SPI.LPC1768.o)
 .ARM.exidx     0x00000000        0x8 ../../external/mbed/LPC1768/mbed.ar(SPI.LPC1768.o)
 i._ZN4mbed10parse_charEPKcPS1_
                0x00000000       0xa2 ../../external/mbed/LPC1768/mbed.ar(SPI.LPC1768.o)
 .ARM.exidx     0x00000000        0x8 ../../external/mbed/LPC1768/mbed.ar(SPI.LPC1768.o)
 .ARM.__at_0x02FC
                0x00000000        0x4 ../../external/mbed/LPC1768/capi.ar(startup_LPC17xx.LPC1768.o)
 i.SystemCoreClockUpdate
                0x00000000      0x100 ../../external/mbed/LPC1768/capi.ar(system_LPC17xx.LPC1768.o)
 i.serial_clear
                0x00000000        0x6 ../../external/mbed/LPC1768/capi.ar(serial_api.LPC1768.o)
 i.serial_free  0x00000000        0x2 ../../external/mbed/LPC1768/capi.ar(serial_api.LPC1768.o)
 i.serial_interrupt
                0x00000000        0x2 ../../external/mbed/LPC1768/capi.ar(serial_api.LPC1768.o)
 i.serial_readable
                0x00000000        0x8 ../../external/mbed/LPC1768/capi.ar(serial_api.LPC1768.o)
 i.serial_writable
                0x00000000        0x8 ../../external/mbed/LPC1768/capi.ar(serial_api.LPC1768.o)
 i.spi_busy     0x00000000        0x8 ../../external/mbed/LPC1768/capi.ar(spi_api.LPC1768.o)
 i.spi_free     0x00000000        0x2 ../../external/mbed/LPC1768/capi.ar(spi_api.LPC1768.o)
 i.spi_slave_read
                0x00000000        0x4 ../../external/mbed/LPC1768/capi.ar(spi_api.LPC1768.o)
 i.spi_slave_receive
                0x00000000       0x1a ../../external/mbed/LPC1768/capi.ar(spi_api.LPC1768.o)
 i.spi_slave_write
                0x00000000        0xc ../../external/mbed/LPC1768/capi.ar(spi_api.LPC1768.o)
 i.gpio_input   0x00000000       0x30 ../../external/mbed/LPC1768/capi.ar(gpio_api.LPC1768.o)
 i.gpio_mode    0x00000000        0x4 ../../external/mbed/LPC1768/capi.ar(gpio_api.LPC1768.o)
 i.gpio_read    0x00000000       0x18 ../../external/mbed/LPC1768/capi.ar(gpio_api.LPC1768.o)
 i.semihost_close
                0x00000000        0xc ../../external/mbed/LPC1768/capi.ar(semihost_api.LPC1768.o)
 i.semihost_ensure
                0x00000000        0xc ../../external/mbed/LPC1768/capi.ar(semihost_api.LPC1768.o)
 i.semihost_flen
                0x00000000        0xc ../../external/mbed/LPC1768/capi.ar(semihost_api.LPC1768.o)
 i.semihost_istty
                0x00000000        0xc ../../external/mbed/LPC1768/capi.ar(semihost_api.LPC1768.o)
 i.semihost_open
                0x00000000       0x18 ../../external/mbed/LPC1768/capi.ar(semihost_api.LPC1768.o)
 i.semihost_read
                0x00000000       0x12 ../../external/mbed/LPC1768/capi.ar(semihost_api.LPC1768.o)
 i.semihost_remove
                0x00000000       0x16 ../../external/mbed/LPC1768/capi.ar(semihost_api.LPC1768.o)
 i.semihost_rename
                0x00000000       0x22 ../../external/mbed/LPC1768/capi.ar(semihost_api.LPC1768.o)
 i.semihost_reset
                0x00000000        0xa ../../external/mbed/LPC1768/capi.ar(semihost_api.LPC1768.o)
 i.semihost_seek
                0x00000000       0x10 ../../external/mbed/LPC1768/capi.ar(semihost_api.LPC1768.o)
 i.semihost_uid
                0x00000000       0x14 ../../external/mbed/LPC1768/capi.ar(semihost_api.LPC1768.o)
 i.semihost_write
                0x00000000       0x12 ../../external/mbed/LPC1768/capi.ar(semihost_api.LPC1768.o)
 i.FunctionalityNotSupported
                0x00000000       0x34 ../../external/mbed/LPC1768/capi.ar(utils_api.LPC1768.o)
 i.mbed_mac_address
                0x00000000       0x48 ../../external/mbed/LPC1768/capi.ar(utils_api.LPC1768.o)
 i.mbed_reset   0x00000000       0x34 ../../external/mbed/LPC1768/capi.ar(utils_api.LPC1768.o)
 i.mbed_uid     0x00000000        0x4 ../../external/mbed/LPC1768/capi.ar(utils_api.LPC1768.o)
 i.wait         0x00000000       0x30 ../../external/mbed/LPC1768/capi.ar(wait_api.LPC1768.o)
 i.wait_us      0x00000000       0x16 ../../external/mbed/LPC1768/capi.ar(wait_api.LPC1768.o)
 i.timer_free   0x00000000        0x2 ../../external/mbed/LPC1768/capi.ar(timer_api.LPC1768.o)
 i.timer_stop   0x00000000        0xa ../../external/mbed/LPC1768/capi.ar(timer_api.LPC1768.o)
 i.timer_write  0x00000000       0x12 ../../external/mbed/LPC1768/capi.ar(timer_api.LPC1768.o)
 _ZTVN4mbed13FATFileSystemE
                0x00000000        0xc ../../external/FATFileSystem/LPC1768/FATFileSystem.ar(FATFileSystem.cpp.lpc1768.arm.o)
 _ZN4mbed14FileSystemLike6renameEPKcS2_
                0x00000000        0xc ../../external/FATFileSystem/LPC1768/FATFileSystem.ar(FATFileSystem.cpp.lpc1768.arm.o)
 _ZN4mbed13FATFileSystem15disk_initializeEv
                0x00000000        0xc ../../external/FATFileSystem/LPC1768/FATFileSystem.ar(FATFileSystem.cpp.lpc1768.arm.o)
 _ZN4mbed13FATFileSystem11disk_statusEv
                0x00000000        0xc ../../external/FATFileSystem/LPC1768/FATFileSystem.ar(FATFileSystem.cpp.lpc1768.arm.o)
 _ZN4mbed13FATFileSystem9disk_syncEv
                0x00000000        0xc ../../external/FATFileSystem/LPC1768/FATFileSystem.ar(FATFileSystem.cpp.lpc1768.arm.o)
 _ZTIN4mbed13FATFileSystemE
                0x00000000        0x8 ../../external/FATFileSystem/LPC1768/FATFileSystem.ar(FATFileSystem.cpp.lpc1768.arm.o)
 _ZTIN4mbed14FileSystemLikeE
                0x00000000        0x8 ../../external/FATFileSystem/LPC1768/FATFileSystem.ar(FATFileSystem.cpp.lpc1768.arm.o)
 _ZTSN4mbed13FATFileSystemE
                0x00000000        0x8 ../../external/FATFileSystem/LPC1768/FATFileSystem.ar(FATFileSystem.cpp.lpc1768.arm.o)
 _ZTSN4mbed14FileSystemLikeE
                0x00000000        0x8 ../../external/FATFileSystem/LPC1768/FATFileSystem.ar(FATFileSystem.cpp.lpc1768.arm.o)
 i._ZN4mbed14FileSystemLike6renameEPKcS2_
                0x00000000        0x6 ../../external/FATFileSystem/LPC1768/FATFileSystem.ar(FATFileSystem.cpp.lpc1768.arm.o)
 .ARM.exidx     0x00000000        0x8 ../../external/FATFileSystem/LPC1768/FATFileSystem.ar(FATFileSystem.cpp.lpc1768.arm.o)
 .constdata__ZTIN4mbed14FileSystemLikeE
                0x00000000        0xc ../../external/FATFileSystem/LPC1768/FATFileSystem.ar(FATFileSystem.cpp.lpc1768.arm.o)
 .constdata__ZTSN4mbed14FileSystemLikeE
                0x00000000       0x18 ../../external/FATFileSystem/LPC1768/FATFileSystem.ar(FATFileSystem.cpp.lpc1768.arm.o)
 _ZTVN4mbed12FATDirHandleE
                0x00000000        0xc ../../external/FATFileSystem/LPC1768/FATFileSystem.ar(FATDirHandle.cpp.lpc1768.arm.o)
 _ZTIN4mbed12FATDirHandleE
                0x00000000        0x8 ../../external/FATFileSystem/LPC1768/FATFileSystem.ar(FATDirHandle.cpp.lpc1768.arm.o)
 _ZTIN4mbed9DirHandleE
                0x00000000        0x8 ../../external/FATFileSystem/LPC1768/FATFileSystem.ar(FATDirHandle.cpp.lpc1768.arm.o)
 _ZTSN4mbed12FATDirHandleE
                0x00000000        0x8 ../../external/FATFileSystem/LPC1768/FATFileSystem.ar(FATDirHandle.cpp.lpc1768.arm.o)
 _ZTSN4mbed9DirHandleE
                0x00000000        0x8 ../../external/FATFileSystem/LPC1768/FATFileSystem.ar(FATDirHandle.cpp.lpc1768.arm.o)
 .constdata__ZTIN4mbed9DirHandleE
                0x00000000        0x8 ../../external/FATFileSystem/LPC1768/FATFileSystem.ar(FATDirHandle.cpp.lpc1768.arm.o)
 .constdata__ZTSN4mbed9DirHandleE
                0x00000000       0x12 ../../external/FATFileSystem/LPC1768/FATFileSystem.ar(FATDirHandle.cpp.lpc1768.arm.o)
 _ZTVN4mbed13FATFileHandleE
                0x00000000        0xc ../../external/FATFileSystem/LPC1768/FATFileSystem.ar(FATFileHandle.cpp.lpc1768.arm.o)
 _ZTIN4mbed13FATFileHandleE
                0x00000000        0x8 ../../external/FATFileSystem/LPC1768/FATFileSystem.ar(FATFileHandle.cpp.lpc1768.arm.o)
 _ZTIN4mbed10FileHandleE
                0x00000000        0x8 ../../external/FATFileSystem/LPC1768/FATFileSystem.ar(FATFileHandle.cpp.lpc1768.arm.o)
 _ZTSN4mbed13FATFileHandleE
                0x00000000        0x8 ../../external/FATFileSystem/LPC1768/FATFileSystem.ar(FATFileHandle.cpp.lpc1768.arm.o)
 _ZTSN4mbed10FileHandleE
                0x00000000        0x8 ../../external/FATFileSystem/LPC1768/FATFileSystem.ar(FATFileHandle.cpp.lpc1768.arm.o)
 .constdata__ZTIN4mbed10FileHandleE
                0x00000000        0x8 ../../external/FATFileSystem/LPC1768/FATFileSystem.ar(FATFileHandle.cpp.lpc1768.arm.o)
 .constdata__ZTSN4mbed10FileHandleE
                0x00000000       0x14 ../../external/FATFileSystem/LPC1768/FATFileSystem.ar(FATFileHandle.cpp.lpc1768.arm.o)
 i.f_chmod      0x00000000       0x56 ../../external/FATFileSystem/LPC1768/FATFileSystem.ar(ff.c.lpc1768.arm.o)
 i.f_getfree    0x00000000       0xc8 ../../external/FATFileSystem/LPC1768/FATFileSystem.ar(ff.c.lpc1768.arm.o)
 i.f_rename     0x00000000       0xbe ../../external/FATFileSystem/LPC1768/FATFileSystem.ar(ff.c.lpc1768.arm.o)
 i.f_stat       0x00000000       0x3a ../../external/FATFileSystem/LPC1768/FATFileSystem.ar(ff.c.lpc1768.arm.o)
 i.f_truncate   0x00000000       0x86 ../../external/FATFileSystem/LPC1768/FATFileSystem.ar(ff.c.lpc1768.arm.o)
 i.f_utime      0x00000000       0x56 ../../external/FATFileSystem/LPC1768/FATFileSystem.ar(ff.c.lpc1768.arm.o)
 i.get_fileinfo
                0x00000000       0xb2 ../../external/FATFileSystem/LPC1768/FATFileSystem.ar(ff.c.lpc1768.arm.o)
 .arm_vfe_vcallinfoi.disk_initialize
                0x00000000       0x24 ../../external/FATFileSystem/LPC1768/FATFileSystem.ar(diskio.cpp.lpc1768.arm.o)
 .arm_vfe_vcallinfoi.disk_ioctl
                0x00000000       0x24 ../../external/FATFileSystem/LPC1768/FATFileSystem.ar(diskio.cpp.lpc1768.arm.o)
 .arm_vfe_vcallinfoi.disk_read
                0x00000000       0x24 ../../external/FATFileSystem/LPC1768/FATFileSystem.ar(diskio.cpp.lpc1768.arm.o)
 .arm_vfe_vcallinfoi.disk_status
                0x00000000       0x24 ../../external/FATFileSystem/LPC1768/FATFileSystem.ar(diskio.cpp.lpc1768.arm.o)
 .arm_vfe_vcallinfoi.disk_write
                0x00000000       0x24 ../../external/FATFileSystem/LPC1768/FATFileSystem.ar(diskio.cpp.lpc1768.arm.o)
 .text          0x00000000        0x0 ../../external/gcc/LPC1768/libstdc++.a(atexit_arm.o)
 .data          0x00000000        0x0 ../../external/gcc/LPC1768/libstdc++.a(atexit_arm.o)
 .bss           0x00000000        0x0 ../../external/gcc/LPC1768/libstdc++.a(atexit_arm.o)
 .group         0x00000000        0x8 ../../external/gcc/LPC1768/libstdc++.a(class_type_info.o)
 .text          0x00000000        0x0 ../../external/gcc/LPC1768/libstdc++.a(class_type_info.o)
 .data          0x00000000        0x0 ../../external/gcc/LPC1768/libstdc++.a(class_type_info.o)
 .bss           0x00000000        0x0 ../../external/gcc/LPC1768/libstdc++.a(class_type_info.o)
 .text          0x00000000        0x0 ../../external/gcc/LPC1768/libstdc++.a(del_op.o)
 .data          0x00000000        0x0 ../../external/gcc/LPC1768/libstdc++.a(del_op.o)
 .bss           0x00000000        0x0 ../../external/gcc/LPC1768/libstdc++.a(del_op.o)
 .text          0x00000000        0x0 ../../external/gcc/LPC1768/libstdc++.a(del_opv.o)
 .data          0x00000000        0x0 ../../external/gcc/LPC1768/libstdc++.a(del_opv.o)
 .bss           0x00000000        0x0 ../../external/gcc/LPC1768/libstdc++.a(del_opv.o)
 .group         0x00000000        0x8 ../../external/gcc/LPC1768/libstdc++.a(dyncast.o)
 .group         0x00000000        0x8 ../../external/gcc/LPC1768/libstdc++.a(dyncast.o)
 .text          0x00000000        0x0 ../../external/gcc/LPC1768/libstdc++.a(dyncast.o)
 .data          0x00000000        0x0 ../../external/gcc/LPC1768/libstdc++.a(dyncast.o)
 .bss           0x00000000        0x0 ../../external/gcc/LPC1768/libstdc++.a(dyncast.o)
 .text          0x00000000        0x0 ../../external/gcc/LPC1768/libstdc++.a(new_op.o)
 .data          0x00000000        0x0 ../../external/gcc/LPC1768/libstdc++.a(new_op.o)
 .bss           0x00000000        0x0 ../../external/gcc/LPC1768/libstdc++.a(new_op.o)
 .text          0x00000000        0x0 ../../external/gcc/LPC1768/libstdc++.a(new_opv.o)
 .data          0x00000000        0x0 ../../external/gcc/LPC1768/libstdc++.a(new_opv.o)
 .bss           0x00000000        0x0 ../../external/gcc/LPC1768/libstdc++.a(new_opv.o)
 .text          0x00000000        0x0 ../../external/gcc/LPC1768/libstdc++.a(pure.o)
 .data          0x00000000        0x0 ../../external/gcc/LPC1768/libstdc++.a(pure.o)
 .bss           0x00000000        0x0 ../../external/gcc/LPC1768/libstdc++.a(pure.o)
 .text          0x00000000        0x0 ../../external/gcc/LPC1768/libstdc++.a(si_class_type_info.o)
 .data          0x00000000        0x0 ../../external/gcc/LPC1768/libstdc++.a(si_class_type_info.o)
 .bss           0x00000000        0x0 ../../external/gcc/LPC1768/libstdc++.a(si_class_type_info.o)
 .group         0x00000000        0x8 ../../external/gcc/LPC1768/libstdc++.a(tinfo.o)
 .text          0x00000000        0x0 ../../external/gcc/LPC1768/libstdc++.a(tinfo.o)
 .data          0x00000000        0x0 ../../external/gcc/LPC1768/libstdc++.a(tinfo.o)
 .bss           0x00000000        0x0 ../../external/gcc/LPC1768/libstdc++.a(tinfo.o)
 .group         0x00000000        0x8 ../../external/gcc/LPC1768/libstdc++.a(vmi_class_type_info.o)
 .group         0x00000000        0x8 ../../external/gcc/LPC1768/libstdc++.a(vmi_class_type_info.o)
 .group         0x00000000        0x8 ../../external/gcc/LPC1768/libstdc++.a(vmi_class_type_info.o)
 .group         0x00000000        0x8 ../../external/gcc/LPC1768/libstdc++.a(vmi_class_type_info.o)
 .group         0x00000000        0x8 ../../external/gcc/LPC1768/libstdc++.a(vmi_class_type_info.o)
 .group         0x00000000        0x8 ../../external/gcc/LPC1768/libstdc++.a(vmi_class_type_info.o)
 .text          0x00000000        0x0 ../../external/gcc/LPC1768/libstdc++.a(vmi_class_type_info.o)
 .data          0x00000000        0x0 ../../external/gcc/LPC1768/libstdc++.a(vmi_class_type_info.o)
 .bss           0x00000000        0x0 ../../external/gcc/LPC1768/libstdc++.a(vmi_class_type_info.o)
 .text._ZN10__cxxabiv117__class_type_info15__upcast_resultC2Ei
                0x00000000        0xc ../../external/gcc/LPC1768/libstdc++.a(vmi_class_type_info.o)
 .text._ZN10__cxxabiv117__class_type_info16__dyncast_resultC2Ei
                0x00000000        0xe ../../external/gcc/LPC1768/libstdc++.a(vmi_class_type_info.o)
 .text._ZNK10__cxxabiv117__class_type_info17__find_public_srcEiPKvPKS0_S2_
                0x00000000       0x2c ../../external/gcc/LPC1768/libstdc++.a(vmi_class_type_info.o)
 .text          0x00000000        0x0 ../../external/gcc/LPC1768/libstdc++.a(eh_terminate.o)
 .data          0x00000000        0x0 ../../external/gcc/LPC1768/libstdc++.a(eh_terminate.o)
 .bss           0x00000000        0x0 ../../external/gcc/LPC1768/libstdc++.a(eh_terminate.o)
 .text._ZN10__cxxabiv112__unexpectedEPFvvE
                0x00000000        0x8 ../../external/gcc/LPC1768/libstdc++.a(eh_terminate.o)
 .text._ZSt10unexpectedv
                0x00000000       0x10 ../../external/gcc/LPC1768/libstdc++.a(eh_terminate.o)
 .text._ZSt13set_terminatePFvvE
                0x00000000       0x10 ../../external/gcc/LPC1768/libstdc++.a(eh_terminate.o)
 .text._ZSt14set_unexpectedPFvvE
                0x00000000       0x10 ../../external/gcc/LPC1768/libstdc++.a(eh_terminate.o)
 .text          0x00000000        0x0 ../../external/gcc/LPC1768/libstdc++.a(eh_unex_handler.o)
 .data          0x00000000        0x0 ../../external/gcc/LPC1768/libstdc++.a(eh_unex_handler.o)
 .bss           0x00000000        0x0 ../../external/gcc/LPC1768/libstdc++.a(eh_unex_handler.o)
 .data._ZN10__cxxabiv120__unexpected_handlerE
                0x00000000        0x4 ../../external/gcc/LPC1768/libstdc++.a(eh_unex_handler.o)
 .text          0x00000000        0x0 ../../external/gcc/LPC1768/libstdc++.a(new_handler.o)
 .data          0x00000000        0x0 ../../external/gcc/LPC1768/libstdc++.a(new_handler.o)
 .bss           0x00000000        0x0 ../../external/gcc/LPC1768/libstdc++.a(new_handler.o)
 .text._ZNKSt9bad_alloc4whatEv
                0x00000000        0x8 ../../external/gcc/LPC1768/libstdc++.a(new_handler.o)
 .text._ZNSt9bad_allocD2Ev
                0x00000000       0x14 ../../external/gcc/LPC1768/libstdc++.a(new_handler.o)
 .text._ZNSt9bad_allocD0Ev
                0x00000000       0x12 ../../external/gcc/LPC1768/libstdc++.a(new_handler.o)
 .text._ZSt15set_new_handlerPFvvE
                0x00000000       0x10 ../../external/gcc/LPC1768/libstdc++.a(new_handler.o)
 .rodata._ZTVSt9bad_alloc
                0x00000000       0x18 ../../external/gcc/LPC1768/libstdc++.a(new_handler.o)
 .rodata._ZTSSt9bad_alloc
                0x00000000        0xd ../../external/gcc/LPC1768/libstdc++.a(new_handler.o)
 .rodata.str1.1
                0x00000000        0xf ../../external/gcc/LPC1768/libstdc++.a(new_handler.o)
 .rodata._ZTISt9bad_alloc
                0x00000000        0xc ../../external/gcc/LPC1768/libstdc++.a(new_handler.o)
 .rodata._ZSt7nothrow
                0x00000000        0x1 ../../external/gcc/LPC1768/libstdc++.a(new_handler.o)
 .text          0x00000000        0x0 ../../external/gcc/LPC1768/libstdc++.a(eh_exception.o)
 .data          0x00000000        0x0 ../../external/gcc/LPC1768/libstdc++.a(eh_exception.o)
 .bss           0x00000000        0x0 ../../external/gcc/LPC1768/libstdc++.a(eh_exception.o)
 .text._ZNSt9exceptionD2Ev
                0x00000000        0xc ../../external/gcc/LPC1768/libstdc++.a(eh_exception.o)
 .text._ZNSt13bad_exceptionD2Ev
                0x00000000       0x14 ../../external/gcc/LPC1768/libstdc++.a(eh_exception.o)
 .text._ZN10__cxxabiv115__forced_unwindD2Ev
                0x00000000        0xc ../../external/gcc/LPC1768/libstdc++.a(eh_exception.o)
 .text._ZN10__cxxabiv119__foreign_exceptionD2Ev
                0x00000000        0xc ../../external/gcc/LPC1768/libstdc++.a(eh_exception.o)
 .text._ZNKSt9exception4whatEv
                0x00000000        0x8 ../../external/gcc/LPC1768/libstdc++.a(eh_exception.o)
 .text._ZNKSt13bad_exception4whatEv
                0x00000000        0x8 ../../external/gcc/LPC1768/libstdc++.a(eh_exception.o)
 .text._ZN10__cxxabiv119__foreign_exceptionD0Ev
                0x00000000       0x12 ../../external/gcc/LPC1768/libstdc++.a(eh_exception.o)
 .text._ZN10__cxxabiv115__forced_unwindD0Ev
                0x00000000       0x12 ../../external/gcc/LPC1768/libstdc++.a(eh_exception.o)
 .text._ZNSt13bad_exceptionD0Ev
                0x00000000       0x12 ../../external/gcc/LPC1768/libstdc++.a(eh_exception.o)
 .text._ZNSt9exceptionD0Ev
                0x00000000       0x12 ../../external/gcc/LPC1768/libstdc++.a(eh_exception.o)
 .rodata._ZTVN10__cxxabiv115__forced_unwindE
                0x00000000       0x18 ../../external/gcc/LPC1768/libstdc++.a(eh_exception.o)
 .rodata._ZTVSt9exception
                0x00000000       0x18 ../../external/gcc/LPC1768/libstdc++.a(eh_exception.o)
 .rodata._ZTIN10__cxxabiv115__forced_unwindE
                0x00000000        0x8 ../../external/gcc/LPC1768/libstdc++.a(eh_exception.o)
 .rodata._ZTSSt13bad_exception
                0x00000000       0x12 ../../external/gcc/LPC1768/libstdc++.a(eh_exception.o)
 .rodata._ZTSN10__cxxabiv119__foreign_exceptionE
                0x00000000       0x24 ../../external/gcc/LPC1768/libstdc++.a(eh_exception.o)
 .rodata.str1.1
                0x00000000       0x22 ../../external/gcc/LPC1768/libstdc++.a(eh_exception.o)
 .rodata._ZTISt9exception
                0x00000000        0x8 ../../external/gcc/LPC1768/libstdc++.a(eh_exception.o)
 .rodata._ZTIN10__cxxabiv119__foreign_exceptionE
                0x00000000        0x8 ../../external/gcc/LPC1768/libstdc++.a(eh_exception.o)
 .rodata._ZTVSt13bad_exception
                0x00000000       0x18 ../../external/gcc/LPC1768/libstdc++.a(eh_exception.o)
 .rodata._ZTSSt9exception
                0x00000000        0xd ../../external/gcc/LPC1768/libstdc++.a(eh_exception.o)
 .rodata._ZTVN10__cxxabiv119__foreign_exceptionE
                0x00000000       0x18 ../../external/gcc/LPC1768/libstdc++.a(eh_exception.o)
 .rodata._ZTSN10__cxxabiv115__forced_unwindE
                0x00000000       0x20 ../../external/gcc/LPC1768/libstdc++.a(eh_exception.o)
 .rodata._ZTISt13bad_exception
                0x00000000        0xc ../../external/gcc/LPC1768/libstdc++.a(eh_exception.o)
 .text          0x00000000        0x0 ../../external/gcc/LPC1768/libstdc++.a(eh_term_handler.o)
 .data          0x00000000        0x0 ../../external/gcc/LPC1768/libstdc++.a(eh_term_handler.o)
 .bss           0x00000000        0x0 ../../external/gcc/LPC1768/libstdc++.a(eh_term_handler.o)
 .group         0x00000000        0x8 ../../external/gcc/LPC1768/libstdc++.a(vterminate.o)
 .text          0x00000000        0x0 ../../external/gcc/LPC1768/libstdc++.a(vterminate.o)
 .data          0x00000000        0x0 ../../external/gcc/LPC1768/libstdc++.a(vterminate.o)
 .bss           0x00000000        0x0 ../../external/gcc/LPC1768/libstdc++.a(vterminate.o)
 .text._ZNKSt9type_info4nameEv
                0x00000000        0xc ../../external/gcc/LPC1768/libstdc++.a(vterminate.o)
 .data          0x00000000        0x0 ../../external/gcc/LPC1768/libstdc++.a(cp-demangle.o)
 .bss           0x00000000        0x0 ../../external/gcc/LPC1768/libstdc++.a(cp-demangle.o)
 .text          0x00000000        0x0 ../../external/gcc/LPC1768/libstdc++.a(eh_type.o)
 .data          0x00000000        0x0 ../../external/gcc/LPC1768/libstdc++.a(eh_type.o)
 .bss           0x00000000        0x0 ../../external/gcc/LPC1768/libstdc++.a(eh_type.o)
 .text          0x00000000        0x0 ../../external/gcc/LPC1768/libstdc++.a(eh_globals.o)
 .data          0x00000000        0x0 ../../external/gcc/LPC1768/libstdc++.a(eh_globals.o)
 .bss           0x00000000        0x0 ../../external/gcc/LPC1768/libstdc++.a(eh_globals.o)
 .text.__cxa_get_globals_fast
                0x00000000        0x8 ../../external/gcc/LPC1768/libstdc++.a(eh_globals.o)
 .text          0x00000000        0x0 ../../external/gcc/LPC1768/libm.a(lib_a-s_scalbn.o)
 .data          0x00000000        0x0 ../../external/gcc/LPC1768/libm.a(lib_a-s_scalbn.o)
 .bss           0x00000000        0x0 ../../external/gcc/LPC1768/libm.a(lib_a-s_scalbn.o)
 .text          0x00000000        0x0 ../../external/gcc/LPC1768/libm.a(lib_a-s_copysign.o)
 .data          0x00000000        0x0 ../../external/gcc/LPC1768/libm.a(lib_a-s_copysign.o)
 .bss           0x00000000        0x0 ../../external/gcc/LPC1768/libm.a(lib_a-s_copysign.o)
 .data          0x00000000        0x0 /media/6aafac43-5450-453e-a142-f588400933c0/Sandbox/arm/bin/../lib/gcc/arm-none-eabi/4.5.2/thumb2/libgcc.a(_arm_addsubdf3.o)
 .bss           0x00000000        0x0 /media/6aafac43-5450-453e-a142-f588400933c0/Sandbox/arm/bin/../lib/gcc/arm-none-eabi/4.5.2/thumb2/libgcc.a(_arm_addsubdf3.o)
 .data          0x00000000        0x0 /media/6aafac43-5450-453e-a142-f588400933c0/Sandbox/arm/bin/../lib/gcc/arm-none-eabi/4.5.2/thumb2/libgcc.a(_arm_muldivdf3.o)
 .bss           0x00000000        0x0 /media/6aafac43-5450-453e-a142-f588400933c0/Sandbox/arm/bin/../lib/gcc/arm-none-eabi/4.5.2/thumb2/libgcc.a(_arm_muldivdf3.o)
 .data          0x00000000        0x0 /media/6aafac43-5450-453e-a142-f588400933c0/Sandbox/arm/bin/../lib/gcc/arm-none-eabi/4.5.2/thumb2/libgcc.a(_arm_fixdfsi.o)
 .bss           0x00000000        0x0 /media/6aafac43-5450-453e-a142-f588400933c0/Sandbox/arm/bin/../lib/gcc/arm-none-eabi/4.5.2/thumb2/libgcc.a(_arm_fixdfsi.o)
 .data          0x00000000        0x0 /media/6aafac43-5450-453e-a142-f588400933c0/Sandbox/arm/bin/../lib/gcc/arm-none-eabi/4.5.2/thumb2/libgcc.a(_arm_truncdfsf2.o)
 .bss           0x00000000        0x0 /media/6aafac43-5450-453e-a142-f588400933c0/Sandbox/arm/bin/../lib/gcc/arm-none-eabi/4.5.2/thumb2/libgcc.a(_arm_truncdfsf2.o)
 .data          0x00000000        0x0 /media/6aafac43-5450-453e-a142-f588400933c0/Sandbox/arm/bin/../lib/gcc/arm-none-eabi/4.5.2/thumb2/libgcc.a(_arm_addsubsf3.o)
 .bss           0x00000000        0x0 /media/6aafac43-5450-453e-a142-f588400933c0/Sandbox/arm/bin/../lib/gcc/arm-none-eabi/4.5.2/thumb2/libgcc.a(_arm_addsubsf3.o)
 .data          0x00000000        0x0 /media/6aafac43-5450-453e-a142-f588400933c0/Sandbox/arm/bin/../lib/gcc/arm-none-eabi/4.5.2/thumb2/libgcc.a(_arm_muldivsf3.o)
 .bss           0x00000000        0x0 /media/6aafac43-5450-453e-a142-f588400933c0/Sandbox/arm/bin/../lib/gcc/arm-none-eabi/4.5.2/thumb2/libgcc.a(_arm_muldivsf3.o)
 .data          0x00000000        0x0 /media/6aafac43-5450-453e-a142-f588400933c0/Sandbox/arm/bin/../lib/gcc/arm-none-eabi/4.5.2/thumb2/libgcc.a(_arm_cmpsf2.o)
 .bss           0x00000000        0x0 /media/6aafac43-5450-453e-a142-f588400933c0/Sandbox/arm/bin/../lib/gcc/arm-none-eabi/4.5.2/thumb2/libgcc.a(_arm_cmpsf2.o)
 .text          0x00000000        0x0 ../../external/gcc/LPC1768/libc.a(lib_a-abort.o)
 .data          0x00000000        0x0 ../../external/gcc/LPC1768/libc.a(lib_a-abort.o)
 .bss           0x00000000        0x0 ../../external/gcc/LPC1768/libc.a(lib_a-abort.o)
 .text          0x00000000        0x0 ../../external/gcc/LPC1768/libc.a(lib_a-aeabi_memclr.o)
 .data          0x00000000        0x0 ../../external/gcc/LPC1768/libc.a(lib_a-aeabi_memclr.o)
 .bss           0x00000000        0x0 ../../external/gcc/LPC1768/libc.a(lib_a-aeabi_memclr.o)
 .text          0x00000000        0x0 ../../external/gcc/LPC1768/libc.a(lib_a-aeabi_memcpy.o)
 .data          0x00000000        0x0 ../../external/gcc/LPC1768/libc.a(lib_a-aeabi_memcpy.o)
 .bss           0x00000000        0x0 ../../external/gcc/LPC1768/libc.a(lib_a-aeabi_memcpy.o)
 .text          0x00000000        0x0 ../../external/gcc/LPC1768/libc.a(lib_a-aeabi_memset.o)
 .data          0x00000000        0x0 ../../external/gcc/LPC1768/libc.a(lib_a-aeabi_memset.o)
 .bss           0x00000000        0x0 ../../external/gcc/LPC1768/libc.a(lib_a-aeabi_memset.o)
 .text          0x00000000        0x0 ../../external/gcc/LPC1768/libc.a(lib_a-clibabi_assert.o)
 .data          0x00000000        0x0 ../../external/gcc/LPC1768/libc.a(lib_a-clibabi_assert.o)
 .bss           0x00000000        0x0 ../../external/gcc/LPC1768/libc.a(lib_a-clibabi_assert.o)
 .text          0x00000000        0x0 ../../external/gcc/LPC1768/libc.a(lib_a-clibabi_ctype.o)
 .data          0x00000000        0x0 ../../external/gcc/LPC1768/libc.a(lib_a-clibabi_ctype.o)
 .bss           0x00000000        0x0 ../../external/gcc/LPC1768/libc.a(lib_a-clibabi_ctype.o)
 .text          0x00000000        0x0 ../../external/gcc/LPC1768/libc.a(lib_a-clibabi_stdio.o)
 .data          0x00000000        0x0 ../../external/gcc/LPC1768/libc.a(lib_a-clibabi_stdio.o)
 .bss           0x00000000        0x0 ../../external/gcc/LPC1768/libc.a(lib_a-clibabi_stdio.o)
 .rodata.__aeabi_L_tmpnam
                0x00000000        0x4 ../../external/gcc/LPC1768/libc.a(lib_a-clibabi_stdio.o)
 .rodata.__aeabi_BUFSIZ
                0x00000000        0x4 ../../external/gcc/LPC1768/libc.a(lib_a-clibabi_stdio.o)
 .rodata.__aeabi_IOLBF
                0x00000000        0x4 ../../external/gcc/LPC1768/libc.a(lib_a-clibabi_stdio.o)
 .rodata.__aeabi_FILENAME_MAX
                0x00000000        0x4 ../../external/gcc/LPC1768/libc.a(lib_a-clibabi_stdio.o)
 .rodata.__aeabi_IOFBF
                0x00000000        0x4 ../../external/gcc/LPC1768/libc.a(lib_a-clibabi_stdio.o)
 .rodata.__aeabi_FOPEN_MAX
                0x00000000        0x4 ../../external/gcc/LPC1768/libc.a(lib_a-clibabi_stdio.o)
 .rodata.__aeabi_TMP_MAX
                0x00000000        0x4 ../../external/gcc/LPC1768/libc.a(lib_a-clibabi_stdio.o)
 .rodata.__aeabi_IONBF
                0x00000000        0x4 ../../external/gcc/LPC1768/libc.a(lib_a-clibabi_stdio.o)
 .text          0x00000000        0x0 ../../external/gcc/LPC1768/libc.a(lib_a-cxa_atexit.o)
 .data          0x00000000        0x0 ../../external/gcc/LPC1768/libc.a(lib_a-cxa_atexit.o)
 .bss           0x00000000        0x0 ../../external/gcc/LPC1768/libc.a(lib_a-cxa_atexit.o)
 .text          0x00000000        0x0 ../../external/gcc/LPC1768/libc.a(lib_a-fclose.o)
 .data          0x00000000        0x0 ../../external/gcc/LPC1768/libc.a(lib_a-fclose.o)
 .bss           0x00000000        0x0 ../../external/gcc/LPC1768/libc.a(lib_a-fclose.o)
 .text          0x00000000        0x0 ../../external/gcc/LPC1768/libc.a(lib_a-fflush.o)
 .data          0x00000000        0x0 ../../external/gcc/LPC1768/libc.a(lib_a-fflush.o)
 .bss           0x00000000        0x0 ../../external/gcc/LPC1768/libc.a(lib_a-fflush.o)
 .text          0x00000000        0x0 ../../external/gcc/LPC1768/libc.a(lib_a-findfp.o)
 .data          0x00000000        0x0 ../../external/gcc/LPC1768/libc.a(lib_a-findfp.o)
 .bss           0x00000000        0x0 ../../external/gcc/LPC1768/libc.a(lib_a-findfp.o)
 .text.__fp_lock
                0x00000000        0x4 ../../external/gcc/LPC1768/libc.a(lib_a-findfp.o)
 .text.__fp_unlock
                0x00000000        0x4 ../../external/gcc/LPC1768/libc.a(lib_a-findfp.o)
 .text._cleanup
                0x00000000        0xc ../../external/gcc/LPC1768/libc.a(lib_a-findfp.o)
 .text.__sinit_lock_acquire
                0x00000000        0x2 ../../external/gcc/LPC1768/libc.a(lib_a-findfp.o)
 .text.__sinit_lock_release
                0x00000000        0x2 ../../external/gcc/LPC1768/libc.a(lib_a-findfp.o)
 .text.__fp_lock_all
                0x00000000       0x14 ../../external/gcc/LPC1768/libc.a(lib_a-findfp.o)
 .text.__fp_unlock_all
                0x00000000       0x14 ../../external/gcc/LPC1768/libc.a(lib_a-findfp.o)
 .text          0x00000000        0x0 ../../external/gcc/LPC1768/libc.a(lib_a-fopen.o)
 .data          0x00000000        0x0 ../../external/gcc/LPC1768/libc.a(lib_a-fopen.o)
 .bss           0x00000000        0x0 ../../external/gcc/LPC1768/libc.a(lib_a-fopen.o)
 .text          0x00000000        0x0 ../../external/gcc/LPC1768/libc.a(lib_a-fprintf.o)
 .data          0x00000000        0x0 ../../external/gcc/LPC1768/libc.a(lib_a-fprintf.o)
 .bss           0x00000000        0x0 ../../external/gcc/LPC1768/libc.a(lib_a-fprintf.o)
 .text._fprintf_r
                0x00000000       0x18 ../../external/gcc/LPC1768/libc.a(lib_a-fprintf.o)
 .text          0x00000000        0x0 ../../external/gcc/LPC1768/libc.a(lib_a-fputs.o)
 .data          0x00000000        0x0 ../../external/gcc/LPC1768/libc.a(lib_a-fputs.o)
 .bss           0x00000000        0x0 ../../external/gcc/LPC1768/libc.a(lib_a-fputs.o)
 .text          0x00000000        0x0 ../../external/gcc/LPC1768/libc.a(lib_a-freer.o)
 .data          0x00000000        0x0 ../../external/gcc/LPC1768/libc.a(lib_a-freer.o)
 .bss           0x00000000        0x0 ../../external/gcc/LPC1768/libc.a(lib_a-freer.o)
 .text          0x00000000        0x0 ../../external/gcc/LPC1768/libc.a(lib_a-fscanf.o)
 .data          0x00000000        0x0 ../../external/gcc/LPC1768/libc.a(lib_a-fscanf.o)
 .bss           0x00000000        0x0 ../../external/gcc/LPC1768/libc.a(lib_a-fscanf.o)
 .text._fscanf_r
                0x00000000       0x18 ../../external/gcc/LPC1768/libc.a(lib_a-fscanf.o)
 .text          0x00000000        0x0 ../../external/gcc/LPC1768/libc.a(lib_a-fseek.o)
 .data          0x00000000        0x0 ../../external/gcc/LPC1768/libc.a(lib_a-fseek.o)
 .bss           0x00000000        0x0 ../../external/gcc/LPC1768/libc.a(lib_a-fseek.o)
 .text.fseek    0x00000000       0x1c ../../external/gcc/LPC1768/libc.a(lib_a-fseek.o)
 .text          0x00000000        0x0 ../../external/gcc/LPC1768/libc.a(lib_a-fstatr.o)
 .data          0x00000000        0x0 ../../external/gcc/LPC1768/libc.a(lib_a-fstatr.o)
 .bss           0x00000000        0x0 ../../external/gcc/LPC1768/libc.a(lib_a-fstatr.o)
 .text          0x00000000        0x0 ../../external/gcc/LPC1768/libc.a(lib_a-fvwrite.o)
 .data          0x00000000        0x0 ../../external/gcc/LPC1768/libc.a(lib_a-fvwrite.o)
 .bss           0x00000000        0x0 ../../external/gcc/LPC1768/libc.a(lib_a-fvwrite.o)
 .text          0x00000000        0x0 ../../external/gcc/LPC1768/libc.a(lib_a-fwalk.o)
 .data          0x00000000        0x0 ../../external/gcc/LPC1768/libc.a(lib_a-fwalk.o)
 .bss           0x00000000        0x0 ../../external/gcc/LPC1768/libc.a(lib_a-fwalk.o)
 .text          0x00000000        0x0 ../../external/gcc/LPC1768/libc.a(lib_a-fwrite.o)
 .data          0x00000000        0x0 ../../external/gcc/LPC1768/libc.a(lib_a-fwrite.o)
 .bss           0x00000000        0x0 ../../external/gcc/LPC1768/libc.a(lib_a-fwrite.o)
 .text          0x00000000        0x0 ../../external/gcc/LPC1768/libc.a(lib_a-impure.o)
 .data          0x00000000        0x0 ../../external/gcc/LPC1768/libc.a(lib_a-impure.o)
 .bss           0x00000000        0x0 ../../external/gcc/LPC1768/libc.a(lib_a-impure.o)
 .text          0x00000000        0x0 ../../external/gcc/LPC1768/libc.a(lib_a-init.o)
 .data          0x00000000        0x0 ../../external/gcc/LPC1768/libc.a(lib_a-init.o)
 .bss           0x00000000        0x0 ../../external/gcc/LPC1768/libc.a(lib_a-init.o)
 .text          0x00000000        0x0 ../../external/gcc/LPC1768/libc.a(lib_a-makebuf.o)
 .data          0x00000000        0x0 ../../external/gcc/LPC1768/libc.a(lib_a-makebuf.o)
 .bss           0x00000000        0x0 ../../external/gcc/LPC1768/libc.a(lib_a-makebuf.o)
 .text          0x00000000        0x0 ../../external/gcc/LPC1768/libc.a(lib_a-malloc.o)
 .data          0x00000000        0x0 ../../external/gcc/LPC1768/libc.a(lib_a-malloc.o)
 .bss           0x00000000        0x0 ../../external/gcc/LPC1768/libc.a(lib_a-malloc.o)
 .text          0x00000000        0x0 ../../external/gcc/LPC1768/libc.a(lib_a-mallocr.o)
 .data          0x00000000        0x0 ../../external/gcc/LPC1768/libc.a(lib_a-mallocr.o)
 .bss           0x00000000        0x0 ../../external/gcc/LPC1768/libc.a(lib_a-mallocr.o)
 .text          0x00000000        0x0 ../../external/gcc/LPC1768/libc.a(lib_a-memchr.o)
 .data          0x00000000        0x0 ../../external/gcc/LPC1768/libc.a(lib_a-memchr.o)
 .bss           0x00000000        0x0 ../../external/gcc/LPC1768/libc.a(lib_a-memchr.o)
 .text          0x00000000        0x0 ../../external/gcc/LPC1768/libc.a(lib_a-memcmp.o)
 .data          0x00000000        0x0 ../../external/gcc/LPC1768/libc.a(lib_a-memcmp.o)
 .bss           0x00000000        0x0 ../../external/gcc/LPC1768/libc.a(lib_a-memcmp.o)
 .text          0x00000000        0x0 ../../external/gcc/LPC1768/libc.a(lib_a-memcpy.o)
 .data          0x00000000        0x0 ../../external/gcc/LPC1768/libc.a(lib_a-memcpy.o)
 .bss           0x00000000        0x0 ../../external/gcc/LPC1768/libc.a(lib_a-memcpy.o)
 .text          0x00000000        0x0 ../../external/gcc/LPC1768/libc.a(lib_a-memmove.o)
 .data          0x00000000        0x0 ../../external/gcc/LPC1768/libc.a(lib_a-memmove.o)
 .bss           0x00000000        0x0 ../../external/gcc/LPC1768/libc.a(lib_a-memmove.o)
 .text          0x00000000        0x0 ../../external/gcc/LPC1768/libc.a(lib_a-memset.o)
 .data          0x00000000        0x0 ../../external/gcc/LPC1768/libc.a(lib_a-memset.o)
 .bss           0x00000000        0x0 ../../external/gcc/LPC1768/libc.a(lib_a-memset.o)
 .text          0x00000000        0x0 ../../external/gcc/LPC1768/libc.a(lib_a-mlock.o)
 .data          0x00000000        0x0 ../../external/gcc/LPC1768/libc.a(lib_a-mlock.o)
 .bss           0x00000000        0x0 ../../external/gcc/LPC1768/libc.a(lib_a-mlock.o)
 .text          0x00000000        0x0 ../../external/gcc/LPC1768/libc.a(lib_a-openr.o)
 .data          0x00000000        0x0 ../../external/gcc/LPC1768/libc.a(lib_a-openr.o)
 .bss           0x00000000        0x0 ../../external/gcc/LPC1768/libc.a(lib_a-openr.o)
 .text          0x00000000        0x0 ../../external/gcc/LPC1768/libc.a(lib_a-printf.o)
 .data          0x00000000        0x0 ../../external/gcc/LPC1768/libc.a(lib_a-printf.o)
 .bss           0x00000000        0x0 ../../external/gcc/LPC1768/libc.a(lib_a-printf.o)
 .text._printf_r
                0x00000000       0x26 ../../external/gcc/LPC1768/libc.a(lib_a-printf.o)
 .text          0x00000000        0x0 ../../external/gcc/LPC1768/libc.a(lib_a-puts.o)
 .data          0x00000000        0x0 ../../external/gcc/LPC1768/libc.a(lib_a-puts.o)
 .bss           0x00000000        0x0 ../../external/gcc/LPC1768/libc.a(lib_a-puts.o)
 .text          0x00000000        0x0 ../../external/gcc/LPC1768/libc.a(lib_a-realloc.o)
 .data          0x00000000        0x0 ../../external/gcc/LPC1768/libc.a(lib_a-realloc.o)
 .bss           0x00000000        0x0 ../../external/gcc/LPC1768/libc.a(lib_a-realloc.o)
 .text          0x00000000        0x0 ../../external/gcc/LPC1768/libc.a(lib_a-reallocr.o)
 .data          0x00000000        0x0 ../../external/gcc/LPC1768/libc.a(lib_a-reallocr.o)
 .bss           0x00000000        0x0 ../../external/gcc/LPC1768/libc.a(lib_a-reallocr.o)
 .text          0x00000000        0x0 ../../external/gcc/LPC1768/libc.a(lib_a-reent.o)
 .data          0x00000000        0x0 ../../external/gcc/LPC1768/libc.a(lib_a-reent.o)
 .bss           0x00000000        0x0 ../../external/gcc/LPC1768/libc.a(lib_a-reent.o)
 .text.cleanup_glue
                0x00000000       0x1a ../../external/gcc/LPC1768/libc.a(lib_a-reent.o)
 .text._reclaim_reent
                0x00000000       0xb4 ../../external/gcc/LPC1768/libc.a(lib_a-reent.o)
 .text._wrapup_reent
                0x00000000       0x34 ../../external/gcc/LPC1768/libc.a(lib_a-reent.o)
 .text          0x00000000        0x0 ../../external/gcc/LPC1768/libc.a(lib_a-refill.o)
 .data          0x00000000        0x0 ../../external/gcc/LPC1768/libc.a(lib_a-refill.o)
 .bss           0x00000000        0x0 ../../external/gcc/LPC1768/libc.a(lib_a-refill.o)
 .text          0x00000000        0x0 ../../external/gcc/LPC1768/libc.a(lib_a-sbrkr.o)
 .data          0x00000000        0x0 ../../external/gcc/LPC1768/libc.a(lib_a-sbrkr.o)
 .bss           0x00000000        0x0 ../../external/gcc/LPC1768/libc.a(lib_a-sbrkr.o)
 .text          0x00000000        0x0 ../../external/gcc/LPC1768/libc.a(lib_a-signal.o)
 .data          0x00000000        0x0 ../../external/gcc/LPC1768/libc.a(lib_a-signal.o)
 .bss           0x00000000        0x0 ../../external/gcc/LPC1768/libc.a(lib_a-signal.o)
 .text._init_signal_r
                0x00000000       0x2a ../../external/gcc/LPC1768/libc.a(lib_a-signal.o)
 .text._signal_r
                0x00000000       0x32 ../../external/gcc/LPC1768/libc.a(lib_a-signal.o)
 .text.__sigtramp_r
                0x00000000       0x46 ../../external/gcc/LPC1768/libc.a(lib_a-signal.o)
 .text.signal   0x00000000       0x14 ../../external/gcc/LPC1768/libc.a(lib_a-signal.o)
 .text._init_signal
                0x00000000        0xc ../../external/gcc/LPC1768/libc.a(lib_a-signal.o)
 .text.__sigtramp
                0x00000000       0x10 ../../external/gcc/LPC1768/libc.a(lib_a-signal.o)
 .text          0x00000000        0x0 ../../external/gcc/LPC1768/libc.a(lib_a-signalr.o)
 .data          0x00000000        0x0 ../../external/gcc/LPC1768/libc.a(lib_a-signalr.o)
 .bss           0x00000000        0x0 ../../external/gcc/LPC1768/libc.a(lib_a-signalr.o)
 .text          0x00000000        0x0 ../../external/gcc/LPC1768/libc.a(lib_a-sprintf.o)
 .data          0x00000000        0x0 ../../external/gcc/LPC1768/libc.a(lib_a-sprintf.o)
 .bss           0x00000000        0x0 ../../external/gcc/LPC1768/libc.a(lib_a-sprintf.o)
 .text._sprintf_r
                0x00000000       0x40 ../../external/gcc/LPC1768/libc.a(lib_a-sprintf.o)
 .text          0x00000000        0x0 ../../external/gcc/LPC1768/libc.a(lib_a-sscanf.o)
 .data          0x00000000        0x0 ../../external/gcc/LPC1768/libc.a(lib_a-sscanf.o)
 .bss           0x00000000        0x0 ../../external/gcc/LPC1768/libc.a(lib_a-sscanf.o)
 .text._sscanf_r
                0x00000000       0x54 ../../external/gcc/LPC1768/libc.a(lib_a-sscanf.o)
 .text          0x00000000        0x0 ../../external/gcc/LPC1768/libc.a(lib_a-stdio.o)
 .data          0x00000000        0x0 ../../external/gcc/LPC1768/libc.a(lib_a-stdio.o)
 .bss           0x00000000        0x0 ../../external/gcc/LPC1768/libc.a(lib_a-stdio.o)
 .text          0x00000000        0x0 ../../external/gcc/LPC1768/libc.a(lib_a-strcmp.o)
 .data          0x00000000        0x0 ../../external/gcc/LPC1768/libc.a(lib_a-strcmp.o)
 .bss           0x00000000        0x0 ../../external/gcc/LPC1768/libc.a(lib_a-strcmp.o)
 .text          0x00000000        0x0 ../../external/gcc/LPC1768/libc.a(lib_a-strcpy.o)
 .data          0x00000000        0x0 ../../external/gcc/LPC1768/libc.a(lib_a-strcpy.o)
 .bss           0x00000000        0x0 ../../external/gcc/LPC1768/libc.a(lib_a-strcpy.o)
 .text          0x00000000        0x0 ../../external/gcc/LPC1768/libc.a(lib_a-strlen.o)
 .data          0x00000000        0x0 ../../external/gcc/LPC1768/libc.a(lib_a-strlen.o)
 .bss           0x00000000        0x0 ../../external/gcc/LPC1768/libc.a(lib_a-strlen.o)
 .text          0x00000000        0x0 ../../external/gcc/LPC1768/libc.a(lib_a-strncmp.o)
 .data          0x00000000        0x0 ../../external/gcc/LPC1768/libc.a(lib_a-strncmp.o)
 .bss           0x00000000        0x0 ../../external/gcc/LPC1768/libc.a(lib_a-strncmp.o)
 .text          0x00000000        0x0 ../../external/gcc/LPC1768/libc.a(lib_a-strncpy.o)
 .data          0x00000000        0x0 ../../external/gcc/LPC1768/libc.a(lib_a-strncpy.o)
 .bss           0x00000000        0x0 ../../external/gcc/LPC1768/libc.a(lib_a-strncpy.o)
 .text          0x00000000        0x0 ../../external/gcc/LPC1768/libc.a(lib_a-strtol.o)
 .data          0x00000000        0x0 ../../external/gcc/LPC1768/libc.a(lib_a-strtol.o)
 .bss           0x00000000        0x0 ../../external/gcc/LPC1768/libc.a(lib_a-strtol.o)
 .text          0x00000000        0x0 ../../external/gcc/LPC1768/libc.a(lib_a-svfprintf.o)
 .data          0x00000000        0x0 ../../external/gcc/LPC1768/libc.a(lib_a-svfprintf.o)
 .bss           0x00000000        0x0 ../../external/gcc/LPC1768/libc.a(lib_a-svfprintf.o)
 .text          0x00000000        0x0 ../../external/gcc/LPC1768/libc.a(lib_a-svfscanf.o)
 .data          0x00000000        0x0 ../../external/gcc/LPC1768/libc.a(lib_a-svfscanf.o)
 .bss           0x00000000        0x0 ../../external/gcc/LPC1768/libc.a(lib_a-svfscanf.o)
 .text          0x00000000        0x0 ../../external/gcc/LPC1768/libc.a(lib_a-syswrite.o)
 .data          0x00000000        0x0 ../../external/gcc/LPC1768/libc.a(lib_a-syswrite.o)
 .bss           0x00000000        0x0 ../../external/gcc/LPC1768/libc.a(lib_a-syswrite.o)
 .text          0x00000000        0x0 ../../external/gcc/LPC1768/libc.a(lib_a-vfprintf.o)
 .data          0x00000000        0x0 ../../external/gcc/LPC1768/libc.a(lib_a-vfprintf.o)
 .bss           0x00000000        0x0 ../../external/gcc/LPC1768/libc.a(lib_a-vfprintf.o)
 .text.vfprintf
                0x00000000       0x1c ../../external/gcc/LPC1768/libc.a(lib_a-vfprintf.o)
 .text          0x00000000        0x0 ../../external/gcc/LPC1768/libc.a(lib_a-vfscanf.o)
 .data          0x00000000        0x0 ../../external/gcc/LPC1768/libc.a(lib_a-vfscanf.o)
 .bss           0x00000000        0x0 ../../external/gcc/LPC1768/libc.a(lib_a-vfscanf.o)
 .text._vfscanf_r
                0x00000000       0x50 ../../external/gcc/LPC1768/libc.a(lib_a-vfscanf.o)
 .text.__svfscanf
                0x00000000       0x1c ../../external/gcc/LPC1768/libc.a(lib_a-vfscanf.o)
 .text.vfscanf  0x00000000       0x5c ../../external/gcc/LPC1768/libc.a(lib_a-vfscanf.o)
 .text          0x00000000        0x0 ../../external/gcc/LPC1768/libc.a(lib_a-writer.o)
 .data          0x00000000        0x0 ../../external/gcc/LPC1768/libc.a(lib_a-writer.o)
 .bss           0x00000000        0x0 ../../external/gcc/LPC1768/libc.a(lib_a-writer.o)
 .text          0x00000000        0x0 ../../external/gcc/LPC1768/libc.a(lib_a-wsetup.o)
 .data          0x00000000        0x0 ../../external/gcc/LPC1768/libc.a(lib_a-wsetup.o)
 .bss           0x00000000        0x0 ../../external/gcc/LPC1768/libc.a(lib_a-wsetup.o)
 .text          0x00000000        0x0 ../../external/gcc/LPC1768/libc.a(lib_a-__atexit.o)
 .data          0x00000000        0x0 ../../external/gcc/LPC1768/libc.a(lib_a-__atexit.o)
 .bss           0x00000000        0x0 ../../external/gcc/LPC1768/libc.a(lib_a-__atexit.o)
 .text          0x00000000        0x0 ../../external/gcc/LPC1768/libc.a(lib_a-assert.o)
 .data          0x00000000        0x0 ../../external/gcc/LPC1768/libc.a(lib_a-assert.o)
 .bss           0x00000000        0x0 ../../external/gcc/LPC1768/libc.a(lib_a-assert.o)
 .text          0x00000000        0x0 ../../external/gcc/LPC1768/libc.a(lib_a-closer.o)
 .data          0x00000000        0x0 ../../external/gcc/LPC1768/libc.a(lib_a-closer.o)
 .bss           0x00000000        0x0 ../../external/gcc/LPC1768/libc.a(lib_a-closer.o)
 .text          0x00000000        0x0 ../../external/gcc/LPC1768/libc.a(lib_a-ctype_.o)
 .data          0x00000000        0x0 ../../external/gcc/LPC1768/libc.a(lib_a-ctype_.o)
 .bss           0x00000000        0x0 ../../external/gcc/LPC1768/libc.a(lib_a-ctype_.o)
 .text          0x00000000        0x0 ../../external/gcc/LPC1768/libc.a(lib_a-dtoa.o)
 .data          0x00000000        0x0 ../../external/gcc/LPC1768/libc.a(lib_a-dtoa.o)
 .bss           0x00000000        0x0 ../../external/gcc/LPC1768/libc.a(lib_a-dtoa.o)
 .text          0x00000000        0x0 ../../external/gcc/LPC1768/libc.a(lib_a-fiprintf.o)
 .data          0x00000000        0x0 ../../external/gcc/LPC1768/libc.a(lib_a-fiprintf.o)
 .bss           0x00000000        0x0 ../../external/gcc/LPC1768/libc.a(lib_a-fiprintf.o)
 .text._fiprintf_r
                0x00000000       0x18 ../../external/gcc/LPC1768/libc.a(lib_a-fiprintf.o)
 .text          0x00000000        0x0 ../../external/gcc/LPC1768/libc.a(lib_a-flags.o)
 .data          0x00000000        0x0 ../../external/gcc/LPC1768/libc.a(lib_a-flags.o)
 .bss           0x00000000        0x0 ../../external/gcc/LPC1768/libc.a(lib_a-flags.o)
 .text          0x00000000        0x0 ../../external/gcc/LPC1768/libc.a(lib_a-fread.o)
 .data          0x00000000        0x0 ../../external/gcc/LPC1768/libc.a(lib_a-fread.o)
 .bss           0x00000000        0x0 ../../external/gcc/LPC1768/libc.a(lib_a-fread.o)
 .text.fread    0x00000000       0x20 ../../external/gcc/LPC1768/libc.a(lib_a-fread.o)
 .text          0x00000000        0x0 ../../external/gcc/LPC1768/libc.a(lib_a-isattyr.o)
 .data          0x00000000        0x0 ../../external/gcc/LPC1768/libc.a(lib_a-isattyr.o)
 .bss           0x00000000        0x0 ../../external/gcc/LPC1768/libc.a(lib_a-isattyr.o)
 .text          0x00000000        0x0 ../../external/gcc/LPC1768/libc.a(lib_a-iswspace.o)
 .data          0x00000000        0x0 ../../external/gcc/LPC1768/libc.a(lib_a-iswspace.o)
 .bss           0x00000000        0x0 ../../external/gcc/LPC1768/libc.a(lib_a-iswspace.o)
 .text          0x00000000        0x0 ../../external/gcc/LPC1768/libc.a(lib_a-locale.o)
 .data          0x00000000        0x0 ../../external/gcc/LPC1768/libc.a(lib_a-locale.o)
 .bss           0x00000000        0x0 ../../external/gcc/LPC1768/libc.a(lib_a-locale.o)
 .text._setlocale_r
                0x00000000       0x44 ../../external/gcc/LPC1768/libc.a(lib_a-locale.o)
 .text.__locale_msgcharset
                0x00000000        0x8 ../../external/gcc/LPC1768/libc.a(lib_a-locale.o)
 .text.__locale_cjk_lang
                0x00000000        0x4 ../../external/gcc/LPC1768/libc.a(lib_a-locale.o)
 .text.setlocale
                0x00000000       0x14 ../../external/gcc/LPC1768/libc.a(lib_a-locale.o)
 .text.localeconv
                0x00000000        0x8 ../../external/gcc/LPC1768/libc.a(lib_a-locale.o)
 .data.lc_message_charset
                0x00000000       0x20 ../../external/gcc/LPC1768/libc.a(lib_a-locale.o)
 .bss._PathLocale
                0x00000000        0x4 ../../external/gcc/LPC1768/libc.a(lib_a-locale.o)
 .bss.__nlocale_changed
                0x00000000        0x4 ../../external/gcc/LPC1768/libc.a(lib_a-locale.o)
 .bss.__mlocale_changed
                0x00000000        0x4 ../../external/gcc/LPC1768/libc.a(lib_a-locale.o)
 .text          0x00000000        0x0 ../../external/gcc/LPC1768/libc.a(lib_a-lseekr.o)
 .data          0x00000000        0x0 ../../external/gcc/LPC1768/libc.a(lib_a-lseekr.o)
 .bss           0x00000000        0x0 ../../external/gcc/LPC1768/libc.a(lib_a-lseekr.o)
 .text          0x00000000        0x0 ../../external/gcc/LPC1768/libc.a(lib_a-mbrtowc.o)
 .data          0x00000000        0x0 ../../external/gcc/LPC1768/libc.a(lib_a-mbrtowc.o)
 .bss           0x00000000        0x0 ../../external/gcc/LPC1768/libc.a(lib_a-mbrtowc.o)
 .text.mbrtowc  0x00000000       0x20 ../../external/gcc/LPC1768/libc.a(lib_a-mbrtowc.o)
 .text          0x00000000        0x0 ../../external/gcc/LPC1768/libc.a(lib_a-mbtowc_r.o)
 .data          0x00000000        0x0 ../../external/gcc/LPC1768/libc.a(lib_a-mbtowc_r.o)
 .bss           0x00000000        0x0 ../../external/gcc/LPC1768/libc.a(lib_a-mbtowc_r.o)
 .text._mbtowc_r
                0x00000000       0x2c ../../external/gcc/LPC1768/libc.a(lib_a-mbtowc_r.o)
 .text          0x00000000        0x0 ../../external/gcc/LPC1768/libc.a(lib_a-mprec.o)
 .data          0x00000000        0x0 ../../external/gcc/LPC1768/libc.a(lib_a-mprec.o)
 .bss           0x00000000        0x0 ../../external/gcc/LPC1768/libc.a(lib_a-mprec.o)
 .text._mprec_log10
                0x00000000       0x34 ../../external/gcc/LPC1768/libc.a(lib_a-mprec.o)
 .rodata.__mprec_tinytens
                0x00000000       0x28 ../../external/gcc/LPC1768/libc.a(lib_a-mprec.o)
 .text          0x00000000        0x0 ../../external/gcc/LPC1768/libc.a(lib_a-readr.o)
 .data          0x00000000        0x0 ../../external/gcc/LPC1768/libc.a(lib_a-readr.o)
 .bss           0x00000000        0x0 ../../external/gcc/LPC1768/libc.a(lib_a-readr.o)
 .text          0x00000000        0x0 ../../external/gcc/LPC1768/libc.a(lib_a-s_fpclassify.o)
 .data          0x00000000        0x0 ../../external/gcc/LPC1768/libc.a(lib_a-s_fpclassify.o)
 .bss           0x00000000        0x0 ../../external/gcc/LPC1768/libc.a(lib_a-s_fpclassify.o)
 .text          0x00000000        0x0 ../../external/gcc/LPC1768/libc.a(lib_a-sccl.o)
 .data          0x00000000        0x0 ../../external/gcc/LPC1768/libc.a(lib_a-sccl.o)
 .bss           0x00000000        0x0 ../../external/gcc/LPC1768/libc.a(lib_a-sccl.o)
 .text          0x00000000        0x0 ../../external/gcc/LPC1768/libc.a(lib_a-sf_nan.o)
 .data          0x00000000        0x0 ../../external/gcc/LPC1768/libc.a(lib_a-sf_nan.o)
 .bss           0x00000000        0x0 ../../external/gcc/LPC1768/libc.a(lib_a-sf_nan.o)
 .text          0x00000000        0x0 ../../external/gcc/LPC1768/libc.a(lib_a-strtod.o)
 .data          0x00000000        0x0 ../../external/gcc/LPC1768/libc.a(lib_a-strtod.o)
 .bss           0x00000000        0x0 ../../external/gcc/LPC1768/libc.a(lib_a-strtod.o)
 .text.strtod   0x00000000       0x14 ../../external/gcc/LPC1768/libc.a(lib_a-strtod.o)
 .text.strtof   0x00000000       0xa8 ../../external/gcc/LPC1768/libc.a(lib_a-strtod.o)
 .text          0x00000000        0x0 ../../external/gcc/LPC1768/libc.a(lib_a-strtoll_r.o)
 .data          0x00000000        0x0 ../../external/gcc/LPC1768/libc.a(lib_a-strtoll_r.o)
 .bss           0x00000000        0x0 ../../external/gcc/LPC1768/libc.a(lib_a-strtoll_r.o)
 .text          0x00000000        0x0 ../../external/gcc/LPC1768/libc.a(lib_a-strtoul.o)
 .data          0x00000000        0x0 ../../external/gcc/LPC1768/libc.a(lib_a-strtoul.o)
 .bss           0x00000000        0x0 ../../external/gcc/LPC1768/libc.a(lib_a-strtoul.o)
 .text.strtoul  0x00000000       0x1c ../../external/gcc/LPC1768/libc.a(lib_a-strtoul.o)
 .text          0x00000000        0x0 ../../external/gcc/LPC1768/libc.a(lib_a-strtoull_r.o)
 .data          0x00000000        0x0 ../../external/gcc/LPC1768/libc.a(lib_a-strtoull_r.o)
 .bss           0x00000000        0x0 ../../external/gcc/LPC1768/libc.a(lib_a-strtoull_r.o)
 .text          0x00000000        0x0 ../../external/gcc/LPC1768/libc.a(lib_a-svfiprintf.o)
 .data          0x00000000        0x0 ../../external/gcc/LPC1768/libc.a(lib_a-svfiprintf.o)
 .bss           0x00000000        0x0 ../../external/gcc/LPC1768/libc.a(lib_a-svfiprintf.o)
 .text._svfiprintf_r
                0x00000000      0x81c ../../external/gcc/LPC1768/libc.a(lib_a-svfiprintf.o)
 .rodata.zeroes.6543
                0x00000000       0x10 ../../external/gcc/LPC1768/libc.a(lib_a-svfiprintf.o)
 .rodata.str1.1
                0x00000000       0x22 ../../external/gcc/LPC1768/libc.a(lib_a-svfiprintf.o)
 .rodata.blanks.6542
                0x00000000       0x10 ../../external/gcc/LPC1768/libc.a(lib_a-svfiprintf.o)
 .text          0x00000000        0x0 ../../external/gcc/LPC1768/libc.a(lib_a-svfiscanf.o)
 .data          0x00000000        0x0 ../../external/gcc/LPC1768/libc.a(lib_a-svfiscanf.o)
 .bss           0x00000000        0x0 ../../external/gcc/LPC1768/libc.a(lib_a-svfiscanf.o)
 .text.__ssvfiscanf_r
                0x00000000      0x80c ../../external/gcc/LPC1768/libc.a(lib_a-svfiscanf.o)
 .rodata.basefix.6017
                0x00000000       0x22 ../../external/gcc/LPC1768/libc.a(lib_a-svfiscanf.o)
 .text          0x00000000        0x0 ../../external/gcc/LPC1768/libc.a(lib_a-ungetc.o)
 .data          0x00000000        0x0 ../../external/gcc/LPC1768/libc.a(lib_a-ungetc.o)
 .bss           0x00000000        0x0 ../../external/gcc/LPC1768/libc.a(lib_a-ungetc.o)
 .text.ungetc   0x00000000       0x14 ../../external/gcc/LPC1768/libc.a(lib_a-ungetc.o)
 .text          0x00000000        0x0 ../../external/gcc/LPC1768/libc.a(lib_a-vfiprintf.o)
 .data          0x00000000        0x0 ../../external/gcc/LPC1768/libc.a(lib_a-vfiprintf.o)
 .bss           0x00000000        0x0 ../../external/gcc/LPC1768/libc.a(lib_a-vfiprintf.o)
 .text.vfiprintf
                0x00000000       0x1c ../../external/gcc/LPC1768/libc.a(lib_a-vfiprintf.o)
 .text          0x00000000        0x0 ../../external/gcc/LPC1768/libc.a(lib_a-callocr.o)
 .data          0x00000000        0x0 ../../external/gcc/LPC1768/libc.a(lib_a-callocr.o)
 .bss           0x00000000        0x0 ../../external/gcc/LPC1768/libc.a(lib_a-callocr.o)
 .text          0x00000000        0x0 ../../external/gcc/LPC1768/libc.a(lib_a-fputwc.o)
 .data          0x00000000        0x0 ../../external/gcc/LPC1768/libc.a(lib_a-fputwc.o)
 .bss           0x00000000        0x0 ../../external/gcc/LPC1768/libc.a(lib_a-fputwc.o)
 .text.fputwc   0x00000000       0x54 ../../external/gcc/LPC1768/libc.a(lib_a-fputwc.o)
 .text          0x00000000        0x0 ../../external/gcc/LPC1768/libc.a(lib_a-gdtoa-gethex.o)
 .data          0x00000000        0x0 ../../external/gcc/LPC1768/libc.a(lib_a-gdtoa-gethex.o)
 .bss           0x00000000        0x0 ../../external/gcc/LPC1768/libc.a(lib_a-gdtoa-gethex.o)
 .text          0x00000000        0x0 ../../external/gcc/LPC1768/libc.a(lib_a-gdtoa-hexnan.o)
 .data          0x00000000        0x0 ../../external/gcc/LPC1768/libc.a(lib_a-gdtoa-hexnan.o)
 .bss           0x00000000        0x0 ../../external/gcc/LPC1768/libc.a(lib_a-gdtoa-hexnan.o)
 .text          0x00000000        0x0 ../../external/gcc/LPC1768/libc.a(lib_a-wbuf.o)
 .data          0x00000000        0x0 ../../external/gcc/LPC1768/libc.a(lib_a-wbuf.o)
 .bss           0x00000000        0x0 ../../external/gcc/LPC1768/libc.a(lib_a-wbuf.o)
 .text.__swbuf  0x00000000       0x14 ../../external/gcc/LPC1768/libc.a(lib_a-wbuf.o)
 .text          0x00000000        0x0 ../../external/gcc/LPC1768/libc.a(lib_a-wcrtomb.o)
 .data          0x00000000        0x0 ../../external/gcc/LPC1768/libc.a(lib_a-wcrtomb.o)
 .bss           0x00000000        0x0 ../../external/gcc/LPC1768/libc.a(lib_a-wcrtomb.o)
 .text.wcrtomb  0x00000000       0x1c ../../external/gcc/LPC1768/libc.a(lib_a-wcrtomb.o)
 .text          0x00000000        0x0 ../../external/gcc/LPC1768/libc.a(lib_a-wctomb_r.o)
 .data          0x00000000        0x0 ../../external/gcc/LPC1768/libc.a(lib_a-wctomb_r.o)
 .bss           0x00000000        0x0 ../../external/gcc/LPC1768/libc.a(lib_a-wctomb_r.o)
 .text._wctomb_r
                0x00000000       0x2c ../../external/gcc/LPC1768/libc.a(lib_a-wctomb_r.o)
 .data          0x00000000        0x0 /media/6aafac43-5450-453e-a142-f588400933c0/Sandbox/arm/bin/../lib/gcc/arm-none-eabi/4.5.2/thumb2/libgcc.a(_udivsi3.o)
 .bss           0x00000000        0x0 /media/6aafac43-5450-453e-a142-f588400933c0/Sandbox/arm/bin/../lib/gcc/arm-none-eabi/4.5.2/thumb2/libgcc.a(_udivsi3.o)
 .data          0x00000000        0x0 /media/6aafac43-5450-453e-a142-f588400933c0/Sandbox/arm/bin/../lib/gcc/arm-none-eabi/4.5.2/thumb2/libgcc.a(_divsi3.o)
 .bss           0x00000000        0x0 /media/6aafac43-5450-453e-a142-f588400933c0/Sandbox/arm/bin/../lib/gcc/arm-none-eabi/4.5.2/thumb2/libgcc.a(_divsi3.o)
 .data          0x00000000        0x0 /media/6aafac43-5450-453e-a142-f588400933c0/Sandbox/arm/bin/../lib/gcc/arm-none-eabi/4.5.2/thumb2/libgcc.a(_dvmd_tls.o)
 .bss           0x00000000        0x0 /media/6aafac43-5450-453e-a142-f588400933c0/Sandbox/arm/bin/../lib/gcc/arm-none-eabi/4.5.2/thumb2/libgcc.a(_dvmd_tls.o)
 .data          0x00000000        0x0 /media/6aafac43-5450-453e-a142-f588400933c0/Sandbox/arm/bin/../lib/gcc/arm-none-eabi/4.5.2/thumb2/libgcc.a(_arm_cmpdf2.o)
 .bss           0x00000000        0x0 /media/6aafac43-5450-453e-a142-f588400933c0/Sandbox/arm/bin/../lib/gcc/arm-none-eabi/4.5.2/thumb2/libgcc.a(_arm_cmpdf2.o)
 .data          0x00000000        0x0 /media/6aafac43-5450-453e-a142-f588400933c0/Sandbox/arm/bin/../lib/gcc/arm-none-eabi/4.5.2/thumb2/libgcc.a(_arm_fixunsdfsi.o)
 .bss           0x00000000        0x0 /media/6aafac43-5450-453e-a142-f588400933c0/Sandbox/arm/bin/../lib/gcc/arm-none-eabi/4.5.2/thumb2/libgcc.a(_arm_fixunsdfsi.o)
 .data          0x00000000        0x0 /media/6aafac43-5450-453e-a142-f588400933c0/Sandbox/arm/bin/../lib/gcc/arm-none-eabi/4.5.2/thumb2/libgcc.a(_aeabi_uldivmod.o)
 .bss           0x00000000        0x0 /media/6aafac43-5450-453e-a142-f588400933c0/Sandbox/arm/bin/../lib/gcc/arm-none-eabi/4.5.2/thumb2/libgcc.a(_aeabi_uldivmod.o)
 .data          0x00000000        0x0 /media/6aafac43-5450-453e-a142-f588400933c0/Sandbox/arm/bin/../lib/gcc/arm-none-eabi/4.5.2/thumb2/libgcc.a(bpabi.o)
 .bss           0x00000000        0x0 /media/6aafac43-5450-453e-a142-f588400933c0/Sandbox/arm/bin/../lib/gcc/arm-none-eabi/4.5.2/thumb2/libgcc.a(bpabi.o)
 .data          0x00000000        0x0 /media/6aafac43-5450-453e-a142-f588400933c0/Sandbox/arm/bin/../lib/gcc/arm-none-eabi/4.5.2/thumb2/libgcc.a(_divdi3.o)
 .bss           0x00000000        0x0 /media/6aafac43-5450-453e-a142-f588400933c0/Sandbox/arm/bin/../lib/gcc/arm-none-eabi/4.5.2/thumb2/libgcc.a(_divdi3.o)
 .ARM.extab     0x00000000        0x0 /media/6aafac43-5450-453e-a142-f588400933c0/Sandbox/arm/bin/../lib/gcc/arm-none-eabi/4.5.2/thumb2/libgcc.a(_divdi3.o)
 .data          0x00000000        0x0 /media/6aafac43-5450-453e-a142-f588400933c0/Sandbox/arm/bin/../lib/gcc/arm-none-eabi/4.5.2/thumb2/libgcc.a(_udivdi3.o)
 .bss           0x00000000        0x0 /media/6aafac43-5450-453e-a142-f588400933c0/Sandbox/arm/bin/../lib/gcc/arm-none-eabi/4.5.2/thumb2/libgcc.a(_udivdi3.o)
 .ARM.extab     0x00000000        0x0 /media/6aafac43-5450-453e-a142-f588400933c0/Sandbox/arm/bin/../lib/gcc/arm-none-eabi/4.5.2/thumb2/libgcc.a(_udivdi3.o)
 .text          0x00000000        0x0 /media/6aafac43-5450-453e-a142-f588400933c0/Sandbox/arm/bin/../lib/gcc/arm-none-eabi/4.5.2/thumb2/crtend.o
 .data          0x00000000        0x0 /media/6aafac43-5450-453e-a142-f588400933c0/Sandbox/arm/bin/../lib/gcc/arm-none-eabi/4.5.2/thumb2/crtend.o
 .bss           0x00000000        0x0 /media/6aafac43-5450-453e-a142-f588400933c0/Sandbox/arm/bin/../lib/gcc/arm-none-eabi/4.5.2/thumb2/crtend.o
 .jcr           0x00000000        0x4 /media/6aafac43-5450-453e-a142-f588400933c0/Sandbox/arm/bin/../lib/gcc/arm-none-eabi/4.5.2/thumb2/crtend.o
 .text          0x00000000        0x0 /media/6aafac43-5450-453e-a142-f588400933c0/Sandbox/arm/bin/../lib/gcc/arm-none-eabi/4.5.2/thumb2/crtn.o
 .data          0x00000000        0x0 /media/6aafac43-5450-453e-a142-f588400933c0/Sandbox/arm/bin/../lib/gcc/arm-none-eabi/4.5.2/thumb2/crtn.o
 .bss           0x00000000        0x0 /media/6aafac43-5450-453e-a142-f588400933c0/Sandbox/arm/bin/../lib/gcc/arm-none-eabi/4.5.2/thumb2/crtn.o

Memory Configuration

Name             Origin             Length             Attributes
IROM             0x00000000         0x00080000         xr
IRAM0            0x10000000         0x00008000         xrw
IRAM1            0x2007c000         0x00004000         xrw
IRAM2            0x20080000         0x00004000         xrw
*default*        0x00000000         0xffffffff

Linker script and memory map

LOAD /media/6aafac43-5450-453e-a142-f588400933c0/Sandbox/arm/bin/../lib/gcc/arm-none-eabi/4.5.2/thumb2/crti.o
LOAD /media/6aafac43-5450-453e-a142-f588400933c0/Sandbox/arm/bin/../lib/gcc/arm-none-eabi/4.5.2/thumb2/crtbegin.o
LOAD ../../src/gcc4mbed.o
LOAD ../../src/syscalls.o
LOAD ./main.o
LOAD ./SDFileSystem/SDFileSystem.o
LOAD ../../external/mbed/LPC1768/mbed.ar
LOAD ../../external/mbed/LPC1768/capi.ar
LOAD ../../external/FATFileSystem/LPC1768/FATFileSystem.ar
LOAD ../../external/gcc/LPC1768/libstdc++.a
LOAD ../../external/gcc/LPC1768/libm.a
START GROUP
LOAD /media/6aafac43-5450-453e-a142-f588400933c0/Sandbox/arm/bin/../lib/gcc/arm-none-eabi/4.5.2/thumb2/libgcc.a
LOAD ../../external/gcc/LPC1768/libc.a
END GROUP
LOAD /media/6aafac43-5450-453e-a142-f588400933c0/Sandbox/arm/bin/../lib/gcc/arm-none-eabi/4.5.2/thumb2/crtend.o
LOAD /media/6aafac43-5450-453e-a142-f588400933c0/Sandbox/arm/bin/../lib/gcc/arm-none-eabi/4.5.2/thumb2/crtn.o

.text           0x00000000    0x10d34
 *(RESET)
 RESET          0x00000000       0xc4 ../../external/mbed/LPC1768/capi.ar(startup_LPC17xx.LPC1768.o)
                0x00000000                __Vectors
 *(.mbed_init)
 .mbed_init     0x000000c4      0x108 ../../src/gcc4mbed.o
                0x000000c4                __main
 *(i.SystemInit)
 i.SystemInit   0x000001cc       0x78 ../../external/mbed/LPC1768/capi.ar(system_LPC17xx.LPC1768.o)
                0x000001cc                SystemInit
                0x000002fc                . = 0x2fc
 *fill*         0x00000244       0xb8 00
 *(.crp)
                0x00000300                . = 0x300
 *fill*         0x000002fc        0x4 00
 *(.text .text.*)
 .text          0x00000300       0x30 /media/6aafac43-5450-453e-a142-f588400933c0/Sandbox/arm/bin/../lib/gcc/arm-none-eabi/4.5.2/thumb2/crtbegin.o
 .text.__GCC4MBEDOpenStandardHandles
                0x00000330       0x34 ../../src/syscalls.o
                0x00000330                __GCC4MBEDOpenStandardHandles
 .text._kill    0x00000364       0x10 ../../src/syscalls.o
                0x00000364                _kill
 .text._exit    0x00000374        0x8 ../../src/syscalls.o
                0x00000374                _exit
 .text._getpid  0x0000037c        0x4 ../../src/syscalls.o
                0x0000037c                _getpid
 .text._sbrk    0x00000380       0x30 ../../src/syscalls.o
                0x00000380                _sbrk
 .text._open    0x000003b0       0x20 ../../src/syscalls.o
                0x000003b0                _open
 .text._close   0x000003d0        0x4 ../../src/syscalls.o
                0x000003d0                _close
 .text._isatty  0x000003d4        0xc ../../src/syscalls.o
                0x000003d4                _isatty
 .text._lseek   0x000003e0      0x120 ../../src/syscalls.o
                0x000003e0                _lseek
 .text._read    0x00000500       0x34 ../../src/syscalls.o
                0x00000500                _read
 .text._write   0x00000534       0x38 ../../src/syscalls.o
                0x00000534                _write
 .text._fstat   0x0000056c        0xc ../../src/syscalls.o
                0x0000056c                _fstat
 .text._ZN12SDFileSystemD2Ev
                0x00000578       0x3c ./main.o
                0x00000578                _ZN12SDFileSystemD1Ev
                0x00000578                _ZN12SDFileSystemD2Ev
 .text.main     0x000005b4      0x214 ./main.o
                0x000005b4                main
 .text._ZN12SDFileSystemD0Ev
                0x000007c8       0x40 ./main.o
                0x000007c8                _ZN12SDFileSystemD0Ev
 .text._GLOBAL__I_sd
                0x00000808       0x4c ./main.o
 .text._ZN4mbed14FileSystemLike6renameEPKcS2_
                0x00000854        0x8 ./SDFileSystem/SDFileSystem.o
                0x00000854                _ZN4mbed14FileSystemLike6renameEPKcS2_
 .text._ZN12SDFileSystem11disk_statusEv
                0x0000085c        0x4 ./SDFileSystem/SDFileSystem.o
                0x0000085c                _ZN12SDFileSystem11disk_statusEv
 .text._ZN12SDFileSystem9disk_syncEv
                0x00000860        0x4 ./SDFileSystem/SDFileSystem.o
                0x00000860                _ZN12SDFileSystem9disk_syncEv
 .text._ZN12SDFileSystem12disk_sectorsEv
                0x00000864        0x8 ./SDFileSystem/SDFileSystem.o
                0x00000864                _ZN12SDFileSystem12disk_sectorsEv
 .text._ZL8ext_bitsPcii
                0x0000086c       0x98 ./SDFileSystem/SDFileSystem.o
 .text._ZN12SDFileSystemC2E7PinNameS0_S0_S0_PKc
                0x00000904       0x4c ./SDFileSystem/SDFileSystem.o
                0x00000904                _ZN12SDFileSystemC2E7PinNameS0_S0_S0_PKc
                0x00000904                _ZN12SDFileSystemC1E7PinNameS0_S0_S0_PKc
 .text._ZN12SDFileSystem4_cmdEii
                0x00000950       0xa4 ./SDFileSystem/SDFileSystem.o
                0x00000950                _ZN12SDFileSystem4_cmdEii
 .text._ZN12SDFileSystem18initialise_card_v1Ev
                0x000009f4       0x60 ./SDFileSystem/SDFileSystem.o
                0x000009f4                _ZN12SDFileSystem18initialise_card_v1Ev
 .text._ZN12SDFileSystem5_cmdxEii
                0x00000a54       0x94 ./SDFileSystem/SDFileSystem.o
                0x00000a54                _ZN12SDFileSystem5_cmdxEii
 .text._ZN12SDFileSystem6_cmd58Ev
                0x00000ae8       0xc0 ./SDFileSystem/SDFileSystem.o
                0x00000ae8                _ZN12SDFileSystem6_cmd58Ev
 .text._ZN12SDFileSystem18initialise_card_v2Ev
                0x00000ba8       0x64 ./SDFileSystem/SDFileSystem.o
                0x00000ba8                _ZN12SDFileSystem18initialise_card_v2Ev
 .text._ZN12SDFileSystem5_cmd8Ev
                0x00000c0c       0xdc ./SDFileSystem/SDFileSystem.o
                0x00000c0c                _ZN12SDFileSystem5_cmd8Ev
 .text._ZN12SDFileSystem15initialise_cardEv
                0x00000ce8      0x104 ./SDFileSystem/SDFileSystem.o
                0x00000ce8                _ZN12SDFileSystem15initialise_cardEv
 .text._ZN12SDFileSystem5_readEPci
                0x00000dec       0x9c ./SDFileSystem/SDFileSystem.o
                0x00000dec                _ZN12SDFileSystem5_readEPci
 .text._ZN12SDFileSystem9disk_readEPci
                0x00000e88       0x28 ./SDFileSystem/SDFileSystem.o
                0x00000e88                _ZN12SDFileSystem9disk_readEPci
 .text._ZN12SDFileSystem6_writeEPKci
                0x00000eb0       0xc8 ./SDFileSystem/SDFileSystem.o
                0x00000eb0                _ZN12SDFileSystem6_writeEPKci
 .text._ZN12SDFileSystem10disk_writeEPKci
                0x00000f78       0x28 ./SDFileSystem/SDFileSystem.o
                0x00000f78                _ZN12SDFileSystem10disk_writeEPKci
 .text._ZN12SDFileSystem11_sd_sectorsEv
                0x00000fa0       0xcc ./SDFileSystem/SDFileSystem.o
                0x00000fa0                _ZN12SDFileSystem11_sd_sectorsEv
 .text._ZN12SDFileSystem15disk_initializeEv
                0x0000106c       0x50 ./SDFileSystem/SDFileSystem.o
                0x0000106c                _ZN12SDFileSystem15disk_initializeEv
 .text          0x000010bc       0x24 ../../external/mbed/LPC1768/capi.ar(startup_LPC17xx.LPC1768.o)
                0x000010bc                Reset_Handler
                0x000010c4                NMI_Handler
                0x000010c6                HardFault_Handler
                0x000010c8                MemManage_Handler
                0x000010ca                BusFault_Handler
                0x000010cc                UsageFault_Handler
                0x000010ce                SVC_Handler
                0x000010d0                DebugMon_Handler
                0x000010d2                PendSV_Handler
                0x000010d4                SysTick_Handler
                0x000010d6                TIMER2_IRQHandler
                0x000010d6                RIT_IRQHandler
                0x000010d6                I2C0_IRQHandler
                0x000010d6                PWM1_IRQHandler
                0x000010d6                I2C1_IRQHandler
                0x000010d6                EINT2_IRQHandler
                0x000010d6                UART1_IRQHandler
                0x000010d6                EINT3_IRQHandler
                0x000010d6                TIMER3_IRQHandler
                0x000010d6                UART0_IRQHandler
                0x000010d6                PLL0_IRQHandler
                0x000010d6                CAN_IRQHandler
                0x000010d6                PLL1_IRQHandler
                0x000010d6                SSP0_IRQHandler
                0x000010d6                I2S_IRQHandler
                0x000010d6                I2C2_IRQHandler
                0x000010d6                RTC_IRQHandler
                0x000010d6                TIMER0_IRQHandler
                0x000010d6                SPI_IRQHandler
                0x000010d6                EINT1_IRQHandler
                0x000010d6                TIMER1_IRQHandler
                0x000010d6                UART2_IRQHandler
                0x000010d6                ADC_IRQHandler
                0x000010d6                SSP1_IRQHandler
                0x000010d6                USB_IRQHandler
                0x000010d6                BOD_IRQHandler
                0x000010d6                WDT_IRQHandler
                0x000010d6                QEI_IRQHandler
                0x000010d6                EINT0_IRQHandler
                0x000010d6                DMA_IRQHandler
                0x000010d6                UART3_IRQHandler
                0x000010d6                MCPWM_IRQHandler
                0x000010d6                ENET_IRQHandler
 .text.__aeabi_atexit
                0x000010e0        0xa ../../external/gcc/LPC1768/libstdc++.a(atexit_arm.o)
                0x000010e0                __aeabi_atexit
 .text._ZNK10__cxxabiv117__class_type_info20__do_find_public_srcEiPKvPKS0_S2_
                0x000010ea        0xc ../../external/gcc/LPC1768/libstdc++.a(class_type_info.o)
                0x000010ea                _ZNK10__cxxabiv117__class_type_info20__do_find_public_srcEiPKvPKS0_S2_
 .text._ZNK10__cxxabiv117__class_type_info11__do_upcastEPKS0_PKvRNS0_15__upcast_resultE
                0x000010f6       0x1a ../../external/gcc/LPC1768/libstdc++.a(class_type_info.o)
                0x000010f6                _ZNK10__cxxabiv117__class_type_info11__do_upcastEPKS0_PKvRNS0_15__upcast_resultE
 .text._ZNK10__cxxabiv117__class_type_info12__do_dyncastEiNS0_10__sub_kindEPKS0_PKvS3_S5_RNS0_16__dyncast_resultE
                0x00001110       0x3c ../../external/gcc/LPC1768/libstdc++.a(class_type_info.o)
                0x00001110                _ZNK10__cxxabiv117__class_type_info12__do_dyncastEiNS0_10__sub_kindEPKS0_PKvS3_S5_RNS0_16__dyncast_resultE
 .text._ZNK10__cxxabiv117__class_type_info10__do_catchEPKSt9type_infoPPvj
                0x0000114c       0x26 ../../external/gcc/LPC1768/libstdc++.a(class_type_info.o)
                0x0000114c                _ZNK10__cxxabiv117__class_type_info10__do_catchEPKSt9type_infoPPvj
 *fill*         0x00001172        0x2 00
 .text._ZN10__cxxabiv117__class_type_infoD2Ev
                0x00001174       0x14 ../../external/gcc/LPC1768/libstdc++.a(class_type_info.o)
                0x00001174                _ZN10__cxxabiv117__class_type_infoD1Ev
                0x00001174                _ZN10__cxxabiv117__class_type_infoD2Ev
 .text._ZN10__cxxabiv117__class_type_infoD0Ev
                0x00001188       0x12 ../../external/gcc/LPC1768/libstdc++.a(class_type_info.o)
                0x00001188                _ZN10__cxxabiv117__class_type_infoD0Ev
 .text._ZN10__cxxabiv117__class_type_info15__upcast_resultC2Ei
                0x0000119a        0xc ../../external/gcc/LPC1768/libstdc++.a(class_type_info.o)
                0x0000119a                _ZN10__cxxabiv117__class_type_info15__upcast_resultC2Ei
                0x0000119a                _ZN10__cxxabiv117__class_type_info15__upcast_resultC1Ei
 .text._ZNK10__cxxabiv117__class_type_info11__do_upcastEPKS0_PPv
                0x000011a6       0x3a ../../external/gcc/LPC1768/libstdc++.a(class_type_info.o)
                0x000011a6                _ZNK10__cxxabiv117__class_type_info11__do_upcastEPKS0_PPv
 .text._ZdlPv   0x000011e0        0x8 ../../external/gcc/LPC1768/libstdc++.a(del_op.o)
                0x000011e0                _ZdlPv
 .text._ZdaPv   0x000011e8        0x4 ../../external/gcc/LPC1768/libstdc++.a(del_opv.o)
                0x000011e8                _ZdaPv
 .text._ZN10__cxxabiv112_GLOBAL__N_118contained_public_pENS_17__class_type_info10__sub_kindE
                0x000011ec       0x10 ../../external/gcc/LPC1768/libstdc++.a(dyncast.o)
 .text._ZN10__cxxabiv112_GLOBAL__N_114adjust_pointerIvEEPKT_PKvi
                0x000011fc        0x4 ../../external/gcc/LPC1768/libstdc++.a(dyncast.o)
 .text._ZN10__cxxabiv117__class_type_info16__dyncast_resultC2Ei
                0x00001200        0xe ../../external/gcc/LPC1768/libstdc++.a(dyncast.o)
                0x00001200                _ZN10__cxxabiv117__class_type_info16__dyncast_resultC2Ei
                0x00001200                _ZN10__cxxabiv117__class_type_info16__dyncast_resultC1Ei
 .text._ZNK10__cxxabiv117__class_type_info17__find_public_srcEiPKvPKS0_S2_
                0x0000120e       0x2c ../../external/gcc/LPC1768/libstdc++.a(dyncast.o)
                0x0000120e                _ZNK10__cxxabiv117__class_type_info17__find_public_srcEiPKvPKS0_S2_
 .text.__dynamic_cast
                0x0000123a       0xa4 ../../external/gcc/LPC1768/libstdc++.a(dyncast.o)
                0x0000123a                __dynamic_cast
 *fill*         0x000012de        0x2 00
 .text._Znwj    0x000012e0       0x28 ../../external/gcc/LPC1768/libstdc++.a(new_op.o)
                0x000012e0                _Znwj
 .text._Znaj    0x00001308        0x4 ../../external/gcc/LPC1768/libstdc++.a(new_opv.o)
                0x00001308                _Znaj
 .text.__cxa_pure_virtual
                0x0000130c       0x14 ../../external/gcc/LPC1768/libstdc++.a(pure.o)
                0x0000130c                __cxa_pure_virtual
 .text._ZNK10__cxxabiv120__si_class_type_info11__do_upcastEPKNS_17__class_type_infoEPKvRNS1_15__upcast_resultE
                0x00001320       0x24 ../../external/gcc/LPC1768/libstdc++.a(si_class_type_info.o)
                0x00001320                _ZNK10__cxxabiv120__si_class_type_info11__do_upcastEPKNS_17__class_type_infoEPKvRNS1_15__upcast_resultE
 .text._ZNK10__cxxabiv120__si_class_type_info12__do_dyncastEiNS_17__class_type_info10__sub_kindEPKS1_PKvS4_S6_RNS1_16__dyncast_resultE
                0x00001344       0x90 ../../external/gcc/LPC1768/libstdc++.a(si_class_type_info.o)
                0x00001344                _ZNK10__cxxabiv120__si_class_type_info12__do_dyncastEiNS_17__class_type_info10__sub_kindEPKS1_PKvS4_S6_RNS1_16__dyncast_resultE
 .text._ZNK10__cxxabiv120__si_class_type_info20__do_find_public_srcEiPKvPKNS_17__class_type_infoES2_
                0x000013d4       0x36 ../../external/gcc/LPC1768/libstdc++.a(si_class_type_info.o)
                0x000013d4                _ZNK10__cxxabiv120__si_class_type_info20__do_find_public_srcEiPKvPKNS_17__class_type_infoES2_
 *fill*         0x0000140a        0x2 00
 .text._ZN10__cxxabiv120__si_class_type_infoD2Ev
                0x0000140c       0x14 ../../external/gcc/LPC1768/libstdc++.a(si_class_type_info.o)
                0x0000140c                _ZN10__cxxabiv120__si_class_type_infoD2Ev
                0x0000140c                _ZN10__cxxabiv120__si_class_type_infoD1Ev
 .text._ZN10__cxxabiv120__si_class_type_infoD0Ev
                0x00001420       0x12 ../../external/gcc/LPC1768/libstdc++.a(si_class_type_info.o)
                0x00001420                _ZN10__cxxabiv120__si_class_type_infoD0Ev
 *fill*         0x00001432        0x2 00
 .text._ZNSt9type_infoD2Ev
                0x00001434        0xc ../../external/gcc/LPC1768/libstdc++.a(tinfo.o)
                0x00001434                _ZNSt9type_infoD1Ev
                0x00001434                _ZNSt9type_infoD2Ev
 .text._ZNKSt9type_info14__is_pointer_pEv
                0x00001440        0x4 ../../external/gcc/LPC1768/libstdc++.a(tinfo.o)
                0x00001440                _ZNKSt9type_info14__is_pointer_pEv
 .text._ZNKSt9type_info15__is_function_pEv
                0x00001444        0x4 ../../external/gcc/LPC1768/libstdc++.a(tinfo.o)
                0x00001444                _ZNKSt9type_info15__is_function_pEv
 .text._ZNKSt9type_info11__do_upcastEPKN10__cxxabiv117__class_type_infoEPPv
                0x00001448        0x4 ../../external/gcc/LPC1768/libstdc++.a(tinfo.o)
                0x00001448                _ZNKSt9type_info11__do_upcastEPKN10__cxxabiv117__class_type_infoEPPv
 .text._ZNSt9type_infoD0Ev
                0x0000144c       0x12 ../../external/gcc/LPC1768/libstdc++.a(tinfo.o)
                0x0000144c                _ZNSt9type_infoD0Ev
 .text._ZNKSt9type_info4nameEv
                0x0000145e        0xc ../../external/gcc/LPC1768/libstdc++.a(tinfo.o)
                0x0000145e                _ZNKSt9type_info4nameEv
 .text._ZNKSt9type_infoeqERKS_
                0x0000146a       0x34 ../../external/gcc/LPC1768/libstdc++.a(tinfo.o)
                0x0000146a                _ZNKSt9type_infoeqERKS_
 .text._ZNKSt9type_info10__do_catchEPKS_PPvj
                0x0000149e        0x4 ../../external/gcc/LPC1768/libstdc++.a(tinfo.o)
                0x0000149e                _ZNKSt9type_info10__do_catchEPKS_PPvj
 .text._ZN10__cxxabiv112_GLOBAL__N_111contained_pENS_17__class_type_info10__sub_kindE
                0x000014a2        0xa ../../external/gcc/LPC1768/libstdc++.a(vmi_class_type_info.o)
 .text._ZN10__cxxabiv112_GLOBAL__N_19virtual_pENS_17__class_type_info10__sub_kindE
                0x000014ac        0x6 ../../external/gcc/LPC1768/libstdc++.a(vmi_class_type_info.o)
 .text._ZN10__cxxabiv112_GLOBAL__N_114adjust_pointerIvEEPKT_PKvi
                0x000014b2        0x4 ../../external/gcc/LPC1768/libstdc++.a(vmi_class_type_info.o)
 .text._ZN10__cxxabiv112_GLOBAL__N_115convert_to_baseEPKvbi
                0x000014b6        0xc ../../external/gcc/LPC1768/libstdc++.a(vmi_class_type_info.o)
 *fill*         0x000014c2        0x2 00
 .text._ZN10__cxxabiv121__vmi_class_type_infoD2Ev
                0x000014c4       0x14 ../../external/gcc/LPC1768/libstdc++.a(vmi_class_type_info.o)
                0x000014c4                _ZN10__cxxabiv121__vmi_class_type_infoD1Ev
                0x000014c4                _ZN10__cxxabiv121__vmi_class_type_infoD2Ev
 .text._ZN10__cxxabiv121__vmi_class_type_infoD0Ev
                0x000014d8       0x12 ../../external/gcc/LPC1768/libstdc++.a(vmi_class_type_info.o)
                0x000014d8                _ZN10__cxxabiv121__vmi_class_type_infoD0Ev
 .text._ZNK10__cxxabiv122__base_class_type_info14__is_virtual_pEv
                0x000014ea        0x8 ../../external/gcc/LPC1768/libstdc++.a(vmi_class_type_info.o)
                0x000014ea                _ZNK10__cxxabiv122__base_class_type_info14__is_virtual_pEv
 .text._ZNK10__cxxabiv122__base_class_type_info13__is_public_pEv
                0x000014f2        0x8 ../../external/gcc/LPC1768/libstdc++.a(vmi_class_type_info.o)
                0x000014f2                _ZNK10__cxxabiv122__base_class_type_info13__is_public_pEv
 .text._ZNK10__cxxabiv122__base_class_type_info8__offsetEv
                0x000014fa        0x6 ../../external/gcc/LPC1768/libstdc++.a(vmi_class_type_info.o)
                0x000014fa                _ZNK10__cxxabiv122__base_class_type_info8__offsetEv
 .text._ZNK10__cxxabiv121__vmi_class_type_info20__do_find_public_srcEiPKvPKNS_17__class_type_infoES2_
                0x00001500       0x96 ../../external/gcc/LPC1768/libstdc++.a(vmi_class_type_info.o)
                0x00001500                _ZNK10__cxxabiv121__vmi_class_type_info20__do_find_public_srcEiPKvPKNS_17__class_type_infoES2_
 .text._ZNK10__cxxabiv121__vmi_class_type_info11__do_upcastEPKNS_17__class_type_infoEPKvRNS1_15__upcast_resultE
                0x00001596      0x148 ../../external/gcc/LPC1768/libstdc++.a(vmi_class_type_info.o)
                0x00001596                _ZNK10__cxxabiv121__vmi_class_type_info11__do_upcastEPKNS_17__class_type_infoEPKvRNS1_15__upcast_resultE
 .text._ZNK10__cxxabiv121__vmi_class_type_info12__do_dyncastEiNS_17__class_type_info10__sub_kindEPKS1_PKvS4_S6_RNS1_16__dyncast_resultE
                0x000016de      0x2e0 ../../external/gcc/LPC1768/libstdc++.a(vmi_class_type_info.o)
                0x000016de                _ZNK10__cxxabiv121__vmi_class_type_info12__do_dyncastEiNS_17__class_type_info10__sub_kindEPKS1_PKvS4_S6_RNS1_16__dyncast_resultE
 .text._ZN10__cxxabiv111__terminateEPFvvE
                0x000019be        0x8 ../../external/gcc/LPC1768/libstdc++.a(eh_terminate.o)
                0x000019be                _ZN10__cxxabiv111__terminateEPFvvE
 *fill*         0x000019c6        0x2 00
 .text._ZSt9terminatev
                0x000019c8       0x10 ../../external/gcc/LPC1768/libstdc++.a(eh_terminate.o)
                0x000019c8                _ZSt9terminatev
 .text._ZN9__gnu_cxx27__verbose_terminate_handlerEv
                0x000019d8       0x90 ../../external/gcc/LPC1768/libstdc++.a(vterminate.o)
                0x000019d8                _ZN9__gnu_cxx27__verbose_terminate_handlerEv
 .text          0x00001a68     0x26a4 ../../external/gcc/LPC1768/libstdc++.a(cp-demangle.o)
                0x0000402c                __cxa_demangle
                0x000040e8                __gcclibcxx_demangle_callback
 .text.__cxa_current_exception_type
                0x0000410c       0x1a ../../external/gcc/LPC1768/libstdc++.a(eh_type.o)
                0x0000410c                __cxa_current_exception_type
 *fill*         0x00004126        0x2 00
 .text.__cxa_get_globals
                0x00004128        0x8 ../../external/gcc/LPC1768/libstdc++.a(eh_globals.o)
                0x00004128                __cxa_get_globals
 .text.scalbn   0x00004130       0xf8 ../../external/gcc/LPC1768/libm.a(lib_a-s_scalbn.o)
                0x00004130                scalbn
 .text.copysign
                0x00004228       0x10 ../../external/gcc/LPC1768/libm.a(lib_a-s_copysign.o)
                0x00004228                copysign
 .text          0x00004238      0x370 /media/6aafac43-5450-453e-a142-f588400933c0/Sandbox/arm/bin/../lib/gcc/arm-none-eabi/4.5.2/thumb2/libgcc.a(_arm_addsubdf3.o)
                0x00004238                __aeabi_drsub
                0x00004240                __aeabi_dsub
                0x00004240                __subdf3
                0x00004244                __adddf3
                0x00004244                __aeabi_dadd
                0x000044bc                __aeabi_ui2d
                0x000044bc                __floatunsidf
                0x000044dc                __floatsidf
                0x000044dc                __aeabi_i2d
                0x00004500                __extendsfdf2
                0x00004500                __aeabi_f2d
                0x0000453c                __aeabi_ul2d
                0x0000453c                __floatundidf
                0x0000454c                __floatdidf
                0x0000454c                __aeabi_l2d
 .text          0x000045a8      0x424 /media/6aafac43-5450-453e-a142-f588400933c0/Sandbox/arm/bin/../lib/gcc/arm-none-eabi/4.5.2/thumb2/libgcc.a(_arm_muldivdf3.o)
                0x000045a8                __aeabi_dmul
                0x000045a8                __muldf3
                0x000047fc                __aeabi_ddiv
                0x000047fc                __divdf3
 .text          0x000049cc       0x50 /media/6aafac43-5450-453e-a142-f588400933c0/Sandbox/arm/bin/../lib/gcc/arm-none-eabi/4.5.2/thumb2/libgcc.a(_arm_fixdfsi.o)
                0x000049cc                __fixdfsi
                0x000049cc                __aeabi_d2iz
 .text          0x00004a1c       0xa0 /media/6aafac43-5450-453e-a142-f588400933c0/Sandbox/arm/bin/../lib/gcc/arm-none-eabi/4.5.2/thumb2/libgcc.a(_arm_truncdfsf2.o)
                0x00004a1c                __aeabi_d2f
                0x00004a1c                __truncdfsf2
 .text          0x00004abc      0x21c /media/6aafac43-5450-453e-a142-f588400933c0/Sandbox/arm/bin/../lib/gcc/arm-none-eabi/4.5.2/thumb2/libgcc.a(_arm_addsubsf3.o)
                0x00004abc                __aeabi_frsub
                0x00004ac4                __subsf3
                0x00004ac4                __aeabi_fsub
                0x00004ac8                __aeabi_fadd
                0x00004ac8                __addsf3
                0x00004c28                __aeabi_ui2f
                0x00004c28                __floatunsisf
                0x00004c30                __aeabi_i2f
                0x00004c30                __floatsisf
                0x00004c4c                __floatundisf
                0x00004c4c                __aeabi_ul2f
                0x00004c5c                __floatdisf
                0x00004c5c                __aeabi_l2f
 .text          0x00004cd8      0x2a0 /media/6aafac43-5450-453e-a142-f588400933c0/Sandbox/arm/bin/../lib/gcc/arm-none-eabi/4.5.2/thumb2/libgcc.a(_arm_muldivsf3.o)
                0x00004cd8                __mulsf3
                0x00004cd8                __aeabi_fmul
                0x00004e40                __divsf3
                0x00004e40                __aeabi_fdiv
 .text          0x00004f78       0xec /media/6aafac43-5450-453e-a142-f588400933c0/Sandbox/arm/bin/../lib/gcc/arm-none-eabi/4.5.2/thumb2/libgcc.a(_arm_cmpsf2.o)
                0x00004f78                __gtsf2
                0x00004f78                __gesf2
                0x00004f80                __lesf2
                0x00004f80                __ltsf2
                0x00004f88                __nesf2
                0x00004f88                __eqsf2
                0x00004f88                __cmpsf2
                0x00004fe8                __aeabi_cfrcmple
                0x00004ff0                __aeabi_cfcmple
                0x00004ff0                __aeabi_cfcmpeq
                0x00005000                __aeabi_fcmpeq
                0x00005014                __aeabi_fcmplt
                0x00005028                __aeabi_fcmple
                0x0000503c                __aeabi_fcmpge
                0x00005050                __aeabi_fcmpgt
 .text.abort    0x00005064        0xe ../../external/gcc/LPC1768/libc.a(lib_a-abort.o)
                0x00005064                abort
 .text.__aeabi_memclr
                0x00005072        0x6 ../../external/gcc/LPC1768/libc.a(lib_a-aeabi_memclr.o)
                0x00005072                __aeabi_memclr8
                0x00005072                __aeabi_memclr
                0x00005072                __aeabi_memclr4
 .text.__aeabi_memcpy
                0x00005078        0x4 ../../external/gcc/LPC1768/libc.a(lib_a-aeabi_memcpy.o)
                0x00005078                __aeabi_memcpy
                0x00005078                __aeabi_memcpy4
                0x00005078                __aeabi_memcpy8
 .text.__aeabi_memset
                0x0000507c        0xa ../../external/gcc/LPC1768/libc.a(lib_a-aeabi_memset.o)
                0x0000507c                __aeabi_memset
                0x0000507c                __aeabi_memset8
                0x0000507c                __aeabi_memset4
 .text.__aeabi_assert
                0x00005086        0xe ../../external/gcc/LPC1768/libc.a(lib_a-clibabi_assert.o)
                0x00005086                __aeabi_assert
 .text.setup_aeabi_stdio
                0x00005094       0x28 ../../external/gcc/LPC1768/libc.a(lib_a-clibabi_stdio.o)
 .text.__cxa_atexit
                0x000050bc       0x16 ../../external/gcc/LPC1768/libc.a(lib_a-cxa_atexit.o)
                0x000050bc                __cxa_atexit
 *fill*         0x000050d2        0x2 00
 .text._fclose_r
                0x000050d4       0xac ../../external/gcc/LPC1768/libc.a(lib_a-fclose.o)
                0x000050d4                _fclose_r
 .text.fclose   0x00005180       0x10 ../../external/gcc/LPC1768/libc.a(lib_a-fclose.o)
                0x00005180                fclose
 .text._fflush_r
                0x00005190      0x174 ../../external/gcc/LPC1768/libc.a(lib_a-fflush.o)
                0x00005190                _fflush_r
 .text.fflush   0x00005304       0x24 ../../external/gcc/LPC1768/libc.a(lib_a-fflush.o)
                0x00005304                fflush
 .text._cleanup_r
                0x00005328        0xc ../../external/gcc/LPC1768/libc.a(lib_a-findfp.o)
                0x00005328                _cleanup_r
 .text.std.clone.0
                0x00005334       0x48 ../../external/gcc/LPC1768/libc.a(lib_a-findfp.o)
 .text.__sfmoreglue
                0x0000537c       0x28 ../../external/gcc/LPC1768/libc.a(lib_a-findfp.o)
                0x0000537c                __sfmoreglue
 .text.__sinit  0x000053a4       0x5c ../../external/gcc/LPC1768/libc.a(lib_a-findfp.o)
                0x000053a4                __sinit
 .text.__sfp    0x00005400       0x78 ../../external/gcc/LPC1768/libc.a(lib_a-findfp.o)
                0x00005400                __sfp
 .text.__sfp_lock_acquire
                0x00005478        0x2 ../../external/gcc/LPC1768/libc.a(lib_a-findfp.o)
                0x00005478                __sfp_lock_acquire
 .text.__sfp_lock_release
                0x0000547a        0x2 ../../external/gcc/LPC1768/libc.a(lib_a-findfp.o)
                0x0000547a                __sfp_lock_release
 .text._fopen_r
                0x0000547c       0x84 ../../external/gcc/LPC1768/libc.a(lib_a-fopen.o)
                0x0000547c                _fopen_r
 .text.fopen    0x00005500       0x14 ../../external/gcc/LPC1768/libc.a(lib_a-fopen.o)
                0x00005500                fopen
 .text.fprintf  0x00005514       0x24 ../../external/gcc/LPC1768/libc.a(lib_a-fprintf.o)
                0x00005514                fprintf
 .text._fputs_r
                0x00005538       0x74 ../../external/gcc/LPC1768/libc.a(lib_a-fputs.o)
                0x00005538                _fputs_r
 .text.fputs    0x000055ac       0x14 ../../external/gcc/LPC1768/libc.a(lib_a-fputs.o)
                0x000055ac                fputs
 .text._malloc_trim_r
                0x000055c0       0x94 ../../external/gcc/LPC1768/libc.a(lib_a-freer.o)
                0x000055c0                _malloc_trim_r
 .text._free_r  0x00005654      0x180 ../../external/gcc/LPC1768/libc.a(lib_a-freer.o)
                0x00005654                _free_r
 .text.fscanf   0x000057d4       0x24 ../../external/gcc/LPC1768/libc.a(lib_a-fscanf.o)
                0x000057d4                fscanf
 .text._fseek_r
                0x000057f8      0x2cc ../../external/gcc/LPC1768/libc.a(lib_a-fseek.o)
                0x000057f8                _fseek_r
 .text._fstat_r
                0x00005ac4       0x24 ../../external/gcc/LPC1768/libc.a(lib_a-fstatr.o)
                0x00005ac4                _fstat_r
 .text.__sfvwrite_r
                0x00005ae8      0x294 ../../external/gcc/LPC1768/libc.a(lib_a-fvwrite.o)
                0x00005ae8                __sfvwrite_r
 .text._fwalk   0x00005d7c       0x44 ../../external/gcc/LPC1768/libc.a(lib_a-fwalk.o)
                0x00005d7c                _fwalk
 .text._fwalk_reent
                0x00005dc0       0x48 ../../external/gcc/LPC1768/libc.a(lib_a-fwalk.o)
                0x00005dc0                _fwalk_reent
 .text._fwrite_r
                0x00005e08       0x90 ../../external/gcc/LPC1768/libc.a(lib_a-fwrite.o)
                0x00005e08                _fwrite_r
 .text.fwrite   0x00005e98       0x20 ../../external/gcc/LPC1768/libc.a(lib_a-fwrite.o)
                0x00005e98                fwrite
 .text.__libc_init_array
                0x00005eb8       0x48 ../../external/gcc/LPC1768/libc.a(lib_a-init.o)
                0x00005eb8                __libc_init_array
 .text.__smakebuf_r
                0x00005f00       0xdc ../../external/gcc/LPC1768/libc.a(lib_a-makebuf.o)
                0x00005f00                __smakebuf_r
 .text.malloc   0x00005fdc       0x10 ../../external/gcc/LPC1768/libc.a(lib_a-malloc.o)
                0x00005fdc                malloc
 .text.free     0x00005fec       0x10 ../../external/gcc/LPC1768/libc.a(lib_a-malloc.o)
                0x00005fec                free
 .text._malloc_r
                0x00005ffc      0x408 ../../external/gcc/LPC1768/libc.a(lib_a-mallocr.o)
                0x00005ffc                _malloc_r
 .text.memchr   0x00006404       0x1c ../../external/gcc/LPC1768/libc.a(lib_a-memchr.o)
                0x00006404                memchr
 .text.memcmp   0x00006420       0x1c ../../external/gcc/LPC1768/libc.a(lib_a-memcmp.o)
                0x00006420                memcmp
 .text.memcpy   0x0000643c       0x16 ../../external/gcc/LPC1768/libc.a(lib_a-memcpy.o)
                0x0000643c                memcpy
 .text.memmove  0x00006452       0x30 ../../external/gcc/LPC1768/libc.a(lib_a-memmove.o)
                0x00006452                memmove
 .text.memset   0x00006482       0x10 ../../external/gcc/LPC1768/libc.a(lib_a-memset.o)
                0x00006482                memset
 .text.__malloc_lock
                0x00006492        0x2 ../../external/gcc/LPC1768/libc.a(lib_a-mlock.o)
                0x00006492                __malloc_lock
 .text.__malloc_unlock
                0x00006494        0x2 ../../external/gcc/LPC1768/libc.a(lib_a-mlock.o)
                0x00006494                __malloc_unlock
 *fill*         0x00006496        0x2 00
 .text._open_r  0x00006498       0x28 ../../external/gcc/LPC1768/libc.a(lib_a-openr.o)
                0x00006498                _open_r
 .text.printf   0x000064c0       0x30 ../../external/gcc/LPC1768/libc.a(lib_a-printf.o)
                0x000064c0                printf
 .text._puts_r  0x000064f0       0x70 ../../external/gcc/LPC1768/libc.a(lib_a-puts.o)
                0x000064f0                _puts_r
 .text.puts     0x00006560       0x10 ../../external/gcc/LPC1768/libc.a(lib_a-puts.o)
                0x00006560                puts
 .text.realloc  0x00006570       0x14 ../../external/gcc/LPC1768/libc.a(lib_a-realloc.o)
                0x00006570                realloc
 .text._realloc_r
                0x00006584      0x2f8 ../../external/gcc/LPC1768/libc.a(lib_a-reallocr.o)
                0x00006584                _realloc_r
 .text.lflush   0x0000687c       0x12 ../../external/gcc/LPC1768/libc.a(lib_a-refill.o)
 *fill*         0x0000688e        0x2 00
 .text.__srefill_r
                0x00006890      0x118 ../../external/gcc/LPC1768/libc.a(lib_a-refill.o)
                0x00006890                __srefill_r
 .text._sbrk_r  0x000069a8       0x24 ../../external/gcc/LPC1768/libc.a(lib_a-sbrkr.o)
                0x000069a8                _sbrk_r
 .text._raise_r
                0x000069cc       0x56 ../../external/gcc/LPC1768/libc.a(lib_a-signal.o)
                0x000069cc                _raise_r
 *fill*         0x00006a22        0x2 00
 .text.raise    0x00006a24       0x10 ../../external/gcc/LPC1768/libc.a(lib_a-signal.o)
                0x00006a24                raise
 .text._kill_r  0x00006a34       0x24 ../../external/gcc/LPC1768/libc.a(lib_a-signalr.o)
                0x00006a34                _kill_r
 .text._getpid_r
                0x00006a58        0x4 ../../external/gcc/LPC1768/libc.a(lib_a-signalr.o)
                0x00006a58                _getpid_r
 .text.sprintf  0x00006a5c       0x48 ../../external/gcc/LPC1768/libc.a(lib_a-sprintf.o)
                0x00006a5c                sprintf
 .text.sscanf   0x00006aa4       0x54 ../../external/gcc/LPC1768/libc.a(lib_a-sscanf.o)
                0x00006aa4                sscanf
 .text.__sread  0x00006af8       0x22 ../../external/gcc/LPC1768/libc.a(lib_a-stdio.o)
                0x00006af8                __sread
 .text.__seofread
                0x00006b1a        0x4 ../../external/gcc/LPC1768/libc.a(lib_a-stdio.o)
                0x00006b1a                __seofread
 .text.__swrite
                0x00006b1e       0x3a ../../external/gcc/LPC1768/libc.a(lib_a-stdio.o)
                0x00006b1e                __swrite
 .text.__sseek  0x00006b58       0x26 ../../external/gcc/LPC1768/libc.a(lib_a-stdio.o)
                0x00006b58                __sseek
 .text.__sclose
                0x00006b7e        0x8 ../../external/gcc/LPC1768/libc.a(lib_a-stdio.o)
                0x00006b7e                __sclose
 .text.strcmp   0x00006b86       0x16 ../../external/gcc/LPC1768/libc.a(lib_a-strcmp.o)
                0x00006b86                strcmp
 .text.strcpy   0x00006b9c       0x10 ../../external/gcc/LPC1768/libc.a(lib_a-strcpy.o)
                0x00006b9c                strcpy
 .text.strlen   0x00006bac       0x10 ../../external/gcc/LPC1768/libc.a(lib_a-strlen.o)
                0x00006bac                strlen
 .text.strncmp  0x00006bbc       0x2a ../../external/gcc/LPC1768/libc.a(lib_a-strncmp.o)
                0x00006bbc                strncmp
 .text.strncpy  0x00006be6       0x28 ../../external/gcc/LPC1768/libc.a(lib_a-strncpy.o)
                0x00006be6                strncpy
 *fill*         0x00006c0e        0x2 00
 .text._strtol_r
                0x00006c10      0x124 ../../external/gcc/LPC1768/libc.a(lib_a-strtol.o)
                0x00006c10                _strtol_r
 .text.strtol   0x00006d34       0x1c ../../external/gcc/LPC1768/libc.a(lib_a-strtol.o)
                0x00006d34                strtol
 .text._svfprintf_r
                0x00006d50     0x1100 ../../external/gcc/LPC1768/libc.a(lib_a-svfprintf.o)
                0x00006d50                _svfprintf_r
 .text.__ssvfscanf_r
                0x00007e50      0xbdc ../../external/gcc/LPC1768/libc.a(lib_a-svfscanf.o)
                0x00007e50                __ssvfscanf_r
 .text.write    0x00008a2c       0x1c ../../external/gcc/LPC1768/libc.a(lib_a-syswrite.o)
                0x00008a2c                write
 .text._vfprintf_r
                0x00008a48     0x11cc ../../external/gcc/LPC1768/libc.a(lib_a-vfprintf.o)
                0x00008a48                _vfprintf_r
 .text.__svfscanf_r
                0x00009c14      0xbdc ../../external/gcc/LPC1768/libc.a(lib_a-vfscanf.o)
                0x00009c14                __svfscanf_r
 .text._write_r
                0x0000a7f0       0x28 ../../external/gcc/LPC1768/libc.a(lib_a-writer.o)
                0x0000a7f0                _write_r
 .text.__swsetup_r
                0x0000a818       0xdc ../../external/gcc/LPC1768/libc.a(lib_a-wsetup.o)
                0x0000a818                __swsetup_r
 .text.__register_exitproc
                0x0000a8f4       0xc0 ../../external/gcc/LPC1768/libc.a(lib_a-__atexit.o)
                0x0000a8f4                __register_exitproc
 .text.__assert_func
                0x0000a9b4       0x38 ../../external/gcc/LPC1768/libc.a(lib_a-assert.o)
                0x0000a9b4                __assert_func
 .text.__assert
                0x0000a9ec        0xa ../../external/gcc/LPC1768/libc.a(lib_a-assert.o)
                0x0000a9ec                __assert
 *fill*         0x0000a9f6        0x2 00
 .text._close_r
                0x0000a9f8       0x24 ../../external/gcc/LPC1768/libc.a(lib_a-closer.o)
                0x0000a9f8                _close_r
 .text.quorem   0x0000aa1c      0x124 ../../external/gcc/LPC1768/libc.a(lib_a-dtoa.o)
 .text._dtoa_r  0x0000ab40      0xc08 ../../external/gcc/LPC1768/libc.a(lib_a-dtoa.o)
                0x0000ab40                _dtoa_r
 .text.fiprintf
                0x0000b748       0x24 ../../external/gcc/LPC1768/libc.a(lib_a-fiprintf.o)
                0x0000b748                fiprintf
 .text.__sflags
                0x0000b76c       0x64 ../../external/gcc/LPC1768/libc.a(lib_a-flags.o)
                0x0000b76c                __sflags
 .text._fread_r
                0x0000b7d0       0xd0 ../../external/gcc/LPC1768/libc.a(lib_a-fread.o)
                0x0000b7d0                _fread_r
 .text._isatty_r
                0x0000b8a0       0x24 ../../external/gcc/LPC1768/libc.a(lib_a-isattyr.o)
                0x0000b8a0                _isatty_r
 .text.iswspace
                0x0000b8c4       0x1c ../../external/gcc/LPC1768/libc.a(lib_a-iswspace.o)
                0x0000b8c4                iswspace
 .text.__locale_charset
                0x0000b8e0        0x8 ../../external/gcc/LPC1768/libc.a(lib_a-locale.o)
                0x0000b8e0                __locale_charset
 .text.__locale_mb_cur_max
                0x0000b8e8        0xc ../../external/gcc/LPC1768/libc.a(lib_a-locale.o)
                0x0000b8e8                __locale_mb_cur_max
 .text._localeconv_r
                0x0000b8f4        0x8 ../../external/gcc/LPC1768/libc.a(lib_a-locale.o)
                0x0000b8f4                _localeconv_r
 .text._lseek_r
                0x0000b8fc       0x28 ../../external/gcc/LPC1768/libc.a(lib_a-lseekr.o)
                0x0000b8fc                _lseek_r
 .text._mbrtowc_r
                0x0000b924       0x54 ../../external/gcc/LPC1768/libc.a(lib_a-mbrtowc.o)
                0x0000b924                _mbrtowc_r
 .text.__ascii_mbtowc
                0x0000b978       0x26 ../../external/gcc/LPC1768/libc.a(lib_a-mbtowc_r.o)
                0x0000b978                __ascii_mbtowc
 .text._Balloc  0x0000b99e       0x62 ../../external/gcc/LPC1768/libc.a(lib_a-mprec.o)
                0x0000b99e                _Balloc
 .text._Bfree   0x0000ba00       0x2e ../../external/gcc/LPC1768/libc.a(lib_a-mprec.o)
                0x0000ba00                _Bfree
 .text.__multadd
                0x0000ba2e       0x7c ../../external/gcc/LPC1768/libc.a(lib_a-mprec.o)
                0x0000ba2e                __multadd
 .text.__s2b    0x0000baaa       0x7c ../../external/gcc/LPC1768/libc.a(lib_a-mprec.o)
                0x0000baaa                __s2b
 .text.__hi0bits
                0x0000bb26       0x40 ../../external/gcc/LPC1768/libc.a(lib_a-mprec.o)
                0x0000bb26                __hi0bits
 .text.__lo0bits
                0x0000bb66       0x64 ../../external/gcc/LPC1768/libc.a(lib_a-mprec.o)
                0x0000bb66                __lo0bits
 .text.__i2b    0x0000bbca       0x12 ../../external/gcc/LPC1768/libc.a(lib_a-mprec.o)
                0x0000bbca                __i2b
 .text.__multiply
                0x0000bbdc      0x124 ../../external/gcc/LPC1768/libc.a(lib_a-mprec.o)
                0x0000bbdc                __multiply
 .text.__pow5mult
                0x0000bd00       0xa4 ../../external/gcc/LPC1768/libc.a(lib_a-mprec.o)
                0x0000bd00                __pow5mult
 .text.__lshift
                0x0000bda4       0x98 ../../external/gcc/LPC1768/libc.a(lib_a-mprec.o)
                0x0000bda4                __lshift
 .text.__mcmp   0x0000be3c       0x3a ../../external/gcc/LPC1768/libc.a(lib_a-mprec.o)
                0x0000be3c                __mcmp
 .text.__mdiff  0x0000be76       0xc6 ../../external/gcc/LPC1768/libc.a(lib_a-mprec.o)
                0x0000be76                __mdiff
 .text.__ulp    0x0000bf3c       0x40 ../../external/gcc/LPC1768/libc.a(lib_a-mprec.o)
                0x0000bf3c                __ulp
 .text.__b2d    0x0000bf7c       0xa4 ../../external/gcc/LPC1768/libc.a(lib_a-mprec.o)
                0x0000bf7c                __b2d
 .text.__d2b    0x0000c020       0xbc ../../external/gcc/LPC1768/libc.a(lib_a-mprec.o)
                0x0000c020                __d2b
 .text.__ratio  0x0000c0dc       0x46 ../../external/gcc/LPC1768/libc.a(lib_a-mprec.o)
                0x0000c0dc                __ratio
 .text.__copybits
                0x0000c122       0x32 ../../external/gcc/LPC1768/libc.a(lib_a-mprec.o)
                0x0000c122                __copybits
 .text.__any_on
                0x0000c154       0x4a ../../external/gcc/LPC1768/libc.a(lib_a-mprec.o)
                0x0000c154                __any_on
 *fill*         0x0000c19e        0x2 00
 .text._read_r  0x0000c1a0       0x28 ../../external/gcc/LPC1768/libc.a(lib_a-readr.o)
                0x0000c1a0                _read_r
 .text.__fpclassifyd
                0x0000c1c8       0x64 ../../external/gcc/LPC1768/libc.a(lib_a-s_fpclassify.o)
                0x0000c1c8                __fpclassifyd
 .text.__sccl   0x0000c22c       0x64 ../../external/gcc/LPC1768/libc.a(lib_a-sccl.o)
                0x0000c22c                __sccl
 .text.nanf     0x0000c290        0x8 ../../external/gcc/LPC1768/libc.a(lib_a-sf_nan.o)
                0x0000c290                nanf
 .text.match    0x0000c298       0x2c ../../external/gcc/LPC1768/libc.a(lib_a-strtod.o)
 *fill*         0x0000c2c4        0x4 00
 .text._strtod_r
                0x0000c2c8      0xbd8 ../../external/gcc/LPC1768/libc.a(lib_a-strtod.o)
                0x0000c2c8                _strtod_r
 .text._strtoll_r
                0x0000cea0      0x16c ../../external/gcc/LPC1768/libc.a(lib_a-strtoll_r.o)
                0x0000cea0                _strtoll_r
 .text._strtoul_r
                0x0000d00c       0xfc ../../external/gcc/LPC1768/libc.a(lib_a-strtoul.o)
                0x0000d00c                _strtoul_r
 .text._strtoull_r
                0x0000d108      0x154 ../../external/gcc/LPC1768/libc.a(lib_a-strtoull_r.o)
                0x0000d108                _strtoull_r
 .text.__ssprint_r
                0x0000d25c       0xf6 ../../external/gcc/LPC1768/libc.a(lib_a-svfiprintf.o)
                0x0000d25c                __ssprint_r
 .text._sungetc_r
                0x0000d352       0x7a ../../external/gcc/LPC1768/libc.a(lib_a-svfiscanf.o)
                0x0000d352                _sungetc_r
 .text.__ssrefill_r
                0x0000d3cc       0x3a ../../external/gcc/LPC1768/libc.a(lib_a-svfiscanf.o)
                0x0000d3cc                __ssrefill_r
 .text._sfread_r
                0x0000d406       0x70 ../../external/gcc/LPC1768/libc.a(lib_a-svfiscanf.o)
                0x0000d406                _sfread_r
 .text.__submore
                0x0000d476       0x78 ../../external/gcc/LPC1768/libc.a(lib_a-ungetc.o)
                0x0000d476                __submore
 *fill*         0x0000d4ee        0x2 00
 .text._ungetc_r
                0x0000d4f0      0x100 ../../external/gcc/LPC1768/libc.a(lib_a-ungetc.o)
                0x0000d4f0                _ungetc_r
 .text.__sprint_r
                0x0000d5f0       0x74 ../../external/gcc/LPC1768/libc.a(lib_a-vfiprintf.o)
                0x0000d5f0                __sprint_r
 .text._vfiprintf_r
                0x0000d664      0x914 ../../external/gcc/LPC1768/libc.a(lib_a-vfiprintf.o)
                0x0000d664                _vfiprintf_r
 .text._calloc_r
                0x0000df78       0x58 ../../external/gcc/LPC1768/libc.a(lib_a-callocr.o)
                0x0000df78                _calloc_r
 .text._fputwc_r
                0x0000dfd0       0xbe ../../external/gcc/LPC1768/libc.a(lib_a-fputwc.o)
                0x0000dfd0                _fputwc_r
 .text.rshift   0x0000e08e       0x6c ../../external/gcc/LPC1768/libc.a(lib_a-gdtoa-gethex.o)
 *fill*         0x0000e0fa        0x2 00
 .text.htinit.clone.0
                0x0000e0fc       0x1c ../../external/gcc/LPC1768/libc.a(lib_a-gdtoa-gethex.o)
 .text.__hexdig_init
                0x0000e118       0x2c ../../external/gcc/LPC1768/libc.a(lib_a-gdtoa-gethex.o)
                0x0000e118                __hexdig_init
 .text.__gethex
                0x0000e144      0x460 ../../external/gcc/LPC1768/libc.a(lib_a-gdtoa-gethex.o)
                0x0000e144                __gethex
 .text.L_shift  0x0000e5a4       0x34 ../../external/gcc/LPC1768/libc.a(lib_a-gdtoa-hexnan.o)
 .text.__hexnan
                0x0000e5d8      0x11c ../../external/gcc/LPC1768/libc.a(lib_a-gdtoa-hexnan.o)
                0x0000e5d8                __hexnan
 .text.__swbuf_r
                0x0000e6f4       0xcc ../../external/gcc/LPC1768/libc.a(lib_a-wbuf.o)
                0x0000e6f4                __swbuf_r
 .text._wcrtomb_r
                0x0000e7c0       0x50 ../../external/gcc/LPC1768/libc.a(lib_a-wcrtomb.o)
                0x0000e7c0                _wcrtomb_r
 .text.__ascii_wctomb
                0x0000e810       0x1a ../../external/gcc/LPC1768/libc.a(lib_a-wctomb_r.o)
                0x0000e810                __ascii_wctomb
 *fill*         0x0000e82a        0x6 00
 .text          0x0000e830      0x278 /media/6aafac43-5450-453e-a142-f588400933c0/Sandbox/arm/bin/../lib/gcc/arm-none-eabi/4.5.2/thumb2/libgcc.a(_udivsi3.o)
                0x0000e830                __udivsi3
                0x0000e830                __aeabi_uidiv
                0x0000ea8c                __aeabi_uidivmod
 .text          0x0000eaa8      0x2b0 /media/6aafac43-5450-453e-a142-f588400933c0/Sandbox/arm/bin/../lib/gcc/arm-none-eabi/4.5.2/thumb2/libgcc.a(_divsi3.o)
                0x0000eaa8                __aeabi_idiv
                0x0000eaa8                __divsi3
                0x0000ed3c                __aeabi_idivmod
 .text          0x0000ed58        0x4 /media/6aafac43-5450-453e-a142-f588400933c0/Sandbox/arm/bin/../lib/gcc/arm-none-eabi/4.5.2/thumb2/libgcc.a(_dvmd_tls.o)
                0x0000ed58                __aeabi_ldiv0
                0x0000ed58                __aeabi_idiv0
 .text          0x0000ed5c      0x110 /media/6aafac43-5450-453e-a142-f588400933c0/Sandbox/arm/bin/../lib/gcc/arm-none-eabi/4.5.2/thumb2/libgcc.a(_arm_cmpdf2.o)
                0x0000ed5c                __gtdf2
                0x0000ed5c                __gedf2
                0x0000ed64                __ltdf2
                0x0000ed64                __ledf2
                0x0000ed6c                __cmpdf2
                0x0000ed6c                __eqdf2
                0x0000ed6c                __nedf2
                0x0000ede8                __aeabi_cdrcmple
                0x0000edf8                __aeabi_cdcmple
                0x0000edf8                __aeabi_cdcmpeq
                0x0000ee08                __aeabi_dcmpeq
                0x0000ee1c                __aeabi_dcmplt
                0x0000ee30                __aeabi_dcmple
                0x0000ee44                __aeabi_dcmpge
                0x0000ee58                __aeabi_dcmpgt
 .text          0x0000ee6c       0x40 /media/6aafac43-5450-453e-a142-f588400933c0/Sandbox/arm/bin/../lib/gcc/arm-none-eabi/4.5.2/thumb2/libgcc.a(_arm_fixunsdfsi.o)
                0x0000ee6c                __fixunsdfsi
                0x0000ee6c                __aeabi_d2uiz
 .text          0x0000eeac       0x2c /media/6aafac43-5450-453e-a142-f588400933c0/Sandbox/arm/bin/../lib/gcc/arm-none-eabi/4.5.2/thumb2/libgcc.a(_aeabi_uldivmod.o)
                0x0000eeac                __aeabi_uldivmod
 .text          0x0000eed8       0x60 /media/6aafac43-5450-453e-a142-f588400933c0/Sandbox/arm/bin/../lib/gcc/arm-none-eabi/4.5.2/thumb2/libgcc.a(bpabi.o)
                0x0000eed8                __gnu_ldivmod_helper
                0x0000ef08                __gnu_uldivmod_helper
 .text          0x0000ef38      0x360 /media/6aafac43-5450-453e-a142-f588400933c0/Sandbox/arm/bin/../lib/gcc/arm-none-eabi/4.5.2/thumb2/libgcc.a(_divdi3.o)
                0x0000ef38                __divdi3
 .text          0x0000f298      0x308 /media/6aafac43-5450-453e-a142-f588400933c0/Sandbox/arm/bin/../lib/gcc/arm-none-eabi/4.5.2/thumb2/libgcc.a(_udivdi3.o)
                0x0000f298                __udivdi3
 *(.gnu.linkonce.t.*)
 *(.glue_7)
 .glue_7        0x00000000        0x0 linker stubs
 *(.glue_7t)
 .glue_7t       0x00000000        0x0 linker stubs
 *(.gcc_except_table)
 *(.rodata .rodata*)
 .rodata.str1.4
                0x0000f5a0       0x84 ../../src/syscalls.o
 .rodata.str1.4
                0x0000f624      0x263 ./main.o
                                0x264 (size before relaxing)
 *fill*         0x0000f887        0x1 00
 .rodata._ZTS12SDFileSystem
                0x0000f888       0x10 ./SDFileSystem/SDFileSystem.o
                0x0000f888                _ZTS12SDFileSystem
 .rodata._ZTV12SDFileSystem
                0x0000f898       0x48 ./SDFileSystem/SDFileSystem.o
                0x0000f898                _ZTV12SDFileSystem
 .rodata.str1.4
                0x0000f8e0      0x164 ./SDFileSystem/SDFileSystem.o
 .rodata._ZTI12SDFileSystem
                0x0000fa44        0xc ./SDFileSystem/SDFileSystem.o
                0x0000fa44                _ZTI12SDFileSystem
 .rodata._ZTVN10__cxxabiv117__class_type_infoE
                0x0000fa50       0x30 ../../external/gcc/LPC1768/libstdc++.a(class_type_info.o)
                0x0000fa50                _ZTVN10__cxxabiv117__class_type_infoE
 .rodata._ZTIN10__cxxabiv117__class_type_infoE
                0x0000fa80        0xc ../../external/gcc/LPC1768/libstdc++.a(class_type_info.o)
                0x0000fa80                _ZTIN10__cxxabiv117__class_type_infoE
 .rodata._ZTSN10__cxxabiv117__class_type_infoE
                0x0000fa8c       0x22 ../../external/gcc/LPC1768/libstdc++.a(class_type_info.o)
                0x0000fa8c                _ZTSN10__cxxabiv117__class_type_infoE
 .rodata.str1.1
                0x0000faae       0x1c ../../external/gcc/LPC1768/libstdc++.a(pure.o)
 *fill*         0x0000faca        0x6 00
 .rodata._ZTVN10__cxxabiv120__si_class_type_infoE
                0x0000fad0       0x30 ../../external/gcc/LPC1768/libstdc++.a(si_class_type_info.o)
                0x0000fad0                _ZTVN10__cxxabiv120__si_class_type_infoE
 .rodata._ZTIN10__cxxabiv120__si_class_type_infoE
                0x0000fb00        0xc ../../external/gcc/LPC1768/libstdc++.a(si_class_type_info.o)
                0x0000fb00                _ZTIN10__cxxabiv120__si_class_type_infoE
 .rodata._ZTSN10__cxxabiv120__si_class_type_infoE
                0x0000fb0c       0x25 ../../external/gcc/LPC1768/libstdc++.a(si_class_type_info.o)
                0x0000fb0c                _ZTSN10__cxxabiv120__si_class_type_infoE
 *fill*         0x0000fb31        0x3 00
 .rodata._ZTISt9type_info
                0x0000fb34        0x8 ../../external/gcc/LPC1768/libstdc++.a(tinfo.o)
                0x0000fb34                _ZTISt9type_info
 .rodata._ZTSSt9type_info
                0x0000fb3c        0xd ../../external/gcc/LPC1768/libstdc++.a(tinfo.o)
                0x0000fb3c                _ZTSSt9type_info
 *fill*         0x0000fb49        0x7 00
 .rodata._ZTVSt9type_info
                0x0000fb50       0x20 ../../external/gcc/LPC1768/libstdc++.a(tinfo.o)
                0x0000fb50                _ZTVSt9type_info
 .rodata._ZTIN10__cxxabiv121__vmi_class_type_infoE
                0x0000fb70        0xc ../../external/gcc/LPC1768/libstdc++.a(vmi_class_type_info.o)
                0x0000fb70                _ZTIN10__cxxabiv121__vmi_class_type_infoE
 .rodata._ZTSN10__cxxabiv121__vmi_class_type_infoE
                0x0000fb7c       0x26 ../../external/gcc/LPC1768/libstdc++.a(vmi_class_type_info.o)
                0x0000fb7c                _ZTSN10__cxxabiv121__vmi_class_type_infoE
 *fill*         0x0000fba2        0x6 00
 .rodata._ZTVN10__cxxabiv121__vmi_class_type_infoE
                0x0000fba8       0x30 ../../external/gcc/LPC1768/libstdc++.a(vmi_class_type_info.o)
                0x0000fba8                _ZTVN10__cxxabiv121__vmi_class_type_infoE
 .rodata.str1.1
                0x0000fbd8       0x80 ../../external/gcc/LPC1768/libstdc++.a(vterminate.o)
 .rodata        0x0000fc58      0x694 ../../external/gcc/LPC1768/libstdc++.a(cp-demangle.o)
 .rodata.str1.1
                0x000102ec      0x552 ../../external/gcc/LPC1768/libstdc++.a(cp-demangle.o)
                                0x601 (size before relaxing)
 .rodata.__aeabi_ctype_table_C
                0x0001083e      0x101 ../../external/gcc/LPC1768/libc.a(lib_a-clibabi_ctype.o)
                0x0001083e                __aeabi_ctype_table_
                0x0001083e                __aeabi_ctype_table_C
 *fill*         0x0001093f        0x1 00
 .rodata.__sf_fake_stdin
                0x00010940       0x20 ../../external/gcc/LPC1768/libc.a(lib_a-findfp.o)
                0x00010940                __sf_fake_stdin
 .rodata.__sf_fake_stdout
                0x00010960       0x20 ../../external/gcc/LPC1768/libc.a(lib_a-findfp.o)
                0x00010960                __sf_fake_stdout
 .rodata.__sf_fake_stderr
                0x00010980       0x20 ../../external/gcc/LPC1768/libc.a(lib_a-findfp.o)
                0x00010980                __sf_fake_stderr
 .rodata.str1.1
                0x000109a0        0x2 ../../external/gcc/LPC1768/libc.a(lib_a-impure.o)
 *fill*         0x000109a2        0x2 00
 .rodata._global_impure_ptr
                0x000109a4        0x4 ../../external/gcc/LPC1768/libc.a(lib_a-impure.o)
                0x000109a4                _global_impure_ptr
 .rodata.str1.1
                0x00000000        0x2 ../../external/gcc/LPC1768/libc.a(lib_a-puts.o)
 .rodata.zeroes.6599
                0x000109a8       0x10 ../../external/gcc/LPC1768/libc.a(lib_a-svfprintf.o)
 .rodata.str1.1
                0x000109b8       0x34 ../../external/gcc/LPC1768/libc.a(lib_a-svfprintf.o)
 .rodata.blanks.6598
                0x000109ec       0x10 ../../external/gcc/LPC1768/libc.a(lib_a-svfprintf.o)
 .rodata.str1.1
                0x000109fc        0x5 ../../external/gcc/LPC1768/libc.a(lib_a-svfscanf.o)
 *fill*         0x00010a01        0x1 00
 .rodata.basefix.6519
                0x00010a02       0x22 ../../external/gcc/LPC1768/libc.a(lib_a-svfscanf.o)
 .rodata.blanks.6613
                0x00010a24       0x10 ../../external/gcc/LPC1768/libc.a(lib_a-vfprintf.o)
 .rodata.str1.1
                0x00000000       0x34 ../../external/gcc/LPC1768/libc.a(lib_a-vfprintf.o)
 .rodata.zeroes.6614
                0x00010a34       0x10 ../../external/gcc/LPC1768/libc.a(lib_a-vfprintf.o)
 .rodata.basefix.6535
                0x00010a44       0x22 ../../external/gcc/LPC1768/libc.a(lib_a-vfscanf.o)
 .rodata.str1.1
                0x00000000        0x5 ../../external/gcc/LPC1768/libc.a(lib_a-vfscanf.o)
 .rodata.str1.1
                0x00010a66       0x3c ../../external/gcc/LPC1768/libc.a(lib_a-assert.o)
                                 0x3d (size before relaxing)
 .rodata._ctype_
                0x00010aa2      0x101 ../../external/gcc/LPC1768/libc.a(lib_a-ctype_.o)
                0x00010aa2                _ctype_
 .rodata.str1.1
                0x00010ba3        0xd ../../external/gcc/LPC1768/libc.a(lib_a-dtoa.o)
                                  0xf (size before relaxing)
 .rodata.str1.1
                0x00010bb0        0x6 ../../external/gcc/LPC1768/libc.a(lib_a-locale.o)
                                  0xb (size before relaxing)
 .rodata.str1.1
                0x00000000        0x1 ../../external/gcc/LPC1768/libc.a(lib_a-mbrtowc.o)
 *fill*         0x00010bb6        0x2 00
 .rodata.p05.5124
                0x00010bb8        0xc ../../external/gcc/LPC1768/libc.a(lib_a-mprec.o)
 *fill*         0x00010bc4        0x4 00
 .rodata.__mprec_tens
                0x00010bc8       0xc8 ../../external/gcc/LPC1768/libc.a(lib_a-mprec.o)
                0x00010bc8                __mprec_tens
 .rodata.__mprec_bigtens
                0x00010c90       0x28 ../../external/gcc/LPC1768/libc.a(lib_a-mprec.o)
                0x00010c90                __mprec_bigtens
 .rodata.str1.1
                0x00000000        0x6 ../../external/gcc/LPC1768/libc.a(lib_a-strtod.o)
                                  0xc (size before relaxing)
 .rodata.tinytens
                0x00010cb8       0x28 ../../external/gcc/LPC1768/libc.a(lib_a-strtod.o)
 .rodata.blanks.6556
                0x00010ce0       0x10 ../../external/gcc/LPC1768/libc.a(lib_a-vfiprintf.o)
 .rodata.str1.1
                0x00000000       0x22 ../../external/gcc/LPC1768/libc.a(lib_a-vfiprintf.o)
 .rodata.zeroes.6557
                0x00010cf0       0x10 ../../external/gcc/LPC1768/libc.a(lib_a-vfiprintf.o)
 .rodata.str1.1
                0x00010d00        0xb ../../external/gcc/LPC1768/libc.a(lib_a-gdtoa-gethex.o)
                                 0x19 (size before relaxing)
 *(.gnu.linkonce.r.*)
                0x00010d0c                . = ALIGN (0x4)
 *fill*         0x00010d0b        0x1 00
 *(.init)
 .init          0x00010d0c        0x4 /media/6aafac43-5450-453e-a142-f588400933c0/Sandbox/arm/bin/../lib/gcc/arm-none-eabi/4.5.2/thumb2/crti.o
                0x00010d0c                _init
 .init          0x00010d10        0x8 /media/6aafac43-5450-453e-a142-f588400933c0/Sandbox/arm/bin/../lib/gcc/arm-none-eabi/4.5.2/thumb2/crtn.o
                0x00010d18                . = ALIGN (0x4)
                0x00010d18                __preinit_array_start = .
 *(.preinit_array)
 .preinit_array
                0x00010d18        0x4 ../../external/gcc/LPC1768/libc.a(lib_a-clibabi_stdio.o)
                0x00010d1c                __preinit_array_end = .
                0x00010d1c                . = ALIGN (0x4)
                0x00010d1c                __init_array_start = .
 *(SORT(.init_array.*))
 *(.init_array)
 .init_array    0x00010d1c        0x4 /media/6aafac43-5450-453e-a142-f588400933c0/Sandbox/arm/bin/../lib/gcc/arm-none-eabi/4.5.2/thumb2/crtbegin.o
 .init_array    0x00010d20        0x4 ./main.o
                0x00010d24                __init_array_end = .
                0x00010d24                . = ALIGN (0x4)
 *crtbegin.o(.ctors)
 *(EXCLUDE_FILE(*crtend.o) .ctors)
 *(SORT(.ctors.*))
 *crtend.o(.ctors)
                0x00010d24                . = ALIGN (0x4)
 *(.fini)
 .fini          0x00010d24        0x4 /media/6aafac43-5450-453e-a142-f588400933c0/Sandbox/arm/bin/../lib/gcc/arm-none-eabi/4.5.2/thumb2/crti.o
                0x00010d24                _fini
 .fini          0x00010d28        0x8 /media/6aafac43-5450-453e-a142-f588400933c0/Sandbox/arm/bin/../lib/gcc/arm-none-eabi/4.5.2/thumb2/crtn.o
                0x00010d30                . = ALIGN (0x4)
                0x00010d30                __fini_array_start = .
 *(.fini_array)
 .fini_array    0x00010d30        0x4 /media/6aafac43-5450-453e-a142-f588400933c0/Sandbox/arm/bin/../lib/gcc/arm-none-eabi/4.5.2/thumb2/crtbegin.o
 *(SORT(.fini_array.*))
                0x00010d34                __fini_array_end = .
                0x00010d34                . = ALIGN (0x4)
 *crtbegin.o(.dtors)
 *(EXCLUDE_FILE(*crtend.o) .dtors)
 *(SORT(.dtors.*))
 *crtend.o(.dtors)
                0x00010d34                _etext = .
                0x00010d34                _sifastcode = .
                0x00010d34                __exidx_start = .

.vfp11_veneer   0x00010d34        0x0
 .vfp11_veneer  0x00000000        0x0 linker stubs

.v4_bx          0x00010d34        0x0
 .v4_bx         0x00000000        0x0 linker stubs

i._ZN4mbed10DigitalOut15get_rpc_methodsEv
                0x00010d34        0x8
 i._ZN4mbed10DigitalOut15get_rpc_methodsEv
                0x00010d34        0x8 ../../external/mbed/LPC1768/mbed.ar(DigitalOut.LPC1768.o)
                0x00010d34                _ZN4mbed10DigitalOut15get_rpc_methodsEv

i._ZN4mbed10DigitalOutC1E7PinNamePKc
                0x00010d3c       0x3c
 i._ZN4mbed10DigitalOutC1E7PinNamePKc
                0x00010d3c       0x3c ../../external/mbed/LPC1768/mbed.ar(DigitalOut.LPC1768.o)
                0x00010d3c                _ZN4mbed10DigitalOutC1E7PinNamePKc
                0x00010d3c                _ZN4mbed10DigitalOutC2E7PinNamePKc

i._ZN4mbed10DigitalOutD1Ev
                0x00010d78        0x4
 i._ZN4mbed10DigitalOutD1Ev
                0x00010d78        0x4 ../../external/mbed/LPC1768/mbed.ar(DigitalOut.LPC1768.o)
                0x00010d78                _ZN4mbed10DigitalOutD2Ev
                0x00010d78                _ZN4mbed10DigitalOutD1Ev

t._ZN4mbed17rpc_method_callerINS_10DigitalOutEiXadL_ZNS1_5writeEiEEEEvPNS_4BaseEPKcPc
                0x00010d7c       0x78
 t._ZN4mbed17rpc_method_callerINS_10DigitalOutEiXadL_ZNS1_5writeEiEEEEvPNS_4BaseEPKcPc
                0x00010d7c       0x78 ../../external/mbed/LPC1768/mbed.ar(DigitalOut.LPC1768.o)
                0x00010d7c                _ZN4mbed17rpc_method_callerINS_10DigitalOutEiXadL_ZNS1_5writeEiEEEEvPNS_4BaseEPKcPc

t._ZN4mbed17rpc_method_callerIiNS_10DigitalOutEXadL_ZNS1_4readEvEEEEvPNS_4BaseEPKcPc
                0x00010df4       0x38
 t._ZN4mbed17rpc_method_callerIiNS_10DigitalOutEXadL_ZNS1_4readEvEEEEvPNS_4BaseEPKcPc
                0x00010df4       0x38 ../../external/mbed/LPC1768/mbed.ar(DigitalOut.LPC1768.o)
                0x00010df4                _ZN4mbed17rpc_method_callerIiNS_10DigitalOutEXadL_ZNS1_4readEvEEEEvPNS_4BaseEPKcPc

t._ZN4mbed9rpc_superINS_4BaseEEEPKNS_10rpc_methodEPS1_
                0x00010e2c        0x4
 t._ZN4mbed9rpc_superINS_4BaseEEEPKNS_10rpc_methodEPS1_
                0x00010e2c        0x4 ../../external/mbed/LPC1768/mbed.ar(DigitalOut.LPC1768.o)
                0x00010e2c                _ZN4mbed9rpc_superINS_4BaseEEEPKNS_10rpc_methodEPS1_

i._ZN4mbed10DigitalOut5writeEi
                0x00010e30        0xe
 i._ZN4mbed10DigitalOut5writeEi
                0x00010e30        0xe ../../external/mbed/LPC1768/mbed.ar(DigitalOut.LPC1768.o)
                0x00010e30                _ZN4mbed10DigitalOut5writeEi

i._ZN4mbed10DigitalOut4readEv
                0x00010e3e        0xe
 i._ZN4mbed10DigitalOut4readEv
                0x00010e3e        0xe ../../external/mbed/LPC1768/mbed.ar(DigitalOut.LPC1768.o)
                0x00010e3e                _ZN4mbed10DigitalOut4readEv

i._ZN4mbed10DigitalOutD0Ev
                0x00010e4c        0xe
 i._ZN4mbed10DigitalOutD0Ev
                0x00010e4c        0xe ../../external/mbed/LPC1768/mbed.ar(DigitalOut.LPC1768.o)
                0x00010e4c                _ZN4mbed10DigitalOutD0Ev

i._ZN4mbed10parse_charEPKcPS1_
                0x00010e5a       0xa2
 i._ZN4mbed10parse_charEPKcPS1_
                0x00010e5a       0xa2 ../../external/mbed/LPC1768/mbed.ar(DigitalOut.LPC1768.o)
                0x00010e5a                _ZN4mbed10parse_charEPKcPS1_

i._ZN4mbed4Base11delete_selfEv
                0x00010efc       0x1e
 i._ZN4mbed4Base11delete_selfEv
                0x00010efc       0x1e ../../external/mbed/LPC1768/mbed.ar(Base.LPC1768.o)
                0x00010efc                _ZN4mbed4Base11delete_selfEv

i._ZN4mbed4Base15get_rpc_methodsEv
                0x00010f1c        0x8
 i._ZN4mbed4Base15get_rpc_methodsEv
                0x00010f1c        0x8 ../../external/mbed/LPC1768/mbed.ar(Base.LPC1768.o)
                0x00010f1c                _ZN4mbed4Base15get_rpc_methodsEv

i._ZN4mbed4Base15register_objectEPKc
                0x00010f24       0x1c
 i._ZN4mbed4Base15register_objectEPKc
                0x00010f24       0x1c ../../external/mbed/LPC1768/mbed.ar(Base.LPC1768.o)
                0x00010f24                _ZN4mbed4Base15register_objectEPKc

i._ZN4mbed4Base3rpcEPKcS2_Pc
                0x00010f40       0x98
 i._ZN4mbed4Base3rpcEPKcS2_Pc
                0x00010f40       0x98 ../../external/mbed/LPC1768/mbed.ar(Base.LPC1768.o)
                0x00010f40                _ZN4mbed4Base3rpcEPKcS2_Pc

i._ZN4mbed4Base5clearEPKcPc
                0x00010fd8       0x30
 i._ZN4mbed4Base5clearEPKcPc
                0x00010fd8       0x30 ../../external/mbed/LPC1768/mbed.ar(Base.LPC1768.o)
                0x00010fd8                _ZN4mbed4Base5clearEPKcPc

i._ZN4mbed4Base6lookupEPKcj
                0x00011008       0x38
 i._ZN4mbed4Base6lookupEPKcj
                0x00011008       0x38 ../../external/mbed/LPC1768/mbed.ar(Base.LPC1768.o)
                0x00011008                _ZN4mbed4Base6lookupEPKcj

i._ZN4mbed4Base7opendirEv
                0x00011040       0x18
 i._ZN4mbed4Base7opendirEv
                0x00011040       0x18 ../../external/mbed/LPC1768/mbed.ar(Base.LPC1768.o)
                0x00011040                _ZN4mbed4Base7opendirEv

i._ZN4mbed4Base8new_nameEPS0_
                0x00011058       0x20
 i._ZN4mbed4Base8new_nameEPS0_
                0x00011058       0x20 ../../external/mbed/LPC1768/mbed.ar(Base.LPC1768.o)
                0x00011058                _ZN4mbed4Base8new_nameEPS0_

i._ZN4mbed4Base9list_objsEPKcPc
                0x00011078       0x40
 i._ZN4mbed4Base9list_objsEPKcPc
                0x00011078       0x40 ../../external/mbed/LPC1768/mbed.ar(Base.LPC1768.o)
                0x00011078                _ZN4mbed4Base9list_objsEPKcPc

i._ZN4mbed4BaseC1EPKc
                0x000110b8       0x24
 i._ZN4mbed4BaseC1EPKc
                0x000110b8       0x24 ../../external/mbed/LPC1768/mbed.ar(Base.LPC1768.o)
                0x000110b8                _ZN4mbed4BaseC1EPKc
                0x000110b8                _ZN4mbed4BaseC2EPKc

i._ZN4mbed4BaseD0Ev
                0x000110dc       0x34
 i._ZN4mbed4BaseD0Ev
                0x000110dc       0x34 ../../external/mbed/LPC1768/mbed.ar(Base.LPC1768.o)
                0x000110dc                _ZN4mbed4BaseD0Ev

i._ZN4mbed4BaseD1Ev
                0x00011110       0x38
 i._ZN4mbed4BaseD1Ev
                0x00011110       0x38 ../../external/mbed/LPC1768/mbed.ar(Base.LPC1768.o)
                0x00011110                _ZN4mbed4BaseD1Ev
                0x00011110                _ZN4mbed4BaseD2Ev

t._ZN4mbed17rpc_method_callerINS_4BaseEXadL_ZNS1_11delete_selfEvEEEEvPS1_PKcPc
                0x00011148       0x28
 t._ZN4mbed17rpc_method_callerINS_4BaseEXadL_ZNS1_11delete_selfEvEEEEvPS1_PKcPc
                0x00011148       0x28 ../../external/mbed/LPC1768/mbed.ar(Base.LPC1768.o)
                0x00011148                _ZN4mbed17rpc_method_callerINS_4BaseEXadL_ZNS1_11delete_selfEvEEEEvPS1_PKcPc

i._ZN4mbed13BaseDirHandle8closedirEv
                0x00011170        0xa
 i._ZN4mbed13BaseDirHandle8closedirEv
                0x00011170        0xa ../../external/mbed/LPC1768/mbed.ar(Base.LPC1768.o)
                0x00011170                _ZN4mbed13BaseDirHandle8closedirEv

i._ZN4mbed13BaseDirHandle7readdirEv
                0x0001117c       0x64
 i._ZN4mbed13BaseDirHandle7readdirEv
                0x0001117c       0x64 ../../external/mbed/LPC1768/mbed.ar(Base.LPC1768.o)
                0x0001117c                _ZN4mbed13BaseDirHandle7readdirEv

i._ZN4mbed13BaseDirHandle7telldirEv
                0x000111e0        0x4
 i._ZN4mbed13BaseDirHandle7telldirEv
                0x000111e0        0x4 ../../external/mbed/LPC1768/mbed.ar(Base.LPC1768.o)
                0x000111e0                _ZN4mbed13BaseDirHandle7telldirEv

i._ZN4mbed13BaseDirHandle7seekdirEl
                0x000111e4        0x4
 i._ZN4mbed13BaseDirHandle7seekdirEl
                0x000111e4        0x4 ../../external/mbed/LPC1768/mbed.ar(Base.LPC1768.o)
                0x000111e4                _ZN4mbed13BaseDirHandle7seekdirEl

i._ZN4mbed13BaseDirHandle9rewinddirEv
                0x000111e8        0x6
 i._ZN4mbed13BaseDirHandle9rewinddirEv
                0x000111e8        0x6 ../../external/mbed/LPC1768/mbed.ar(Base.LPC1768.o)
                0x000111e8                _ZN4mbed13BaseDirHandle9rewinddirEv

i._sys_close    0x000111f0       0x2c
 i._sys_close   0x000111f0       0x2c ../../external/mbed/LPC1768/mbed.ar(stdio.LPC1768.o)
                0x000111f0                _sys_close

i._sys_istty    0x0001121c       0x28
 i._sys_istty   0x0001121c       0x28 ../../external/mbed/LPC1768/mbed.ar(stdio.LPC1768.o)
                0x0001121c                _sys_istty

i._sys_open     0x00011244      0x184
 i._sys_open    0x00011244      0x184 ../../external/mbed/LPC1768/mbed.ar(stdio.LPC1768.o)
                0x00011244                _sys_open

i._sys_read     0x000113c8       0x40
 i._sys_read    0x000113c8       0x40 ../../external/mbed/LPC1768/mbed.ar(stdio.LPC1768.o)
                0x000113c8                _sys_read

i._sys_seek     0x00011408       0x2c
 i._sys_seek    0x00011408       0x2c ../../external/mbed/LPC1768/mbed.ar(stdio.LPC1768.o)
                0x00011408                _sys_seek

i._sys_write    0x00011434       0x54
 i._sys_write   0x00011434       0x54 ../../external/mbed/LPC1768/mbed.ar(stdio.LPC1768.o)
                0x00011434                _sys_write

i.closedir      0x00011488        0x6
 i.closedir     0x00011488        0x6 ../../external/mbed/LPC1768/mbed.ar(stdio.LPC1768.o)
                0x00011488                closedir

i.opendir       0x00011490       0x54
 i.opendir      0x00011490       0x54 ../../external/mbed/LPC1768/mbed.ar(stdio.LPC1768.o)
                0x00011490                opendir

i.readdir       0x000114e4        0x6
 i.readdir      0x000114e4        0x6 ../../external/mbed/LPC1768/mbed.ar(stdio.LPC1768.o)
                0x000114e4                readdir

i.remove        0x000114ec       0x50
 i.remove       0x000114ec       0x50 ../../external/mbed/LPC1768/mbed.ar(stdio.LPC1768.o)
                0x000114ec                remove

i._ZN4mbed3SPI15get_rpc_methodsEv
                0x0001153c        0x8
 i._ZN4mbed3SPI15get_rpc_methodsEv
                0x0001153c        0x8 ../../external/mbed/LPC1768/mbed.ar(SPI.LPC1768.o)
                0x0001153c                _ZN4mbed3SPI15get_rpc_methodsEv

i._ZN4mbed3SPI5writeEi
                0x00011544       0x16
 i._ZN4mbed3SPI5writeEi
                0x00011544       0x16 ../../external/mbed/LPC1768/mbed.ar(SPI.LPC1768.o)
                0x00011544                _ZN4mbed3SPI5writeEi

i._ZN4mbed3SPI6aquireEv
                0x0001155c       0x2c
 i._ZN4mbed3SPI6aquireEv
                0x0001155c       0x2c ../../external/mbed/LPC1768/mbed.ar(SPI.LPC1768.o)
                0x0001155c                _ZN4mbed3SPI6aquireEv

i._ZN4mbed3SPI6formatEii
                0x00011588       0x14
 i._ZN4mbed3SPI6formatEii
                0x00011588       0x14 ../../external/mbed/LPC1768/mbed.ar(SPI.LPC1768.o)
                0x00011588                _ZN4mbed3SPI6formatEii

i._ZN4mbed3SPI9frequencyEi
                0x0001159c       0x10
 i._ZN4mbed3SPI9frequencyEi
                0x0001159c       0x10 ../../external/mbed/LPC1768/mbed.ar(SPI.LPC1768.o)
                0x0001159c                _ZN4mbed3SPI9frequencyEi

i._ZN4mbed3SPIC1E7PinNameS1_S1_PKc
                0x000115ac       0x4c
 i._ZN4mbed3SPIC1E7PinNameS1_S1_PKc
                0x000115ac       0x4c ../../external/mbed/LPC1768/mbed.ar(SPI.LPC1768.o)
                0x000115ac                _ZN4mbed3SPIC1E7PinNameS1_S1_PKc
                0x000115ac                _ZN4mbed3SPIC2E7PinNameS1_S1_PKc

i._ZN4mbed3SPID1Ev
                0x000115f8        0x4
 i._ZN4mbed3SPID1Ev
                0x000115f8        0x4 ../../external/mbed/LPC1768/mbed.ar(SPI.LPC1768.o)
                0x000115f8                _ZN4mbed3SPID1Ev
                0x000115f8                _ZN4mbed3SPID2Ev

i._ZN4mbed9parse_argI7PinNameEET_PKcPS4_
                0x000115fc       0xf0
 i._ZN4mbed9parse_argI7PinNameEET_PKcPS4_
                0x000115fc       0xf0 ../../external/mbed/LPC1768/mbed.ar(SPI.LPC1768.o)
                0x000115fc                _ZN4mbed9parse_argI7PinNameEET_PKcPS4_

t._ZN4mbed17rpc_method_callerINS_3SPIEiiXadL_ZNS1_6formatEiiEEEEvPNS_4BaseEPKcPc
                0x000116ec       0x84
 t._ZN4mbed17rpc_method_callerINS_3SPIEiiXadL_ZNS1_6formatEiiEEEEvPNS_4BaseEPKcPc
                0x000116ec       0x84 ../../external/mbed/LPC1768/mbed.ar(SPI.LPC1768.o)
                0x000116ec                _ZN4mbed17rpc_method_callerINS_3SPIEiiXadL_ZNS1_6formatEiiEEEEvPNS_4BaseEPKcPc

t._ZN4mbed17rpc_method_callerINS_3SPIEiXadL_ZNS1_9frequencyEiEEEEvPNS_4BaseEPKcPc
                0x00011770       0x50
 t._ZN4mbed17rpc_method_callerINS_3SPIEiXadL_ZNS1_9frequencyEiEEEEvPNS_4BaseEPKcPc
                0x00011770       0x50 ../../external/mbed/LPC1768/mbed.ar(SPI.LPC1768.o)
                0x00011770                _ZN4mbed17rpc_method_callerINS_3SPIEiXadL_ZNS1_9frequencyEiEEEEvPNS_4BaseEPKcPc

t._ZN4mbed17rpc_method_callerIiNS_3SPIEiXadL_ZNS1_5writeEiEEEEvPNS_4BaseEPKcPc
                0x000117c0       0x5c
 t._ZN4mbed17rpc_method_callerIiNS_3SPIEiXadL_ZNS1_5writeEiEEEEvPNS_4BaseEPKcPc
                0x000117c0       0x5c ../../external/mbed/LPC1768/mbed.ar(SPI.LPC1768.o)
                0x000117c0                _ZN4mbed17rpc_method_callerIiNS_3SPIEiXadL_ZNS1_5writeEiEEEEvPNS_4BaseEPKcPc

t._ZN4mbed19rpc_function_callerIPKc7PinNameS3_S3_S2_XadL_ZNS_4Base9constructINS_3SPIES3_S3_S3_S2_EES2_T0_T1_T2_T3_EEEEvS2_Pc
                0x0001181c      0x1cc
 t._ZN4mbed19rpc_function_callerIPKc7PinNameS3_S3_S2_XadL_ZNS_4Base9constructINS_3SPIES3_S3_S3_S2_EES2_T0_T1_T2_T3_EEEEvS2_Pc
                0x0001181c      0x1cc ../../external/mbed/LPC1768/mbed.ar(SPI.LPC1768.o)
                0x0001181c                _ZN4mbed19rpc_function_callerIPKc7PinNameS3_S3_S2_XadL_ZNS_4Base9constructINS_3SPIES3_S3_S3_S2_EES2_T0_T1_T2_T3_EEEEvS2_Pc

i._ZN4mbed3SPID0Ev
                0x000119e8        0xe
 i._ZN4mbed3SPID0Ev
                0x000119e8        0xe ../../external/mbed/LPC1768/mbed.ar(SPI.LPC1768.o)
                0x000119e8                _ZN4mbed3SPID0Ev

i._ZN4mbed8next_argEPKc
                0x000119f6       0x2c
 i._ZN4mbed8next_argEPKc
                0x000119f6       0x2c ../../external/mbed/LPC1768/mbed.ar(SPI.LPC1768.o)
                0x000119f6                _ZN4mbed8next_argEPKc

.emb_text       0x00011a24       0x20
 .emb_text      0x00011a24       0x20 ../../external/mbed/LPC1768/capi.ar(core_cm3.LPC1768.o)
                0x00011a24                __get_PSP
                0x00011a2a                __set_PSP
                0x00011a30                __get_MSP
                0x00011a36                __set_MSP
                0x00011a3c                __REV16
                0x00011a40                __REVSH

i.serial_baud   0x00011a44      0x1c8
 i.serial_baud  0x00011a44      0x1c8 ../../external/mbed/LPC1768/capi.ar(serial_api.LPC1768.o)
                0x00011a44                serial_baud

i.serial_format
                0x00011c0c       0x94
 i.serial_format
                0x00011c0c       0x94 ../../external/mbed/LPC1768/capi.ar(serial_api.LPC1768.o)
                0x00011c0c                serial_format

i.serial_getc   0x00011ca0        0xc
 i.serial_getc  0x00011ca0        0xc ../../external/mbed/LPC1768/capi.ar(serial_api.LPC1768.o)
                0x00011ca0                serial_getc

i.serial_init   0x00011cac       0xe4
 i.serial_init  0x00011cac       0xe4 ../../external/mbed/LPC1768/capi.ar(serial_api.LPC1768.o)
                0x00011cac                serial_init

i.serial_putc   0x00011d90        0xc
 i.serial_putc  0x00011d90        0xc ../../external/mbed/LPC1768/capi.ar(serial_api.LPC1768.o)
                0x00011d90                serial_putc

i.exit          0x00011d9c       0x16
 i.exit         0x00011d9c       0x16 ../../external/mbed/LPC1768/capi.ar(exit.LPC1768.o)
                0x00011d9c                exit

i.spi_format    0x00011db4       0x84
 i.spi_format   0x00011db4       0x84 ../../external/mbed/LPC1768/capi.ar(spi_api.LPC1768.o)
                0x00011db4                spi_format

i.spi_frequency
                0x00011e38       0xb8
 i.spi_frequency
                0x00011e38       0xb8 ../../external/mbed/LPC1768/capi.ar(spi_api.LPC1768.o)
                0x00011e38                spi_frequency

i.spi_init      0x00011ef0      0x124
 i.spi_init     0x00011ef0      0x124 ../../external/mbed/LPC1768/capi.ar(spi_api.LPC1768.o)
                0x00011ef0                spi_init

i.spi_master_write
                0x00012014       0x16
 i.spi_master_write
                0x00012014       0x16 ../../external/mbed/LPC1768/capi.ar(spi_api.LPC1768.o)
                0x00012014                spi_master_write

i.pin_function  0x0001202c       0x38
 i.pin_function
                0x0001202c       0x38 ../../external/mbed/LPC1768/capi.ar(pinmap.LPC1768.o)
                0x0001202c                pin_function

i.pin_mode      0x00012064       0x68
 i.pin_mode     0x00012064       0x68 ../../external/mbed/LPC1768/capi.ar(pinmap.LPC1768.o)
                0x00012064                pin_mode

i.pinmap_merge  0x000120cc       0x3c
 i.pinmap_merge
                0x000120cc       0x3c ../../external/mbed/LPC1768/capi.ar(pinmap.LPC1768.o)
                0x000120cc                pinmap_merge

i.pinmap_peripheral
                0x00012108       0x58
 i.pinmap_peripheral
                0x00012108       0x58 ../../external/mbed/LPC1768/capi.ar(pinmap.LPC1768.o)
                0x00012108                pinmap_peripheral

i.pinmap_pinout
                0x00012160       0xcc
 i.pinmap_pinout
                0x00012160       0xcc ../../external/mbed/LPC1768/capi.ar(pinmap.LPC1768.o)
                0x00012160                pinmap_pinout

i.gpio_output   0x0001222c       0x30
 i.gpio_output  0x0001222c       0x30 ../../external/mbed/LPC1768/capi.ar(gpio_api.LPC1768.o)
                0x0001222c                gpio_output

i.gpio_write    0x0001225c       0x18
 i.gpio_write   0x0001225c       0x18 ../../external/mbed/LPC1768/capi.ar(gpio_api.LPC1768.o)
                0x0001225c                gpio_write

i.semihost_exit
                0x00012274        0xc
 i.semihost_exit
                0x00012274        0xc ../../external/mbed/LPC1768/capi.ar(semihost_api.LPC1768.o)
                0x00012274                semihost_exit

i.mbed_die      0x00012280       0x78
 i.mbed_die     0x00012280       0x78 ../../external/mbed/LPC1768/capi.ar(utils_api.LPC1768.o)
                0x00012280                mbed_die

i.wait_ms       0x000122f8       0x1c
 i.wait_ms      0x000122f8       0x1c ../../external/mbed/LPC1768/capi.ar(wait_api.LPC1768.o)
                0x000122f8                wait_ms

i.us_ticker_read
                0x00012314       0x38
 i.us_ticker_read
                0x00012314       0x38 ../../external/mbed/LPC1768/capi.ar(us_ticker_api.LPC1768.o)
                0x00012314                us_ticker_read

i.timer_frequency
                0x0001234c       0x14
 i.timer_frequency
                0x0001234c       0x14 ../../external/mbed/LPC1768/capi.ar(timer_api.LPC1768.o)
                0x0001234c                timer_frequency

i.timer_init    0x00012360       0x70
 i.timer_init   0x00012360       0x70 ../../external/mbed/LPC1768/capi.ar(timer_api.LPC1768.o)
                0x00012360                timer_init

i.timer_read    0x000123d0        0x4
 i.timer_read   0x000123d0        0x4 ../../external/mbed/LPC1768/capi.ar(timer_api.LPC1768.o)
                0x000123d0                timer_read

i.timer_start   0x000123d4        0xc
 i.timer_start  0x000123d4        0xc ../../external/mbed/LPC1768/capi.ar(timer_api.LPC1768.o)
                0x000123d4                timer_start

i._ZN4mbed13FATFileSystem4openEPKci
                0x000123e0       0x94
 i._ZN4mbed13FATFileSystem4openEPKci
                0x000123e0       0x94 ../../external/FATFileSystem/LPC1768/FATFileSystem.ar(FATFileSystem.cpp.lpc1768.arm.o)
                0x000123e0                _ZN4mbed13FATFileSystem4openEPKci

i._ZN4mbed13FATFileSystem5mkdirEPKci
                0x00012474       0x12
 i._ZN4mbed13FATFileSystem5mkdirEPKci
                0x00012474       0x12 ../../external/FATFileSystem/LPC1768/FATFileSystem.ar(FATFileSystem.cpp.lpc1768.arm.o)
                0x00012474                _ZN4mbed13FATFileSystem5mkdirEPKci

i._ZN4mbed13FATFileSystem6formatEv
                0x00012486       0x1c
 i._ZN4mbed13FATFileSystem6formatEv
                0x00012486       0x1c ../../external/FATFileSystem/LPC1768/FATFileSystem.ar(FATFileSystem.cpp.lpc1768.arm.o)
                0x00012486                _ZN4mbed13FATFileSystem6formatEv

i._ZN4mbed13FATFileSystem6removeEPKc
                0x000124a2       0x12
 i._ZN4mbed13FATFileSystem6removeEPKc
                0x000124a2       0x12 ../../external/FATFileSystem/LPC1768/FATFileSystem.ar(FATFileSystem.cpp.lpc1768.arm.o)
                0x000124a2                _ZN4mbed13FATFileSystem6removeEPKc

i._ZN4mbed13FATFileSystem7opendirEPKc
                0x000124b4       0x26
 i._ZN4mbed13FATFileSystem7opendirEPKc
                0x000124b4       0x26 ../../external/FATFileSystem/LPC1768/FATFileSystem.ar(FATFileSystem.cpp.lpc1768.arm.o)
                0x000124b4                _ZN4mbed13FATFileSystem7opendirEPKc

i._ZN4mbed13FATFileSystemC2EPKc
                0x000124dc       0x88
 i._ZN4mbed13FATFileSystemC2EPKc
                0x000124dc       0x88 ../../external/FATFileSystem/LPC1768/FATFileSystem.ar(FATFileSystem.cpp.lpc1768.arm.o)
                0x000124dc                _ZN4mbed13FATFileSystemC2EPKc

i._ZN4mbed13FATFileSystemD0Ev
                0x00012564       0x40
 i._ZN4mbed13FATFileSystemD0Ev
                0x00012564       0x40 ../../external/FATFileSystem/LPC1768/FATFileSystem.ar(FATFileSystem.cpp.lpc1768.arm.o)
                0x00012564                _ZN4mbed13FATFileSystemD0Ev

i._ZN4mbed13FATFileSystemD2Ev
                0x000125a4       0x3c
 i._ZN4mbed13FATFileSystemD2Ev
                0x000125a4       0x3c ../../external/FATFileSystem/LPC1768/FATFileSystem.ar(FATFileSystem.cpp.lpc1768.arm.o)
                0x000125a4                _ZN4mbed13FATFileSystemD2Ev
                0x000125a4                _ZN4mbed13FATFileSystemD1Ev

i.get_fattime   0x000125e0        0x6
 i.get_fattime  0x000125e0        0x6 ../../external/FATFileSystem/LPC1768/FATFileSystem.ar(FATFileSystem.cpp.lpc1768.arm.o)
                0x000125e0                get_fattime

i._ZN4mbed13FATFileSystem15disk_initializeEv
                0x000125e6        0x4
 i._ZN4mbed13FATFileSystem15disk_initializeEv
                0x000125e6        0x4 ../../external/FATFileSystem/LPC1768/FATFileSystem.ar(FATFileSystem.cpp.lpc1768.arm.o)
                0x000125e6                _ZN4mbed13FATFileSystem15disk_initializeEv

i._ZN4mbed13FATFileSystem11disk_statusEv
                0x000125ea        0x4
 i._ZN4mbed13FATFileSystem11disk_statusEv
                0x000125ea        0x4 ../../external/FATFileSystem/LPC1768/FATFileSystem.ar(FATFileSystem.cpp.lpc1768.arm.o)
                0x000125ea                _ZN4mbed13FATFileSystem11disk_statusEv

i._ZN4mbed13FATFileSystem9disk_syncEv
                0x000125ee        0x4
 i._ZN4mbed13FATFileSystem9disk_syncEv
                0x000125ee        0x4 ../../external/FATFileSystem/LPC1768/FATFileSystem.ar(FATFileSystem.cpp.lpc1768.arm.o)
                0x000125ee                _ZN4mbed13FATFileSystem9disk_syncEv

i._ZN4mbed12FATDirHandle7readdirEv
                0x000125f2       0x32
 i._ZN4mbed12FATDirHandle7readdirEv
                0x000125f2       0x32 ../../external/FATFileSystem/LPC1768/FATFileSystem.ar(FATDirHandle.cpp.lpc1768.arm.o)
                0x000125f2                _ZN4mbed12FATDirHandle7readdirEv

i._ZN4mbed12FATDirHandle7seekdirEl
                0x00012624        0x4
 i._ZN4mbed12FATDirHandle7seekdirEl
                0x00012624        0x4 ../../external/FATFileSystem/LPC1768/FATFileSystem.ar(FATDirHandle.cpp.lpc1768.arm.o)
                0x00012624                _ZN4mbed12FATDirHandle7seekdirEl

i._ZN4mbed12FATDirHandle7telldirEv
                0x00012628        0x4
 i._ZN4mbed12FATDirHandle7telldirEv
                0x00012628        0x4 ../../external/FATFileSystem/LPC1768/FATFileSystem.ar(FATDirHandle.cpp.lpc1768.arm.o)
                0x00012628                _ZN4mbed12FATDirHandle7telldirEv

i._ZN4mbed12FATDirHandle8closedirEv
                0x0001262c        0xa
 i._ZN4mbed12FATDirHandle8closedirEv
                0x0001262c        0xa ../../external/FATFileSystem/LPC1768/FATFileSystem.ar(FATDirHandle.cpp.lpc1768.arm.o)
                0x0001262c                _ZN4mbed12FATDirHandle8closedirEv

i._ZN4mbed12FATDirHandle9rewinddirEv
                0x00012636        0x6
 i._ZN4mbed12FATDirHandle9rewinddirEv
                0x00012636        0x6 ../../external/FATFileSystem/LPC1768/FATFileSystem.ar(FATDirHandle.cpp.lpc1768.arm.o)
                0x00012636                _ZN4mbed12FATDirHandle9rewinddirEv

i._ZN4mbed12FATDirHandleC1ERK4_DIR
                0x0001263c       0x18
 i._ZN4mbed12FATDirHandleC1ERK4_DIR
                0x0001263c       0x18 ../../external/FATFileSystem/LPC1768/FATFileSystem.ar(FATDirHandle.cpp.lpc1768.arm.o)
                0x0001263c                _ZN4mbed12FATDirHandleC2ERK4_DIR
                0x0001263c                _ZN4mbed12FATDirHandleC1ERK4_DIR

i._ZN4mbed13FATFileHandle4flenEv
                0x00012654        0x4
 i._ZN4mbed13FATFileHandle4flenEv
                0x00012654        0x4 ../../external/FATFileSystem/LPC1768/FATFileSystem.ar(FATFileHandle.cpp.lpc1768.arm.o)
                0x00012654                _ZN4mbed13FATFileHandle4flenEv

i._ZN4mbed13FATFileHandle4readEPvj
                0x00012658       0x16
 i._ZN4mbed13FATFileHandle4readEPvj
                0x00012658       0x16 ../../external/FATFileSystem/LPC1768/FATFileSystem.ar(FATFileHandle.cpp.lpc1768.arm.o)
                0x00012658                _ZN4mbed13FATFileHandle4readEPvj

i._ZN4mbed13FATFileHandle5closeEv
                0x0001266e       0x16
 i._ZN4mbed13FATFileHandle5closeEv
                0x0001266e       0x16 ../../external/FATFileSystem/LPC1768/FATFileSystem.ar(FATFileHandle.cpp.lpc1768.arm.o)
                0x0001266e                _ZN4mbed13FATFileHandle5closeEv

i._ZN4mbed13FATFileHandle5fsyncEv
                0x00012684       0x12
 i._ZN4mbed13FATFileHandle5fsyncEv
                0x00012684       0x12 ../../external/FATFileSystem/LPC1768/FATFileSystem.ar(FATFileHandle.cpp.lpc1768.arm.o)
                0x00012684                _ZN4mbed13FATFileHandle5fsyncEv

i._ZN4mbed13FATFileHandle5lseekEli
                0x00012696       0x26
 i._ZN4mbed13FATFileHandle5lseekEli
                0x00012696       0x26 ../../external/FATFileSystem/LPC1768/FATFileSystem.ar(FATFileHandle.cpp.lpc1768.arm.o)
                0x00012696                _ZN4mbed13FATFileHandle5lseekEli

i._ZN4mbed13FATFileHandle5writeEPKvj
                0x000126bc       0x16
 i._ZN4mbed13FATFileHandle5writeEPKvj
                0x000126bc       0x16 ../../external/FATFileSystem/LPC1768/FATFileSystem.ar(FATFileHandle.cpp.lpc1768.arm.o)
                0x000126bc                _ZN4mbed13FATFileHandle5writeEPKvj

i._ZN4mbed13FATFileHandle6isattyEv
                0x000126d2        0x4
 i._ZN4mbed13FATFileHandle6isattyEv
                0x000126d2        0x4 ../../external/FATFileSystem/LPC1768/FATFileSystem.ar(FATFileHandle.cpp.lpc1768.arm.o)
                0x000126d2                _ZN4mbed13FATFileHandle6isattyEv

i._ZN4mbed13FATFileHandleC1E4_FIL
                0x000126d8       0x24
 i._ZN4mbed13FATFileHandleC1E4_FIL
                0x000126d8       0x24 ../../external/FATFileSystem/LPC1768/FATFileSystem.ar(FATFileHandle.cpp.lpc1768.arm.o)
                0x000126d8                _ZN4mbed13FATFileHandleC1E4_FIL
                0x000126d8                _ZN4mbed13FATFileHandleC2E4_FIL

i.auto_mount    0x000126fc      0x294
 i.auto_mount   0x000126fc      0x294 ../../external/FATFileSystem/LPC1768/FATFileSystem.ar(ff.c.lpc1768.arm.o)

i.clust2sect    0x00012990       0x18
 i.clust2sect   0x00012990       0x18 ../../external/FATFileSystem/LPC1768/FATFileSystem.ar(ff.c.lpc1768.arm.o)

i.create_chain  0x000129a8       0x90
 i.create_chain
                0x000129a8       0x90 ../../external/FATFileSystem/LPC1768/FATFileSystem.ar(ff.c.lpc1768.arm.o)

i.f_close       0x00012a38       0x12
 i.f_close      0x00012a38       0x12 ../../external/FATFileSystem/LPC1768/FATFileSystem.ar(ff.c.lpc1768.arm.o)
                0x00012a38                f_close

i.f_lseek       0x00012a4a      0x14c
 i.f_lseek      0x00012a4a      0x14c ../../external/FATFileSystem/LPC1768/FATFileSystem.ar(ff.c.lpc1768.arm.o)
                0x00012a4a                f_lseek

i.f_mkdir       0x00012b96      0x1aa
 i.f_mkdir      0x00012b96      0x1aa ../../external/FATFileSystem/LPC1768/FATFileSystem.ar(ff.c.lpc1768.arm.o)
                0x00012b96                f_mkdir

i.f_mkfs        0x00012d40      0x51a
 i.f_mkfs       0x00012d40      0x51a ../../external/FATFileSystem/LPC1768/FATFileSystem.ar(ff.c.lpc1768.arm.o)
                0x00012d40                f_mkfs

i.f_mount       0x0001325c       0x30
 i.f_mount      0x0001325c       0x30 ../../external/FATFileSystem/LPC1768/FATFileSystem.ar(ff.c.lpc1768.arm.o)
                0x0001325c                f_mount

i.f_open        0x0001328c      0x1a0
 i.f_open       0x0001328c      0x1a0 ../../external/FATFileSystem/LPC1768/FATFileSystem.ar(ff.c.lpc1768.arm.o)
                0x0001328c                f_open

i.f_opendir     0x0001342c       0x62
 i.f_opendir    0x0001342c       0x62 ../../external/FATFileSystem/LPC1768/FATFileSystem.ar(ff.c.lpc1768.arm.o)
                0x0001342c                f_opendir

i.f_read        0x0001348e      0x15c
 i.f_read       0x0001348e      0x15c ../../external/FATFileSystem/LPC1768/FATFileSystem.ar(ff.c.lpc1768.arm.o)
                0x0001348e                f_read

i.f_readdir     0x000135ea      0x10a
 i.f_readdir    0x000135ea      0x10a ../../external/FATFileSystem/LPC1768/FATFileSystem.ar(ff.c.lpc1768.arm.o)
                0x000135ea                f_readdir

i.f_sync        0x000136f4       0xa6
 i.f_sync       0x000136f4       0xa6 ../../external/FATFileSystem/LPC1768/FATFileSystem.ar(ff.c.lpc1768.arm.o)
                0x000136f4                f_sync

i.f_unlink      0x0001379a       0xe0
 i.f_unlink     0x0001379a       0xe0 ../../external/FATFileSystem/LPC1768/FATFileSystem.ar(ff.c.lpc1768.arm.o)
                0x0001379a                f_unlink

i.f_write       0x0001387a      0x198
 i.f_write      0x0001387a      0x198 ../../external/FATFileSystem/LPC1768/FATFileSystem.ar(ff.c.lpc1768.arm.o)
                0x0001387a                f_write

i.get_cluster   0x00013a12       0xd6
 i.get_cluster  0x00013a12       0xd6 ../../external/FATFileSystem/LPC1768/FATFileSystem.ar(ff.c.lpc1768.arm.o)

i.move_window   0x00013ae8       0x7c
 i.move_window  0x00013ae8       0x7c ../../external/FATFileSystem/LPC1768/FATFileSystem.ar(ff.c.lpc1768.arm.o)

i.next_dir_entry
                0x00013b64       0x56
 i.next_dir_entry
                0x00013b64       0x56 ../../external/FATFileSystem/LPC1768/FATFileSystem.ar(ff.c.lpc1768.arm.o)

i.put_cluster   0x00013bba       0xf6
 i.put_cluster  0x00013bba       0xf6 ../../external/FATFileSystem/LPC1768/FATFileSystem.ar(ff.c.lpc1768.arm.o)

i.remove_chain  0x00013cb0       0x40
 i.remove_chain
                0x00013cb0       0x40 ../../external/FATFileSystem/LPC1768/FATFileSystem.ar(ff.c.lpc1768.arm.o)

i.reserve_direntry
                0x00013cf0       0xca
 i.reserve_direntry
                0x00013cf0       0xca ../../external/FATFileSystem/LPC1768/FATFileSystem.ar(ff.c.lpc1768.arm.o)

i.sync          0x00013dba       0x2a
 i.sync         0x00013dba       0x2a ../../external/FATFileSystem/LPC1768/FATFileSystem.ar(ff.c.lpc1768.arm.o)

i.trace_path    0x00013de4      0x1e0
 i.trace_path   0x00013de4      0x1e0 ../../external/FATFileSystem/LPC1768/FATFileSystem.ar(ff.c.lpc1768.arm.o)

i.validate      0x00013fc4       0x2a
 i.validate     0x00013fc4       0x2a ../../external/FATFileSystem/LPC1768/FATFileSystem.ar(ff.c.lpc1768.arm.o)

i.disk_initialize
                0x00013ff0       0x18
 i.disk_initialize
                0x00013ff0       0x18 ../../external/FATFileSystem/LPC1768/FATFileSystem.ar(diskio.cpp.lpc1768.arm.o)
                0x00013ff0                disk_initialize

i.disk_ioctl    0x00014008       0x54
 i.disk_ioctl   0x00014008       0x54 ../../external/FATFileSystem/LPC1768/FATFileSystem.ar(diskio.cpp.lpc1768.arm.o)
                0x00014008                disk_ioctl

i.disk_read     0x0001405c       0x40
 i.disk_read    0x0001405c       0x40 ../../external/FATFileSystem/LPC1768/FATFileSystem.ar(diskio.cpp.lpc1768.arm.o)
                0x0001405c                disk_read

i.disk_status   0x0001409c       0x18
 i.disk_status  0x0001409c       0x18 ../../external/FATFileSystem/LPC1768/FATFileSystem.ar(diskio.cpp.lpc1768.arm.o)
                0x0001409c                disk_status

i.disk_write    0x000140b4       0x44
 i.disk_write   0x000140b4       0x44 ../../external/FATFileSystem/LPC1768/FATFileSystem.ar(diskio.cpp.lpc1768.arm.o)
                0x000140b4                disk_write

.constdata      0x000140f8      0x35f
 .constdata     0x000140f8       0x28 ../../external/mbed/LPC1768/mbed.ar(DigitalOut.LPC1768.o)
 .constdata     0x00014120       0x18 ../../external/mbed/LPC1768/mbed.ar(Base.LPC1768.o)
 .constdata     0x00014138       0x18 ../../external/mbed/LPC1768/mbed.ar(Base.LPC1768.o)
                0x00014138                _ZN4mbed4Base11_base_funcsE
 .constdata     0x00014150       0x17 ../../external/mbed/LPC1768/mbed.ar(stdio.LPC1768.o)
                0x00014150                __stdin_name
                0x00014157                __stdout_name
                0x0001415f                __stderr_name
 *fill*         0x00014167        0x1 00
 .constdata     0x00014168       0x38 ../../external/mbed/LPC1768/mbed.ar(SPI.LPC1768.o)
 .constdata     0x000141a0       0x10 ../../external/mbed/LPC1768/mbed.ar(SPI.LPC1768.o)
 .constdata     0x000141b0      0x154 ../../external/mbed/LPC1768/capi.ar(serial_api.LPC1768.o)
 .constdata     0x00014304      0x153 ../../external/mbed/LPC1768/capi.ar(spi_api.LPC1768.o)

.conststring    0x00014457       0x49
 .conststring   0x00014457       0x16 ../../external/mbed/LPC1768/mbed.ar(DigitalOut.LPC1768.o)
 .conststring   0x0001446d        0x7 ../../external/mbed/LPC1768/mbed.ar(Base.LPC1768.o)
 .conststring   0x00014474        0xe ../../external/mbed/LPC1768/mbed.ar(Base.LPC1768.o)
 .conststring   0x00014482        0x5 ../../external/mbed/LPC1768/mbed.ar(Base.LPC1768.o)
 .conststring   0x00014487       0x15 ../../external/mbed/LPC1768/mbed.ar(SPI.LPC1768.o)
                                 0x1b (size before relaxing)
 .conststring   0x0001449c        0x4 ../../external/mbed/LPC1768/mbed.ar(SPI.LPC1768.o)

.constdata__ZTVN4mbed10DigitalOutE
                0x000144a0       0x18
 .constdata__ZTVN4mbed10DigitalOutE
                0x000144a0       0x18 ../../external/mbed/LPC1768/mbed.ar(DigitalOut.LPC1768.o)
                0x000144a0                _ZTVN4mbed10DigitalOutE

.constdata___ARM__ZN4mbed10parse_pinsEPKc_anon0
                0x000144b8       0x68
 .constdata___ARM__ZN4mbed10parse_pinsEPKc_anon0
                0x000144b8       0x68 ../../external/mbed/LPC1768/mbed.ar(DigitalOut.LPC1768.o)
                0x000144b8                __ARM__ZN4mbed10parse_pinsEPKc_anon0

.constdata___ARM__ZN4mbed12write_resultIiEEvT_Pc_anon0
                0x00014520        0x3
 .constdata___ARM__ZN4mbed12write_resultIiEEvT_Pc_anon0
                0x00014520        0x3 ../../external/mbed/LPC1768/mbed.ar(DigitalOut.LPC1768.o)
                0x00014520                __ARM__ZN4mbed12write_resultIiEEvT_Pc_anon0

.constdata__ZTIN4mbed10DigitalOutE
                0x00014524        0xc
 .constdata__ZTIN4mbed10DigitalOutE
                0x00014524        0xc ../../external/mbed/LPC1768/mbed.ar(DigitalOut.LPC1768.o)
                0x00014524                _ZTIN4mbed10DigitalOutE

.constdata__ZTSN4mbed10DigitalOutE
                0x00014530       0x14
 .constdata__ZTSN4mbed10DigitalOutE
                0x00014530       0x14 ../../external/mbed/LPC1768/mbed.ar(DigitalOut.LPC1768.o)
                0x00014530                _ZTSN4mbed10DigitalOutE

.constdata__ZTVN4mbed4BaseE
                0x00014544       0x18
 .constdata__ZTVN4mbed4BaseE
                0x00014544       0x18 ../../external/mbed/LPC1768/mbed.ar(Base.LPC1768.o)
                0x00014544                _ZTVN4mbed4BaseE

.constdata__ZTIN4mbed4BaseE
                0x0001455c        0x8
 .constdata__ZTIN4mbed4BaseE
                0x0001455c        0x8 ../../external/mbed/LPC1768/mbed.ar(Base.LPC1768.o)
                0x0001455c                _ZTIN4mbed4BaseE

.constdata__ZTVN4mbed13BaseDirHandleE
                0x00014564       0x1c
 .constdata__ZTVN4mbed13BaseDirHandleE
                0x00014564       0x1c ../../external/mbed/LPC1768/mbed.ar(Base.LPC1768.o)
                0x00014564                _ZTVN4mbed13BaseDirHandleE

.constdata__ZTIN4mbed13BaseDirHandleE
                0x00014580        0xc
 .constdata__ZTIN4mbed13BaseDirHandleE
                0x00014580        0xc ../../external/mbed/LPC1768/mbed.ar(Base.LPC1768.o)
                0x00014580                _ZTIN4mbed13BaseDirHandleE

.constdata__ZTSN4mbed4BaseE
                0x0001458c        0xd
 .constdata__ZTSN4mbed4BaseE
                0x0001458c        0xd ../../external/mbed/LPC1768/mbed.ar(Base.LPC1768.o)
                0x0001458c                _ZTSN4mbed4BaseE

.constdata__ZTIN4mbed9DirHandleE
                0x0001459c        0x8
 .constdata__ZTIN4mbed9DirHandleE
                0x0001459c        0x8 ../../external/mbed/LPC1768/mbed.ar(Base.LPC1768.o)
                0x0001459c                _ZTIN4mbed9DirHandleE

.constdata__ZTSN4mbed13BaseDirHandleE
                0x000145a4       0x17
 .constdata__ZTSN4mbed13BaseDirHandleE
                0x000145a4       0x17 ../../external/mbed/LPC1768/mbed.ar(Base.LPC1768.o)
                0x000145a4                _ZTSN4mbed13BaseDirHandleE

.constdata__ZTSN4mbed9DirHandleE
                0x000145bb       0x12
 .constdata__ZTSN4mbed9DirHandleE
                0x000145bb       0x12 ../../external/mbed/LPC1768/mbed.ar(Base.LPC1768.o)
                0x000145bb                _ZTSN4mbed9DirHandleE

.constdata__ZTIN4mbed14FileSystemLikeE
                0x000145d0        0xc
 .constdata__ZTIN4mbed14FileSystemLikeE
                0x000145d0        0xc ../../external/mbed/LPC1768/mbed.ar(Base.LPC1768.o)
                0x000145d0                _ZTIN4mbed14FileSystemLikeE

.constdata__ZTSN4mbed14FileSystemLikeE
                0x000145dc       0x18
 .constdata__ZTSN4mbed14FileSystemLikeE
                0x000145dc       0x18 ../../external/mbed/LPC1768/mbed.ar(Base.LPC1768.o)
                0x000145dc                _ZTSN4mbed14FileSystemLikeE

.constdata__ZTIN4mbed8FileLikeE
                0x000145f4       0x20
 .constdata__ZTIN4mbed8FileLikeE
                0x000145f4       0x20 ../../external/mbed/LPC1768/mbed.ar(stdio.LPC1768.o)
                0x000145f4                _ZTIN4mbed8FileLikeE

.constdata__ZTIN4mbed10FileHandleE
                0x00014614        0x8
 .constdata__ZTIN4mbed10FileHandleE
                0x00014614        0x8 ../../external/mbed/LPC1768/mbed.ar(stdio.LPC1768.o)
                0x00014614                _ZTIN4mbed10FileHandleE

.constdata__ZTSN4mbed8FileLikeE
                0x0001461c       0x11
 .constdata__ZTSN4mbed8FileLikeE
                0x0001461c       0x11 ../../external/mbed/LPC1768/mbed.ar(stdio.LPC1768.o)
                0x0001461c                _ZTSN4mbed8FileLikeE

.constdata__ZTSN4mbed10FileHandleE
                0x0001462d       0x14
 .constdata__ZTSN4mbed10FileHandleE
                0x0001462d       0x14 ../../external/mbed/LPC1768/mbed.ar(stdio.LPC1768.o)
                0x0001462d                _ZTSN4mbed10FileHandleE

.constdata__ZTVN4mbed3SPIE
                0x00014644       0x1c
 .constdata__ZTVN4mbed3SPIE
                0x00014644       0x1c ../../external/mbed/LPC1768/mbed.ar(SPI.LPC1768.o)
                0x00014644                _ZTVN4mbed3SPIE

.constdata__ZTIN4mbed3SPIE
                0x00014660        0xc
 .constdata__ZTIN4mbed3SPIE
                0x00014660        0xc ../../external/mbed/LPC1768/mbed.ar(SPI.LPC1768.o)
                0x00014660                _ZTIN4mbed3SPIE

.constdata__ZTSN4mbed3SPIE
                0x0001466c        0xc
 .constdata__ZTSN4mbed3SPIE
                0x0001466c        0xc ../../external/mbed/LPC1768/mbed.ar(SPI.LPC1768.o)
                0x0001466c                _ZTSN4mbed3SPIE

.constdata__ZTVN4mbed13FATFileSystemE
                0x00014678       0x48
 .constdata__ZTVN4mbed13FATFileSystemE
                0x00014678       0x48 ../../external/FATFileSystem/LPC1768/FATFileSystem.ar(FATFileSystem.cpp.lpc1768.arm.o)
                0x00014678                _ZTVN4mbed13FATFileSystemE

.constdata__ZTIN4mbed13FATFileSystemE
                0x000146c0        0xc
 .constdata__ZTIN4mbed13FATFileSystemE
                0x000146c0        0xc ../../external/FATFileSystem/LPC1768/FATFileSystem.ar(FATFileSystem.cpp.lpc1768.arm.o)
                0x000146c0                _ZTIN4mbed13FATFileSystemE

.constdata__ZTSN4mbed13FATFileSystemE
                0x000146cc       0x17
 .constdata__ZTSN4mbed13FATFileSystemE
                0x000146cc       0x17 ../../external/FATFileSystem/LPC1768/FATFileSystem.ar(FATFileSystem.cpp.lpc1768.arm.o)
                0x000146cc                _ZTSN4mbed13FATFileSystemE

.constdata__ZTVN4mbed12FATDirHandleE
                0x000146e4       0x1c
 .constdata__ZTVN4mbed12FATDirHandleE
                0x000146e4       0x1c ../../external/FATFileSystem/LPC1768/FATFileSystem.ar(FATDirHandle.cpp.lpc1768.arm.o)
                0x000146e4                _ZTVN4mbed12FATDirHandleE

.constdata__ZTIN4mbed12FATDirHandleE
                0x00014700        0xc
 .constdata__ZTIN4mbed12FATDirHandleE
                0x00014700        0xc ../../external/FATFileSystem/LPC1768/FATFileSystem.ar(FATDirHandle.cpp.lpc1768.arm.o)
                0x00014700                _ZTIN4mbed12FATDirHandleE

.constdata__ZTSN4mbed12FATDirHandleE
                0x0001470c       0x16
 .constdata__ZTSN4mbed12FATDirHandleE
                0x0001470c       0x16 ../../external/FATFileSystem/LPC1768/FATFileSystem.ar(FATDirHandle.cpp.lpc1768.arm.o)
                0x0001470c                _ZTSN4mbed12FATDirHandleE

.constdata__ZTVN4mbed13FATFileHandleE
                0x00014724       0x24
 .constdata__ZTVN4mbed13FATFileHandleE
                0x00014724       0x24 ../../external/FATFileSystem/LPC1768/FATFileSystem.ar(FATFileHandle.cpp.lpc1768.arm.o)
                0x00014724                _ZTVN4mbed13FATFileHandleE

.constdata__ZTIN4mbed13FATFileHandleE
                0x00014748        0xc
 .constdata__ZTIN4mbed13FATFileHandleE
                0x00014748        0xc ../../external/FATFileSystem/LPC1768/FATFileSystem.ar(FATFileHandle.cpp.lpc1768.arm.o)
                0x00014748                _ZTIN4mbed13FATFileHandleE

.constdata__ZTSN4mbed13FATFileHandleE
                0x00014754       0x17
 .constdata__ZTSN4mbed13FATFileHandleE
                0x00014754       0x17 ../../external/FATFileSystem/LPC1768/FATFileSystem.ar(FATFileHandle.cpp.lpc1768.arm.o)
                0x00014754                _ZTSN4mbed13FATFileHandleE

.ARM.exidx      0x0001476c        0x8
 *(.ARM.exidx* .gnu.linkonce.armexidx.*)
 .ARM.exidx     0x00014774        0x0 ../../external/mbed/LPC1768/mbed.ar(DigitalOut.LPC1768.o)
                                  0x8 (size before relaxing)
 .ARM.exidx     0x00014774        0x0 ../../external/mbed/LPC1768/mbed.ar(DigitalOut.LPC1768.o)
                                  0x8 (size before relaxing)
 .ARM.exidx     0x00014774        0x0 ../../external/mbed/LPC1768/mbed.ar(DigitalOut.LPC1768.o)
                                  0x8 (size before relaxing)
 .ARM.exidx     0x00014774        0x0 ../../external/mbed/LPC1768/mbed.ar(DigitalOut.LPC1768.o)
                                  0x8 (size before relaxing)
 .ARM.exidx     0x00014774        0x0 ../../external/mbed/LPC1768/mbed.ar(DigitalOut.LPC1768.o)
                                  0x8 (size before relaxing)
 .ARM.exidx     0x00014774        0x0 ../../external/mbed/LPC1768/mbed.ar(DigitalOut.LPC1768.o)
                                  0x8 (size before relaxing)
 .ARM.exidx     0x00014774        0x0 ../../external/mbed/LPC1768/mbed.ar(DigitalOut.LPC1768.o)
                                  0x8 (size before relaxing)
 .ARM.exidx     0x00014774        0x0 ../../external/mbed/LPC1768/mbed.ar(DigitalOut.LPC1768.o)
                                  0x8 (size before relaxing)
 .ARM.exidx     0x00014774        0x0 ../../external/mbed/LPC1768/mbed.ar(DigitalOut.LPC1768.o)
                                  0x8 (size before relaxing)
 .ARM.exidx     0x00014774        0x0 ../../external/mbed/LPC1768/mbed.ar(DigitalOut.LPC1768.o)
                                  0x8 (size before relaxing)
 .ARM.exidx     0x00014774        0x0 ../../external/mbed/LPC1768/mbed.ar(Base.LPC1768.o)
                                  0x8 (size before relaxing)
 .ARM.exidx     0x00014774        0x0 ../../external/mbed/LPC1768/mbed.ar(Base.LPC1768.o)
                                  0x8 (size before relaxing)
 .ARM.exidx     0x00014774        0x0 ../../external/mbed/LPC1768/mbed.ar(Base.LPC1768.o)
                                  0x8 (size before relaxing)
 .ARM.exidx     0x00014774        0x0 ../../external/mbed/LPC1768/mbed.ar(Base.LPC1768.o)
                                  0x8 (size before relaxing)
 .ARM.exidx     0x00014774        0x0 ../../external/mbed/LPC1768/mbed.ar(Base.LPC1768.o)
                                  0x8 (size before relaxing)
 .ARM.exidx     0x00014774        0x0 ../../external/mbed/LPC1768/mbed.ar(Base.LPC1768.o)
                                  0x8 (size before relaxing)
 .ARM.exidx     0x00014774        0x0 ../../external/mbed/LPC1768/mbed.ar(Base.LPC1768.o)
                                  0x8 (size before relaxing)
 .ARM.exidx     0x00014774        0x0 ../../external/mbed/LPC1768/mbed.ar(Base.LPC1768.o)
                                  0x8 (size before relaxing)
 .ARM.exidx     0x00014774        0x0 ../../external/mbed/LPC1768/mbed.ar(Base.LPC1768.o)
                                  0x8 (size before relaxing)
 .ARM.exidx     0x00014774        0x0 ../../external/mbed/LPC1768/mbed.ar(Base.LPC1768.o)
                                  0x8 (size before relaxing)
 .ARM.exidx     0x00014774        0x0 ../../external/mbed/LPC1768/mbed.ar(Base.LPC1768.o)
                                  0x8 (size before relaxing)
 .ARM.exidx     0x00014774        0x0 ../../external/mbed/LPC1768/mbed.ar(Base.LPC1768.o)
                                  0x8 (size before relaxing)
 .ARM.exidx     0x00014774        0x0 ../../external/mbed/LPC1768/mbed.ar(Base.LPC1768.o)
                                  0x8 (size before relaxing)
 .ARM.exidx     0x00014774        0x0 ../../external/mbed/LPC1768/mbed.ar(Base.LPC1768.o)
                                  0x8 (size before relaxing)
 .ARM.exidx     0x00014774        0x0 ../../external/mbed/LPC1768/mbed.ar(Base.LPC1768.o)
                                  0x8 (size before relaxing)
 .ARM.exidx     0x00014774        0x0 ../../external/mbed/LPC1768/mbed.ar(Base.LPC1768.o)
                                  0x8 (size before relaxing)
 .ARM.exidx     0x00014774        0x0 ../../external/mbed/LPC1768/mbed.ar(Base.LPC1768.o)
                                  0x8 (size before relaxing)
 .ARM.exidx     0x00014774        0x0 ../../external/mbed/LPC1768/mbed.ar(Base.LPC1768.o)
                                  0x8 (size before relaxing)
 .ARM.exidx     0x00014774        0x0 ../../external/mbed/LPC1768/mbed.ar(stdio.LPC1768.o)
                                  0x8 (size before relaxing)
 .ARM.exidx     0x00014774        0x0 ../../external/mbed/LPC1768/mbed.ar(stdio.LPC1768.o)
                                  0x8 (size before relaxing)
 .ARM.exidx     0x00014774        0x0 ../../external/mbed/LPC1768/mbed.ar(stdio.LPC1768.o)
                                  0x8 (size before relaxing)
 .ARM.exidx     0x00014774        0x0 ../../external/mbed/LPC1768/mbed.ar(stdio.LPC1768.o)
                                  0x8 (size before relaxing)
 .ARM.exidx     0x00014774        0x0 ../../external/mbed/LPC1768/mbed.ar(stdio.LPC1768.o)
                                  0x8 (size before relaxing)
 .ARM.exidx     0x00014774        0x0 ../../external/mbed/LPC1768/mbed.ar(stdio.LPC1768.o)
                                  0x8 (size before relaxing)
 .ARM.exidx     0x00014774        0x0 ../../external/mbed/LPC1768/mbed.ar(stdio.LPC1768.o)
                                  0x8 (size before relaxing)
 .ARM.exidx     0x00014774        0x0 ../../external/mbed/LPC1768/mbed.ar(stdio.LPC1768.o)
                                  0x8 (size before relaxing)
 .ARM.exidx     0x00014774        0x0 ../../external/mbed/LPC1768/mbed.ar(stdio.LPC1768.o)
                                  0x8 (size before relaxing)
 .ARM.exidx     0x00014774        0x0 ../../external/mbed/LPC1768/mbed.ar(stdio.LPC1768.o)
                                  0x8 (size before relaxing)
 .ARM.exidx     0x00014774        0x0 ../../external/mbed/LPC1768/mbed.ar(SPI.LPC1768.o)
                                  0x8 (size before relaxing)
 .ARM.exidx     0x00014774        0x0 ../../external/mbed/LPC1768/mbed.ar(SPI.LPC1768.o)
                                  0x8 (size before relaxing)
 .ARM.exidx     0x00014774        0x0 ../../external/mbed/LPC1768/mbed.ar(SPI.LPC1768.o)
                                  0x8 (size before relaxing)
 .ARM.exidx     0x00014774        0x0 ../../external/mbed/LPC1768/mbed.ar(SPI.LPC1768.o)
                                  0x8 (size before relaxing)
 .ARM.exidx     0x00014774        0x0 ../../external/mbed/LPC1768/mbed.ar(SPI.LPC1768.o)
                                  0x8 (size before relaxing)
 .ARM.exidx     0x00014774        0x0 ../../external/mbed/LPC1768/mbed.ar(SPI.LPC1768.o)
                                  0x8 (size before relaxing)
 .ARM.exidx     0x00014774        0x0 ../../external/mbed/LPC1768/mbed.ar(SPI.LPC1768.o)
                                  0x8 (size before relaxing)
 .ARM.exidx     0x00014774        0x0 ../../external/mbed/LPC1768/mbed.ar(SPI.LPC1768.o)
                                  0x8 (size before relaxing)
 .ARM.exidx     0x00014774        0x0 ../../external/mbed/LPC1768/mbed.ar(SPI.LPC1768.o)
                                  0x8 (size before relaxing)
 .ARM.exidx     0x00014774        0x0 ../../external/mbed/LPC1768/mbed.ar(SPI.LPC1768.o)
                                  0x8 (size before relaxing)
 .ARM.exidx     0x00014774        0x0 ../../external/mbed/LPC1768/mbed.ar(SPI.LPC1768.o)
                                  0x8 (size before relaxing)
 .ARM.exidx     0x00014774        0x0 ../../external/mbed/LPC1768/mbed.ar(SPI.LPC1768.o)
                                  0x8 (size before relaxing)
 .ARM.exidx     0x00014774        0x0 ../../external/mbed/LPC1768/mbed.ar(SPI.LPC1768.o)
                                  0x8 (size before relaxing)
 .ARM.exidx     0x00014774        0x0 ../../external/mbed/LPC1768/mbed.ar(SPI.LPC1768.o)
                                  0x8 (size before relaxing)
 .ARM.exidx     0x00014774        0x0 ../../external/FATFileSystem/LPC1768/FATFileSystem.ar(FATFileSystem.cpp.lpc1768.arm.o)
                                  0x8 (size before relaxing)
 .ARM.exidx     0x00014774        0x0 ../../external/FATFileSystem/LPC1768/FATFileSystem.ar(FATFileSystem.cpp.lpc1768.arm.o)
                                  0x8 (size before relaxing)
 .ARM.exidx     0x00014774        0x0 ../../external/FATFileSystem/LPC1768/FATFileSystem.ar(FATFileSystem.cpp.lpc1768.arm.o)
                                  0x8 (size before relaxing)
 .ARM.exidx     0x00014774        0x0 ../../external/FATFileSystem/LPC1768/FATFileSystem.ar(FATFileSystem.cpp.lpc1768.arm.o)
                                  0x8 (size before relaxing)
 .ARM.exidx     0x00014774        0x0 ../../external/FATFileSystem/LPC1768/FATFileSystem.ar(FATFileSystem.cpp.lpc1768.arm.o)
                                  0x8 (size before relaxing)
 .ARM.exidx     0x00014774        0x0 ../../external/FATFileSystem/LPC1768/FATFileSystem.ar(FATFileSystem.cpp.lpc1768.arm.o)
                                  0x8 (size before relaxing)
 .ARM.exidx     0x00014774        0x0 ../../external/FATFileSystem/LPC1768/FATFileSystem.ar(FATFileSystem.cpp.lpc1768.arm.o)
                                  0x8 (size before relaxing)
 .ARM.exidx     0x00014774        0x0 ../../external/FATFileSystem/LPC1768/FATFileSystem.ar(FATFileSystem.cpp.lpc1768.arm.o)
                                  0x8 (size before relaxing)
 .ARM.exidx     0x00014774        0x0 ../../external/FATFileSystem/LPC1768/FATFileSystem.ar(FATFileSystem.cpp.lpc1768.arm.o)
                                  0x8 (size before relaxing)
 .ARM.exidx     0x00014774        0x0 ../../external/FATFileSystem/LPC1768/FATFileSystem.ar(FATFileSystem.cpp.lpc1768.arm.o)
                                  0x8 (size before relaxing)
 .ARM.exidx     0x00014774        0x0 ../../external/FATFileSystem/LPC1768/FATFileSystem.ar(FATFileSystem.cpp.lpc1768.arm.o)
                                  0x8 (size before relaxing)
 .ARM.exidx     0x00014774        0x0 ../../external/FATFileSystem/LPC1768/FATFileSystem.ar(FATFileSystem.cpp.lpc1768.arm.o)
                                  0x8 (size before relaxing)
 .ARM.exidx     0x00014774        0x0 ../../external/FATFileSystem/LPC1768/FATFileSystem.ar(FATDirHandle.cpp.lpc1768.arm.o)
                                  0x8 (size before relaxing)
 .ARM.exidx     0x00014774        0x0 ../../external/FATFileSystem/LPC1768/FATFileSystem.ar(FATDirHandle.cpp.lpc1768.arm.o)
                                  0x8 (size before relaxing)
 .ARM.exidx     0x00014774        0x0 ../../external/FATFileSystem/LPC1768/FATFileSystem.ar(FATDirHandle.cpp.lpc1768.arm.o)
                                  0x8 (size before relaxing)
 .ARM.exidx     0x00014774        0x0 ../../external/FATFileSystem/LPC1768/FATFileSystem.ar(FATDirHandle.cpp.lpc1768.arm.o)
                                  0x8 (size before relaxing)
 .ARM.exidx     0x00014774        0x0 ../../external/FATFileSystem/LPC1768/FATFileSystem.ar(FATDirHandle.cpp.lpc1768.arm.o)
                                  0x8 (size before relaxing)
 .ARM.exidx     0x00014774        0x0 ../../external/FATFileSystem/LPC1768/FATFileSystem.ar(FATDirHandle.cpp.lpc1768.arm.o)
                                  0x8 (size before relaxing)
 .ARM.exidx     0x00014774        0x0 ../../external/FATFileSystem/LPC1768/FATFileSystem.ar(FATFileHandle.cpp.lpc1768.arm.o)
                                  0x8 (size before relaxing)
 .ARM.exidx     0x00014774        0x0 ../../external/FATFileSystem/LPC1768/FATFileSystem.ar(FATFileHandle.cpp.lpc1768.arm.o)
                                  0x8 (size before relaxing)
 .ARM.exidx     0x00014774        0x0 ../../external/FATFileSystem/LPC1768/FATFileSystem.ar(FATFileHandle.cpp.lpc1768.arm.o)
                                  0x8 (size before relaxing)
 .ARM.exidx     0x00014774        0x0 ../../external/FATFileSystem/LPC1768/FATFileSystem.ar(FATFileHandle.cpp.lpc1768.arm.o)
                                  0x8 (size before relaxing)
 .ARM.exidx     0x00014774        0x0 ../../external/FATFileSystem/LPC1768/FATFileSystem.ar(FATFileHandle.cpp.lpc1768.arm.o)
                                  0x8 (size before relaxing)
 .ARM.exidx     0x00014774        0x0 ../../external/FATFileSystem/LPC1768/FATFileSystem.ar(FATFileHandle.cpp.lpc1768.arm.o)
                                  0x8 (size before relaxing)
 .ARM.exidx     0x00014774        0x0 ../../external/FATFileSystem/LPC1768/FATFileSystem.ar(FATFileHandle.cpp.lpc1768.arm.o)
                                  0x8 (size before relaxing)
 .ARM.exidx     0x00014774        0x0 ../../external/FATFileSystem/LPC1768/FATFileSystem.ar(FATFileHandle.cpp.lpc1768.arm.o)
                                  0x8 (size before relaxing)
 .ARM.exidx     0x00014774        0x0 ../../external/FATFileSystem/LPC1768/FATFileSystem.ar(diskio.cpp.lpc1768.arm.o)
                                  0x8 (size before relaxing)
 .ARM.exidx     0x00014774        0x0 ../../external/FATFileSystem/LPC1768/FATFileSystem.ar(diskio.cpp.lpc1768.arm.o)
                                  0x8 (size before relaxing)
 .ARM.exidx     0x00014774        0x0 ../../external/FATFileSystem/LPC1768/FATFileSystem.ar(diskio.cpp.lpc1768.arm.o)
                                  0x8 (size before relaxing)
 .ARM.exidx     0x00014774        0x0 ../../external/FATFileSystem/LPC1768/FATFileSystem.ar(diskio.cpp.lpc1768.arm.o)
                                  0x8 (size before relaxing)
 .ARM.exidx     0x00014774        0x0 ../../external/FATFileSystem/LPC1768/FATFileSystem.ar(diskio.cpp.lpc1768.arm.o)
                                  0x8 (size before relaxing)
 .ARM.exidx     0x0001476c        0x8 /media/6aafac43-5450-453e-a142-f588400933c0/Sandbox/arm/bin/../lib/gcc/arm-none-eabi/4.5.2/thumb2/libgcc.a(_divdi3.o)
 .ARM.exidx     0x00014774        0x0 /media/6aafac43-5450-453e-a142-f588400933c0/Sandbox/arm/bin/../lib/gcc/arm-none-eabi/4.5.2/thumb2/libgcc.a(_udivdi3.o)
                                  0x8 (size before relaxing)
                0x00014774                __exidx_end = .

.data           0x10000000      0x5cc load address 0x00014774
                0x00014774                _sidata = LOADADDR (.data)
                0x10000000                . = ALIGN (0x4)
                0x10000000                _sdata = .
 *(.ARM.__AT_0x10000000)
 *(vtable vtable.*)
 *(.data .data.*)
 .data          0x10000000        0x4 /media/6aafac43-5450-453e-a142-f588400933c0/Sandbox/arm/bin/../lib/gcc/arm-none-eabi/4.5.2/thumb2/crtbegin.o
                0x10000000                __dso_handle
 .data          0x10000004        0x8 ../../external/mbed/LPC1768/mbed.ar(Base.LPC1768.o)
                0x10000004                _ZN4mbed4Base5_headE
                0x10000008                _ZN4mbed4Base8_classesE
 .data          0x1000000c        0xc ../../external/mbed/LPC1768/mbed.ar(Base.LPC1768.o)
                0x1000000c                _ZN4mbed4Base11_base_classE
 .data          0x10000018       0x10 ../../external/mbed/LPC1768/mbed.ar(SPI.LPC1768.o)
                0x10000018                _ZN4mbed3SPI6_ownerE
 .data          0x10000028        0x4 ../../external/mbed/LPC1768/capi.ar(system_LPC17xx.LPC1768.o)
                0x10000028                SystemCoreClock
 .data          0x1000002c        0x4 ../../external/mbed/LPC1768/capi.ar(us_ticker_api.LPC1768.o)
 .data          0x10000030        0x2 ../../external/FATFileSystem/LPC1768/FATFileSystem.ar(ff.c.lpc1768.arm.o)
 *fill*         0x10000032        0x2 00
 .data._ZN10__cxxabiv119__terminate_handlerE
                0x10000034        0x4 ../../external/gcc/LPC1768/libstdc++.a(eh_term_handler.o)
                0x10000034                _ZN10__cxxabiv119__terminate_handlerE
 .data.impure_data
                0x10000038       0xf0 ../../external/gcc/LPC1768/libc.a(lib_a-impure.o)
 .data._impure_ptr
                0x10000128        0x4 ../../external/gcc/LPC1768/libc.a(lib_a-impure.o)
                0x10000128                _impure_ptr
 .data.__malloc_av_
                0x1000012c      0x408 ../../external/gcc/LPC1768/libc.a(lib_a-mallocr.o)
                0x1000012c                __malloc_av_
 .data.__malloc_trim_threshold
                0x10000534        0x4 ../../external/gcc/LPC1768/libc.a(lib_a-mallocr.o)
                0x10000534                __malloc_trim_threshold
 .data.__malloc_sbrk_base
                0x10000538        0x4 ../../external/gcc/LPC1768/libc.a(lib_a-mallocr.o)
                0x10000538                __malloc_sbrk_base
 .data.__ctype_ptr__
                0x1000053c        0x4 ../../external/gcc/LPC1768/libc.a(lib_a-ctype_.o)
                0x1000053c                __ctype_ptr__
 .data.lconv    0x10000540       0x38 ../../external/gcc/LPC1768/libc.a(lib_a-locale.o)
 .data.lc_ctype_charset
                0x10000578       0x20 ../../external/gcc/LPC1768/libc.a(lib_a-locale.o)
 .data.__mb_cur_max
                0x10000598        0x4 ../../external/gcc/LPC1768/libc.a(lib_a-locale.o)
                0x10000598                __mb_cur_max
 .data.__mbtowc
                0x1000059c        0x4 ../../external/gcc/LPC1768/libc.a(lib_a-mbtowc_r.o)
                0x1000059c                __mbtowc
 .data.fpinan.5116
                0x100005a0       0x14 ../../external/gcc/LPC1768/libc.a(lib_a-strtod.o)
 .data.fpi.5080
                0x100005b4       0x14 ../../external/gcc/LPC1768/libc.a(lib_a-strtod.o)
 .data.__wctomb
                0x100005c8        0x4 ../../external/gcc/LPC1768/libc.a(lib_a-wctomb_r.o)
                0x100005c8                __wctomb
 *(.gnu.linkonce.d*)
                0x100005cc                . = ALIGN (0x4)
                0x100005cc                _edata = .

.jcr            0x100005cc        0x0 load address 0x00014d40
 .jcr           0x100005cc        0x0 /media/6aafac43-5450-453e-a142-f588400933c0/Sandbox/arm/bin/../lib/gcc/arm-none-eabi/4.5.2/thumb2/crtbegin.o

.bss            0x100005cc      0x448 load address 0x00014d40
                0x100005cc                . = ALIGN (0x4)
                0x100005cc                _sbss = .
 *(.bss .bss.*)
 .bss           0x100005cc        0x1 /media/6aafac43-5450-453e-a142-f588400933c0/Sandbox/arm/bin/../lib/gcc/arm-none-eabi/4.5.2/thumb2/crtbegin.o
 *fill*         0x100005cd        0x3 00
 .bss._ZZ6_lseekE14pppFileHandles
                0x100005d0        0x4 ../../src/syscalls.o
 .bss._ZL8heap_end
                0x100005d4        0x4 ../../src/syscalls.o
 .bss._ZL23g_StandardHandlesOpened
                0x100005d8        0x4 ../../src/syscalls.o
 .bss.sd        0x100005dc      0x280 ./main.o
                0x100005dc                sd
 .bss           0x1000085c       0x40 ../../external/mbed/LPC1768/mbed.ar(stdio.LPC1768.o)
 .bss           0x1000089c       0x10 ../../external/FATFileSystem/LPC1768/FATFileSystem.ar(FATFileSystem.cpp.lpc1768.arm.o)
                0x1000089c                _ZN4mbed13FATFileSystem4_ffsE
 .bss           0x100008ac       0x10 ../../external/FATFileSystem/LPC1768/FATFileSystem.ar(ff.c.lpc1768.arm.o)
 .bss.__new_handler
                0x100008bc        0x4 ../../external/gcc/LPC1768/libstdc++.a(new_handler.o)
                0x100008bc                __new_handler
 .bss._ZZN9__gnu_cxx27__verbose_terminate_handlerEvE11terminating
                0x100008c0        0x1 ../../external/gcc/LPC1768/libstdc++.a(vterminate.o)
 *fill*         0x100008c1        0x3 00
 .bss._ZL10eh_globals
                0x100008c4        0xc ../../external/gcc/LPC1768/libstdc++.a(eh_globals.o)
 .bss.__malloc_max_total_mem
                0x100008d0        0x4 ../../external/gcc/LPC1768/libc.a(lib_a-mallocr.o)
                0x100008d0                __malloc_max_total_mem
 .bss.__malloc_max_sbrked_mem
                0x100008d4        0x4 ../../external/gcc/LPC1768/libc.a(lib_a-mallocr.o)
                0x100008d4                __malloc_max_sbrked_mem
 .bss.__malloc_top_pad
                0x100008d8        0x4 ../../external/gcc/LPC1768/libc.a(lib_a-mallocr.o)
                0x100008d8                __malloc_top_pad
 .bss.__malloc_current_mallinfo
                0x100008dc       0x28 ../../external/gcc/LPC1768/libc.a(lib_a-mallocr.o)
                0x100008dc                __malloc_current_mallinfo
 *(.gnu.linkonce.b*)
 *(COMMON)
 COMMON         0x10000904        0xc ../../external/gcc/LPC1768/libc.a(lib_a-clibabi_stdio.o)
                0x10000904                __aeabi_stdin
                0x10000908                __aeabi_stdout
                0x1000090c                __aeabi_stderr
 COMMON         0x10000910        0x4 ../../external/gcc/LPC1768/libc.a(lib_a-reent.o)
                0x10000910                errno
 COMMON         0x10000914      0x100 ../../external/gcc/LPC1768/libc.a(lib_a-gdtoa-gethex.o)
                0x10000914                __hexdig
                0x10000a14                . = ALIGN (0x4)
                0x10000a14                _ebss = .

.fastcode       0x10000a14        0x0 load address 0x00014d40
                0x00014d40                _sifastcode = LOADADDR (.fastcode)
                0x10000a14                . = ALIGN (0x4)
                0x10000a14                _sfastcode = .
 *(.glue_7t)
 *(.glue_7)
 *(.fastcode)
                0x10000a14                . = ALIGN (0x4)
                0x10000a14                _efastcode = .

.stackarea      0x10000a14        0x4 load address 0x00014d40
                0x10000a18                . = ALIGN (0x8)
 *fill*         0x10000a14        0x4 00
                0x10000a18                _sstack = .
 *(.stackarea .stackarea.*)
                0x10000a18                . = ALIGN (0x8)
                0x10000a18                _estack = .
                0x10000a18                . = ALIGN (0x4)
                0x10000a18                _end = .
                0x10000a18                PROVIDE (end, .)
                0x10008000                _stack = 0x10008000

.AHBSRAM0
 *(AHBSRAM0)

.AHBSRAM1
 *(AHBSRAM1)

.stab
 *(.stab)

.stabstr
 *(.stabstr)

.stab.excl
 *(.stab.excl)

.stab.exclstr
 *(.stab.exclstr)

.stab.index
 *(.stab.index)

.stab.indexstr
 *(.stab.indexstr)

.debug
 *(.debug)

.line
 *(.line)

.debug_srcinfo
 *(.debug_srcinfo)

.debug_sfnames
 *(.debug_sfnames)

.ARM.attributes
                0x00000000       0x2b
 .ARM.attributes
                0x00000000       0x19 /media/6aafac43-5450-453e-a142-f588400933c0/Sandbox/arm/bin/../lib/gcc/arm-none-eabi/4.5.2/thumb2/crti.o
 .ARM.attributes
                0x00000019       0x29 /media/6aafac43-5450-453e-a142-f588400933c0/Sandbox/arm/bin/../lib/gcc/arm-none-eabi/4.5.2/thumb2/crtbegin.o
 .ARM.attributes
                0x00000042       0x31 ../../src/gcc4mbed.o
 .ARM.attributes
                0x00000073       0x31 ../../src/syscalls.o
 .ARM.attributes
                0x000000a4       0x31 ./main.o
 .ARM.attributes
                0x000000d5       0x31 ./SDFileSystem/SDFileSystem.o
 .ARM.attributes
                0x00000106       0x48 ../../external/mbed/LPC1768/mbed.ar(DigitalOut.LPC1768.o)
 .ARM.attributes
                0x0000014e       0x48 ../../external/mbed/LPC1768/mbed.ar(Base.LPC1768.o)
 .ARM.attributes
                0x00000196       0x48 ../../external/mbed/LPC1768/mbed.ar(stdio.LPC1768.o)
 .ARM.attributes
                0x000001de       0x48 ../../external/mbed/LPC1768/mbed.ar(SPI.LPC1768.o)
 .ARM.attributes
                0x00000226       0x3e ../../external/mbed/LPC1768/capi.ar(startup_LPC17xx.LPC1768.o)
 .ARM.attributes
                0x00000264       0x48 ../../external/mbed/LPC1768/capi.ar(system_LPC17xx.LPC1768.o)
 .ARM.attributes
                0x000002ac       0x49 ../../external/mbed/LPC1768/capi.ar(core_cm3.LPC1768.o)
 .ARM.attributes
                0x000002f5       0x48 ../../external/mbed/LPC1768/capi.ar(serial_api.LPC1768.o)
 .ARM.attributes
                0x0000033d       0x48 ../../external/mbed/LPC1768/capi.ar(exit.LPC1768.o)
 .ARM.attributes
                0x00000385       0x48 ../../external/mbed/LPC1768/capi.ar(spi_api.LPC1768.o)
 .ARM.attributes
                0x000003cd       0x48 ../../external/mbed/LPC1768/capi.ar(pinmap.LPC1768.o)
 .ARM.attributes
                0x00000415       0x48 ../../external/mbed/LPC1768/capi.ar(gpio_api.LPC1768.o)
 .ARM.attributes
                0x0000045d       0x48 ../../external/mbed/LPC1768/capi.ar(semihost_api.LPC1768.o)
 .ARM.attributes
                0x000004a5       0x48 ../../external/mbed/LPC1768/capi.ar(utils_api.LPC1768.o)
 .ARM.attributes
                0x000004ed       0x48 ../../external/mbed/LPC1768/capi.ar(wait_api.LPC1768.o)
 .ARM.attributes
                0x00000535       0x48 ../../external/mbed/LPC1768/capi.ar(us_ticker_api.LPC1768.o)
 .ARM.attributes
                0x0000057d       0x48 ../../external/mbed/LPC1768/capi.ar(timer_api.LPC1768.o)
 .ARM.attributes
                0x000005c5       0x48 ../../external/FATFileSystem/LPC1768/FATFileSystem.ar(FATFileSystem.cpp.lpc1768.arm.o)
 .ARM.attributes
                0x0000060d       0x48 ../../external/FATFileSystem/LPC1768/FATFileSystem.ar(FATDirHandle.cpp.lpc1768.arm.o)
 .ARM.attributes
                0x00000655       0x48 ../../external/FATFileSystem/LPC1768/FATFileSystem.ar(FATFileHandle.cpp.lpc1768.arm.o)
 .ARM.attributes
                0x0000069d       0x48 ../../external/FATFileSystem/LPC1768/FATFileSystem.ar(ff.c.lpc1768.arm.o)
 .ARM.attributes
                0x000006e5       0x48 ../../external/FATFileSystem/LPC1768/FATFileSystem.ar(diskio.cpp.lpc1768.arm.o)
 .ARM.attributes
                0x0000072d       0x29 ../../external/gcc/LPC1768/libstdc++.a(atexit_arm.o)
 .ARM.attributes
                0x00000756       0x29 ../../external/gcc/LPC1768/libstdc++.a(class_type_info.o)
 .ARM.attributes
                0x0000077f       0x29 ../../external/gcc/LPC1768/libstdc++.a(del_op.o)
 .ARM.attributes
                0x000007a8       0x29 ../../external/gcc/LPC1768/libstdc++.a(del_opv.o)
 .ARM.attributes
                0x000007d1       0x29 ../../external/gcc/LPC1768/libstdc++.a(dyncast.o)
 .ARM.attributes
                0x000007fa       0x29 ../../external/gcc/LPC1768/libstdc++.a(new_op.o)
 .ARM.attributes
                0x00000823       0x29 ../../external/gcc/LPC1768/libstdc++.a(new_opv.o)
 .ARM.attributes
                0x0000084c       0x29 ../../external/gcc/LPC1768/libstdc++.a(pure.o)
 .ARM.attributes
                0x00000875       0x29 ../../external/gcc/LPC1768/libstdc++.a(si_class_type_info.o)
 .ARM.attributes
                0x0000089e       0x29 ../../external/gcc/LPC1768/libstdc++.a(tinfo.o)
 .ARM.attributes
                0x000008c7       0x29 ../../external/gcc/LPC1768/libstdc++.a(vmi_class_type_info.o)
 .ARM.attributes
                0x000008f0       0x29 ../../external/gcc/LPC1768/libstdc++.a(eh_terminate.o)
 .ARM.attributes
                0x00000919       0x29 ../../external/gcc/LPC1768/libstdc++.a(eh_unex_handler.o)
 .ARM.attributes
                0x00000942       0x29 ../../external/gcc/LPC1768/libstdc++.a(new_handler.o)
 .ARM.attributes
                0x0000096b       0x29 ../../external/gcc/LPC1768/libstdc++.a(eh_exception.o)
 .ARM.attributes
                0x00000994       0x29 ../../external/gcc/LPC1768/libstdc++.a(eh_term_handler.o)
 .ARM.attributes
                0x000009bd       0x29 ../../external/gcc/LPC1768/libstdc++.a(vterminate.o)
 .ARM.attributes
                0x000009e6       0x29 ../../external/gcc/LPC1768/libstdc++.a(cp-demangle.o)
 .ARM.attributes
                0x00000a0f       0x29 ../../external/gcc/LPC1768/libstdc++.a(eh_type.o)
 .ARM.attributes
                0x00000a38       0x29 ../../external/gcc/LPC1768/libstdc++.a(eh_globals.o)
 .ARM.attributes
                0x00000a61       0x29 ../../external/gcc/LPC1768/libm.a(lib_a-s_scalbn.o)
 .ARM.attributes
                0x00000a8a       0x29 ../../external/gcc/LPC1768/libm.a(lib_a-s_copysign.o)
 .ARM.attributes
                0x00000ab3       0x1b /media/6aafac43-5450-453e-a142-f588400933c0/Sandbox/arm/bin/../lib/gcc/arm-none-eabi/4.5.2/thumb2/libgcc.a(_arm_addsubdf3.o)
 .ARM.attributes
                0x00000ace       0x1b /media/6aafac43-5450-453e-a142-f588400933c0/Sandbox/arm/bin/../lib/gcc/arm-none-eabi/4.5.2/thumb2/libgcc.a(_arm_muldivdf3.o)
 .ARM.attributes
                0x00000ae9       0x1b /media/6aafac43-5450-453e-a142-f588400933c0/Sandbox/arm/bin/../lib/gcc/arm-none-eabi/4.5.2/thumb2/libgcc.a(_arm_fixdfsi.o)
 .ARM.attributes
                0x00000b04       0x1b /media/6aafac43-5450-453e-a142-f588400933c0/Sandbox/arm/bin/../lib/gcc/arm-none-eabi/4.5.2/thumb2/libgcc.a(_arm_truncdfsf2.o)
 .ARM.attributes
                0x00000b1f       0x1b /media/6aafac43-5450-453e-a142-f588400933c0/Sandbox/arm/bin/../lib/gcc/arm-none-eabi/4.5.2/thumb2/libgcc.a(_arm_addsubsf3.o)
 .ARM.attributes
                0x00000b3a       0x1b /media/6aafac43-5450-453e-a142-f588400933c0/Sandbox/arm/bin/../lib/gcc/arm-none-eabi/4.5.2/thumb2/libgcc.a(_arm_muldivsf3.o)
 .ARM.attributes
                0x00000b55       0x1b /media/6aafac43-5450-453e-a142-f588400933c0/Sandbox/arm/bin/../lib/gcc/arm-none-eabi/4.5.2/thumb2/libgcc.a(_arm_cmpsf2.o)
 .ARM.attributes
                0x00000b70       0x29 ../../external/gcc/LPC1768/libc.a(lib_a-abort.o)
 .ARM.attributes
                0x00000b99       0x29 ../../external/gcc/LPC1768/libc.a(lib_a-aeabi_memclr.o)
 .ARM.attributes
                0x00000bc2       0x29 ../../external/gcc/LPC1768/libc.a(lib_a-aeabi_memcpy.o)
 .ARM.attributes
                0x00000beb       0x29 ../../external/gcc/LPC1768/libc.a(lib_a-aeabi_memset.o)
 .ARM.attributes
                0x00000c14       0x29 ../../external/gcc/LPC1768/libc.a(lib_a-clibabi_assert.o)
 .ARM.attributes
                0x00000c3d       0x29 ../../external/gcc/LPC1768/libc.a(lib_a-clibabi_ctype.o)
 .ARM.attributes
                0x00000c66       0x29 ../../external/gcc/LPC1768/libc.a(lib_a-clibabi_stdio.o)
 .ARM.attributes
                0x00000c8f       0x29 ../../external/gcc/LPC1768/libc.a(lib_a-cxa_atexit.o)
 .ARM.attributes
                0x00000cb8       0x29 ../../external/gcc/LPC1768/libc.a(lib_a-fclose.o)
 .ARM.attributes
                0x00000ce1       0x29 ../../external/gcc/LPC1768/libc.a(lib_a-fflush.o)
 .ARM.attributes
                0x00000d0a       0x29 ../../external/gcc/LPC1768/libc.a(lib_a-findfp.o)
 .ARM.attributes
                0x00000d33       0x29 ../../external/gcc/LPC1768/libc.a(lib_a-fopen.o)
 .ARM.attributes
                0x00000d5c       0x29 ../../external/gcc/LPC1768/libc.a(lib_a-fprintf.o)
 .ARM.attributes
                0x00000d85       0x29 ../../external/gcc/LPC1768/libc.a(lib_a-fputs.o)
 .ARM.attributes
                0x00000dae       0x29 ../../external/gcc/LPC1768/libc.a(lib_a-freer.o)
 .ARM.attributes
                0x00000dd7       0x29 ../../external/gcc/LPC1768/libc.a(lib_a-fscanf.o)
 .ARM.attributes
                0x00000e00       0x29 ../../external/gcc/LPC1768/libc.a(lib_a-fseek.o)
 .ARM.attributes
                0x00000e29       0x29 ../../external/gcc/LPC1768/libc.a(lib_a-fstatr.o)
 .ARM.attributes
                0x00000e52       0x29 ../../external/gcc/LPC1768/libc.a(lib_a-fvwrite.o)
 .ARM.attributes
                0x00000e7b       0x29 ../../external/gcc/LPC1768/libc.a(lib_a-fwalk.o)
 .ARM.attributes
                0x00000ea4       0x29 ../../external/gcc/LPC1768/libc.a(lib_a-fwrite.o)
 .ARM.attributes
                0x00000ecd       0x29 ../../external/gcc/LPC1768/libc.a(lib_a-impure.o)
 .ARM.attributes
                0x00000ef6       0x29 ../../external/gcc/LPC1768/libc.a(lib_a-init.o)
 .ARM.attributes
                0x00000f1f       0x29 ../../external/gcc/LPC1768/libc.a(lib_a-makebuf.o)
 .ARM.attributes
                0x00000f48       0x29 ../../external/gcc/LPC1768/libc.a(lib_a-malloc.o)
 .ARM.attributes
                0x00000f71       0x29 ../../external/gcc/LPC1768/libc.a(lib_a-mallocr.o)
 .ARM.attributes
                0x00000f9a       0x29 ../../external/gcc/LPC1768/libc.a(lib_a-memchr.o)
 .ARM.attributes
                0x00000fc3       0x29 ../../external/gcc/LPC1768/libc.a(lib_a-memcmp.o)
 .ARM.attributes
                0x00000fec       0x29 ../../external/gcc/LPC1768/libc.a(lib_a-memcpy.o)
 .ARM.attributes
                0x00001015       0x29 ../../external/gcc/LPC1768/libc.a(lib_a-memmove.o)
 .ARM.attributes
                0x0000103e       0x29 ../../external/gcc/LPC1768/libc.a(lib_a-memset.o)
 .ARM.attributes
                0x00001067       0x29 ../../external/gcc/LPC1768/libc.a(lib_a-mlock.o)
 .ARM.attributes
                0x00001090       0x29 ../../external/gcc/LPC1768/libc.a(lib_a-openr.o)
 .ARM.attributes
                0x000010b9       0x29 ../../external/gcc/LPC1768/libc.a(lib_a-printf.o)
 .ARM.attributes
                0x000010e2       0x29 ../../external/gcc/LPC1768/libc.a(lib_a-puts.o)
 .ARM.attributes
                0x0000110b       0x29 ../../external/gcc/LPC1768/libc.a(lib_a-realloc.o)
 .ARM.attributes
                0x00001134       0x29 ../../external/gcc/LPC1768/libc.a(lib_a-reallocr.o)
 .ARM.attributes
                0x0000115d       0x29 ../../external/gcc/LPC1768/libc.a(lib_a-reent.o)
 .ARM.attributes
                0x00001186       0x29 ../../external/gcc/LPC1768/libc.a(lib_a-refill.o)
 .ARM.attributes
                0x000011af       0x29 ../../external/gcc/LPC1768/libc.a(lib_a-sbrkr.o)
 .ARM.attributes
                0x000011d8       0x29 ../../external/gcc/LPC1768/libc.a(lib_a-signal.o)
 .ARM.attributes
                0x00001201       0x29 ../../external/gcc/LPC1768/libc.a(lib_a-signalr.o)
 .ARM.attributes
                0x0000122a       0x29 ../../external/gcc/LPC1768/libc.a(lib_a-sprintf.o)
 .ARM.attributes
                0x00001253       0x29 ../../external/gcc/LPC1768/libc.a(lib_a-sscanf.o)
 .ARM.attributes
                0x0000127c       0x29 ../../external/gcc/LPC1768/libc.a(lib_a-stdio.o)
 .ARM.attributes
                0x000012a5       0x29 ../../external/gcc/LPC1768/libc.a(lib_a-strcmp.o)
 .ARM.attributes
                0x000012ce       0x29 ../../external/gcc/LPC1768/libc.a(lib_a-strcpy.o)
 .ARM.attributes
                0x000012f7       0x29 ../../external/gcc/LPC1768/libc.a(lib_a-strlen.o)
 .ARM.attributes
                0x00001320       0x29 ../../external/gcc/LPC1768/libc.a(lib_a-strncmp.o)
 .ARM.attributes
                0x00001349       0x29 ../../external/gcc/LPC1768/libc.a(lib_a-strncpy.o)
 .ARM.attributes
                0x00001372       0x29 ../../external/gcc/LPC1768/libc.a(lib_a-strtol.o)
 .ARM.attributes
                0x0000139b       0x29 ../../external/gcc/LPC1768/libc.a(lib_a-svfprintf.o)
 .ARM.attributes
                0x000013c4       0x29 ../../external/gcc/LPC1768/libc.a(lib_a-svfscanf.o)
 .ARM.attributes
                0x000013ed       0x29 ../../external/gcc/LPC1768/libc.a(lib_a-syswrite.o)
 .ARM.attributes
                0x00001416       0x29 ../../external/gcc/LPC1768/libc.a(lib_a-vfprintf.o)
 .ARM.attributes
                0x0000143f       0x29 ../../external/gcc/LPC1768/libc.a(lib_a-vfscanf.o)
 .ARM.attributes
                0x00001468       0x29 ../../external/gcc/LPC1768/libc.a(lib_a-writer.o)
 .ARM.attributes
                0x00001491       0x29 ../../external/gcc/LPC1768/libc.a(lib_a-wsetup.o)
 .ARM.attributes
                0x000014ba       0x29 ../../external/gcc/LPC1768/libc.a(lib_a-__atexit.o)
 .ARM.attributes
                0x000014e3       0x29 ../../external/gcc/LPC1768/libc.a(lib_a-assert.o)
 .ARM.attributes
                0x0000150c       0x29 ../../external/gcc/LPC1768/libc.a(lib_a-closer.o)
 .ARM.attributes
                0x00001535       0x29 ../../external/gcc/LPC1768/libc.a(lib_a-ctype_.o)
 .ARM.attributes
                0x0000155e       0x29 ../../external/gcc/LPC1768/libc.a(lib_a-dtoa.o)
 .ARM.attributes
                0x00001587       0x29 ../../external/gcc/LPC1768/libc.a(lib_a-fiprintf.o)
 .ARM.attributes
                0x000015b0       0x29 ../../external/gcc/LPC1768/libc.a(lib_a-flags.o)
 .ARM.attributes
                0x000015d9       0x29 ../../external/gcc/LPC1768/libc.a(lib_a-fread.o)
 .ARM.attributes
                0x00001602       0x29 ../../external/gcc/LPC1768/libc.a(lib_a-isattyr.o)
 .ARM.attributes
                0x0000162b       0x29 ../../external/gcc/LPC1768/libc.a(lib_a-iswspace.o)
 .ARM.attributes
                0x00001654       0x29 ../../external/gcc/LPC1768/libc.a(lib_a-locale.o)
 .ARM.attributes
                0x0000167d       0x29 ../../external/gcc/LPC1768/libc.a(lib_a-lseekr.o)
 .ARM.attributes
                0x000016a6       0x29 ../../external/gcc/LPC1768/libc.a(lib_a-mbrtowc.o)
 .ARM.attributes
                0x000016cf       0x29 ../../external/gcc/LPC1768/libc.a(lib_a-mbtowc_r.o)
 .ARM.attributes
                0x000016f8       0x29 ../../external/gcc/LPC1768/libc.a(lib_a-mprec.o)
 .ARM.attributes
                0x00001721       0x29 ../../external/gcc/LPC1768/libc.a(lib_a-readr.o)
 .ARM.attributes
                0x0000174a       0x29 ../../external/gcc/LPC1768/libc.a(lib_a-s_fpclassify.o)
 .ARM.attributes
                0x00001773       0x29 ../../external/gcc/LPC1768/libc.a(lib_a-sccl.o)
 .ARM.attributes
                0x0000179c       0x29 ../../external/gcc/LPC1768/libc.a(lib_a-sf_nan.o)
 .ARM.attributes
                0x000017c5       0x29 ../../external/gcc/LPC1768/libc.a(lib_a-strtod.o)
 .ARM.attributes
                0x000017ee       0x29 ../../external/gcc/LPC1768/libc.a(lib_a-strtoll_r.o)
 .ARM.attributes
                0x00001817       0x29 ../../external/gcc/LPC1768/libc.a(lib_a-strtoul.o)
 .ARM.attributes
                0x00001840       0x29 ../../external/gcc/LPC1768/libc.a(lib_a-strtoull_r.o)
 .ARM.attributes
                0x00001869       0x29 ../../external/gcc/LPC1768/libc.a(lib_a-svfiprintf.o)
 .ARM.attributes
                0x00001892       0x29 ../../external/gcc/LPC1768/libc.a(lib_a-svfiscanf.o)
 .ARM.attributes
                0x000018bb       0x29 ../../external/gcc/LPC1768/libc.a(lib_a-ungetc.o)
 .ARM.attributes
                0x000018e4       0x29 ../../external/gcc/LPC1768/libc.a(lib_a-vfiprintf.o)
 .ARM.attributes
                0x0000190d       0x29 ../../external/gcc/LPC1768/libc.a(lib_a-callocr.o)
 .ARM.attributes
                0x00001936       0x29 ../../external/gcc/LPC1768/libc.a(lib_a-fputwc.o)
 .ARM.attributes
                0x0000195f       0x29 ../../external/gcc/LPC1768/libc.a(lib_a-gdtoa-gethex.o)
 .ARM.attributes
                0x00001988       0x29 ../../external/gcc/LPC1768/libc.a(lib_a-gdtoa-hexnan.o)
 .ARM.attributes
                0x000019b1       0x29 ../../external/gcc/LPC1768/libc.a(lib_a-wbuf.o)
 .ARM.attributes
                0x000019da       0x29 ../../external/gcc/LPC1768/libc.a(lib_a-wcrtomb.o)
 .ARM.attributes
                0x00001a03       0x29 ../../external/gcc/LPC1768/libc.a(lib_a-wctomb_r.o)
 .ARM.attributes
                0x00001a2c       0x1b /media/6aafac43-5450-453e-a142-f588400933c0/Sandbox/arm/bin/../lib/gcc/arm-none-eabi/4.5.2/thumb2/libgcc.a(_udivsi3.o)
 .ARM.attributes
                0x00001a47       0x1b /media/6aafac43-5450-453e-a142-f588400933c0/Sandbox/arm/bin/../lib/gcc/arm-none-eabi/4.5.2/thumb2/libgcc.a(_divsi3.o)
 .ARM.attributes
                0x00001a62       0x1b /media/6aafac43-5450-453e-a142-f588400933c0/Sandbox/arm/bin/../lib/gcc/arm-none-eabi/4.5.2/thumb2/libgcc.a(_dvmd_tls.o)
 .ARM.attributes
                0x00001a7d       0x1b /media/6aafac43-5450-453e-a142-f588400933c0/Sandbox/arm/bin/../lib/gcc/arm-none-eabi/4.5.2/thumb2/libgcc.a(_arm_cmpdf2.o)
 .ARM.attributes
                0x00001a98       0x1b /media/6aafac43-5450-453e-a142-f588400933c0/Sandbox/arm/bin/../lib/gcc/arm-none-eabi/4.5.2/thumb2/libgcc.a(_arm_fixunsdfsi.o)
 .ARM.attributes
                0x00001ab3       0x1b /media/6aafac43-5450-453e-a142-f588400933c0/Sandbox/arm/bin/../lib/gcc/arm-none-eabi/4.5.2/thumb2/libgcc.a(_aeabi_uldivmod.o)
 .ARM.attributes
                0x00001ace       0x29 /media/6aafac43-5450-453e-a142-f588400933c0/Sandbox/arm/bin/../lib/gcc/arm-none-eabi/4.5.2/thumb2/libgcc.a(bpabi.o)
 .ARM.attributes
                0x00001af7       0x29 /media/6aafac43-5450-453e-a142-f588400933c0/Sandbox/arm/bin/../lib/gcc/arm-none-eabi/4.5.2/thumb2/libgcc.a(_divdi3.o)
 .ARM.attributes
                0x00001b20       0x29 /media/6aafac43-5450-453e-a142-f588400933c0/Sandbox/arm/bin/../lib/gcc/arm-none-eabi/4.5.2/thumb2/libgcc.a(_udivdi3.o)
 .ARM.attributes
                0x00001b49       0x29 /media/6aafac43-5450-453e-a142-f588400933c0/Sandbox/arm/bin/../lib/gcc/arm-none-eabi/4.5.2/thumb2/crtend.o
 .ARM.attributes
                0x00001b72       0x19 /media/6aafac43-5450-453e-a142-f588400933c0/Sandbox/arm/bin/../lib/gcc/arm-none-eabi/4.5.2/thumb2/crtn.o

.comment        0x00000000     0x1751
 .comment       0x00000000       0x2a ../../src/gcc4mbed.o
                                 0x2b (size before relaxing)
 .comment       0x00000000       0x2b ../../src/syscalls.o
 .comment       0x00000000       0x2b ./main.o
 .comment       0x00000000       0x2b ./SDFileSystem/SDFileSystem.o
 .comment       0x0000002a       0xf4 ../../external/mbed/LPC1768/mbed.ar(DigitalOut.LPC1768.o)
 .comment       0x0000011e       0xe8 ../../external/mbed/LPC1768/mbed.ar(Base.LPC1768.o)
 .comment       0x00000206       0xea ../../external/mbed/LPC1768/mbed.ar(stdio.LPC1768.o)
 .comment       0x000002f0       0xe6 ../../external/mbed/LPC1768/mbed.ar(SPI.LPC1768.o)
 .comment       0x000003d6       0xbc ../../external/mbed/LPC1768/capi.ar(startup_LPC17xx.LPC1768.o)
 .comment       0x00000492       0xdf ../../external/mbed/LPC1768/capi.ar(system_LPC17xx.LPC1768.o)
 .comment       0x00000571      0x174 ../../external/mbed/LPC1768/capi.ar(core_cm3.LPC1768.o)
 .comment       0x000006e5       0xe3 ../../external/mbed/LPC1768/capi.ar(serial_api.LPC1768.o)
 .comment       0x000007c8       0xd7 ../../external/mbed/LPC1768/capi.ar(exit.LPC1768.o)
 .comment       0x0000089f       0xdd ../../external/mbed/LPC1768/capi.ar(spi_api.LPC1768.o)
 .comment       0x0000097c       0xdb ../../external/mbed/LPC1768/capi.ar(pinmap.LPC1768.o)
 .comment       0x00000a57       0xdf ../../external/mbed/LPC1768/capi.ar(gpio_api.LPC1768.o)
 .comment       0x00000b36       0xe7 ../../external/mbed/LPC1768/capi.ar(semihost_api.LPC1768.o)
 .comment       0x00000c1d       0xe1 ../../external/mbed/LPC1768/capi.ar(utils_api.LPC1768.o)
 .comment       0x00000cfe       0xdf ../../external/mbed/LPC1768/capi.ar(wait_api.LPC1768.o)
 .comment       0x00000ddd       0xe9 ../../external/mbed/LPC1768/capi.ar(us_ticker_api.LPC1768.o)
 .comment       0x00000ec6       0xe1 ../../external/mbed/LPC1768/capi.ar(timer_api.LPC1768.o)
 .comment       0x00000fa7      0x195 ../../external/FATFileSystem/LPC1768/FATFileSystem.ar(FATFileSystem.cpp.lpc1768.arm.o)
 .comment       0x0000113c      0x192 ../../external/FATFileSystem/LPC1768/FATFileSystem.ar(FATDirHandle.cpp.lpc1768.arm.o)
 .comment       0x000012ce      0x195 ../../external/FATFileSystem/LPC1768/FATFileSystem.ar(FATFileHandle.cpp.lpc1768.arm.o)
 .comment       0x00001463      0x16e ../../external/FATFileSystem/LPC1768/FATFileSystem.ar(ff.c.lpc1768.arm.o)
 .comment       0x000015d1      0x180 ../../external/FATFileSystem/LPC1768/FATFileSystem.ar(diskio.cpp.lpc1768.arm.o)

.arm_vfe_header
                0x00000000       0x54
 .arm_vfe_header
                0x00000000        0x4 ../../external/mbed/LPC1768/mbed.ar(DigitalOut.LPC1768.o)
 .arm_vfe_header
                0x00000004        0x4 ../../external/mbed/LPC1768/mbed.ar(Base.LPC1768.o)
 .arm_vfe_header
                0x00000008        0x4 ../../external/mbed/LPC1768/mbed.ar(stdio.LPC1768.o)
 .arm_vfe_header
                0x0000000c        0x4 ../../external/mbed/LPC1768/mbed.ar(SPI.LPC1768.o)
 .arm_vfe_header
                0x00000010        0x4 ../../external/mbed/LPC1768/capi.ar(system_LPC17xx.LPC1768.o)
 .arm_vfe_header
                0x00000014        0x4 ../../external/mbed/LPC1768/capi.ar(core_cm3.LPC1768.o)
 .arm_vfe_header
                0x00000018        0x4 ../../external/mbed/LPC1768/capi.ar(serial_api.LPC1768.o)
 .arm_vfe_header
                0x0000001c        0x4 ../../external/mbed/LPC1768/capi.ar(exit.LPC1768.o)
 .arm_vfe_header
                0x00000020        0x4 ../../external/mbed/LPC1768/capi.ar(spi_api.LPC1768.o)
 .arm_vfe_header
                0x00000024        0x4 ../../external/mbed/LPC1768/capi.ar(pinmap.LPC1768.o)
 .arm_vfe_header
                0x00000028        0x4 ../../external/mbed/LPC1768/capi.ar(gpio_api.LPC1768.o)
 .arm_vfe_header
                0x0000002c        0x4 ../../external/mbed/LPC1768/capi.ar(semihost_api.LPC1768.o)
 .arm_vfe_header
                0x00000030        0x4 ../../external/mbed/LPC1768/capi.ar(utils_api.LPC1768.o)
 .arm_vfe_header
                0x00000034        0x4 ../../external/mbed/LPC1768/capi.ar(wait_api.LPC1768.o)
 .arm_vfe_header
                0x00000038        0x4 ../../external/mbed/LPC1768/capi.ar(us_ticker_api.LPC1768.o)
 .arm_vfe_header
                0x0000003c        0x4 ../../external/mbed/LPC1768/capi.ar(timer_api.LPC1768.o)
 .arm_vfe_header
                0x00000040        0x4 ../../external/FATFileSystem/LPC1768/FATFileSystem.ar(FATFileSystem.cpp.lpc1768.arm.o)
 .arm_vfe_header
                0x00000044        0x4 ../../external/FATFileSystem/LPC1768/FATFileSystem.ar(FATDirHandle.cpp.lpc1768.arm.o)
 .arm_vfe_header
                0x00000048        0x4 ../../external/FATFileSystem/LPC1768/FATFileSystem.ar(FATFileHandle.cpp.lpc1768.arm.o)
 .arm_vfe_header
                0x0000004c        0x4 ../../external/FATFileSystem/LPC1768/FATFileSystem.ar(ff.c.lpc1768.arm.o)
 .arm_vfe_header
                0x00000050        0x4 ../../external/FATFileSystem/LPC1768/FATFileSystem.ar(diskio.cpp.lpc1768.arm.o)

.arm_vfe_vtableinfo_ZTVN4mbed10DigitalOutE
                0x00000000       0x38
 .arm_vfe_vtableinfo_ZTVN4mbed10DigitalOutE
                0x00000000       0x38 ../../external/mbed/LPC1768/mbed.ar(DigitalOut.LPC1768.o)

.arm_vfe_vtableinfo_ZTVN4mbed4BaseE
                0x00000000       0x1c
 .arm_vfe_vtableinfo_ZTVN4mbed4BaseE
                0x00000000       0x1c ../../external/mbed/LPC1768/mbed.ar(Base.LPC1768.o)

.arm_vfe_vtableinfo_ZTVN4mbed13BaseDirHandleE
                0x00000000       0x38
 .arm_vfe_vtableinfo_ZTVN4mbed13BaseDirHandleE
                0x00000000       0x38 ../../external/mbed/LPC1768/mbed.ar(Base.LPC1768.o)

.arm_vfe_vtableinfo_ZTVN4mbed3SPIE
                0x00000000       0x38
 .arm_vfe_vtableinfo_ZTVN4mbed3SPIE
                0x00000000       0x38 ../../external/mbed/LPC1768/mbed.ar(SPI.LPC1768.o)

.arm_vfe_vtableinfo_ZTVN4mbed13FATFileSystemE
                0x00000000       0x60
 .arm_vfe_vtableinfo_ZTVN4mbed13FATFileSystemE
                0x00000000       0x60 ../../external/FATFileSystem/LPC1768/FATFileSystem.ar(FATFileSystem.cpp.lpc1768.arm.o)

.arm_vfe_vtableinfo_ZTVN4mbed12FATDirHandleE
                0x00000000       0x38
 .arm_vfe_vtableinfo_ZTVN4mbed12FATDirHandleE
                0x00000000       0x38 ../../external/FATFileSystem/LPC1768/FATFileSystem.ar(FATDirHandle.cpp.lpc1768.arm.o)

.arm_vfe_vtableinfo_ZTVN4mbed13FATFileHandleE
                0x00000000       0x38
 .arm_vfe_vtableinfo_ZTVN4mbed13FATFileHandleE
                0x00000000       0x38 ../../external/FATFileSystem/LPC1768/FATFileSystem.ar(FATFileHandle.cpp.lpc1768.arm.o)

.debug_aranges  0x00000000      0x198
 *(.debug_aranges)
 .debug_aranges
                0x00000000       0x20 ../../src/gcc4mbed.o
 .debug_aranges
                0x00000020       0x80 ../../src/syscalls.o
 .debug_aranges
                0x000000a0       0x38 ./main.o
 .debug_aranges
                0x000000d8       0xc0 ./SDFileSystem/SDFileSystem.o

.debug_pubnames
                0x00000000      0x396
 *(.debug_pubnames)
 .debug_pubnames
                0x00000000       0x1d ../../src/gcc4mbed.o
 .debug_pubnames
                0x0000001d       0xb6 ../../src/syscalls.o
 .debug_pubnames
                0x000000d3       0x62 ./main.o
 .debug_pubnames
                0x00000135      0x261 ./SDFileSystem/SDFileSystem.o

.debug_info     0x00000000     0x5610
 *(.debug_info .gnu.linkonce.wi.*)
 .debug_info    0x00000000       0xea ../../src/gcc4mbed.o
 .debug_info    0x000000ea      0xf1b ../../src/syscalls.o
 .debug_info    0x00001005     0x1a84 ./main.o
 .debug_info    0x00002a89     0x2b87 ./SDFileSystem/SDFileSystem.o

.debug_abbrev   0x00000000      0xc33
 *(.debug_abbrev)
 .debug_abbrev  0x00000000       0x7e ../../src/gcc4mbed.o
 .debug_abbrev  0x0000007e      0x2e1 ../../src/syscalls.o
 .debug_abbrev  0x0000035f      0x35a ./main.o
 .debug_abbrev  0x000006b9      0x57a ./SDFileSystem/SDFileSystem.o

.debug_line     0x00000000      0xfbd
 *(.debug_line)
 .debug_line    0x00000000       0x70 ../../src/gcc4mbed.o
 .debug_line    0x00000070      0x30e ../../src/syscalls.o
 .debug_line    0x0000037e      0x3f6 ./main.o
 .debug_line    0x00000774      0x849 ./SDFileSystem/SDFileSystem.o

.debug_frame    0x00000000     0x2c68
 *(.debug_frame)
 .debug_frame   0x00000000       0x2c ../../src/gcc4mbed.o
 .debug_frame   0x0000002c      0x128 ../../src/syscalls.o
 .debug_frame   0x00000154       0x7c ./main.o
 .debug_frame   0x000001d0      0x258 ./SDFileSystem/SDFileSystem.o
 .debug_frame   0x00000428       0x20 ../../external/gcc/LPC1768/libstdc++.a(atexit_arm.o)
 .debug_frame   0x00000448       0xdc ../../external/gcc/LPC1768/libstdc++.a(class_type_info.o)
 .debug_frame   0x00000524       0x20 ../../external/gcc/LPC1768/libstdc++.a(del_op.o)
 .debug_frame   0x00000544       0x20 ../../external/gcc/LPC1768/libstdc++.a(del_opv.o)
 .debug_frame   0x00000564       0x8c ../../external/gcc/LPC1768/libstdc++.a(dyncast.o)
 .debug_frame   0x000005f0       0x28 ../../external/gcc/LPC1768/libstdc++.a(new_op.o)
 .debug_frame   0x00000618       0x20 ../../external/gcc/LPC1768/libstdc++.a(new_opv.o)
 .debug_frame   0x00000638       0x28 ../../external/gcc/LPC1768/libstdc++.a(pure.o)
 .debug_frame   0x00000660       0xac ../../external/gcc/LPC1768/libstdc++.a(si_class_type_info.o)
 .debug_frame   0x0000070c       0xa4 ../../external/gcc/LPC1768/libstdc++.a(tinfo.o)
 .debug_frame   0x000007b0      0x170 ../../external/gcc/LPC1768/libstdc++.a(vmi_class_type_info.o)
 .debug_frame   0x00000920       0x90 ../../external/gcc/LPC1768/libstdc++.a(eh_terminate.o)
 .debug_frame   0x000009b0       0x60 ../../external/gcc/LPC1768/libstdc++.a(new_handler.o)
 .debug_frame   0x00000a10       0xd8 ../../external/gcc/LPC1768/libstdc++.a(eh_exception.o)
 .debug_frame   0x00000ae8       0x40 ../../external/gcc/LPC1768/libstdc++.a(vterminate.o)
 .debug_frame   0x00000b28      0x578 ../../external/gcc/LPC1768/libstdc++.a(cp-demangle.o)
 .debug_frame   0x000010a0       0x28 ../../external/gcc/LPC1768/libstdc++.a(eh_type.o)
 .debug_frame   0x000010c8       0x30 ../../external/gcc/LPC1768/libstdc++.a(eh_globals.o)
 .debug_frame   0x000010f8       0x30 ../../external/gcc/LPC1768/libm.a(lib_a-s_scalbn.o)
 .debug_frame   0x00001128       0x2c ../../external/gcc/LPC1768/libm.a(lib_a-s_copysign.o)
 .debug_frame   0x00001154       0x28 ../../external/gcc/LPC1768/libc.a(lib_a-abort.o)
 .debug_frame   0x0000117c       0x20 ../../external/gcc/LPC1768/libc.a(lib_a-aeabi_memclr.o)
 .debug_frame   0x0000119c       0x20 ../../external/gcc/LPC1768/libc.a(lib_a-aeabi_memcpy.o)
 .debug_frame   0x000011bc       0x20 ../../external/gcc/LPC1768/libc.a(lib_a-aeabi_memset.o)
 .debug_frame   0x000011dc       0x28 ../../external/gcc/LPC1768/libc.a(lib_a-clibabi_assert.o)
 .debug_frame   0x00001204       0x20 ../../external/gcc/LPC1768/libc.a(lib_a-clibabi_stdio.o)
 .debug_frame   0x00001224       0x2c ../../external/gcc/LPC1768/libc.a(lib_a-cxa_atexit.o)
 .debug_frame   0x00001250       0x3c ../../external/gcc/LPC1768/libc.a(lib_a-fclose.o)
 .debug_frame   0x0000128c       0x40 ../../external/gcc/LPC1768/libc.a(lib_a-fflush.o)
 .debug_frame   0x000012cc      0x120 ../../external/gcc/LPC1768/libc.a(lib_a-findfp.o)
 .debug_frame   0x000013ec       0x44 ../../external/gcc/LPC1768/libc.a(lib_a-fopen.o)
 .debug_frame   0x00001430       0x50 ../../external/gcc/LPC1768/libc.a(lib_a-fprintf.o)
 .debug_frame   0x00001480       0x3c ../../external/gcc/LPC1768/libc.a(lib_a-fputs.o)
 .debug_frame   0x000014bc       0x50 ../../external/gcc/LPC1768/libc.a(lib_a-freer.o)
 .debug_frame   0x0000150c       0x50 ../../external/gcc/LPC1768/libc.a(lib_a-fscanf.o)
 .debug_frame   0x0000155c       0x54 ../../external/gcc/LPC1768/libc.a(lib_a-fseek.o)
 .debug_frame   0x000015b0       0x2c ../../external/gcc/LPC1768/libc.a(lib_a-fstatr.o)
 .debug_frame   0x000015dc       0x3c ../../external/gcc/LPC1768/libc.a(lib_a-fvwrite.o)
 .debug_frame   0x00001618       0x54 ../../external/gcc/LPC1768/libc.a(lib_a-fwalk.o)
 .debug_frame   0x0000166c       0x54 ../../external/gcc/LPC1768/libc.a(lib_a-fwrite.o)
 .debug_frame   0x000016c0       0x2c ../../external/gcc/LPC1768/libc.a(lib_a-init.o)
 .debug_frame   0x000016ec       0x30 ../../external/gcc/LPC1768/libc.a(lib_a-makebuf.o)
 .debug_frame   0x0000171c       0x30 ../../external/gcc/LPC1768/libc.a(lib_a-malloc.o)
 .debug_frame   0x0000174c       0x3c ../../external/gcc/LPC1768/libc.a(lib_a-mallocr.o)
 .debug_frame   0x00001788       0x28 ../../external/gcc/LPC1768/libc.a(lib_a-memchr.o)
 .debug_frame   0x000017b0       0x2c ../../external/gcc/LPC1768/libc.a(lib_a-memcmp.o)
 .debug_frame   0x000017dc       0x28 ../../external/gcc/LPC1768/libc.a(lib_a-memcpy.o)
 .debug_frame   0x00001804       0x28 ../../external/gcc/LPC1768/libc.a(lib_a-memmove.o)
 .debug_frame   0x0000182c       0x20 ../../external/gcc/LPC1768/libc.a(lib_a-memset.o)
 .debug_frame   0x0000184c       0x30 ../../external/gcc/LPC1768/libc.a(lib_a-mlock.o)
 .debug_frame   0x0000187c       0x2c ../../external/gcc/LPC1768/libc.a(lib_a-openr.o)
 .debug_frame   0x000018a8       0x5c ../../external/gcc/LPC1768/libc.a(lib_a-printf.o)
 .debug_frame   0x00001904       0x3c ../../external/gcc/LPC1768/libc.a(lib_a-puts.o)
 .debug_frame   0x00001940       0x20 ../../external/gcc/LPC1768/libc.a(lib_a-realloc.o)
 .debug_frame   0x00001960       0x3c ../../external/gcc/LPC1768/libc.a(lib_a-reallocr.o)
 .debug_frame   0x0000199c       0x64 ../../external/gcc/LPC1768/libc.a(lib_a-reent.o)
 .debug_frame   0x00001a00       0x3c ../../external/gcc/LPC1768/libc.a(lib_a-refill.o)
 .debug_frame   0x00001a3c       0x2c ../../external/gcc/LPC1768/libc.a(lib_a-sbrkr.o)
 .debug_frame   0x00001a68       0xc0 ../../external/gcc/LPC1768/libc.a(lib_a-signal.o)
 .debug_frame   0x00001b28       0x3c ../../external/gcc/LPC1768/libc.a(lib_a-signalr.o)
 .debug_frame   0x00001b64       0x58 ../../external/gcc/LPC1768/libc.a(lib_a-sprintf.o)
 .debug_frame   0x00001bbc       0x60 ../../external/gcc/LPC1768/libc.a(lib_a-sscanf.o)
 .debug_frame   0x00001c1c       0x80 ../../external/gcc/LPC1768/libc.a(lib_a-stdio.o)
 .debug_frame   0x00001c9c       0x20 ../../external/gcc/LPC1768/libc.a(lib_a-strcmp.o)
 .debug_frame   0x00001cbc       0x20 ../../external/gcc/LPC1768/libc.a(lib_a-strcpy.o)
 .debug_frame   0x00001cdc       0x20 ../../external/gcc/LPC1768/libc.a(lib_a-strlen.o)
 .debug_frame   0x00001cfc       0x2c ../../external/gcc/LPC1768/libc.a(lib_a-strncmp.o)
 .debug_frame   0x00001d28       0x2c ../../external/gcc/LPC1768/libc.a(lib_a-strncpy.o)
 .debug_frame   0x00001d54       0x58 ../../external/gcc/LPC1768/libc.a(lib_a-strtol.o)
 .debug_frame   0x00001dac       0x3c ../../external/gcc/LPC1768/libc.a(lib_a-svfprintf.o)
 .debug_frame   0x00001de8       0x3c ../../external/gcc/LPC1768/libc.a(lib_a-svfscanf.o)
 .debug_frame   0x00001e24       0x2c ../../external/gcc/LPC1768/libc.a(lib_a-syswrite.o)
 .debug_frame   0x00001e50       0x58 ../../external/gcc/LPC1768/libc.a(lib_a-vfprintf.o)
 .debug_frame   0x00001ea8       0x98 ../../external/gcc/LPC1768/libc.a(lib_a-vfscanf.o)
 .debug_frame   0x00001f40       0x2c ../../external/gcc/LPC1768/libc.a(lib_a-writer.o)
 .debug_frame   0x00001f6c       0x2c ../../external/gcc/LPC1768/libc.a(lib_a-wsetup.o)
 .debug_frame   0x00001f98       0x34 ../../external/gcc/LPC1768/libc.a(lib_a-__atexit.o)
 .debug_frame   0x00001fcc       0x48 ../../external/gcc/LPC1768/libc.a(lib_a-assert.o)
 .debug_frame   0x00002014       0x2c ../../external/gcc/LPC1768/libc.a(lib_a-closer.o)
 .debug_frame   0x00002040       0x68 ../../external/gcc/LPC1768/libc.a(lib_a-dtoa.o)
 .debug_frame   0x000020a8       0x50 ../../external/gcc/LPC1768/libc.a(lib_a-fiprintf.o)
 .debug_frame   0x000020f8       0x2c ../../external/gcc/LPC1768/libc.a(lib_a-flags.o)
 .debug_frame   0x00002124       0x58 ../../external/gcc/LPC1768/libc.a(lib_a-fread.o)
 .debug_frame   0x0000217c       0x2c ../../external/gcc/LPC1768/libc.a(lib_a-isattyr.o)
 .debug_frame   0x000021a8       0x20 ../../external/gcc/LPC1768/libc.a(lib_a-iswspace.o)
 .debug_frame   0x000021c8       0x98 ../../external/gcc/LPC1768/libc.a(lib_a-locale.o)
 .debug_frame   0x00002260       0x2c ../../external/gcc/LPC1768/libc.a(lib_a-lseekr.o)
 .debug_frame   0x0000228c       0x58 ../../external/gcc/LPC1768/libc.a(lib_a-mbrtowc.o)
 .debug_frame   0x000022e4       0x48 ../../external/gcc/LPC1768/libc.a(lib_a-mbtowc_r.o)
 .debug_frame   0x0000232c      0x238 ../../external/gcc/LPC1768/libc.a(lib_a-mprec.o)
 .debug_frame   0x00002564       0x2c ../../external/gcc/LPC1768/libc.a(lib_a-readr.o)
 .debug_frame   0x00002590       0x20 ../../external/gcc/LPC1768/libc.a(lib_a-s_fpclassify.o)
 .debug_frame   0x000025b0       0x30 ../../external/gcc/LPC1768/libc.a(lib_a-sccl.o)
 .debug_frame   0x000025e0       0x20 ../../external/gcc/LPC1768/libc.a(lib_a-sf_nan.o)
 .debug_frame   0x00002600       0x8c ../../external/gcc/LPC1768/libc.a(lib_a-strtod.o)
 .debug_frame   0x0000268c       0x38 ../../external/gcc/LPC1768/libc.a(lib_a-strtoll_r.o)
 .debug_frame   0x000026c4       0x58 ../../external/gcc/LPC1768/libc.a(lib_a-strtoul.o)
 .debug_frame   0x0000271c       0x38 ../../external/gcc/LPC1768/libc.a(lib_a-strtoull_r.o)
 .debug_frame   0x00002754       0x68 ../../external/gcc/LPC1768/libc.a(lib_a-svfiprintf.o)
 .debug_frame   0x000027bc       0x98 ../../external/gcc/LPC1768/libc.a(lib_a-svfiscanf.o)
 .debug_frame   0x00002854       0x5c ../../external/gcc/LPC1768/libc.a(lib_a-ungetc.o)
 .debug_frame   0x000028b0       0x80 ../../external/gcc/LPC1768/libc.a(lib_a-vfiprintf.o)
 .debug_frame   0x00002930       0x28 ../../external/gcc/LPC1768/libc.a(lib_a-callocr.o)
 .debug_frame   0x00002958       0x50 ../../external/gcc/LPC1768/libc.a(lib_a-fputwc.o)
 .debug_frame   0x000029a8       0x8c ../../external/gcc/LPC1768/libc.a(lib_a-gdtoa-gethex.o)
 .debug_frame   0x00002a34       0x5c ../../external/gcc/LPC1768/libc.a(lib_a-gdtoa-hexnan.o)
 .debug_frame   0x00002a90       0x3c ../../external/gcc/LPC1768/libc.a(lib_a-wbuf.o)
 .debug_frame   0x00002acc       0x50 ../../external/gcc/LPC1768/libc.a(lib_a-wcrtomb.o)
 .debug_frame   0x00002b1c       0x44 ../../external/gcc/LPC1768/libc.a(lib_a-wctomb_r.o)
 .debug_frame   0x00002b60       0x20 /media/6aafac43-5450-453e-a142-f588400933c0/Sandbox/arm/bin/../lib/gcc/arm-none-eabi/4.5.2/thumb2/libgcc.a(_udivsi3.o)
 .debug_frame   0x00002b80       0x20 /media/6aafac43-5450-453e-a142-f588400933c0/Sandbox/arm/bin/../lib/gcc/arm-none-eabi/4.5.2/thumb2/libgcc.a(_divsi3.o)
 .debug_frame   0x00002ba0       0x50 /media/6aafac43-5450-453e-a142-f588400933c0/Sandbox/arm/bin/../lib/gcc/arm-none-eabi/4.5.2/thumb2/libgcc.a(bpabi.o)
 .debug_frame   0x00002bf0       0x3c /media/6aafac43-5450-453e-a142-f588400933c0/Sandbox/arm/bin/../lib/gcc/arm-none-eabi/4.5.2/thumb2/libgcc.a(_divdi3.o)
 .debug_frame   0x00002c2c       0x3c /media/6aafac43-5450-453e-a142-f588400933c0/Sandbox/arm/bin/../lib/gcc/arm-none-eabi/4.5.2/thumb2/libgcc.a(_udivdi3.o)

.debug_str      0x00000000     0x129d
 *(.debug_str)
 .debug_str     0x00000000       0xb7 ../../src/gcc4mbed.o
                                 0xc9 (size before relaxing)
 .debug_str     0x000000b7      0x613 ../../src/syscalls.o
                                0x726 (size before relaxing)
 .debug_str     0x000006ca      0x5e6 ./main.o
                                0xa9e (size before relaxing)
 .debug_str     0x00000cb0      0x5ed ./SDFileSystem/SDFileSystem.o
                               0x1088 (size before relaxing)

.debug_loc      0x00000000     0x1521
 *(.debug_loc)
 .debug_loc     0x00000000       0x49 ../../src/gcc4mbed.o
 .debug_loc     0x00000049      0x61d ../../src/syscalls.o
 .debug_loc     0x00000666      0x287 ./main.o
 .debug_loc     0x000008ed      0xc34 ./SDFileSystem/SDFileSystem.o

.debug_macinfo
 *(.debug_macinfo)

.debug_weaknames
 *(.debug_weaknames)

.debug_funcnames
 *(.debug_funcnames)

.debug_typenames
 *(.debug_typenames)

.debug_varnames
 *(.debug_varnames)
OUTPUT(SDFileSystem.elf elf32-littlearm)

.debug_pubtypes
                0x00000000      0x492
 .debug_pubtypes
                0x00000000       0x12 ../../src/gcc4mbed.o
 .debug_pubtypes
                0x00000012      0x18c ../../src/syscalls.o
 .debug_pubtypes
                0x0000019e      0x146 ./main.o
 .debug_pubtypes
                0x000002e4      0x1ae ./SDFileSystem/SDFileSystem.o

.debug_ranges   0x00000000      0x700
 .debug_ranges  0x00000000       0x28 ../../src/gcc4mbed.o
 .debug_ranges  0x00000028      0x198 ../../src/syscalls.o
 .debug_ranges  0x000001c0       0xb0 ./main.o
 .debug_ranges  0x00000270      0x490 ./SDFileSystem/SDFileSystem.o

Cross Reference Table

Symbol                                            File
ADC_IRQHandler                                    ../../external/mbed/LPC1768/capi.ar(startup_LPC17xx.LPC1768.o)
BOD_IRQHandler                                    ../../external/mbed/LPC1768/capi.ar(startup_LPC17xx.LPC1768.o)
BusFault_Handler                                  ../../external/mbed/LPC1768/capi.ar(startup_LPC17xx.LPC1768.o)
CAN_IRQHandler                                    ../../external/mbed/LPC1768/capi.ar(startup_LPC17xx.LPC1768.o)
DMA_IRQHandler                                    ../../external/mbed/LPC1768/capi.ar(startup_LPC17xx.LPC1768.o)
DebugMon_Handler                                  ../../external/mbed/LPC1768/capi.ar(startup_LPC17xx.LPC1768.o)
EINT0_IRQHandler                                  ../../external/mbed/LPC1768/capi.ar(startup_LPC17xx.LPC1768.o)
EINT1_IRQHandler                                  ../../external/mbed/LPC1768/capi.ar(startup_LPC17xx.LPC1768.o)
EINT2_IRQHandler                                  ../../external/mbed/LPC1768/capi.ar(startup_LPC17xx.LPC1768.o)
EINT3_IRQHandler                                  ../../external/mbed/LPC1768/capi.ar(startup_LPC17xx.LPC1768.o)
ENET_IRQHandler                                   ../../external/mbed/LPC1768/capi.ar(startup_LPC17xx.LPC1768.o)
FunctionalityNotSupported                         ../../external/mbed/LPC1768/capi.ar(utils_api.LPC1768.o)
HardFault_Handler                                 ../../external/mbed/LPC1768/capi.ar(startup_LPC17xx.LPC1768.o)
I2C0_IRQHandler                                   ../../external/mbed/LPC1768/capi.ar(startup_LPC17xx.LPC1768.o)
I2C1_IRQHandler                                   ../../external/mbed/LPC1768/capi.ar(startup_LPC17xx.LPC1768.o)
I2C2_IRQHandler                                   ../../external/mbed/LPC1768/capi.ar(startup_LPC17xx.LPC1768.o)
I2S_IRQHandler                                    ../../external/mbed/LPC1768/capi.ar(startup_LPC17xx.LPC1768.o)
Lib$$Request$$armlib                              ../../external/FATFileSystem/LPC1768/FATFileSystem.ar(diskio.cpp.lpc1768.arm.o)
                                                  ../../external/FATFileSystem/LPC1768/FATFileSystem.ar(ff.c.lpc1768.arm.o)
                                                  ../../external/FATFileSystem/LPC1768/FATFileSystem.ar(FATFileHandle.cpp.lpc1768.arm.o)
                                                  ../../external/FATFileSystem/LPC1768/FATFileSystem.ar(FATDirHandle.cpp.lpc1768.arm.o)
                                                  ../../external/FATFileSystem/LPC1768/FATFileSystem.ar(FATFileSystem.cpp.lpc1768.arm.o)
                                                  ../../external/mbed/LPC1768/capi.ar(timer_api.LPC1768.o)
                                                  ../../external/mbed/LPC1768/capi.ar(us_ticker_api.LPC1768.o)
                                                  ../../external/mbed/LPC1768/capi.ar(wait_api.LPC1768.o)
                                                  ../../external/mbed/LPC1768/capi.ar(utils_api.LPC1768.o)
                                                  ../../external/mbed/LPC1768/capi.ar(semihost_api.LPC1768.o)
                                                  ../../external/mbed/LPC1768/capi.ar(gpio_api.LPC1768.o)
                                                  ../../external/mbed/LPC1768/capi.ar(pinmap.LPC1768.o)
                                                  ../../external/mbed/LPC1768/capi.ar(spi_api.LPC1768.o)
                                                  ../../external/mbed/LPC1768/capi.ar(exit.LPC1768.o)
                                                  ../../external/mbed/LPC1768/capi.ar(serial_api.LPC1768.o)
                                                  ../../external/mbed/LPC1768/capi.ar(core_cm3.LPC1768.o)
                                                  ../../external/mbed/LPC1768/capi.ar(system_LPC17xx.LPC1768.o)
                                                  ../../external/mbed/LPC1768/mbed.ar(SPI.LPC1768.o)
                                                  ../../external/mbed/LPC1768/mbed.ar(stdio.LPC1768.o)
                                                  ../../external/mbed/LPC1768/mbed.ar(Base.LPC1768.o)
                                                  ../../external/mbed/LPC1768/mbed.ar(DigitalOut.LPC1768.o)
Lib$$Request$$cpplib                              ../../external/FATFileSystem/LPC1768/FATFileSystem.ar(diskio.cpp.lpc1768.arm.o)
                                                  ../../external/FATFileSystem/LPC1768/FATFileSystem.ar(FATFileHandle.cpp.lpc1768.arm.o)
                                                  ../../external/FATFileSystem/LPC1768/FATFileSystem.ar(FATDirHandle.cpp.lpc1768.arm.o)
                                                  ../../external/FATFileSystem/LPC1768/FATFileSystem.ar(FATFileSystem.cpp.lpc1768.arm.o)
                                                  ../../external/mbed/LPC1768/mbed.ar(SPI.LPC1768.o)
                                                  ../../external/mbed/LPC1768/mbed.ar(stdio.LPC1768.o)
                                                  ../../external/mbed/LPC1768/mbed.ar(Base.LPC1768.o)
                                                  ../../external/mbed/LPC1768/mbed.ar(DigitalOut.LPC1768.o)
MCPWM_IRQHandler                                  ../../external/mbed/LPC1768/capi.ar(startup_LPC17xx.LPC1768.o)
MemManage_Handler                                 ../../external/mbed/LPC1768/capi.ar(startup_LPC17xx.LPC1768.o)
NMI_Handler                                       ../../external/mbed/LPC1768/capi.ar(startup_LPC17xx.LPC1768.o)
PLL0_IRQHandler                                   ../../external/mbed/LPC1768/capi.ar(startup_LPC17xx.LPC1768.o)
PLL1_IRQHandler                                   ../../external/mbed/LPC1768/capi.ar(startup_LPC17xx.LPC1768.o)
PWM1_IRQHandler                                   ../../external/mbed/LPC1768/capi.ar(startup_LPC17xx.LPC1768.o)
PendSV_Handler                                    ../../external/mbed/LPC1768/capi.ar(startup_LPC17xx.LPC1768.o)
PinName mbed::parse_arg<PinName>(char const*, char const**) ../../external/mbed/LPC1768/mbed.ar(SPI.LPC1768.o)
QEI_IRQHandler                                    ../../external/mbed/LPC1768/capi.ar(startup_LPC17xx.LPC1768.o)
RIT_IRQHandler                                    ../../external/mbed/LPC1768/capi.ar(startup_LPC17xx.LPC1768.o)
RTC_IRQHandler                                    ../../external/mbed/LPC1768/capi.ar(startup_LPC17xx.LPC1768.o)
Reset_Handler                                     ../../external/mbed/LPC1768/capi.ar(startup_LPC17xx.LPC1768.o)
SDFileSystem::SDFileSystem(PinName, PinName, PinName, PinName, char const*) ./SDFileSystem/SDFileSystem.o
SDFileSystem::SDFileSystem(PinName, PinName, PinName, PinName, char const*) ./SDFileSystem/SDFileSystem.o
                                                  ./main.o
SDFileSystem::_cmd(int, int)                      ./SDFileSystem/SDFileSystem.o
SDFileSystem::_cmd58()                            ./SDFileSystem/SDFileSystem.o
SDFileSystem::_cmd8()                             ./SDFileSystem/SDFileSystem.o
SDFileSystem::_cmdx(int, int)                     ./SDFileSystem/SDFileSystem.o
SDFileSystem::_read(char*, int)                   ./SDFileSystem/SDFileSystem.o
SDFileSystem::_sd_sectors()                       ./SDFileSystem/SDFileSystem.o
SDFileSystem::_write(char const*, int)            ./SDFileSystem/SDFileSystem.o
SDFileSystem::disk_initialize()                   ./SDFileSystem/SDFileSystem.o
SDFileSystem::disk_read(char*, int)               ./SDFileSystem/SDFileSystem.o
SDFileSystem::disk_sectors()                      ./SDFileSystem/SDFileSystem.o
SDFileSystem::disk_status()                       ./SDFileSystem/SDFileSystem.o
SDFileSystem::disk_sync()                         ./SDFileSystem/SDFileSystem.o
SDFileSystem::disk_write(char const*, int)        ./SDFileSystem/SDFileSystem.o
SDFileSystem::initialise_card()                   ./SDFileSystem/SDFileSystem.o
SDFileSystem::initialise_card_v1()                ./SDFileSystem/SDFileSystem.o
SDFileSystem::initialise_card_v2()                ./SDFileSystem/SDFileSystem.o
SDFileSystem::~SDFileSystem()                     ./main.o
                                                  ./SDFileSystem/SDFileSystem.o
SDFileSystem::~SDFileSystem()                     ./main.o
                                                  ./SDFileSystem/SDFileSystem.o
SDFileSystem::~SDFileSystem()                     ./main.o
                                                  ./SDFileSystem/SDFileSystem.o
SPI_IRQHandler                                    ../../external/mbed/LPC1768/capi.ar(startup_LPC17xx.LPC1768.o)
SSP0_IRQHandler                                   ../../external/mbed/LPC1768/capi.ar(startup_LPC17xx.LPC1768.o)
SSP1_IRQHandler                                   ../../external/mbed/LPC1768/capi.ar(startup_LPC17xx.LPC1768.o)
SVC_Handler                                       ../../external/mbed/LPC1768/capi.ar(startup_LPC17xx.LPC1768.o)
SysTick_Handler                                   ../../external/mbed/LPC1768/capi.ar(startup_LPC17xx.LPC1768.o)
SystemCoreClock                                   ../../external/mbed/LPC1768/capi.ar(system_LPC17xx.LPC1768.o)
                                                  ../../external/mbed/LPC1768/capi.ar(timer_api.LPC1768.o)
                                                  ../../external/mbed/LPC1768/capi.ar(spi_api.LPC1768.o)
                                                  ../../external/mbed/LPC1768/capi.ar(serial_api.LPC1768.o)
SystemCoreClockUpdate                             ../../external/mbed/LPC1768/capi.ar(system_LPC17xx.LPC1768.o)
SystemInit                                        ../../external/mbed/LPC1768/capi.ar(system_LPC17xx.LPC1768.o)
                                                  ../../external/mbed/LPC1768/capi.ar(startup_LPC17xx.LPC1768.o)
TIMER0_IRQHandler                                 ../../external/mbed/LPC1768/capi.ar(startup_LPC17xx.LPC1768.o)
TIMER1_IRQHandler                                 ../../external/mbed/LPC1768/capi.ar(startup_LPC17xx.LPC1768.o)
TIMER2_IRQHandler                                 ../../external/mbed/LPC1768/capi.ar(startup_LPC17xx.LPC1768.o)
TIMER3_IRQHandler                                 ../../external/mbed/LPC1768/capi.ar(startup_LPC17xx.LPC1768.o)
UART0_IRQHandler                                  ../../external/mbed/LPC1768/capi.ar(startup_LPC17xx.LPC1768.o)
UART1_IRQHandler                                  ../../external/mbed/LPC1768/capi.ar(startup_LPC17xx.LPC1768.o)
UART2_IRQHandler                                  ../../external/mbed/LPC1768/capi.ar(startup_LPC17xx.LPC1768.o)
UART3_IRQHandler                                  ../../external/mbed/LPC1768/capi.ar(startup_LPC17xx.LPC1768.o)
USB_IRQHandler                                    ../../external/mbed/LPC1768/capi.ar(startup_LPC17xx.LPC1768.o)
UsageFault_Handler                                ../../external/mbed/LPC1768/capi.ar(startup_LPC17xx.LPC1768.o)
WDT_IRQHandler                                    ../../external/mbed/LPC1768/capi.ar(startup_LPC17xx.LPC1768.o)
_Balloc                                           ../../external/gcc/LPC1768/libc.a(lib_a-mprec.o)
                                                  ../../external/gcc/LPC1768/libc.a(lib_a-gdtoa-gethex.o)
                                                  ../../external/gcc/LPC1768/libc.a(lib_a-strtod.o)
                                                  ../../external/gcc/LPC1768/libc.a(lib_a-dtoa.o)
_Bfree                                            ../../external/gcc/LPC1768/libc.a(lib_a-mprec.o)
                                                  ../../external/gcc/LPC1768/libc.a(lib_a-gdtoa-gethex.o)
                                                  ../../external/gcc/LPC1768/libc.a(lib_a-strtod.o)
                                                  ../../external/gcc/LPC1768/libc.a(lib_a-dtoa.o)
_Jv_RegisterClasses                               /media/6aafac43-5450-453e-a142-f588400933c0/Sandbox/arm/bin/../lib/gcc/arm-none-eabi/4.5.2/thumb2/crtbegin.o
_PathLocale                                       ../../external/gcc/LPC1768/libc.a(lib_a-locale.o)
__ARM__ZN4mbed10parse_pinsEPKc_anon0              ../../external/mbed/LPC1768/mbed.ar(DigitalOut.LPC1768.o)
                                                  ../../external/mbed/LPC1768/mbed.ar(SPI.LPC1768.o)
__ARM__ZN4mbed12write_resultIiEEvT_Pc_anon0       ../../external/mbed/LPC1768/mbed.ar(DigitalOut.LPC1768.o)
                                                  ../../external/mbed/LPC1768/mbed.ar(SPI.LPC1768.o)
__GCC4MBEDOpenStandardHandles                     ../../src/syscalls.o
__REV16                                           ../../external/mbed/LPC1768/capi.ar(core_cm3.LPC1768.o)
__REVSH                                           ../../external/mbed/LPC1768/capi.ar(core_cm3.LPC1768.o)
__Vectors                                         ../../external/mbed/LPC1768/capi.ar(startup_LPC17xx.LPC1768.o)
__adddf3                                          /media/6aafac43-5450-453e-a142-f588400933c0/Sandbox/arm/bin/../lib/gcc/arm-none-eabi/4.5.2/thumb2/libgcc.a(_arm_addsubdf3.o)
__addsf3                                          /media/6aafac43-5450-453e-a142-f588400933c0/Sandbox/arm/bin/../lib/gcc/arm-none-eabi/4.5.2/thumb2/libgcc.a(_arm_addsubsf3.o)
__aeabi_BUFSIZ                                    ../../external/gcc/LPC1768/libc.a(lib_a-clibabi_stdio.o)
__aeabi_FILENAME_MAX                              ../../external/gcc/LPC1768/libc.a(lib_a-clibabi_stdio.o)
__aeabi_FOPEN_MAX                                 ../../external/gcc/LPC1768/libc.a(lib_a-clibabi_stdio.o)
__aeabi_IOFBF                                     ../../external/gcc/LPC1768/libc.a(lib_a-clibabi_stdio.o)
__aeabi_IOLBF                                     ../../external/gcc/LPC1768/libc.a(lib_a-clibabi_stdio.o)
__aeabi_IONBF                                     ../../external/gcc/LPC1768/libc.a(lib_a-clibabi_stdio.o)
__aeabi_L_tmpnam                                  ../../external/gcc/LPC1768/libc.a(lib_a-clibabi_stdio.o)
__aeabi_TMP_MAX                                   ../../external/gcc/LPC1768/libc.a(lib_a-clibabi_stdio.o)
__aeabi_assert                                    ../../external/gcc/LPC1768/libc.a(lib_a-clibabi_assert.o)
                                                  ../../external/mbed/LPC1768/capi.ar(spi_api.LPC1768.o)
                                                  ../../external/mbed/LPC1768/capi.ar(serial_api.LPC1768.o)
__aeabi_atexit                                    ../../external/gcc/LPC1768/libstdc++.a(atexit_arm.o)
                                                  ./main.o
__aeabi_cdcmpeq                                   /media/6aafac43-5450-453e-a142-f588400933c0/Sandbox/arm/bin/../lib/gcc/arm-none-eabi/4.5.2/thumb2/libgcc.a(_arm_cmpdf2.o)
__aeabi_cdcmple                                   /media/6aafac43-5450-453e-a142-f588400933c0/Sandbox/arm/bin/../lib/gcc/arm-none-eabi/4.5.2/thumb2/libgcc.a(_arm_cmpdf2.o)
__aeabi_cdrcmple                                  /media/6aafac43-5450-453e-a142-f588400933c0/Sandbox/arm/bin/../lib/gcc/arm-none-eabi/4.5.2/thumb2/libgcc.a(_arm_cmpdf2.o)
__aeabi_cfcmpeq                                   /media/6aafac43-5450-453e-a142-f588400933c0/Sandbox/arm/bin/../lib/gcc/arm-none-eabi/4.5.2/thumb2/libgcc.a(_arm_cmpsf2.o)
__aeabi_cfcmple                                   /media/6aafac43-5450-453e-a142-f588400933c0/Sandbox/arm/bin/../lib/gcc/arm-none-eabi/4.5.2/thumb2/libgcc.a(_arm_cmpsf2.o)
                                                  ../../external/mbed/LPC1768/capi.ar(serial_api.LPC1768.o)
__aeabi_cfrcmple                                  /media/6aafac43-5450-453e-a142-f588400933c0/Sandbox/arm/bin/../lib/gcc/arm-none-eabi/4.5.2/thumb2/libgcc.a(_arm_cmpsf2.o)
__aeabi_ctype_table_                              ../../external/gcc/LPC1768/libc.a(lib_a-clibabi_ctype.o)
                                                  ../../external/mbed/LPC1768/mbed.ar(SPI.LPC1768.o)
                                                  ../../external/mbed/LPC1768/mbed.ar(DigitalOut.LPC1768.o)
__aeabi_ctype_table_C                             ../../external/gcc/LPC1768/libc.a(lib_a-clibabi_ctype.o)
__aeabi_d2f                                       /media/6aafac43-5450-453e-a142-f588400933c0/Sandbox/arm/bin/../lib/gcc/arm-none-eabi/4.5.2/thumb2/libgcc.a(_arm_truncdfsf2.o)
                                                  ../../external/gcc/LPC1768/libc.a(lib_a-strtod.o)
                                                  ../../external/gcc/LPC1768/libc.a(lib_a-vfscanf.o)
                                                  ../../external/gcc/LPC1768/libc.a(lib_a-svfscanf.o)
                                                  ../../external/mbed/LPC1768/capi.ar(serial_api.LPC1768.o)
__aeabi_d2iz                                      /media/6aafac43-5450-453e-a142-f588400933c0/Sandbox/arm/bin/../lib/gcc/arm-none-eabi/4.5.2/thumb2/libgcc.a(_arm_fixdfsi.o)
                                                  ../../external/gcc/LPC1768/libc.a(lib_a-strtod.o)
                                                  ../../external/gcc/LPC1768/libc.a(lib_a-dtoa.o)
                                                  ../../external/mbed/LPC1768/capi.ar(wait_api.LPC1768.o)
__aeabi_d2uiz                                     /media/6aafac43-5450-453e-a142-f588400933c0/Sandbox/arm/bin/../lib/gcc/arm-none-eabi/4.5.2/thumb2/libgcc.a(_arm_fixunsdfsi.o)
                                                  ../../external/gcc/LPC1768/libc.a(lib_a-strtod.o)
__aeabi_dadd                                      /media/6aafac43-5450-453e-a142-f588400933c0/Sandbox/arm/bin/../lib/gcc/arm-none-eabi/4.5.2/thumb2/libgcc.a(_arm_addsubdf3.o)
                                                  ../../external/gcc/LPC1768/libc.a(lib_a-strtod.o)
                                                  ../../external/gcc/LPC1768/libc.a(lib_a-dtoa.o)
                                                  ../../external/gcc/LPC1768/libm.a(lib_a-s_scalbn.o)
__aeabi_dcmpeq                                    /media/6aafac43-5450-453e-a142-f588400933c0/Sandbox/arm/bin/../lib/gcc/arm-none-eabi/4.5.2/thumb2/libgcc.a(_arm_cmpdf2.o)
                                                  ../../external/gcc/LPC1768/libc.a(lib_a-strtod.o)
                                                  ../../external/gcc/LPC1768/libc.a(lib_a-dtoa.o)
                                                  ../../external/gcc/LPC1768/libc.a(lib_a-vfprintf.o)
                                                  ../../external/gcc/LPC1768/libc.a(lib_a-svfprintf.o)
__aeabi_dcmpge                                    /media/6aafac43-5450-453e-a142-f588400933c0/Sandbox/arm/bin/../lib/gcc/arm-none-eabi/4.5.2/thumb2/libgcc.a(_arm_cmpdf2.o)
                                                  ../../external/gcc/LPC1768/libc.a(lib_a-dtoa.o)
__aeabi_dcmpgt                                    /media/6aafac43-5450-453e-a142-f588400933c0/Sandbox/arm/bin/../lib/gcc/arm-none-eabi/4.5.2/thumb2/libgcc.a(_arm_cmpdf2.o)
                                                  ../../external/gcc/LPC1768/libc.a(lib_a-strtod.o)
                                                  ../../external/gcc/LPC1768/libc.a(lib_a-dtoa.o)
__aeabi_dcmple                                    /media/6aafac43-5450-453e-a142-f588400933c0/Sandbox/arm/bin/../lib/gcc/arm-none-eabi/4.5.2/thumb2/libgcc.a(_arm_cmpdf2.o)
                                                  ../../external/gcc/LPC1768/libc.a(lib_a-strtod.o)
__aeabi_dcmplt                                    /media/6aafac43-5450-453e-a142-f588400933c0/Sandbox/arm/bin/../lib/gcc/arm-none-eabi/4.5.2/thumb2/libgcc.a(_arm_cmpdf2.o)
                                                  ../../external/gcc/LPC1768/libc.a(lib_a-strtod.o)
                                                  ../../external/gcc/LPC1768/libc.a(lib_a-dtoa.o)
                                                  ../../external/gcc/LPC1768/libc.a(lib_a-vfprintf.o)
                                                  ../../external/gcc/LPC1768/libc.a(lib_a-svfprintf.o)
__aeabi_ddiv                                      /media/6aafac43-5450-453e-a142-f588400933c0/Sandbox/arm/bin/../lib/gcc/arm-none-eabi/4.5.2/thumb2/libgcc.a(_arm_muldivdf3.o)
                                                  ../../external/gcc/LPC1768/libc.a(lib_a-strtod.o)
                                                  ../../external/gcc/LPC1768/libc.a(lib_a-mprec.o)
                                                  ../../external/gcc/LPC1768/libc.a(lib_a-dtoa.o)
                                                  ../../external/mbed/LPC1768/capi.ar(serial_api.LPC1768.o)
__aeabi_dmul                                      /media/6aafac43-5450-453e-a142-f588400933c0/Sandbox/arm/bin/../lib/gcc/arm-none-eabi/4.5.2/thumb2/libgcc.a(_arm_muldivdf3.o)
                                                  ../../external/gcc/LPC1768/libc.a(lib_a-strtod.o)
                                                  ../../external/gcc/LPC1768/libc.a(lib_a-mprec.o)
                                                  ../../external/gcc/LPC1768/libc.a(lib_a-dtoa.o)
                                                  ../../external/gcc/LPC1768/libm.a(lib_a-s_scalbn.o)
                                                  ../../external/mbed/LPC1768/capi.ar(wait_api.LPC1768.o)
                                                  ../../external/mbed/LPC1768/capi.ar(serial_api.LPC1768.o)
__aeabi_drsub                                     /media/6aafac43-5450-453e-a142-f588400933c0/Sandbox/arm/bin/../lib/gcc/arm-none-eabi/4.5.2/thumb2/libgcc.a(_arm_addsubdf3.o)
__aeabi_dsub                                      /media/6aafac43-5450-453e-a142-f588400933c0/Sandbox/arm/bin/../lib/gcc/arm-none-eabi/4.5.2/thumb2/libgcc.a(_arm_addsubdf3.o)
                                                  ../../external/gcc/LPC1768/libc.a(lib_a-strtod.o)
                                                  ../../external/gcc/LPC1768/libc.a(lib_a-dtoa.o)
__aeabi_f2d                                       /media/6aafac43-5450-453e-a142-f588400933c0/Sandbox/arm/bin/../lib/gcc/arm-none-eabi/4.5.2/thumb2/libgcc.a(_arm_addsubdf3.o)
                                                  ../../external/mbed/LPC1768/capi.ar(wait_api.LPC1768.o)
                                                  ../../external/mbed/LPC1768/capi.ar(serial_api.LPC1768.o)
__aeabi_fadd                                      /media/6aafac43-5450-453e-a142-f588400933c0/Sandbox/arm/bin/../lib/gcc/arm-none-eabi/4.5.2/thumb2/libgcc.a(_arm_addsubsf3.o)
                                                  ../../external/mbed/LPC1768/capi.ar(serial_api.LPC1768.o)
__aeabi_fcmpeq                                    /media/6aafac43-5450-453e-a142-f588400933c0/Sandbox/arm/bin/../lib/gcc/arm-none-eabi/4.5.2/thumb2/libgcc.a(_arm_cmpsf2.o)
                                                  ../../external/gcc/LPC1768/libc.a(lib_a-strtod.o)
__aeabi_fcmpge                                    /media/6aafac43-5450-453e-a142-f588400933c0/Sandbox/arm/bin/../lib/gcc/arm-none-eabi/4.5.2/thumb2/libgcc.a(_arm_cmpsf2.o)
__aeabi_fcmpgt                                    /media/6aafac43-5450-453e-a142-f588400933c0/Sandbox/arm/bin/../lib/gcc/arm-none-eabi/4.5.2/thumb2/libgcc.a(_arm_cmpsf2.o)
                                                  ../../external/gcc/LPC1768/libc.a(lib_a-strtod.o)
__aeabi_fcmple                                    /media/6aafac43-5450-453e-a142-f588400933c0/Sandbox/arm/bin/../lib/gcc/arm-none-eabi/4.5.2/thumb2/libgcc.a(_arm_cmpsf2.o)
__aeabi_fcmplt                                    /media/6aafac43-5450-453e-a142-f588400933c0/Sandbox/arm/bin/../lib/gcc/arm-none-eabi/4.5.2/thumb2/libgcc.a(_arm_cmpsf2.o)
                                                  ../../external/gcc/LPC1768/libc.a(lib_a-strtod.o)
__aeabi_fdiv                                      /media/6aafac43-5450-453e-a142-f588400933c0/Sandbox/arm/bin/../lib/gcc/arm-none-eabi/4.5.2/thumb2/libgcc.a(_arm_muldivsf3.o)
                                                  ../../external/mbed/LPC1768/capi.ar(serial_api.LPC1768.o)
__aeabi_fmul                                      /media/6aafac43-5450-453e-a142-f588400933c0/Sandbox/arm/bin/../lib/gcc/arm-none-eabi/4.5.2/thumb2/libgcc.a(_arm_muldivsf3.o)
__aeabi_frsub                                     /media/6aafac43-5450-453e-a142-f588400933c0/Sandbox/arm/bin/../lib/gcc/arm-none-eabi/4.5.2/thumb2/libgcc.a(_arm_addsubsf3.o)
__aeabi_fsub                                      /media/6aafac43-5450-453e-a142-f588400933c0/Sandbox/arm/bin/../lib/gcc/arm-none-eabi/4.5.2/thumb2/libgcc.a(_arm_addsubsf3.o)
                                                  ../../external/mbed/LPC1768/capi.ar(serial_api.LPC1768.o)
__aeabi_i2d                                       /media/6aafac43-5450-453e-a142-f588400933c0/Sandbox/arm/bin/../lib/gcc/arm-none-eabi/4.5.2/thumb2/libgcc.a(_arm_addsubdf3.o)
                                                  ../../external/gcc/LPC1768/libc.a(lib_a-strtod.o)
                                                  ../../external/gcc/LPC1768/libc.a(lib_a-dtoa.o)
__aeabi_i2f                                       /media/6aafac43-5450-453e-a142-f588400933c0/Sandbox/arm/bin/../lib/gcc/arm-none-eabi/4.5.2/thumb2/libgcc.a(_arm_addsubsf3.o)
                                                  ../../external/mbed/LPC1768/capi.ar(serial_api.LPC1768.o)
__aeabi_idiv                                      /media/6aafac43-5450-453e-a142-f588400933c0/Sandbox/arm/bin/../lib/gcc/arm-none-eabi/4.5.2/thumb2/libgcc.a(_divsi3.o)
                                                  ../../external/gcc/LPC1768/libc.a(lib_a-mprec.o)
                                                  ../../external/gcc/LPC1768/libc.a(lib_a-vfprintf.o)
                                                  ../../external/gcc/LPC1768/libc.a(lib_a-svfprintf.o)
__aeabi_idiv0                                     /media/6aafac43-5450-453e-a142-f588400933c0/Sandbox/arm/bin/../lib/gcc/arm-none-eabi/4.5.2/thumb2/libgcc.a(_dvmd_tls.o)
                                                  /media/6aafac43-5450-453e-a142-f588400933c0/Sandbox/arm/bin/../lib/gcc/arm-none-eabi/4.5.2/thumb2/libgcc.a(_divsi3.o)
                                                  /media/6aafac43-5450-453e-a142-f588400933c0/Sandbox/arm/bin/../lib/gcc/arm-none-eabi/4.5.2/thumb2/libgcc.a(_udivsi3.o)
__aeabi_idivmod                                   /media/6aafac43-5450-453e-a142-f588400933c0/Sandbox/arm/bin/../lib/gcc/arm-none-eabi/4.5.2/thumb2/libgcc.a(_divsi3.o)
                                                  ../../external/gcc/LPC1768/libc.a(lib_a-vfprintf.o)
                                                  ../../external/gcc/LPC1768/libc.a(lib_a-svfprintf.o)
__aeabi_l2d                                       /media/6aafac43-5450-453e-a142-f588400933c0/Sandbox/arm/bin/../lib/gcc/arm-none-eabi/4.5.2/thumb2/libgcc.a(_arm_addsubdf3.o)
__aeabi_l2f                                       /media/6aafac43-5450-453e-a142-f588400933c0/Sandbox/arm/bin/../lib/gcc/arm-none-eabi/4.5.2/thumb2/libgcc.a(_arm_addsubsf3.o)
__aeabi_ldiv0                                     /media/6aafac43-5450-453e-a142-f588400933c0/Sandbox/arm/bin/../lib/gcc/arm-none-eabi/4.5.2/thumb2/libgcc.a(_dvmd_tls.o)
                                                  /media/6aafac43-5450-453e-a142-f588400933c0/Sandbox/arm/bin/../lib/gcc/arm-none-eabi/4.5.2/thumb2/libgcc.a(_aeabi_uldivmod.o)
__aeabi_memclr                                    ../../external/gcc/LPC1768/libc.a(lib_a-aeabi_memclr.o)
                                                  ../../external/FATFileSystem/LPC1768/FATFileSystem.ar(ff.c.lpc1768.arm.o)
__aeabi_memclr4                                   ../../external/gcc/LPC1768/libc.a(lib_a-aeabi_memclr.o)
                                                  ../../external/FATFileSystem/LPC1768/FATFileSystem.ar(ff.c.lpc1768.arm.o)
__aeabi_memclr8                                   ../../external/gcc/LPC1768/libc.a(lib_a-aeabi_memclr.o)
__aeabi_memcpy                                    ../../external/gcc/LPC1768/libc.a(lib_a-aeabi_memcpy.o)
                                                  ../../external/FATFileSystem/LPC1768/FATFileSystem.ar(ff.c.lpc1768.arm.o)
                                                  ../../external/FATFileSystem/LPC1768/FATFileSystem.ar(FATDirHandle.cpp.lpc1768.arm.o)
                                                  ../../external/mbed/LPC1768/mbed.ar(SPI.LPC1768.o)
                                                  ../../external/mbed/LPC1768/mbed.ar(DigitalOut.LPC1768.o)
__aeabi_memcpy4                                   ../../external/gcc/LPC1768/libc.a(lib_a-aeabi_memcpy.o)
                                                  ../../external/FATFileSystem/LPC1768/FATFileSystem.ar(FATFileHandle.cpp.lpc1768.arm.o)
                                                  ../../external/FATFileSystem/LPC1768/FATFileSystem.ar(FATFileSystem.cpp.lpc1768.arm.o)
                                                  ../../external/mbed/LPC1768/mbed.ar(SPI.LPC1768.o)
                                                  ../../external/mbed/LPC1768/mbed.ar(DigitalOut.LPC1768.o)
__aeabi_memcpy8                                   ../../external/gcc/LPC1768/libc.a(lib_a-aeabi_memcpy.o)
__aeabi_memset                                    ../../external/gcc/LPC1768/libc.a(lib_a-aeabi_memset.o)
                                                  ../../external/gcc/LPC1768/libc.a(lib_a-aeabi_memclr.o)
                                                  ../../external/FATFileSystem/LPC1768/FATFileSystem.ar(ff.c.lpc1768.arm.o)
__aeabi_memset4                                   ../../external/gcc/LPC1768/libc.a(lib_a-aeabi_memset.o)
__aeabi_memset8                                   ../../external/gcc/LPC1768/libc.a(lib_a-aeabi_memset.o)
__aeabi_stderr                                    ../../external/gcc/LPC1768/libc.a(lib_a-clibabi_stdio.o)
                                                  ../../external/FATFileSystem/LPC1768/FATFileSystem.ar(FATFileSystem.cpp.lpc1768.arm.o)
                                                  ../../external/mbed/LPC1768/capi.ar(utils_api.LPC1768.o)
                                                  ../../external/mbed/LPC1768/capi.ar(pinmap.LPC1768.o)
                                                  ../../external/mbed/LPC1768/capi.ar(spi_api.LPC1768.o)
                                                  ../../external/mbed/LPC1768/capi.ar(serial_api.LPC1768.o)
__aeabi_stdin                                     ../../external/gcc/LPC1768/libc.a(lib_a-clibabi_stdio.o)
__aeabi_stdout                                    ../../external/gcc/LPC1768/libc.a(lib_a-clibabi_stdio.o)
__aeabi_ui2d                                      /media/6aafac43-5450-453e-a142-f588400933c0/Sandbox/arm/bin/../lib/gcc/arm-none-eabi/4.5.2/thumb2/libgcc.a(_arm_addsubdf3.o)
                                                  ../../external/gcc/LPC1768/libc.a(lib_a-strtod.o)
                                                  ../../external/gcc/LPC1768/libc.a(lib_a-dtoa.o)
                                                  ../../external/mbed/LPC1768/capi.ar(serial_api.LPC1768.o)
__aeabi_ui2f                                      /media/6aafac43-5450-453e-a142-f588400933c0/Sandbox/arm/bin/../lib/gcc/arm-none-eabi/4.5.2/thumb2/libgcc.a(_arm_addsubsf3.o)
                                                  ../../external/mbed/LPC1768/capi.ar(serial_api.LPC1768.o)
__aeabi_uidiv                                     /media/6aafac43-5450-453e-a142-f588400933c0/Sandbox/arm/bin/../lib/gcc/arm-none-eabi/4.5.2/thumb2/libgcc.a(_udivsi3.o)
                                                  /media/6aafac43-5450-453e-a142-f588400933c0/Sandbox/arm/bin/../lib/gcc/arm-none-eabi/4.5.2/thumb2/libgcc.a(_udivdi3.o)
                                                  /media/6aafac43-5450-453e-a142-f588400933c0/Sandbox/arm/bin/../lib/gcc/arm-none-eabi/4.5.2/thumb2/libgcc.a(_divdi3.o)
                                                  ../../external/gcc/LPC1768/libc.a(lib_a-svfiscanf.o)
                                                  ../../external/gcc/LPC1768/libc.a(lib_a-strtoul.o)
                                                  ../../external/gcc/LPC1768/libc.a(lib_a-fread.o)
                                                  ../../external/gcc/LPC1768/libc.a(lib_a-dtoa.o)
                                                  ../../external/gcc/LPC1768/libc.a(lib_a-strtol.o)
                                                  ../../external/gcc/LPC1768/libc.a(lib_a-fwrite.o)
__aeabi_uidivmod                                  /media/6aafac43-5450-453e-a142-f588400933c0/Sandbox/arm/bin/../lib/gcc/arm-none-eabi/4.5.2/thumb2/libgcc.a(_udivsi3.o)
                                                  /media/6aafac43-5450-453e-a142-f588400933c0/Sandbox/arm/bin/../lib/gcc/arm-none-eabi/4.5.2/thumb2/libgcc.a(_udivdi3.o)
                                                  /media/6aafac43-5450-453e-a142-f588400933c0/Sandbox/arm/bin/../lib/gcc/arm-none-eabi/4.5.2/thumb2/libgcc.a(_divdi3.o)
                                                  ../../external/gcc/LPC1768/libc.a(lib_a-strtoul.o)
                                                  ../../external/gcc/LPC1768/libc.a(lib_a-strtol.o)
__aeabi_ul2d                                      /media/6aafac43-5450-453e-a142-f588400933c0/Sandbox/arm/bin/../lib/gcc/arm-none-eabi/4.5.2/thumb2/libgcc.a(_arm_addsubdf3.o)
__aeabi_ul2f                                      /media/6aafac43-5450-453e-a142-f588400933c0/Sandbox/arm/bin/../lib/gcc/arm-none-eabi/4.5.2/thumb2/libgcc.a(_arm_addsubsf3.o)
__aeabi_uldivmod                                  /media/6aafac43-5450-453e-a142-f588400933c0/Sandbox/arm/bin/../lib/gcc/arm-none-eabi/4.5.2/thumb2/libgcc.a(_aeabi_uldivmod.o)
                                                  ../../external/gcc/LPC1768/libc.a(lib_a-vfiprintf.o)
                                                  ../../external/gcc/LPC1768/libc.a(lib_a-svfiprintf.o)
                                                  ../../external/gcc/LPC1768/libc.a(lib_a-strtoull_r.o)
                                                  ../../external/gcc/LPC1768/libc.a(lib_a-strtoll_r.o)
                                                  ../../external/gcc/LPC1768/libc.a(lib_a-vfprintf.o)
                                                  ../../external/gcc/LPC1768/libc.a(lib_a-svfprintf.o)
__any_on                                          ../../external/gcc/LPC1768/libc.a(lib_a-mprec.o)
                                                  ../../external/gcc/LPC1768/libc.a(lib_a-gdtoa-gethex.o)
__ascii_mbtowc                                    ../../external/gcc/LPC1768/libc.a(lib_a-mbtowc_r.o)
__ascii_wctomb                                    ../../external/gcc/LPC1768/libc.a(lib_a-wctomb_r.o)
__assert                                          ../../external/gcc/LPC1768/libc.a(lib_a-assert.o)
                                                  ../../external/gcc/LPC1768/libc.a(lib_a-clibabi_assert.o)
__assert_func                                     ../../external/gcc/LPC1768/libc.a(lib_a-assert.o)
__b2d                                             ../../external/gcc/LPC1768/libc.a(lib_a-mprec.o)
__cmpdf2                                          /media/6aafac43-5450-453e-a142-f588400933c0/Sandbox/arm/bin/../lib/gcc/arm-none-eabi/4.5.2/thumb2/libgcc.a(_arm_cmpdf2.o)
__cmpsf2                                          /media/6aafac43-5450-453e-a142-f588400933c0/Sandbox/arm/bin/../lib/gcc/arm-none-eabi/4.5.2/thumb2/libgcc.a(_arm_cmpsf2.o)
__copybits                                        ../../external/gcc/LPC1768/libc.a(lib_a-mprec.o)
                                                  ../../external/gcc/LPC1768/libc.a(lib_a-strtod.o)
__ctype_ptr__                                     ../../external/gcc/LPC1768/libc.a(lib_a-ctype_.o)
                                                  ../../external/gcc/LPC1768/libc.a(lib_a-svfiscanf.o)
                                                  ../../external/gcc/LPC1768/libc.a(lib_a-strtoull_r.o)
                                                  ../../external/gcc/LPC1768/libc.a(lib_a-strtoul.o)
                                                  ../../external/gcc/LPC1768/libc.a(lib_a-strtoll_r.o)
                                                  ../../external/gcc/LPC1768/libc.a(lib_a-iswspace.o)
                                                  ../../external/gcc/LPC1768/libc.a(lib_a-vfscanf.o)
                                                  ../../external/gcc/LPC1768/libc.a(lib_a-svfscanf.o)
                                                  ../../external/gcc/LPC1768/libc.a(lib_a-strtol.o)
__cxa_atexit                                      ../../external/gcc/LPC1768/libc.a(lib_a-cxa_atexit.o)
                                                  ../../external/gcc/LPC1768/libstdc++.a(atexit_arm.o)
__cxa_current_exception_type                      ../../external/gcc/LPC1768/libstdc++.a(eh_type.o)
                                                  ../../external/gcc/LPC1768/libstdc++.a(vterminate.o)
__cxa_demangle                                    ../../external/gcc/LPC1768/libstdc++.a(cp-demangle.o)
                                                  ../../external/gcc/LPC1768/libstdc++.a(vterminate.o)
__cxa_get_globals                                 ../../external/gcc/LPC1768/libstdc++.a(eh_globals.o)
                                                  ../../external/gcc/LPC1768/libstdc++.a(eh_type.o)
__cxa_get_globals_fast                            ../../external/gcc/LPC1768/libstdc++.a(eh_globals.o)
__cxa_pure_virtual                                ../../external/gcc/LPC1768/libstdc++.a(pure.o)
                                                  ../../external/gcc/LPC1768/libstdc++.a(eh_exception.o)
                                                  ../../external/FATFileSystem/LPC1768/FATFileSystem.ar(FATFileSystem.cpp.lpc1768.arm.o)
                                                  ../../external/mbed/LPC1768/mbed.ar(stdio.LPC1768.o)
__cxxabiv1::__base_class_type_info::__is_public_p() const ../../external/gcc/LPC1768/libstdc++.a(vmi_class_type_info.o)
__cxxabiv1::__base_class_type_info::__is_virtual_p() const ../../external/gcc/LPC1768/libstdc++.a(vmi_class_type_info.o)
__cxxabiv1::__base_class_type_info::__offset() const ../../external/gcc/LPC1768/libstdc++.a(vmi_class_type_info.o)
__cxxabiv1::__class_type_info::__do_catch(std::type_info const*, void**, unsigned int) const ../../external/gcc/LPC1768/libstdc++.a(class_type_info.o)
                                                  ../../external/gcc/LPC1768/libstdc++.a(vmi_class_type_info.o)
                                                  ../../external/gcc/LPC1768/libstdc++.a(si_class_type_info.o)
__cxxabiv1::__class_type_info::__do_dyncast(int, __cxxabiv1::__class_type_info::__sub_kind, __cxxabiv1::__class_type_info const*, void const*, __cxxabiv1::__class_type_info const*, void const*, __cxxabiv1::__class_type_info::__dyncast_result&) const ../../external/gcc/LPC1768/libstdc++.a(class_type_info.o)
__cxxabiv1::__class_type_info::__do_find_public_src(int, void const*, __cxxabiv1::__class_type_info const*, void const*) const ../../external/gcc/LPC1768/libstdc++.a(class_type_info.o)
__cxxabiv1::__class_type_info::__do_upcast(__cxxabiv1::__class_type_info const*, void const*, __cxxabiv1::__class_type_info::__upcast_result&) const ../../external/gcc/LPC1768/libstdc++.a(class_type_info.o)
                                                  ../../external/gcc/LPC1768/libstdc++.a(vmi_class_type_info.o)
                                                  ../../external/gcc/LPC1768/libstdc++.a(si_class_type_info.o)
__cxxabiv1::__class_type_info::__do_upcast(__cxxabiv1::__class_type_info const*, void**) const ../../external/gcc/LPC1768/libstdc++.a(class_type_info.o)
                                                  ../../external/gcc/LPC1768/libstdc++.a(vmi_class_type_info.o)
                                                  ../../external/gcc/LPC1768/libstdc++.a(si_class_type_info.o)
__cxxabiv1::__class_type_info::__dyncast_result::__dyncast_result(int) ../../external/gcc/LPC1768/libstdc++.a(dyncast.o)
                                                  ../../external/gcc/LPC1768/libstdc++.a(vmi_class_type_info.o)
__cxxabiv1::__class_type_info::__dyncast_result::__dyncast_result(int) ../../external/gcc/LPC1768/libstdc++.a(dyncast.o)
                                                  ../../external/gcc/LPC1768/libstdc++.a(vmi_class_type_info.o)
__cxxabiv1::__class_type_info::__find_public_src(int, void const*, __cxxabiv1::__class_type_info const*, void const*) const ../../external/gcc/LPC1768/libstdc++.a(dyncast.o)
                                                  ../../external/gcc/LPC1768/libstdc++.a(vmi_class_type_info.o)
__cxxabiv1::__class_type_info::__upcast_result::__upcast_result(int) ../../external/gcc/LPC1768/libstdc++.a(class_type_info.o)
                                                  ../../external/gcc/LPC1768/libstdc++.a(vmi_class_type_info.o)
__cxxabiv1::__class_type_info::__upcast_result::__upcast_result(int) ../../external/gcc/LPC1768/libstdc++.a(class_type_info.o)
                                                  ../../external/gcc/LPC1768/libstdc++.a(vmi_class_type_info.o)
__cxxabiv1::__class_type_info::~__class_type_info() ../../external/gcc/LPC1768/libstdc++.a(class_type_info.o)
__cxxabiv1::__class_type_info::~__class_type_info() ../../external/gcc/LPC1768/libstdc++.a(class_type_info.o)
                                                  ../../external/gcc/LPC1768/libstdc++.a(vmi_class_type_info.o)
                                                  ../../external/gcc/LPC1768/libstdc++.a(si_class_type_info.o)
__cxxabiv1::__class_type_info::~__class_type_info() ../../external/gcc/LPC1768/libstdc++.a(class_type_info.o)
__cxxabiv1::__forced_unwind::~__forced_unwind()   ../../external/gcc/LPC1768/libstdc++.a(eh_exception.o)
__cxxabiv1::__forced_unwind::~__forced_unwind()   ../../external/gcc/LPC1768/libstdc++.a(eh_exception.o)
__cxxabiv1::__forced_unwind::~__forced_unwind()   ../../external/gcc/LPC1768/libstdc++.a(eh_exception.o)
__cxxabiv1::__foreign_exception::~__foreign_exception() ../../external/gcc/LPC1768/libstdc++.a(eh_exception.o)
__cxxabiv1::__foreign_exception::~__foreign_exception() ../../external/gcc/LPC1768/libstdc++.a(eh_exception.o)
__cxxabiv1::__foreign_exception::~__foreign_exception() ../../external/gcc/LPC1768/libstdc++.a(eh_exception.o)
__cxxabiv1::__si_class_type_info::__do_dyncast(int, __cxxabiv1::__class_type_info::__sub_kind, __cxxabiv1::__class_type_info const*, void const*, __cxxabiv1::__class_type_info const*, void const*, __cxxabiv1::__class_type_info::__dyncast_result&) const ../../external/gcc/LPC1768/libstdc++.a(si_class_type_info.o)
__cxxabiv1::__si_class_type_info::__do_find_public_src(int, void const*, __cxxabiv1::__class_type_info const*, void const*) const ../../external/gcc/LPC1768/libstdc++.a(si_class_type_info.o)
__cxxabiv1::__si_class_type_info::__do_upcast(__cxxabiv1::__class_type_info const*, void const*, __cxxabiv1::__class_type_info::__upcast_result&) const ../../external/gcc/LPC1768/libstdc++.a(si_class_type_info.o)
__cxxabiv1::__si_class_type_info::~__si_class_type_info() ../../external/gcc/LPC1768/libstdc++.a(si_class_type_info.o)
__cxxabiv1::__si_class_type_info::~__si_class_type_info() ../../external/gcc/LPC1768/libstdc++.a(si_class_type_info.o)
__cxxabiv1::__si_class_type_info::~__si_class_type_info() ../../external/gcc/LPC1768/libstdc++.a(si_class_type_info.o)
__cxxabiv1::__terminate(void (*)())               ../../external/gcc/LPC1768/libstdc++.a(eh_terminate.o)
__cxxabiv1::__terminate_handler                   ../../external/gcc/LPC1768/libstdc++.a(eh_term_handler.o)
                                                  ../../external/gcc/LPC1768/libstdc++.a(eh_terminate.o)
__cxxabiv1::__unexpected(void (*)())              ../../external/gcc/LPC1768/libstdc++.a(eh_terminate.o)
__cxxabiv1::__unexpected_handler                  ../../external/gcc/LPC1768/libstdc++.a(eh_unex_handler.o)
                                                  ../../external/gcc/LPC1768/libstdc++.a(eh_terminate.o)
__cxxabiv1::__vmi_class_type_info::__do_dyncast(int, __cxxabiv1::__class_type_info::__sub_kind, __cxxabiv1::__class_type_info const*, void const*, __cxxabiv1::__class_type_info const*, void const*, __cxxabiv1::__class_type_info::__dyncast_result&) const ../../external/gcc/LPC1768/libstdc++.a(vmi_class_type_info.o)
__cxxabiv1::__vmi_class_type_info::__do_find_public_src(int, void const*, __cxxabiv1::__class_type_info const*, void const*) const ../../external/gcc/LPC1768/libstdc++.a(vmi_class_type_info.o)
__cxxabiv1::__vmi_class_type_info::__do_upcast(__cxxabiv1::__class_type_info const*, void const*, __cxxabiv1::__class_type_info::__upcast_result&) const ../../external/gcc/LPC1768/libstdc++.a(vmi_class_type_info.o)
__cxxabiv1::__vmi_class_type_info::~__vmi_class_type_info() ../../external/gcc/LPC1768/libstdc++.a(vmi_class_type_info.o)
__cxxabiv1::__vmi_class_type_info::~__vmi_class_type_info() ../../external/gcc/LPC1768/libstdc++.a(vmi_class_type_info.o)
__cxxabiv1::__vmi_class_type_info::~__vmi_class_type_info() ../../external/gcc/LPC1768/libstdc++.a(vmi_class_type_info.o)
__d2b                                             ../../external/gcc/LPC1768/libc.a(lib_a-mprec.o)
                                                  ../../external/gcc/LPC1768/libc.a(lib_a-strtod.o)
                                                  ../../external/gcc/LPC1768/libc.a(lib_a-dtoa.o)
__divdf3                                          /media/6aafac43-5450-453e-a142-f588400933c0/Sandbox/arm/bin/../lib/gcc/arm-none-eabi/4.5.2/thumb2/libgcc.a(_arm_muldivdf3.o)
__divdi3                                          /media/6aafac43-5450-453e-a142-f588400933c0/Sandbox/arm/bin/../lib/gcc/arm-none-eabi/4.5.2/thumb2/libgcc.a(_divdi3.o)
                                                  /media/6aafac43-5450-453e-a142-f588400933c0/Sandbox/arm/bin/../lib/gcc/arm-none-eabi/4.5.2/thumb2/libgcc.a(bpabi.o)
__divsf3                                          /media/6aafac43-5450-453e-a142-f588400933c0/Sandbox/arm/bin/../lib/gcc/arm-none-eabi/4.5.2/thumb2/libgcc.a(_arm_muldivsf3.o)
__divsi3                                          /media/6aafac43-5450-453e-a142-f588400933c0/Sandbox/arm/bin/../lib/gcc/arm-none-eabi/4.5.2/thumb2/libgcc.a(_divsi3.o)
__dso_handle                                      /media/6aafac43-5450-453e-a142-f588400933c0/Sandbox/arm/bin/../lib/gcc/arm-none-eabi/4.5.2/thumb2/crtbegin.o
                                                  ./main.o
__dynamic_cast                                    ../../external/gcc/LPC1768/libstdc++.a(dyncast.o)
                                                  ../../external/mbed/LPC1768/mbed.ar(stdio.LPC1768.o)
                                                  ../../external/mbed/LPC1768/mbed.ar(Base.LPC1768.o)
__eqdf2                                           /media/6aafac43-5450-453e-a142-f588400933c0/Sandbox/arm/bin/../lib/gcc/arm-none-eabi/4.5.2/thumb2/libgcc.a(_arm_cmpdf2.o)
__eqsf2                                           /media/6aafac43-5450-453e-a142-f588400933c0/Sandbox/arm/bin/../lib/gcc/arm-none-eabi/4.5.2/thumb2/libgcc.a(_arm_cmpsf2.o)
__extendsfdf2                                     /media/6aafac43-5450-453e-a142-f588400933c0/Sandbox/arm/bin/../lib/gcc/arm-none-eabi/4.5.2/thumb2/libgcc.a(_arm_addsubdf3.o)
__fixdfsi                                         /media/6aafac43-5450-453e-a142-f588400933c0/Sandbox/arm/bin/../lib/gcc/arm-none-eabi/4.5.2/thumb2/libgcc.a(_arm_fixdfsi.o)
__fixunsdfsi                                      /media/6aafac43-5450-453e-a142-f588400933c0/Sandbox/arm/bin/../lib/gcc/arm-none-eabi/4.5.2/thumb2/libgcc.a(_arm_fixunsdfsi.o)
__floatdidf                                       /media/6aafac43-5450-453e-a142-f588400933c0/Sandbox/arm/bin/../lib/gcc/arm-none-eabi/4.5.2/thumb2/libgcc.a(_arm_addsubdf3.o)
__floatdisf                                       /media/6aafac43-5450-453e-a142-f588400933c0/Sandbox/arm/bin/../lib/gcc/arm-none-eabi/4.5.2/thumb2/libgcc.a(_arm_addsubsf3.o)
__floatsidf                                       /media/6aafac43-5450-453e-a142-f588400933c0/Sandbox/arm/bin/../lib/gcc/arm-none-eabi/4.5.2/thumb2/libgcc.a(_arm_addsubdf3.o)
__floatsisf                                       /media/6aafac43-5450-453e-a142-f588400933c0/Sandbox/arm/bin/../lib/gcc/arm-none-eabi/4.5.2/thumb2/libgcc.a(_arm_addsubsf3.o)
__floatundidf                                     /media/6aafac43-5450-453e-a142-f588400933c0/Sandbox/arm/bin/../lib/gcc/arm-none-eabi/4.5.2/thumb2/libgcc.a(_arm_addsubdf3.o)
__floatundisf                                     /media/6aafac43-5450-453e-a142-f588400933c0/Sandbox/arm/bin/../lib/gcc/arm-none-eabi/4.5.2/thumb2/libgcc.a(_arm_addsubsf3.o)
__floatunsidf                                     /media/6aafac43-5450-453e-a142-f588400933c0/Sandbox/arm/bin/../lib/gcc/arm-none-eabi/4.5.2/thumb2/libgcc.a(_arm_addsubdf3.o)
__floatunsisf                                     /media/6aafac43-5450-453e-a142-f588400933c0/Sandbox/arm/bin/../lib/gcc/arm-none-eabi/4.5.2/thumb2/libgcc.a(_arm_addsubsf3.o)
__fp_lock_all                                     ../../external/gcc/LPC1768/libc.a(lib_a-findfp.o)
__fp_unlock_all                                   ../../external/gcc/LPC1768/libc.a(lib_a-findfp.o)
__fpclassifyd                                     ../../external/gcc/LPC1768/libc.a(lib_a-s_fpclassify.o)
                                                  ../../external/gcc/LPC1768/libc.a(lib_a-vfscanf.o)
                                                  ../../external/gcc/LPC1768/libc.a(lib_a-vfprintf.o)
                                                  ../../external/gcc/LPC1768/libc.a(lib_a-svfscanf.o)
                                                  ../../external/gcc/LPC1768/libc.a(lib_a-svfprintf.o)
__gcclibcxx_demangle_callback                     ../../external/gcc/LPC1768/libstdc++.a(cp-demangle.o)
__gedf2                                           /media/6aafac43-5450-453e-a142-f588400933c0/Sandbox/arm/bin/../lib/gcc/arm-none-eabi/4.5.2/thumb2/libgcc.a(_arm_cmpdf2.o)
__gesf2                                           /media/6aafac43-5450-453e-a142-f588400933c0/Sandbox/arm/bin/../lib/gcc/arm-none-eabi/4.5.2/thumb2/libgcc.a(_arm_cmpsf2.o)
__get_MSP                                         ../../external/mbed/LPC1768/capi.ar(core_cm3.LPC1768.o)
                                                  ../../src/syscalls.o
__get_PSP                                         ../../external/mbed/LPC1768/capi.ar(core_cm3.LPC1768.o)
__gethex                                          ../../external/gcc/LPC1768/libc.a(lib_a-gdtoa-gethex.o)
                                                  ../../external/gcc/LPC1768/libc.a(lib_a-strtod.o)
__gnu_cxx::__verbose_terminate_handler()          ../../external/gcc/LPC1768/libstdc++.a(vterminate.o)
                                                  ../../external/gcc/LPC1768/libstdc++.a(eh_term_handler.o)
__gnu_ldivmod_helper                              /media/6aafac43-5450-453e-a142-f588400933c0/Sandbox/arm/bin/../lib/gcc/arm-none-eabi/4.5.2/thumb2/libgcc.a(bpabi.o)
__gnu_uldivmod_helper                             /media/6aafac43-5450-453e-a142-f588400933c0/Sandbox/arm/bin/../lib/gcc/arm-none-eabi/4.5.2/thumb2/libgcc.a(bpabi.o)
                                                  /media/6aafac43-5450-453e-a142-f588400933c0/Sandbox/arm/bin/../lib/gcc/arm-none-eabi/4.5.2/thumb2/libgcc.a(_aeabi_uldivmod.o)
__gtdf2                                           /media/6aafac43-5450-453e-a142-f588400933c0/Sandbox/arm/bin/../lib/gcc/arm-none-eabi/4.5.2/thumb2/libgcc.a(_arm_cmpdf2.o)
__gtsf2                                           /media/6aafac43-5450-453e-a142-f588400933c0/Sandbox/arm/bin/../lib/gcc/arm-none-eabi/4.5.2/thumb2/libgcc.a(_arm_cmpsf2.o)
__hexdig                                          ../../external/gcc/LPC1768/libc.a(lib_a-gdtoa-hexnan.o)
                                                  ../../external/gcc/LPC1768/libc.a(lib_a-gdtoa-gethex.o)
__hexdig_init                                     ../../external/gcc/LPC1768/libc.a(lib_a-gdtoa-gethex.o)
                                                  ../../external/gcc/LPC1768/libc.a(lib_a-gdtoa-hexnan.o)
__hexnan                                          ../../external/gcc/LPC1768/libc.a(lib_a-gdtoa-hexnan.o)
                                                  ../../external/gcc/LPC1768/libc.a(lib_a-strtod.o)
__hi0bits                                         ../../external/gcc/LPC1768/libc.a(lib_a-mprec.o)
                                                  ../../external/gcc/LPC1768/libc.a(lib_a-gdtoa-gethex.o)
                                                  ../../external/gcc/LPC1768/libc.a(lib_a-dtoa.o)
__i2b                                             ../../external/gcc/LPC1768/libc.a(lib_a-mprec.o)
                                                  ../../external/gcc/LPC1768/libc.a(lib_a-strtod.o)
                                                  ../../external/gcc/LPC1768/libc.a(lib_a-dtoa.o)
__init_array_end                                  ../../external/gcc/LPC1768/libc.a(lib_a-init.o)
__init_array_start                                ../../external/gcc/LPC1768/libc.a(lib_a-init.o)
__ledf2                                           /media/6aafac43-5450-453e-a142-f588400933c0/Sandbox/arm/bin/../lib/gcc/arm-none-eabi/4.5.2/thumb2/libgcc.a(_arm_cmpdf2.o)
__lesf2                                           /media/6aafac43-5450-453e-a142-f588400933c0/Sandbox/arm/bin/../lib/gcc/arm-none-eabi/4.5.2/thumb2/libgcc.a(_arm_cmpsf2.o)
__libc_init_array                                 ../../external/gcc/LPC1768/libc.a(lib_a-init.o)
                                                  ../../src/gcc4mbed.o
__lo0bits                                         ../../external/gcc/LPC1768/libc.a(lib_a-mprec.o)
__locale_charset                                  ../../external/gcc/LPC1768/libc.a(lib_a-locale.o)
                                                  ../../external/gcc/LPC1768/libc.a(lib_a-wctomb_r.o)
                                                  ../../external/gcc/LPC1768/libc.a(lib_a-wcrtomb.o)
                                                  ../../external/gcc/LPC1768/libc.a(lib_a-mbtowc_r.o)
                                                  ../../external/gcc/LPC1768/libc.a(lib_a-mbrtowc.o)
__locale_cjk_lang                                 ../../external/gcc/LPC1768/libc.a(lib_a-locale.o)
__locale_mb_cur_max                               ../../external/gcc/LPC1768/libc.a(lib_a-locale.o)
                                                  ../../external/gcc/LPC1768/libc.a(lib_a-fputwc.o)
                                                  ../../external/gcc/LPC1768/libc.a(lib_a-svfiscanf.o)
                                                  ../../external/gcc/LPC1768/libc.a(lib_a-vfscanf.o)
                                                  ../../external/gcc/LPC1768/libc.a(lib_a-svfscanf.o)
__locale_msgcharset                               ../../external/gcc/LPC1768/libc.a(lib_a-locale.o)
__lshift                                          ../../external/gcc/LPC1768/libc.a(lib_a-mprec.o)
                                                  ../../external/gcc/LPC1768/libc.a(lib_a-gdtoa-gethex.o)
                                                  ../../external/gcc/LPC1768/libc.a(lib_a-strtod.o)
                                                  ../../external/gcc/LPC1768/libc.a(lib_a-dtoa.o)
__ltdf2                                           /media/6aafac43-5450-453e-a142-f588400933c0/Sandbox/arm/bin/../lib/gcc/arm-none-eabi/4.5.2/thumb2/libgcc.a(_arm_cmpdf2.o)
__ltsf2                                           /media/6aafac43-5450-453e-a142-f588400933c0/Sandbox/arm/bin/../lib/gcc/arm-none-eabi/4.5.2/thumb2/libgcc.a(_arm_cmpsf2.o)
__main                                            ../../src/gcc4mbed.o
                                                  ../../external/mbed/LPC1768/capi.ar(startup_LPC17xx.LPC1768.o)
__malloc_av_                                      ../../external/gcc/LPC1768/libc.a(lib_a-mallocr.o)
                                                  ../../external/gcc/LPC1768/libc.a(lib_a-reallocr.o)
                                                  ../../external/gcc/LPC1768/libc.a(lib_a-freer.o)
__malloc_current_mallinfo                         ../../external/gcc/LPC1768/libc.a(lib_a-mallocr.o)
                                                  ../../external/gcc/LPC1768/libc.a(lib_a-freer.o)
__malloc_lock                                     ../../external/gcc/LPC1768/libc.a(lib_a-mlock.o)
                                                  ../../external/gcc/LPC1768/libc.a(lib_a-reallocr.o)
                                                  ../../external/gcc/LPC1768/libc.a(lib_a-mallocr.o)
                                                  ../../external/gcc/LPC1768/libc.a(lib_a-freer.o)
__malloc_max_sbrked_mem                           ../../external/gcc/LPC1768/libc.a(lib_a-mallocr.o)
__malloc_max_total_mem                            ../../external/gcc/LPC1768/libc.a(lib_a-mallocr.o)
__malloc_sbrk_base                                ../../external/gcc/LPC1768/libc.a(lib_a-mallocr.o)
                                                  ../../external/gcc/LPC1768/libc.a(lib_a-freer.o)
__malloc_top_pad                                  ../../external/gcc/LPC1768/libc.a(lib_a-mallocr.o)
                                                  ../../external/gcc/LPC1768/libc.a(lib_a-freer.o)
__malloc_trim_threshold                           ../../external/gcc/LPC1768/libc.a(lib_a-mallocr.o)
                                                  ../../external/gcc/LPC1768/libc.a(lib_a-freer.o)
__malloc_unlock                                   ../../external/gcc/LPC1768/libc.a(lib_a-mlock.o)
                                                  ../../external/gcc/LPC1768/libc.a(lib_a-reallocr.o)
                                                  ../../external/gcc/LPC1768/libc.a(lib_a-mallocr.o)
                                                  ../../external/gcc/LPC1768/libc.a(lib_a-freer.o)
__mb_cur_max                                      ../../external/gcc/LPC1768/libc.a(lib_a-locale.o)
__mbtowc                                          ../../external/gcc/LPC1768/libc.a(lib_a-mbtowc_r.o)
                                                  ../../external/gcc/LPC1768/libc.a(lib_a-mbrtowc.o)
__mcmp                                            ../../external/gcc/LPC1768/libc.a(lib_a-mprec.o)
                                                  ../../external/gcc/LPC1768/libc.a(lib_a-strtod.o)
                                                  ../../external/gcc/LPC1768/libc.a(lib_a-dtoa.o)
__mdiff                                           ../../external/gcc/LPC1768/libc.a(lib_a-mprec.o)
                                                  ../../external/gcc/LPC1768/libc.a(lib_a-strtod.o)
                                                  ../../external/gcc/LPC1768/libc.a(lib_a-dtoa.o)
__mlocale_changed                                 ../../external/gcc/LPC1768/libc.a(lib_a-locale.o)
__mprec_bigtens                                   ../../external/gcc/LPC1768/libc.a(lib_a-mprec.o)
                                                  ../../external/gcc/LPC1768/libc.a(lib_a-strtod.o)
                                                  ../../external/gcc/LPC1768/libc.a(lib_a-dtoa.o)
__mprec_tens                                      ../../external/gcc/LPC1768/libc.a(lib_a-mprec.o)
                                                  ../../external/gcc/LPC1768/libc.a(lib_a-strtod.o)
                                                  ../../external/gcc/LPC1768/libc.a(lib_a-dtoa.o)
__mprec_tinytens                                  ../../external/gcc/LPC1768/libc.a(lib_a-mprec.o)
__muldf3                                          /media/6aafac43-5450-453e-a142-f588400933c0/Sandbox/arm/bin/../lib/gcc/arm-none-eabi/4.5.2/thumb2/libgcc.a(_arm_muldivdf3.o)
__mulsf3                                          /media/6aafac43-5450-453e-a142-f588400933c0/Sandbox/arm/bin/../lib/gcc/arm-none-eabi/4.5.2/thumb2/libgcc.a(_arm_muldivsf3.o)
__multadd                                         ../../external/gcc/LPC1768/libc.a(lib_a-mprec.o)
                                                  ../../external/gcc/LPC1768/libc.a(lib_a-dtoa.o)
__multiply                                        ../../external/gcc/LPC1768/libc.a(lib_a-mprec.o)
                                                  ../../external/gcc/LPC1768/libc.a(lib_a-strtod.o)
                                                  ../../external/gcc/LPC1768/libc.a(lib_a-dtoa.o)
__nedf2                                           /media/6aafac43-5450-453e-a142-f588400933c0/Sandbox/arm/bin/../lib/gcc/arm-none-eabi/4.5.2/thumb2/libgcc.a(_arm_cmpdf2.o)
__nesf2                                           /media/6aafac43-5450-453e-a142-f588400933c0/Sandbox/arm/bin/../lib/gcc/arm-none-eabi/4.5.2/thumb2/libgcc.a(_arm_cmpsf2.o)
__new_handler                                     ../../external/gcc/LPC1768/libstdc++.a(new_handler.o)
                                                  ../../external/gcc/LPC1768/libstdc++.a(new_op.o)
__nlocale_changed                                 ../../external/gcc/LPC1768/libc.a(lib_a-locale.o)
__pow5mult                                        ../../external/gcc/LPC1768/libc.a(lib_a-mprec.o)
                                                  ../../external/gcc/LPC1768/libc.a(lib_a-strtod.o)
                                                  ../../external/gcc/LPC1768/libc.a(lib_a-dtoa.o)
__preinit_array_end                               ../../external/gcc/LPC1768/libc.a(lib_a-init.o)
__preinit_array_start                             ../../external/gcc/LPC1768/libc.a(lib_a-init.o)
__ratio                                           ../../external/gcc/LPC1768/libc.a(lib_a-mprec.o)
                                                  ../../external/gcc/LPC1768/libc.a(lib_a-strtod.o)
__register_exitproc                               ../../external/gcc/LPC1768/libc.a(lib_a-__atexit.o)
                                                  ../../external/gcc/LPC1768/libc.a(lib_a-cxa_atexit.o)
__s2b                                             ../../external/gcc/LPC1768/libc.a(lib_a-mprec.o)
                                                  ../../external/gcc/LPC1768/libc.a(lib_a-strtod.o)
__sccl                                            ../../external/gcc/LPC1768/libc.a(lib_a-sccl.o)
                                                  ../../external/gcc/LPC1768/libc.a(lib_a-svfiscanf.o)
                                                  ../../external/gcc/LPC1768/libc.a(lib_a-vfscanf.o)
                                                  ../../external/gcc/LPC1768/libc.a(lib_a-svfscanf.o)
__sclose                                          ../../external/gcc/LPC1768/libc.a(lib_a-stdio.o)
                                                  ../../external/gcc/LPC1768/libc.a(lib_a-fopen.o)
                                                  ../../external/gcc/LPC1768/libc.a(lib_a-findfp.o)
__seofread                                        ../../external/gcc/LPC1768/libc.a(lib_a-stdio.o)
                                                  ../../external/gcc/LPC1768/libc.a(lib_a-sscanf.o)
__set_MSP                                         ../../external/mbed/LPC1768/capi.ar(core_cm3.LPC1768.o)
__set_PSP                                         ../../external/mbed/LPC1768/capi.ar(core_cm3.LPC1768.o)
__sf_fake_stderr                                  ../../external/gcc/LPC1768/libc.a(lib_a-findfp.o)
                                                  ../../external/gcc/LPC1768/libc.a(lib_a-wbuf.o)
                                                  ../../external/gcc/LPC1768/libc.a(lib_a-fputwc.o)
                                                  ../../external/gcc/LPC1768/libc.a(lib_a-vfiprintf.o)
                                                  ../../external/gcc/LPC1768/libc.a(lib_a-ungetc.o)
                                                  ../../external/gcc/LPC1768/libc.a(lib_a-fread.o)
                                                  ../../external/gcc/LPC1768/libc.a(lib_a-wsetup.o)
                                                  ../../external/gcc/LPC1768/libc.a(lib_a-vfscanf.o)
                                                  ../../external/gcc/LPC1768/libc.a(lib_a-vfprintf.o)
                                                  ../../external/gcc/LPC1768/libc.a(lib_a-refill.o)
                                                  ../../external/gcc/LPC1768/libc.a(lib_a-impure.o)
                                                  ../../external/gcc/LPC1768/libc.a(lib_a-fwrite.o)
                                                  ../../external/gcc/LPC1768/libc.a(lib_a-fseek.o)
                                                  ../../external/gcc/LPC1768/libc.a(lib_a-fputs.o)
                                                  ../../external/gcc/LPC1768/libc.a(lib_a-fflush.o)
                                                  ../../external/gcc/LPC1768/libc.a(lib_a-fclose.o)
__sf_fake_stdin                                   ../../external/gcc/LPC1768/libc.a(lib_a-findfp.o)
                                                  ../../external/gcc/LPC1768/libc.a(lib_a-wbuf.o)
                                                  ../../external/gcc/LPC1768/libc.a(lib_a-fputwc.o)
                                                  ../../external/gcc/LPC1768/libc.a(lib_a-vfiprintf.o)
                                                  ../../external/gcc/LPC1768/libc.a(lib_a-ungetc.o)
                                                  ../../external/gcc/LPC1768/libc.a(lib_a-fread.o)
                                                  ../../external/gcc/LPC1768/libc.a(lib_a-wsetup.o)
                                                  ../../external/gcc/LPC1768/libc.a(lib_a-vfscanf.o)
                                                  ../../external/gcc/LPC1768/libc.a(lib_a-vfprintf.o)
                                                  ../../external/gcc/LPC1768/libc.a(lib_a-refill.o)
                                                  ../../external/gcc/LPC1768/libc.a(lib_a-impure.o)
                                                  ../../external/gcc/LPC1768/libc.a(lib_a-fwrite.o)
                                                  ../../external/gcc/LPC1768/libc.a(lib_a-fseek.o)
                                                  ../../external/gcc/LPC1768/libc.a(lib_a-fputs.o)
                                                  ../../external/gcc/LPC1768/libc.a(lib_a-fflush.o)
                                                  ../../external/gcc/LPC1768/libc.a(lib_a-fclose.o)
__sf_fake_stdout                                  ../../external/gcc/LPC1768/libc.a(lib_a-findfp.o)
                                                  ../../external/gcc/LPC1768/libc.a(lib_a-wbuf.o)
                                                  ../../external/gcc/LPC1768/libc.a(lib_a-fputwc.o)
                                                  ../../external/gcc/LPC1768/libc.a(lib_a-vfiprintf.o)
                                                  ../../external/gcc/LPC1768/libc.a(lib_a-ungetc.o)
                                                  ../../external/gcc/LPC1768/libc.a(lib_a-fread.o)
                                                  ../../external/gcc/LPC1768/libc.a(lib_a-wsetup.o)
                                                  ../../external/gcc/LPC1768/libc.a(lib_a-vfscanf.o)
                                                  ../../external/gcc/LPC1768/libc.a(lib_a-vfprintf.o)
                                                  ../../external/gcc/LPC1768/libc.a(lib_a-refill.o)
                                                  ../../external/gcc/LPC1768/libc.a(lib_a-impure.o)
                                                  ../../external/gcc/LPC1768/libc.a(lib_a-fwrite.o)
                                                  ../../external/gcc/LPC1768/libc.a(lib_a-fseek.o)
                                                  ../../external/gcc/LPC1768/libc.a(lib_a-fputs.o)
                                                  ../../external/gcc/LPC1768/libc.a(lib_a-fflush.o)
                                                  ../../external/gcc/LPC1768/libc.a(lib_a-fclose.o)
__sflags                                          ../../external/gcc/LPC1768/libc.a(lib_a-flags.o)
                                                  ../../external/gcc/LPC1768/libc.a(lib_a-fopen.o)
__sfmoreglue                                      ../../external/gcc/LPC1768/libc.a(lib_a-findfp.o)
__sfp                                             ../../external/gcc/LPC1768/libc.a(lib_a-findfp.o)
                                                  ../../external/gcc/LPC1768/libc.a(lib_a-fopen.o)
__sfp_lock_acquire                                ../../external/gcc/LPC1768/libc.a(lib_a-findfp.o)
                                                  ../../external/gcc/LPC1768/libc.a(lib_a-svfiscanf.o)
                                                  ../../external/gcc/LPC1768/libc.a(lib_a-fread.o)
                                                  ../../external/gcc/LPC1768/libc.a(lib_a-vfscanf.o)
                                                  ../../external/gcc/LPC1768/libc.a(lib_a-svfscanf.o)
                                                  ../../external/gcc/LPC1768/libc.a(lib_a-fwalk.o)
                                                  ../../external/gcc/LPC1768/libc.a(lib_a-fseek.o)
                                                  ../../external/gcc/LPC1768/libc.a(lib_a-fopen.o)
                                                  ../../external/gcc/LPC1768/libc.a(lib_a-fclose.o)
__sfp_lock_release                                ../../external/gcc/LPC1768/libc.a(lib_a-findfp.o)
                                                  ../../external/gcc/LPC1768/libc.a(lib_a-svfiscanf.o)
                                                  ../../external/gcc/LPC1768/libc.a(lib_a-fread.o)
                                                  ../../external/gcc/LPC1768/libc.a(lib_a-vfscanf.o)
                                                  ../../external/gcc/LPC1768/libc.a(lib_a-svfscanf.o)
                                                  ../../external/gcc/LPC1768/libc.a(lib_a-fwalk.o)
                                                  ../../external/gcc/LPC1768/libc.a(lib_a-fseek.o)
                                                  ../../external/gcc/LPC1768/libc.a(lib_a-fopen.o)
                                                  ../../external/gcc/LPC1768/libc.a(lib_a-fclose.o)
__sfvwrite_r                                      ../../external/gcc/LPC1768/libc.a(lib_a-fvwrite.o)
                                                  ../../external/gcc/LPC1768/libc.a(lib_a-vfiprintf.o)
                                                  ../../external/gcc/LPC1768/libc.a(lib_a-puts.o)
                                                  ../../external/gcc/LPC1768/libc.a(lib_a-fwrite.o)
                                                  ../../external/gcc/LPC1768/libc.a(lib_a-fputs.o)
__sigtramp                                        ../../external/gcc/LPC1768/libc.a(lib_a-signal.o)
__sigtramp_r                                      ../../external/gcc/LPC1768/libc.a(lib_a-signal.o)
__sinit                                           ../../external/gcc/LPC1768/libc.a(lib_a-findfp.o)
                                                  ../../external/gcc/LPC1768/libc.a(lib_a-wbuf.o)
                                                  ../../external/gcc/LPC1768/libc.a(lib_a-fputwc.o)
                                                  ../../external/gcc/LPC1768/libc.a(lib_a-vfiprintf.o)
                                                  ../../external/gcc/LPC1768/libc.a(lib_a-ungetc.o)
                                                  ../../external/gcc/LPC1768/libc.a(lib_a-fread.o)
                                                  ../../external/gcc/LPC1768/libc.a(lib_a-wsetup.o)
                                                  ../../external/gcc/LPC1768/libc.a(lib_a-vfscanf.o)
                                                  ../../external/gcc/LPC1768/libc.a(lib_a-vfprintf.o)
                                                  ../../external/gcc/LPC1768/libc.a(lib_a-refill.o)
                                                  ../../external/gcc/LPC1768/libc.a(lib_a-puts.o)
                                                  ../../external/gcc/LPC1768/libc.a(lib_a-printf.o)
                                                  ../../external/gcc/LPC1768/libc.a(lib_a-fwrite.o)
                                                  ../../external/gcc/LPC1768/libc.a(lib_a-fseek.o)
                                                  ../../external/gcc/LPC1768/libc.a(lib_a-fputs.o)
                                                  ../../external/gcc/LPC1768/libc.a(lib_a-fflush.o)
                                                  ../../external/gcc/LPC1768/libc.a(lib_a-fclose.o)
__sinit_lock_acquire                              ../../external/gcc/LPC1768/libc.a(lib_a-findfp.o)
__sinit_lock_release                              ../../external/gcc/LPC1768/libc.a(lib_a-findfp.o)
__smakebuf_r                                      ../../external/gcc/LPC1768/libc.a(lib_a-makebuf.o)
                                                  ../../external/gcc/LPC1768/libc.a(lib_a-wsetup.o)
                                                  ../../external/gcc/LPC1768/libc.a(lib_a-refill.o)
                                                  ../../external/gcc/LPC1768/libc.a(lib_a-fseek.o)
__sprint_r                                        ../../external/gcc/LPC1768/libc.a(lib_a-vfiprintf.o)
                                                  ../../external/gcc/LPC1768/libc.a(lib_a-vfprintf.o)
__sread                                           ../../external/gcc/LPC1768/libc.a(lib_a-stdio.o)
                                                  ../../external/gcc/LPC1768/libc.a(lib_a-fopen.o)
                                                  ../../external/gcc/LPC1768/libc.a(lib_a-findfp.o)
__srefill_r                                       ../../external/gcc/LPC1768/libc.a(lib_a-refill.o)
                                                  ../../external/gcc/LPC1768/libc.a(lib_a-fread.o)
                                                  ../../external/gcc/LPC1768/libc.a(lib_a-vfscanf.o)
                                                  ../../external/gcc/LPC1768/libc.a(lib_a-fseek.o)
__sseek                                           ../../external/gcc/LPC1768/libc.a(lib_a-stdio.o)
                                                  ../../external/gcc/LPC1768/libc.a(lib_a-makebuf.o)
                                                  ../../external/gcc/LPC1768/libc.a(lib_a-fseek.o)
                                                  ../../external/gcc/LPC1768/libc.a(lib_a-fopen.o)
                                                  ../../external/gcc/LPC1768/libc.a(lib_a-findfp.o)
__ssprint_r                                       ../../external/gcc/LPC1768/libc.a(lib_a-svfiprintf.o)
                                                  ../../external/gcc/LPC1768/libc.a(lib_a-svfprintf.o)
__ssrefill_r                                      ../../external/gcc/LPC1768/libc.a(lib_a-svfiscanf.o)
                                                  ../../external/gcc/LPC1768/libc.a(lib_a-svfscanf.o)
__ssvfiscanf_r                                    ../../external/gcc/LPC1768/libc.a(lib_a-svfiscanf.o)
__ssvfscanf_r                                     ../../external/gcc/LPC1768/libc.a(lib_a-svfscanf.o)
                                                  ../../external/gcc/LPC1768/libc.a(lib_a-sscanf.o)
__stderr_name                                     ../../external/mbed/LPC1768/mbed.ar(stdio.LPC1768.o)
__stdin_name                                      ../../external/mbed/LPC1768/mbed.ar(stdio.LPC1768.o)
__stdout_name                                     ../../external/mbed/LPC1768/mbed.ar(stdio.LPC1768.o)
__subdf3                                          /media/6aafac43-5450-453e-a142-f588400933c0/Sandbox/arm/bin/../lib/gcc/arm-none-eabi/4.5.2/thumb2/libgcc.a(_arm_addsubdf3.o)
__submore                                         ../../external/gcc/LPC1768/libc.a(lib_a-ungetc.o)
                                                  ../../external/gcc/LPC1768/libc.a(lib_a-svfiscanf.o)
__subsf3                                          /media/6aafac43-5450-453e-a142-f588400933c0/Sandbox/arm/bin/../lib/gcc/arm-none-eabi/4.5.2/thumb2/libgcc.a(_arm_addsubsf3.o)
__svfscanf                                        ../../external/gcc/LPC1768/libc.a(lib_a-vfscanf.o)
__svfscanf_r                                      ../../external/gcc/LPC1768/libc.a(lib_a-vfscanf.o)
                                                  ../../external/gcc/LPC1768/libc.a(lib_a-fscanf.o)
__swbuf                                           ../../external/gcc/LPC1768/libc.a(lib_a-wbuf.o)
__swbuf_r                                         ../../external/gcc/LPC1768/libc.a(lib_a-wbuf.o)
                                                  ../../external/gcc/LPC1768/libc.a(lib_a-fputwc.o)
__swrite                                          ../../external/gcc/LPC1768/libc.a(lib_a-stdio.o)
                                                  ../../external/gcc/LPC1768/libc.a(lib_a-fopen.o)
                                                  ../../external/gcc/LPC1768/libc.a(lib_a-findfp.o)
__swsetup_r                                       ../../external/gcc/LPC1768/libc.a(lib_a-wsetup.o)
                                                  ../../external/gcc/LPC1768/libc.a(lib_a-wbuf.o)
                                                  ../../external/gcc/LPC1768/libc.a(lib_a-vfiprintf.o)
                                                  ../../external/gcc/LPC1768/libc.a(lib_a-vfprintf.o)
                                                  ../../external/gcc/LPC1768/libc.a(lib_a-fvwrite.o)
__truncdfsf2                                      /media/6aafac43-5450-453e-a142-f588400933c0/Sandbox/arm/bin/../lib/gcc/arm-none-eabi/4.5.2/thumb2/libgcc.a(_arm_truncdfsf2.o)
__udivdi3                                         /media/6aafac43-5450-453e-a142-f588400933c0/Sandbox/arm/bin/../lib/gcc/arm-none-eabi/4.5.2/thumb2/libgcc.a(_udivdi3.o)
                                                  /media/6aafac43-5450-453e-a142-f588400933c0/Sandbox/arm/bin/../lib/gcc/arm-none-eabi/4.5.2/thumb2/libgcc.a(bpabi.o)
__udivsi3                                         /media/6aafac43-5450-453e-a142-f588400933c0/Sandbox/arm/bin/../lib/gcc/arm-none-eabi/4.5.2/thumb2/libgcc.a(_udivsi3.o)
__ulp                                             ../../external/gcc/LPC1768/libc.a(lib_a-mprec.o)
                                                  ../../external/gcc/LPC1768/libc.a(lib_a-strtod.o)
__wctomb                                          ../../external/gcc/LPC1768/libc.a(lib_a-wctomb_r.o)
                                                  ../../external/gcc/LPC1768/libc.a(lib_a-wcrtomb.o)
_calloc_r                                         ../../external/gcc/LPC1768/libc.a(lib_a-callocr.o)
                                                  ../../external/gcc/LPC1768/libc.a(lib_a-mprec.o)
_cleanup                                          ../../external/gcc/LPC1768/libc.a(lib_a-findfp.o)
_cleanup_r                                        ../../external/gcc/LPC1768/libc.a(lib_a-findfp.o)
                                                  ../../external/gcc/LPC1768/libc.a(lib_a-makebuf.o)
_close                                            ../../src/syscalls.o
                                                  ../../external/gcc/LPC1768/libc.a(lib_a-closer.o)
_close_r                                          ../../external/gcc/LPC1768/libc.a(lib_a-closer.o)
                                                  ../../external/gcc/LPC1768/libc.a(lib_a-stdio.o)
_ctype_                                           ../../external/gcc/LPC1768/libc.a(lib_a-ctype_.o)
_dtoa_r                                           ../../external/gcc/LPC1768/libc.a(lib_a-dtoa.o)
                                                  ../../external/gcc/LPC1768/libc.a(lib_a-vfprintf.o)
                                                  ../../external/gcc/LPC1768/libc.a(lib_a-svfprintf.o)
_ebss                                             ../../src/gcc4mbed.o
_edata                                            ../../src/gcc4mbed.o
_efastcode                                        ../../src/gcc4mbed.o
_end                                              ../../src/syscalls.o
_exit                                             ../../src/syscalls.o
                                                  ../../external/gcc/LPC1768/libc.a(lib_a-abort.o)
_fclose_r                                         ../../external/gcc/LPC1768/libc.a(lib_a-fclose.o)
_fflush_r                                         ../../external/gcc/LPC1768/libc.a(lib_a-fflush.o)
                                                  ../../external/gcc/LPC1768/libc.a(lib_a-wbuf.o)
                                                  ../../external/gcc/LPC1768/libc.a(lib_a-vfiprintf.o)
                                                  ../../external/gcc/LPC1768/libc.a(lib_a-ungetc.o)
                                                  ../../external/gcc/LPC1768/libc.a(lib_a-vfprintf.o)
                                                  ../../external/gcc/LPC1768/libc.a(lib_a-refill.o)
                                                  ../../external/gcc/LPC1768/libc.a(lib_a-fvwrite.o)
                                                  ../../external/gcc/LPC1768/libc.a(lib_a-fseek.o)
                                                  ../../external/gcc/LPC1768/libc.a(lib_a-fclose.o)
_fini                                             /media/6aafac43-5450-453e-a142-f588400933c0/Sandbox/arm/bin/../lib/gcc/arm-none-eabi/4.5.2/thumb2/crti.o
_fiprintf_r                                       ../../external/gcc/LPC1768/libc.a(lib_a-fiprintf.o)
_fopen_r                                          ../../external/gcc/LPC1768/libc.a(lib_a-fopen.o)
_fprintf_r                                        ../../external/gcc/LPC1768/libc.a(lib_a-fprintf.o)
_fputs_r                                          ../../external/gcc/LPC1768/libc.a(lib_a-fputs.o)
_fputwc_r                                         ../../external/gcc/LPC1768/libc.a(lib_a-fputwc.o)
                                                  ../../external/gcc/LPC1768/libc.a(lib_a-vfiprintf.o)
_fread_r                                          ../../external/gcc/LPC1768/libc.a(lib_a-fread.o)
                                                  ../../external/gcc/LPC1768/libc.a(lib_a-vfscanf.o)
_free_r                                           ../../external/gcc/LPC1768/libc.a(lib_a-freer.o)
                                                  ../../external/gcc/LPC1768/libc.a(lib_a-svfiscanf.o)
                                                  ../../external/gcc/LPC1768/libc.a(lib_a-svfiprintf.o)
                                                  ../../external/gcc/LPC1768/libc.a(lib_a-wsetup.o)
                                                  ../../external/gcc/LPC1768/libc.a(lib_a-refill.o)
                                                  ../../external/gcc/LPC1768/libc.a(lib_a-reent.o)
                                                  ../../external/gcc/LPC1768/libc.a(lib_a-reallocr.o)
                                                  ../../external/gcc/LPC1768/libc.a(lib_a-mallocr.o)
                                                  ../../external/gcc/LPC1768/libc.a(lib_a-malloc.o)
                                                  ../../external/gcc/LPC1768/libc.a(lib_a-fvwrite.o)
                                                  ../../external/gcc/LPC1768/libc.a(lib_a-fseek.o)
                                                  ../../external/gcc/LPC1768/libc.a(lib_a-fflush.o)
                                                  ../../external/gcc/LPC1768/libc.a(lib_a-fclose.o)
_fscanf_r                                         ../../external/gcc/LPC1768/libc.a(lib_a-fscanf.o)
_fseek_r                                          ../../external/gcc/LPC1768/libc.a(lib_a-fseek.o)
                                                  ../../external/gcc/LPC1768/libc.a(lib_a-fopen.o)
_fstat                                            ../../src/syscalls.o
                                                  ../../external/gcc/LPC1768/libc.a(lib_a-fstatr.o)
_fstat_r                                          ../../external/gcc/LPC1768/libc.a(lib_a-fstatr.o)
                                                  ../../external/gcc/LPC1768/libc.a(lib_a-makebuf.o)
                                                  ../../external/gcc/LPC1768/libc.a(lib_a-fseek.o)
_fwalk                                            ../../external/gcc/LPC1768/libc.a(lib_a-fwalk.o)
                                                  ../../external/gcc/LPC1768/libc.a(lib_a-refill.o)
                                                  ../../external/gcc/LPC1768/libc.a(lib_a-findfp.o)
_fwalk_reent                                      ../../external/gcc/LPC1768/libc.a(lib_a-fwalk.o)
                                                  ../../external/gcc/LPC1768/libc.a(lib_a-fflush.o)
_fwrite_r                                         ../../external/gcc/LPC1768/libc.a(lib_a-fwrite.o)
_getpid                                           ../../src/syscalls.o
                                                  ../../external/gcc/LPC1768/libc.a(lib_a-signalr.o)
_getpid_r                                         ../../external/gcc/LPC1768/libc.a(lib_a-signalr.o)
                                                  ../../external/gcc/LPC1768/libc.a(lib_a-signal.o)
_global_impure_ptr                                ../../external/gcc/LPC1768/libc.a(lib_a-impure.o)
                                                  ../../external/gcc/LPC1768/libc.a(lib_a-__atexit.o)
                                                  ../../external/gcc/LPC1768/libc.a(lib_a-refill.o)
                                                  ../../external/gcc/LPC1768/libc.a(lib_a-findfp.o)
                                                  ../../external/gcc/LPC1768/libc.a(lib_a-fflush.o)
_impure_ptr                                       ../../external/gcc/LPC1768/libc.a(lib_a-impure.o)
                                                  ../../external/gcc/LPC1768/libc.a(lib_a-wcrtomb.o)
                                                  ../../external/gcc/LPC1768/libc.a(lib_a-wbuf.o)
                                                  ../../external/gcc/LPC1768/libc.a(lib_a-fputwc.o)
                                                  ../../external/gcc/LPC1768/libc.a(lib_a-vfiprintf.o)
                                                  ../../external/gcc/LPC1768/libc.a(lib_a-ungetc.o)
                                                  ../../external/gcc/LPC1768/libc.a(lib_a-strtoul.o)
                                                  ../../external/gcc/LPC1768/libc.a(lib_a-strtod.o)
                                                  ../../external/gcc/LPC1768/libc.a(lib_a-mbrtowc.o)
                                                  ../../external/gcc/LPC1768/libc.a(lib_a-locale.o)
                                                  ../../external/gcc/LPC1768/libc.a(lib_a-fread.o)
                                                  ../../external/gcc/LPC1768/libc.a(lib_a-fiprintf.o)
                                                  ../../external/gcc/LPC1768/libc.a(lib_a-assert.o)
                                                  ../../external/gcc/LPC1768/libc.a(lib_a-wsetup.o)
                                                  ../../external/gcc/LPC1768/libc.a(lib_a-vfscanf.o)
                                                  ../../external/gcc/LPC1768/libc.a(lib_a-vfprintf.o)
                                                  ../../external/gcc/LPC1768/libc.a(lib_a-syswrite.o)
                                                  ../../external/gcc/LPC1768/libc.a(lib_a-strtol.o)
                                                  ../../external/gcc/LPC1768/libc.a(lib_a-sscanf.o)
                                                  ../../external/gcc/LPC1768/libc.a(lib_a-sprintf.o)
                                                  ../../external/gcc/LPC1768/libc.a(lib_a-signal.o)
                                                  ../../external/gcc/LPC1768/libc.a(lib_a-reent.o)
                                                  ../../external/gcc/LPC1768/libc.a(lib_a-realloc.o)
                                                  ../../external/gcc/LPC1768/libc.a(lib_a-puts.o)
                                                  ../../external/gcc/LPC1768/libc.a(lib_a-printf.o)
                                                  ../../external/gcc/LPC1768/libc.a(lib_a-malloc.o)
                                                  ../../external/gcc/LPC1768/libc.a(lib_a-fwrite.o)
                                                  ../../external/gcc/LPC1768/libc.a(lib_a-fseek.o)
                                                  ../../external/gcc/LPC1768/libc.a(lib_a-fscanf.o)
                                                  ../../external/gcc/LPC1768/libc.a(lib_a-fputs.o)
                                                  ../../external/gcc/LPC1768/libc.a(lib_a-fprintf.o)
                                                  ../../external/gcc/LPC1768/libc.a(lib_a-fopen.o)
                                                  ../../external/gcc/LPC1768/libc.a(lib_a-findfp.o)
                                                  ../../external/gcc/LPC1768/libc.a(lib_a-fflush.o)
                                                  ../../external/gcc/LPC1768/libc.a(lib_a-fclose.o)
                                                  ../../external/gcc/LPC1768/libc.a(lib_a-clibabi_stdio.o)
                                                  ../../external/gcc/LPC1768/libstdc++.a(vterminate.o)
                                                  ./SDFileSystem/SDFileSystem.o
                                                  ./main.o
                                                  ../../src/syscalls.o
_init                                             /media/6aafac43-5450-453e-a142-f588400933c0/Sandbox/arm/bin/../lib/gcc/arm-none-eabi/4.5.2/thumb2/crti.o
                                                  ../../external/gcc/LPC1768/libc.a(lib_a-init.o)
_init_signal                                      ../../external/gcc/LPC1768/libc.a(lib_a-signal.o)
_init_signal_r                                    ../../external/gcc/LPC1768/libc.a(lib_a-signal.o)
_isatty                                           ../../src/syscalls.o
                                                  ../../external/gcc/LPC1768/libc.a(lib_a-isattyr.o)
_isatty_r                                         ../../external/gcc/LPC1768/libc.a(lib_a-isattyr.o)
                                                  ../../external/gcc/LPC1768/libc.a(lib_a-makebuf.o)
_kill                                             ../../src/syscalls.o
                                                  ../../external/gcc/LPC1768/libc.a(lib_a-signalr.o)
_kill_r                                           ../../external/gcc/LPC1768/libc.a(lib_a-signalr.o)
                                                  ../../external/gcc/LPC1768/libc.a(lib_a-signal.o)
_localeconv_r                                     ../../external/gcc/LPC1768/libc.a(lib_a-locale.o)
                                                  ../../external/gcc/LPC1768/libc.a(lib_a-gdtoa-gethex.o)
                                                  ../../external/gcc/LPC1768/libc.a(lib_a-strtod.o)
                                                  ../../external/gcc/LPC1768/libc.a(lib_a-vfprintf.o)
                                                  ../../external/gcc/LPC1768/libc.a(lib_a-svfprintf.o)
_lseek                                            ../../src/syscalls.o
                                                  ../../external/gcc/LPC1768/libc.a(lib_a-lseekr.o)
_lseek_r                                          ../../external/gcc/LPC1768/libc.a(lib_a-lseekr.o)
                                                  ../../external/gcc/LPC1768/libc.a(lib_a-stdio.o)
_malloc_r                                         ../../external/gcc/LPC1768/libc.a(lib_a-mallocr.o)
                                                  ../../external/gcc/LPC1768/libc.a(lib_a-callocr.o)
                                                  ../../external/gcc/LPC1768/libc.a(lib_a-ungetc.o)
                                                  ../../external/gcc/LPC1768/libc.a(lib_a-svfiprintf.o)
                                                  ../../external/gcc/LPC1768/libc.a(lib_a-svfprintf.o)
                                                  ../../external/gcc/LPC1768/libc.a(lib_a-signal.o)
                                                  ../../external/gcc/LPC1768/libc.a(lib_a-reallocr.o)
                                                  ../../external/gcc/LPC1768/libc.a(lib_a-malloc.o)
                                                  ../../external/gcc/LPC1768/libc.a(lib_a-makebuf.o)
                                                  ../../external/gcc/LPC1768/libc.a(lib_a-fvwrite.o)
                                                  ../../external/gcc/LPC1768/libc.a(lib_a-findfp.o)
_malloc_trim_r                                    ../../external/gcc/LPC1768/libc.a(lib_a-freer.o)
_mbrtowc_r                                        ../../external/gcc/LPC1768/libc.a(lib_a-mbrtowc.o)
                                                  ../../external/gcc/LPC1768/libc.a(lib_a-svfiscanf.o)
                                                  ../../external/gcc/LPC1768/libc.a(lib_a-vfscanf.o)
                                                  ../../external/gcc/LPC1768/libc.a(lib_a-svfscanf.o)
_mbtowc_r                                         ../../external/gcc/LPC1768/libc.a(lib_a-mbtowc_r.o)
_mprec_log10                                      ../../external/gcc/LPC1768/libc.a(lib_a-mprec.o)
_open                                             ../../src/syscalls.o
                                                  ../../external/gcc/LPC1768/libc.a(lib_a-openr.o)
_open_r                                           ../../external/gcc/LPC1768/libc.a(lib_a-openr.o)
                                                  ../../external/gcc/LPC1768/libc.a(lib_a-fopen.o)
_printf_r                                         ../../external/gcc/LPC1768/libc.a(lib_a-printf.o)
_puts_r                                           ../../external/gcc/LPC1768/libc.a(lib_a-puts.o)
_raise_r                                          ../../external/gcc/LPC1768/libc.a(lib_a-signal.o)
_read                                             ../../src/syscalls.o
                                                  ../../external/gcc/LPC1768/libc.a(lib_a-readr.o)
_read_r                                           ../../external/gcc/LPC1768/libc.a(lib_a-readr.o)
                                                  ../../external/gcc/LPC1768/libc.a(lib_a-stdio.o)
_realloc_r                                        ../../external/gcc/LPC1768/libc.a(lib_a-reallocr.o)
                                                  ../../external/gcc/LPC1768/libc.a(lib_a-ungetc.o)
                                                  ../../external/gcc/LPC1768/libc.a(lib_a-svfiprintf.o)
                                                  ../../external/gcc/LPC1768/libc.a(lib_a-realloc.o)
                                                  ../../external/gcc/LPC1768/libc.a(lib_a-fvwrite.o)
_reclaim_reent                                    ../../external/gcc/LPC1768/libc.a(lib_a-reent.o)
_sbrk                                             ../../src/syscalls.o
                                                  ../../external/gcc/LPC1768/libc.a(lib_a-sbrkr.o)
_sbrk_r                                           ../../external/gcc/LPC1768/libc.a(lib_a-sbrkr.o)
                                                  ../../external/gcc/LPC1768/libc.a(lib_a-mallocr.o)
                                                  ../../external/gcc/LPC1768/libc.a(lib_a-freer.o)
_sbss                                             ../../src/gcc4mbed.o
_sdata                                            ../../src/gcc4mbed.o
_setlocale_r                                      ../../external/gcc/LPC1768/libc.a(lib_a-locale.o)
_sfastcode                                        ../../src/gcc4mbed.o
_sfread_r                                         ../../external/gcc/LPC1768/libc.a(lib_a-svfiscanf.o)
                                                  ../../external/gcc/LPC1768/libc.a(lib_a-svfscanf.o)
_sidata                                           ../../src/gcc4mbed.o
_sifastcode                                       ../../src/gcc4mbed.o
_signal_r                                         ../../external/gcc/LPC1768/libc.a(lib_a-signal.o)
_sprintf_r                                        ../../external/gcc/LPC1768/libc.a(lib_a-sprintf.o)
_sscanf_r                                         ../../external/gcc/LPC1768/libc.a(lib_a-sscanf.o)
_strtod_r                                         ../../external/gcc/LPC1768/libc.a(lib_a-strtod.o)
                                                  ../../external/gcc/LPC1768/libc.a(lib_a-vfscanf.o)
                                                  ../../external/gcc/LPC1768/libc.a(lib_a-svfscanf.o)
_strtol_r                                         ../../external/gcc/LPC1768/libc.a(lib_a-strtol.o)
                                                  ../../external/gcc/LPC1768/libc.a(lib_a-svfiscanf.o)
                                                  ../../external/gcc/LPC1768/libc.a(lib_a-vfscanf.o)
                                                  ../../external/gcc/LPC1768/libc.a(lib_a-svfscanf.o)
_strtoll_r                                        ../../external/gcc/LPC1768/libc.a(lib_a-strtoll_r.o)
                                                  ../../external/gcc/LPC1768/libc.a(lib_a-svfiscanf.o)
                                                  ../../external/gcc/LPC1768/libc.a(lib_a-vfscanf.o)
                                                  ../../external/gcc/LPC1768/libc.a(lib_a-svfscanf.o)
_strtoul_r                                        ../../external/gcc/LPC1768/libc.a(lib_a-strtoul.o)
                                                  ../../external/gcc/LPC1768/libc.a(lib_a-svfiscanf.o)
                                                  ../../external/gcc/LPC1768/libc.a(lib_a-vfscanf.o)
                                                  ../../external/gcc/LPC1768/libc.a(lib_a-svfscanf.o)
_strtoull_r                                       ../../external/gcc/LPC1768/libc.a(lib_a-strtoull_r.o)
                                                  ../../external/gcc/LPC1768/libc.a(lib_a-svfiscanf.o)
                                                  ../../external/gcc/LPC1768/libc.a(lib_a-vfscanf.o)
                                                  ../../external/gcc/LPC1768/libc.a(lib_a-svfscanf.o)
_sungetc_r                                        ../../external/gcc/LPC1768/libc.a(lib_a-svfiscanf.o)
                                                  ../../external/gcc/LPC1768/libc.a(lib_a-svfscanf.o)
_svfiprintf_r                                     ../../external/gcc/LPC1768/libc.a(lib_a-svfiprintf.o)
_svfprintf_r                                      ../../external/gcc/LPC1768/libc.a(lib_a-svfprintf.o)
                                                  ../../external/gcc/LPC1768/libc.a(lib_a-sprintf.o)
_sys_close                                        ../../external/mbed/LPC1768/mbed.ar(stdio.LPC1768.o)
                                                  ../../src/syscalls.o
_sys_command_string                               ../../external/mbed/LPC1768/mbed.ar(stdio.LPC1768.o)
_sys_ensure                                       ../../external/mbed/LPC1768/mbed.ar(stdio.LPC1768.o)
_sys_flen                                         ../../external/mbed/LPC1768/mbed.ar(stdio.LPC1768.o)
_sys_istty                                        ../../external/mbed/LPC1768/mbed.ar(stdio.LPC1768.o)
                                                  ../../src/syscalls.o
_sys_open                                         ../../external/mbed/LPC1768/mbed.ar(stdio.LPC1768.o)
                                                  ../../src/syscalls.o
_sys_read                                         ../../external/mbed/LPC1768/mbed.ar(stdio.LPC1768.o)
                                                  ../../src/syscalls.o
_sys_seek                                         ../../external/mbed/LPC1768/mbed.ar(stdio.LPC1768.o)
                                                  ../../src/syscalls.o
_sys_write                                        ../../external/mbed/LPC1768/mbed.ar(stdio.LPC1768.o)
                                                  ../../src/syscalls.o
_system                                           ../../src/syscalls.o
_ungetc_r                                         ../../external/gcc/LPC1768/libc.a(lib_a-ungetc.o)
                                                  ../../external/gcc/LPC1768/libc.a(lib_a-vfscanf.o)
_vfiprintf_r                                      ../../external/gcc/LPC1768/libc.a(lib_a-vfiprintf.o)
                                                  ../../external/gcc/LPC1768/libc.a(lib_a-fiprintf.o)
_vfprintf_r                                       ../../external/gcc/LPC1768/libc.a(lib_a-vfprintf.o)
                                                  ../../external/gcc/LPC1768/libc.a(lib_a-printf.o)
                                                  ../../external/gcc/LPC1768/libc.a(lib_a-fprintf.o)
_vfscanf_r                                        ../../external/gcc/LPC1768/libc.a(lib_a-vfscanf.o)
_wcrtomb_r                                        ../../external/gcc/LPC1768/libc.a(lib_a-wcrtomb.o)
                                                  ../../external/gcc/LPC1768/libc.a(lib_a-fputwc.o)
_wctomb_r                                         ../../external/gcc/LPC1768/libc.a(lib_a-wctomb_r.o)
_wrapup_reent                                     ../../external/gcc/LPC1768/libc.a(lib_a-reent.o)
_write                                            ../../src/syscalls.o
                                                  ../../external/gcc/LPC1768/libc.a(lib_a-writer.o)
_write_r                                          ../../external/gcc/LPC1768/libc.a(lib_a-writer.o)
                                                  ../../external/gcc/LPC1768/libc.a(lib_a-syswrite.o)
                                                  ../../external/gcc/LPC1768/libc.a(lib_a-stdio.o)
abort                                             ../../external/gcc/LPC1768/libc.a(lib_a-abort.o)
                                                  ../../external/gcc/LPC1768/libc.a(lib_a-assert.o)
                                                  ../../external/gcc/LPC1768/libstdc++.a(vterminate.o)
                                                  ../../external/gcc/LPC1768/libstdc++.a(eh_terminate.o)
                                                  ../../external/gcc/LPC1768/libstdc++.a(new_op.o)
                                                  ../../src/syscalls.o
cleanup_glue                                      ../../external/gcc/LPC1768/libc.a(lib_a-reent.o)
closedir                                          ../../external/mbed/LPC1768/mbed.ar(stdio.LPC1768.o)
                                                  ./main.o
copysign                                          ../../external/gcc/LPC1768/libm.a(lib_a-s_copysign.o)
                                                  ../../external/gcc/LPC1768/libm.a(lib_a-s_scalbn.o)
disk_initialize                                   ../../external/FATFileSystem/LPC1768/FATFileSystem.ar(diskio.cpp.lpc1768.arm.o)
                                                  ../../external/FATFileSystem/LPC1768/FATFileSystem.ar(ff.c.lpc1768.arm.o)
disk_ioctl                                        ../../external/FATFileSystem/LPC1768/FATFileSystem.ar(diskio.cpp.lpc1768.arm.o)
                                                  ../../external/FATFileSystem/LPC1768/FATFileSystem.ar(ff.c.lpc1768.arm.o)
disk_read                                         ../../external/FATFileSystem/LPC1768/FATFileSystem.ar(diskio.cpp.lpc1768.arm.o)
                                                  ../../external/FATFileSystem/LPC1768/FATFileSystem.ar(ff.c.lpc1768.arm.o)
disk_status                                       ../../external/FATFileSystem/LPC1768/FATFileSystem.ar(diskio.cpp.lpc1768.arm.o)
                                                  ../../external/FATFileSystem/LPC1768/FATFileSystem.ar(ff.c.lpc1768.arm.o)
disk_write                                        ../../external/FATFileSystem/LPC1768/FATFileSystem.ar(diskio.cpp.lpc1768.arm.o)
                                                  ../../external/FATFileSystem/LPC1768/FATFileSystem.ar(ff.c.lpc1768.arm.o)
errno                                             ../../external/gcc/LPC1768/libc.a(lib_a-readr.o)
                                                  ../../external/gcc/LPC1768/libc.a(lib_a-lseekr.o)
                                                  ../../external/gcc/LPC1768/libc.a(lib_a-isattyr.o)
                                                  ../../external/gcc/LPC1768/libc.a(lib_a-closer.o)
                                                  ../../external/gcc/LPC1768/libc.a(lib_a-writer.o)
                                                  ../../external/gcc/LPC1768/libc.a(lib_a-signalr.o)
                                                  ../../external/gcc/LPC1768/libc.a(lib_a-sbrkr.o)
                                                  ../../external/gcc/LPC1768/libc.a(lib_a-reent.o)
                                                  ../../external/gcc/LPC1768/libc.a(lib_a-openr.o)
                                                  ../../external/gcc/LPC1768/libc.a(lib_a-fstatr.o)
                                                  ../../src/syscalls.o
exit                                              ../../external/mbed/LPC1768/capi.ar(exit.LPC1768.o)
                                                  ../../external/FATFileSystem/LPC1768/FATFileSystem.ar(FATFileSystem.cpp.lpc1768.arm.o)
                                                  ../../external/mbed/LPC1768/capi.ar(utils_api.LPC1768.o)
                                                  ../../external/mbed/LPC1768/capi.ar(pinmap.LPC1768.o)
                                                  ../../external/mbed/LPC1768/capi.ar(spi_api.LPC1768.o)
                                                  ../../external/mbed/LPC1768/capi.ar(serial_api.LPC1768.o)
                                                  ./main.o
                                                  ../../src/syscalls.o
                                                  ../../src/gcc4mbed.o
f_chmod                                           ../../external/FATFileSystem/LPC1768/FATFileSystem.ar(ff.c.lpc1768.arm.o)
f_close                                           ../../external/FATFileSystem/LPC1768/FATFileSystem.ar(ff.c.lpc1768.arm.o)
                                                  ../../external/FATFileSystem/LPC1768/FATFileSystem.ar(FATFileHandle.cpp.lpc1768.arm.o)
f_getfree                                         ../../external/FATFileSystem/LPC1768/FATFileSystem.ar(ff.c.lpc1768.arm.o)
f_lseek                                           ../../external/FATFileSystem/LPC1768/FATFileSystem.ar(ff.c.lpc1768.arm.o)
                                                  ../../external/FATFileSystem/LPC1768/FATFileSystem.ar(FATFileHandle.cpp.lpc1768.arm.o)
                                                  ../../external/FATFileSystem/LPC1768/FATFileSystem.ar(FATFileSystem.cpp.lpc1768.arm.o)
f_mkdir                                           ../../external/FATFileSystem/LPC1768/FATFileSystem.ar(ff.c.lpc1768.arm.o)
                                                  ../../external/FATFileSystem/LPC1768/FATFileSystem.ar(FATFileSystem.cpp.lpc1768.arm.o)
f_mkfs                                            ../../external/FATFileSystem/LPC1768/FATFileSystem.ar(ff.c.lpc1768.arm.o)
                                                  ../../external/FATFileSystem/LPC1768/FATFileSystem.ar(FATFileSystem.cpp.lpc1768.arm.o)
f_mount                                           ../../external/FATFileSystem/LPC1768/FATFileSystem.ar(ff.c.lpc1768.arm.o)
                                                  ../../external/FATFileSystem/LPC1768/FATFileSystem.ar(FATFileSystem.cpp.lpc1768.arm.o)
f_open                                            ../../external/FATFileSystem/LPC1768/FATFileSystem.ar(ff.c.lpc1768.arm.o)
                                                  ../../external/FATFileSystem/LPC1768/FATFileSystem.ar(FATFileSystem.cpp.lpc1768.arm.o)
f_opendir                                         ../../external/FATFileSystem/LPC1768/FATFileSystem.ar(ff.c.lpc1768.arm.o)
                                                  ../../external/FATFileSystem/LPC1768/FATFileSystem.ar(FATFileSystem.cpp.lpc1768.arm.o)
f_read                                            ../../external/FATFileSystem/LPC1768/FATFileSystem.ar(ff.c.lpc1768.arm.o)
                                                  ../../external/FATFileSystem/LPC1768/FATFileSystem.ar(FATFileHandle.cpp.lpc1768.arm.o)
f_readdir                                         ../../external/FATFileSystem/LPC1768/FATFileSystem.ar(ff.c.lpc1768.arm.o)
                                                  ../../external/FATFileSystem/LPC1768/FATFileSystem.ar(FATDirHandle.cpp.lpc1768.arm.o)
f_rename                                          ../../external/FATFileSystem/LPC1768/FATFileSystem.ar(ff.c.lpc1768.arm.o)
f_stat                                            ../../external/FATFileSystem/LPC1768/FATFileSystem.ar(ff.c.lpc1768.arm.o)
f_sync                                            ../../external/FATFileSystem/LPC1768/FATFileSystem.ar(ff.c.lpc1768.arm.o)
                                                  ../../external/FATFileSystem/LPC1768/FATFileSystem.ar(FATFileHandle.cpp.lpc1768.arm.o)
f_truncate                                        ../../external/FATFileSystem/LPC1768/FATFileSystem.ar(ff.c.lpc1768.arm.o)
f_unlink                                          ../../external/FATFileSystem/LPC1768/FATFileSystem.ar(ff.c.lpc1768.arm.o)
                                                  ../../external/FATFileSystem/LPC1768/FATFileSystem.ar(FATFileSystem.cpp.lpc1768.arm.o)
f_utime                                           ../../external/FATFileSystem/LPC1768/FATFileSystem.ar(ff.c.lpc1768.arm.o)
f_write                                           ../../external/FATFileSystem/LPC1768/FATFileSystem.ar(ff.c.lpc1768.arm.o)
                                                  ../../external/FATFileSystem/LPC1768/FATFileSystem.ar(FATFileHandle.cpp.lpc1768.arm.o)
fclose                                            ../../external/gcc/LPC1768/libc.a(lib_a-fclose.o)
                                                  ../../external/gcc/LPC1768/libc.a(lib_a-findfp.o)
                                                  ./main.o
fflush                                            ../../external/gcc/LPC1768/libc.a(lib_a-fflush.o)
                                                  ../../external/gcc/LPC1768/libc.a(lib_a-refill.o)
fiprintf                                          ../../external/gcc/LPC1768/libc.a(lib_a-fiprintf.o)
                                                  ../../external/gcc/LPC1768/libc.a(lib_a-assert.o)
fopen                                             ../../external/gcc/LPC1768/libc.a(lib_a-fopen.o)
                                                  ./main.o
fprintf                                           ../../external/gcc/LPC1768/libc.a(lib_a-fprintf.o)
                                                  ../../external/FATFileSystem/LPC1768/FATFileSystem.ar(FATFileSystem.cpp.lpc1768.arm.o)
                                                  ../../external/mbed/LPC1768/capi.ar(utils_api.LPC1768.o)
                                                  ../../external/mbed/LPC1768/capi.ar(pinmap.LPC1768.o)
                                                  ../../external/mbed/LPC1768/capi.ar(spi_api.LPC1768.o)
                                                  ../../external/mbed/LPC1768/capi.ar(serial_api.LPC1768.o)
                                                  ./main.o
fputs                                             ../../external/gcc/LPC1768/libc.a(lib_a-fputs.o)
                                                  ../../external/gcc/LPC1768/libstdc++.a(vterminate.o)
fputwc                                            ../../external/gcc/LPC1768/libc.a(lib_a-fputwc.o)
fread                                             ../../external/gcc/LPC1768/libc.a(lib_a-fread.o)
free                                              ../../external/gcc/LPC1768/libc.a(lib_a-malloc.o)
                                                  ../../external/gcc/LPC1768/libstdc++.a(cp-demangle.o)
                                                  ../../external/gcc/LPC1768/libstdc++.a(vterminate.o)
                                                  ../../external/gcc/LPC1768/libstdc++.a(del_op.o)
fscanf                                            ../../external/gcc/LPC1768/libc.a(lib_a-fscanf.o)
                                                  ./main.o
fseek                                             ../../external/gcc/LPC1768/libc.a(lib_a-fseek.o)
fwrite                                            ../../external/gcc/LPC1768/libc.a(lib_a-fwrite.o)
                                                  ./SDFileSystem/SDFileSystem.o
                                                  ../../src/syscalls.o
get_fattime                                       ../../external/FATFileSystem/LPC1768/FATFileSystem.ar(FATFileSystem.cpp.lpc1768.arm.o)
                                                  ../../external/FATFileSystem/LPC1768/FATFileSystem.ar(ff.c.lpc1768.arm.o)
gpio_input                                        ../../external/mbed/LPC1768/capi.ar(gpio_api.LPC1768.o)
gpio_mode                                         ../../external/mbed/LPC1768/capi.ar(gpio_api.LPC1768.o)
gpio_output                                       ../../external/mbed/LPC1768/capi.ar(gpio_api.LPC1768.o)
                                                  ../../external/mbed/LPC1768/capi.ar(utils_api.LPC1768.o)
                                                  ../../external/mbed/LPC1768/mbed.ar(DigitalOut.LPC1768.o)
gpio_read                                         ../../external/mbed/LPC1768/capi.ar(gpio_api.LPC1768.o)
gpio_write                                        ../../external/mbed/LPC1768/capi.ar(gpio_api.LPC1768.o)
                                                  ../../external/mbed/LPC1768/capi.ar(utils_api.LPC1768.o)
iswspace                                          ../../external/gcc/LPC1768/libc.a(lib_a-iswspace.o)
                                                  ../../external/gcc/LPC1768/libc.a(lib_a-svfiscanf.o)
                                                  ../../external/gcc/LPC1768/libc.a(lib_a-vfscanf.o)
                                                  ../../external/gcc/LPC1768/libc.a(lib_a-svfscanf.o)
localeconv                                        ../../external/gcc/LPC1768/libc.a(lib_a-locale.o)
main                                              ./main.o
                                                  ../../src/gcc4mbed.o
malloc                                            ../../external/gcc/LPC1768/libc.a(lib_a-malloc.o)
                                                  ../../external/gcc/LPC1768/libc.a(lib_a-mprec.o)
                                                  ../../external/gcc/LPC1768/libc.a(lib_a-dtoa.o)
                                                  ../../external/gcc/LPC1768/libc.a(lib_a-__atexit.o)
                                                  ../../external/gcc/LPC1768/libstdc++.a(new_op.o)
mbed::Base::Base(char const*)                     ../../external/mbed/LPC1768/mbed.ar(Base.LPC1768.o)
                                                  ../../external/FATFileSystem/LPC1768/FATFileSystem.ar(FATFileSystem.cpp.lpc1768.arm.o)
                                                  ../../external/mbed/LPC1768/mbed.ar(SPI.LPC1768.o)
                                                  ../../external/mbed/LPC1768/mbed.ar(DigitalOut.LPC1768.o)
mbed::Base::Base(char const*)                     ../../external/mbed/LPC1768/mbed.ar(Base.LPC1768.o)
mbed::Base::_base_class                           ../../external/mbed/LPC1768/mbed.ar(Base.LPC1768.o)
mbed::Base::_base_funcs                           ../../external/mbed/LPC1768/mbed.ar(Base.LPC1768.o)
mbed::Base::_classes                              ../../external/mbed/LPC1768/mbed.ar(Base.LPC1768.o)
mbed::Base::_head                                 ../../external/mbed/LPC1768/mbed.ar(Base.LPC1768.o)
mbed::Base::clear(char const*, char*)             ../../external/mbed/LPC1768/mbed.ar(Base.LPC1768.o)
mbed::Base::delete_self()                         ../../external/mbed/LPC1768/mbed.ar(Base.LPC1768.o)
mbed::Base::get_rpc_methods()                     ../../external/mbed/LPC1768/mbed.ar(Base.LPC1768.o)
                                                  ../../external/FATFileSystem/LPC1768/FATFileSystem.ar(FATFileSystem.cpp.lpc1768.arm.o)
                                                  ../../external/mbed/LPC1768/mbed.ar(SPI.LPC1768.o)
                                                  ../../external/mbed/LPC1768/mbed.ar(stdio.LPC1768.o)
                                                  ../../external/mbed/LPC1768/mbed.ar(DigitalOut.LPC1768.o)
                                                  ./SDFileSystem/SDFileSystem.o
mbed::Base::list_objs(char const*, char*)         ../../external/mbed/LPC1768/mbed.ar(Base.LPC1768.o)
mbed::Base::lookup(char const*, unsigned int)     ../../external/mbed/LPC1768/mbed.ar(Base.LPC1768.o)
                                                  ../../external/mbed/LPC1768/mbed.ar(stdio.LPC1768.o)
mbed::Base::name()                                ../../external/mbed/LPC1768/mbed.ar(Base.LPC1768.o)
mbed::Base::new_name(mbed::Base*)                 ../../external/mbed/LPC1768/mbed.ar(Base.LPC1768.o)
                                                  ../../external/mbed/LPC1768/mbed.ar(SPI.LPC1768.o)
                                                  ../../external/mbed/LPC1768/mbed.ar(DigitalOut.LPC1768.o)
mbed::Base::opendir()                             ../../external/mbed/LPC1768/mbed.ar(Base.LPC1768.o)
                                                  ../../external/mbed/LPC1768/mbed.ar(stdio.LPC1768.o)
mbed::Base::register_object(char const*)          ../../external/mbed/LPC1768/mbed.ar(Base.LPC1768.o)
                                                  ../../external/mbed/LPC1768/mbed.ar(SPI.LPC1768.o)
                                                  ../../external/mbed/LPC1768/mbed.ar(DigitalOut.LPC1768.o)
mbed::Base::rpc(char const*, char const*, char const*, char*) ../../external/mbed/LPC1768/mbed.ar(Base.LPC1768.o)
mbed::Base::rpc(char const*, char const*, char*)  ../../external/mbed/LPC1768/mbed.ar(Base.LPC1768.o)
                                                  ../../external/FATFileSystem/LPC1768/FATFileSystem.ar(FATFileSystem.cpp.lpc1768.arm.o)
                                                  ../../external/mbed/LPC1768/mbed.ar(SPI.LPC1768.o)
                                                  ../../external/mbed/LPC1768/mbed.ar(stdio.LPC1768.o)
                                                  ../../external/mbed/LPC1768/mbed.ar(DigitalOut.LPC1768.o)
                                                  ./SDFileSystem/SDFileSystem.o
mbed::Base::~Base()                               ../../external/mbed/LPC1768/mbed.ar(Base.LPC1768.o)
mbed::Base::~Base()                               ../../external/mbed/LPC1768/mbed.ar(Base.LPC1768.o)
                                                  ../../external/FATFileSystem/LPC1768/FATFileSystem.ar(FATFileSystem.cpp.lpc1768.arm.o)
                                                  ../../external/mbed/LPC1768/mbed.ar(SPI.LPC1768.o)
                                                  ../../external/mbed/LPC1768/mbed.ar(stdio.LPC1768.o)
                                                  ../../external/mbed/LPC1768/mbed.ar(DigitalOut.LPC1768.o)
mbed::Base::~Base()                               ../../external/mbed/LPC1768/mbed.ar(Base.LPC1768.o)
                                                  ./SDFileSystem/SDFileSystem.o
                                                  ./main.o
mbed::BaseDirHandle::closedir()                   ../../external/mbed/LPC1768/mbed.ar(Base.LPC1768.o)
mbed::BaseDirHandle::readdir()                    ../../external/mbed/LPC1768/mbed.ar(Base.LPC1768.o)
mbed::BaseDirHandle::rewinddir()                  ../../external/mbed/LPC1768/mbed.ar(Base.LPC1768.o)
mbed::BaseDirHandle::seekdir(long)                ../../external/mbed/LPC1768/mbed.ar(Base.LPC1768.o)
mbed::BaseDirHandle::telldir()                    ../../external/mbed/LPC1768/mbed.ar(Base.LPC1768.o)
mbed::DigitalOut::DigitalOut(PinName, char const*) ../../external/mbed/LPC1768/mbed.ar(DigitalOut.LPC1768.o)
                                                  ./SDFileSystem/SDFileSystem.o
mbed::DigitalOut::DigitalOut(PinName, char const*) ../../external/mbed/LPC1768/mbed.ar(DigitalOut.LPC1768.o)
mbed::DigitalOut::get_rpc_class()                 ../../external/mbed/LPC1768/mbed.ar(DigitalOut.LPC1768.o)
mbed::DigitalOut::get_rpc_methods()               ../../external/mbed/LPC1768/mbed.ar(DigitalOut.LPC1768.o)
mbed::DigitalOut::read()                          ../../external/mbed/LPC1768/mbed.ar(DigitalOut.LPC1768.o)
mbed::DigitalOut::write(int)                      ../../external/mbed/LPC1768/mbed.ar(DigitalOut.LPC1768.o)
mbed::DigitalOut::~DigitalOut()                   ../../external/mbed/LPC1768/mbed.ar(DigitalOut.LPC1768.o)
mbed::DigitalOut::~DigitalOut()                   ../../external/mbed/LPC1768/mbed.ar(DigitalOut.LPC1768.o)
mbed::DigitalOut::~DigitalOut()                   ../../external/mbed/LPC1768/mbed.ar(DigitalOut.LPC1768.o)
mbed::FATDirHandle::FATDirHandle(_DIR const&)     ../../external/FATFileSystem/LPC1768/FATFileSystem.ar(FATDirHandle.cpp.lpc1768.arm.o)
mbed::FATDirHandle::FATDirHandle(_DIR const&)     ../../external/FATFileSystem/LPC1768/FATFileSystem.ar(FATDirHandle.cpp.lpc1768.arm.o)
                                                  ../../external/FATFileSystem/LPC1768/FATFileSystem.ar(FATFileSystem.cpp.lpc1768.arm.o)
mbed::FATDirHandle::closedir()                    ../../external/FATFileSystem/LPC1768/FATFileSystem.ar(FATDirHandle.cpp.lpc1768.arm.o)
mbed::FATDirHandle::readdir()                     ../../external/FATFileSystem/LPC1768/FATFileSystem.ar(FATDirHandle.cpp.lpc1768.arm.o)
mbed::FATDirHandle::rewinddir()                   ../../external/FATFileSystem/LPC1768/FATFileSystem.ar(FATDirHandle.cpp.lpc1768.arm.o)
mbed::FATDirHandle::seekdir(long)                 ../../external/FATFileSystem/LPC1768/FATFileSystem.ar(FATDirHandle.cpp.lpc1768.arm.o)
mbed::FATDirHandle::telldir()                     ../../external/FATFileSystem/LPC1768/FATFileSystem.ar(FATDirHandle.cpp.lpc1768.arm.o)
mbed::FATFileHandle::FATFileHandle(_FIL)          ../../external/FATFileSystem/LPC1768/FATFileSystem.ar(FATFileHandle.cpp.lpc1768.arm.o)
                                                  ../../external/FATFileSystem/LPC1768/FATFileSystem.ar(FATFileSystem.cpp.lpc1768.arm.o)
mbed::FATFileHandle::FATFileHandle(_FIL)          ../../external/FATFileSystem/LPC1768/FATFileSystem.ar(FATFileHandle.cpp.lpc1768.arm.o)
mbed::FATFileHandle::close()                      ../../external/FATFileSystem/LPC1768/FATFileSystem.ar(FATFileHandle.cpp.lpc1768.arm.o)
mbed::FATFileHandle::flen()                       ../../external/FATFileSystem/LPC1768/FATFileSystem.ar(FATFileHandle.cpp.lpc1768.arm.o)
mbed::FATFileHandle::fsync()                      ../../external/FATFileSystem/LPC1768/FATFileSystem.ar(FATFileHandle.cpp.lpc1768.arm.o)
mbed::FATFileHandle::isatty()                     ../../external/FATFileSystem/LPC1768/FATFileSystem.ar(FATFileHandle.cpp.lpc1768.arm.o)
mbed::FATFileHandle::lseek(long, int)             ../../external/FATFileSystem/LPC1768/FATFileSystem.ar(FATFileHandle.cpp.lpc1768.arm.o)
mbed::FATFileHandle::read(void*, unsigned int)    ../../external/FATFileSystem/LPC1768/FATFileSystem.ar(FATFileHandle.cpp.lpc1768.arm.o)
mbed::FATFileHandle::write(void const*, unsigned int) ../../external/FATFileSystem/LPC1768/FATFileSystem.ar(FATFileHandle.cpp.lpc1768.arm.o)
mbed::FATFileSystem::FATFileSystem(char const*)   ../../external/FATFileSystem/LPC1768/FATFileSystem.ar(FATFileSystem.cpp.lpc1768.arm.o)
                                                  ./SDFileSystem/SDFileSystem.o
mbed::FATFileSystem::_ffs                         ../../external/FATFileSystem/LPC1768/FATFileSystem.ar(FATFileSystem.cpp.lpc1768.arm.o)
                                                  ../../external/FATFileSystem/LPC1768/FATFileSystem.ar(diskio.cpp.lpc1768.arm.o)
mbed::FATFileSystem::disk_initialize()            ../../external/FATFileSystem/LPC1768/FATFileSystem.ar(FATFileSystem.cpp.lpc1768.arm.o)
mbed::FATFileSystem::disk_status()                ../../external/FATFileSystem/LPC1768/FATFileSystem.ar(FATFileSystem.cpp.lpc1768.arm.o)
mbed::FATFileSystem::disk_sync()                  ../../external/FATFileSystem/LPC1768/FATFileSystem.ar(FATFileSystem.cpp.lpc1768.arm.o)
mbed::FATFileSystem::format()                     ../../external/FATFileSystem/LPC1768/FATFileSystem.ar(FATFileSystem.cpp.lpc1768.arm.o)
                                                  ./SDFileSystem/SDFileSystem.o
mbed::FATFileSystem::mkdir(char const*, int)      ../../external/FATFileSystem/LPC1768/FATFileSystem.ar(FATFileSystem.cpp.lpc1768.arm.o)
                                                  ./SDFileSystem/SDFileSystem.o
mbed::FATFileSystem::open(char const*, int)       ../../external/FATFileSystem/LPC1768/FATFileSystem.ar(FATFileSystem.cpp.lpc1768.arm.o)
                                                  ./SDFileSystem/SDFileSystem.o
mbed::FATFileSystem::opendir(char const*)         ../../external/FATFileSystem/LPC1768/FATFileSystem.ar(FATFileSystem.cpp.lpc1768.arm.o)
                                                  ./SDFileSystem/SDFileSystem.o
mbed::FATFileSystem::remove(char const*)          ../../external/FATFileSystem/LPC1768/FATFileSystem.ar(FATFileSystem.cpp.lpc1768.arm.o)
                                                  ./SDFileSystem/SDFileSystem.o
mbed::FATFileSystem::~FATFileSystem()             ../../external/FATFileSystem/LPC1768/FATFileSystem.ar(FATFileSystem.cpp.lpc1768.arm.o)
                                                  ./SDFileSystem/SDFileSystem.o
                                                  ./main.o
mbed::FATFileSystem::~FATFileSystem()             ../../external/FATFileSystem/LPC1768/FATFileSystem.ar(FATFileSystem.cpp.lpc1768.arm.o)
mbed::FATFileSystem::~FATFileSystem()             ../../external/FATFileSystem/LPC1768/FATFileSystem.ar(FATFileSystem.cpp.lpc1768.arm.o)
mbed::FileHandle::flen()                          ../../external/mbed/LPC1768/mbed.ar(stdio.LPC1768.o)
mbed::FileLike::~FileLike()                       ../../external/mbed/LPC1768/mbed.ar(stdio.LPC1768.o)
mbed::FileLike::~FileLike()                       ../../external/mbed/LPC1768/mbed.ar(stdio.LPC1768.o)
mbed::FileLike::~FileLike()                       ../../external/mbed/LPC1768/mbed.ar(stdio.LPC1768.o)
mbed::FileSystemLike::rename(char const*, char const*) ./SDFileSystem/SDFileSystem.o
                                                  ../../external/FATFileSystem/LPC1768/FATFileSystem.ar(FATFileSystem.cpp.lpc1768.arm.o)
mbed::SPI::SPI(PinName, PinName, PinName, char const*) ../../external/mbed/LPC1768/mbed.ar(SPI.LPC1768.o)
                                                  ./SDFileSystem/SDFileSystem.o
mbed::SPI::SPI(PinName, PinName, PinName, char const*) ../../external/mbed/LPC1768/mbed.ar(SPI.LPC1768.o)
mbed::SPI::_owner                                 ../../external/mbed/LPC1768/mbed.ar(SPI.LPC1768.o)
mbed::SPI::aquire()                               ../../external/mbed/LPC1768/mbed.ar(SPI.LPC1768.o)
mbed::SPI::format(int, int)                       ../../external/mbed/LPC1768/mbed.ar(SPI.LPC1768.o)
mbed::SPI::frequency(int)                         ../../external/mbed/LPC1768/mbed.ar(SPI.LPC1768.o)
                                                  ./SDFileSystem/SDFileSystem.o
mbed::SPI::get_rpc_class()                        ../../external/mbed/LPC1768/mbed.ar(SPI.LPC1768.o)
mbed::SPI::get_rpc_methods()                      ../../external/mbed/LPC1768/mbed.ar(SPI.LPC1768.o)
mbed::SPI::write(int)                             ../../external/mbed/LPC1768/mbed.ar(SPI.LPC1768.o)
                                                  ./SDFileSystem/SDFileSystem.o
mbed::SPI::~SPI()                                 ../../external/mbed/LPC1768/mbed.ar(SPI.LPC1768.o)
mbed::SPI::~SPI()                                 ../../external/mbed/LPC1768/mbed.ar(SPI.LPC1768.o)
mbed::SPI::~SPI()                                 ../../external/mbed/LPC1768/mbed.ar(SPI.LPC1768.o)
mbed::next_arg(char const*)                       ../../external/mbed/LPC1768/mbed.ar(SPI.LPC1768.o)
mbed::parse_char(char const*, char const**)       ../../external/mbed/LPC1768/mbed.ar(DigitalOut.LPC1768.o)
                                                  ../../external/mbed/LPC1768/mbed.ar(SPI.LPC1768.o)
mbed::rpc_method const* mbed::rpc_super<mbed::Base>(mbed::Base*) ../../external/mbed/LPC1768/mbed.ar(DigitalOut.LPC1768.o)
                                                  ../../external/mbed/LPC1768/mbed.ar(SPI.LPC1768.o)
mbed_die                                          ../../external/mbed/LPC1768/capi.ar(utils_api.LPC1768.o)
                                                  ../../external/mbed/LPC1768/capi.ar(exit.LPC1768.o)
mbed_mac_address                                  ../../external/mbed/LPC1768/capi.ar(utils_api.LPC1768.o)
mbed_reset                                        ../../external/mbed/LPC1768/capi.ar(utils_api.LPC1768.o)
mbed_uid                                          ../../external/mbed/LPC1768/capi.ar(utils_api.LPC1768.o)
mbrtowc                                           ../../external/gcc/LPC1768/libc.a(lib_a-mbrtowc.o)
memchr                                            ../../external/gcc/LPC1768/libc.a(lib_a-memchr.o)
                                                  ../../external/gcc/LPC1768/libc.a(lib_a-vfiprintf.o)
                                                  ../../external/gcc/LPC1768/libc.a(lib_a-svfiprintf.o)
                                                  ../../external/gcc/LPC1768/libc.a(lib_a-vfprintf.o)
                                                  ../../external/gcc/LPC1768/libc.a(lib_a-svfprintf.o)
                                                  ../../external/gcc/LPC1768/libc.a(lib_a-fvwrite.o)
memcmp                                            ../../external/gcc/LPC1768/libc.a(lib_a-memcmp.o)
                                                  ../../external/gcc/LPC1768/libstdc++.a(cp-demangle.o)
                                                  ../../external/FATFileSystem/LPC1768/FATFileSystem.ar(ff.c.lpc1768.arm.o)
memcpy                                            ../../external/gcc/LPC1768/libc.a(lib_a-memcpy.o)
                                                  ../../external/gcc/LPC1768/libc.a(lib_a-gdtoa-gethex.o)
                                                  ../../external/gcc/LPC1768/libc.a(lib_a-ungetc.o)
                                                  ../../external/gcc/LPC1768/libc.a(lib_a-svfiscanf.o)
                                                  ../../external/gcc/LPC1768/libc.a(lib_a-svfiprintf.o)
                                                  ../../external/gcc/LPC1768/libc.a(lib_a-strtod.o)
                                                  ../../external/gcc/LPC1768/libc.a(lib_a-mprec.o)
                                                  ../../external/gcc/LPC1768/libc.a(lib_a-fread.o)
                                                  ../../external/gcc/LPC1768/libc.a(lib_a-dtoa.o)
                                                  ../../external/gcc/LPC1768/libc.a(lib_a-fvwrite.o)
                                                  ../../external/gcc/LPC1768/libc.a(lib_a-aeabi_memcpy.o)
                                                  ../../external/gcc/LPC1768/libstdc++.a(cp-demangle.o)
memmove                                           ../../external/gcc/LPC1768/libc.a(lib_a-memmove.o)
                                                  ../../external/gcc/LPC1768/libc.a(lib_a-svfiprintf.o)
                                                  ../../external/gcc/LPC1768/libc.a(lib_a-reallocr.o)
                                                  ../../external/gcc/LPC1768/libc.a(lib_a-fvwrite.o)
memset                                            ../../external/gcc/LPC1768/libc.a(lib_a-memset.o)
                                                  ../../external/gcc/LPC1768/libc.a(lib_a-callocr.o)
                                                  ../../external/gcc/LPC1768/libc.a(lib_a-svfiscanf.o)
                                                  ../../external/gcc/LPC1768/libc.a(lib_a-vfscanf.o)
                                                  ../../external/gcc/LPC1768/libc.a(lib_a-svfscanf.o)
                                                  ../../external/gcc/LPC1768/libc.a(lib_a-fseek.o)
                                                  ../../external/gcc/LPC1768/libc.a(lib_a-findfp.o)
                                                  ../../external/gcc/LPC1768/libc.a(lib_a-aeabi_memset.o)
mkdir                                             ../../external/mbed/LPC1768/mbed.ar(stdio.LPC1768.o)
nanf                                              ../../external/gcc/LPC1768/libc.a(lib_a-sf_nan.o)
                                                  ../../external/gcc/LPC1768/libc.a(lib_a-vfscanf.o)
                                                  ../../external/gcc/LPC1768/libc.a(lib_a-svfscanf.o)
opendir                                           ../../external/mbed/LPC1768/mbed.ar(stdio.LPC1768.o)
                                                  ./main.o
operator delete(void*)                            ../../external/gcc/LPC1768/libstdc++.a(del_op.o)
                                                  ../../external/gcc/LPC1768/libstdc++.a(eh_exception.o)
                                                  ../../external/gcc/LPC1768/libstdc++.a(new_handler.o)
                                                  ../../external/gcc/LPC1768/libstdc++.a(vmi_class_type_info.o)
                                                  ../../external/gcc/LPC1768/libstdc++.a(tinfo.o)
                                                  ../../external/gcc/LPC1768/libstdc++.a(si_class_type_info.o)
                                                  ../../external/gcc/LPC1768/libstdc++.a(del_opv.o)
                                                  ../../external/gcc/LPC1768/libstdc++.a(class_type_info.o)
                                                  ../../external/FATFileSystem/LPC1768/FATFileSystem.ar(FATFileHandle.cpp.lpc1768.arm.o)
                                                  ../../external/FATFileSystem/LPC1768/FATFileSystem.ar(FATDirHandle.cpp.lpc1768.arm.o)
                                                  ../../external/FATFileSystem/LPC1768/FATFileSystem.ar(FATFileSystem.cpp.lpc1768.arm.o)
                                                  ../../external/mbed/LPC1768/mbed.ar(SPI.LPC1768.o)
                                                  ../../external/mbed/LPC1768/mbed.ar(stdio.LPC1768.o)
                                                  ../../external/mbed/LPC1768/mbed.ar(Base.LPC1768.o)
                                                  ../../external/mbed/LPC1768/mbed.ar(DigitalOut.LPC1768.o)
                                                  ./SDFileSystem/SDFileSystem.o
                                                  ./main.o
operator delete[](void*)                          ../../external/gcc/LPC1768/libstdc++.a(del_opv.o)
                                                  ../../external/mbed/LPC1768/mbed.ar(Base.LPC1768.o)
operator new(unsigned int)                        ../../external/gcc/LPC1768/libstdc++.a(new_op.o)
                                                  ../../external/gcc/LPC1768/libstdc++.a(new_opv.o)
                                                  ../../external/FATFileSystem/LPC1768/FATFileSystem.ar(FATFileSystem.cpp.lpc1768.arm.o)
                                                  ../../external/mbed/LPC1768/mbed.ar(SPI.LPC1768.o)
                                                  ../../external/mbed/LPC1768/mbed.ar(Base.LPC1768.o)
                                                  ../../external/mbed/LPC1768/mbed.ar(DigitalOut.LPC1768.o)
operator new[](unsigned int)                      ../../external/gcc/LPC1768/libstdc++.a(new_opv.o)
                                                  ../../external/mbed/LPC1768/mbed.ar(SPI.LPC1768.o)
                                                  ../../external/mbed/LPC1768/mbed.ar(Base.LPC1768.o)
                                                  ../../external/mbed/LPC1768/mbed.ar(DigitalOut.LPC1768.o)
pin_function                                      ../../external/mbed/LPC1768/capi.ar(pinmap.LPC1768.o)
                                                  ../../external/mbed/LPC1768/capi.ar(gpio_api.LPC1768.o)
pin_mode                                          ../../external/mbed/LPC1768/capi.ar(pinmap.LPC1768.o)
                                                  ../../external/mbed/LPC1768/capi.ar(gpio_api.LPC1768.o)
pinmap_merge                                      ../../external/mbed/LPC1768/capi.ar(pinmap.LPC1768.o)
                                                  ../../external/mbed/LPC1768/capi.ar(spi_api.LPC1768.o)
                                                  ../../external/mbed/LPC1768/capi.ar(serial_api.LPC1768.o)
pinmap_peripheral                                 ../../external/mbed/LPC1768/capi.ar(pinmap.LPC1768.o)
                                                  ../../external/mbed/LPC1768/capi.ar(spi_api.LPC1768.o)
                                                  ../../external/mbed/LPC1768/capi.ar(serial_api.LPC1768.o)
pinmap_pinout                                     ../../external/mbed/LPC1768/capi.ar(pinmap.LPC1768.o)
                                                  ../../external/mbed/LPC1768/capi.ar(spi_api.LPC1768.o)
                                                  ../../external/mbed/LPC1768/capi.ar(serial_api.LPC1768.o)
printf                                            ../../external/gcc/LPC1768/libc.a(lib_a-printf.o)
                                                  ./main.o
puts                                              ../../external/gcc/LPC1768/libc.a(lib_a-puts.o)
                                                  ./main.o
raise                                             ../../external/gcc/LPC1768/libc.a(lib_a-signal.o)
                                                  ../../external/gcc/LPC1768/libc.a(lib_a-abort.o)
readdir                                           ../../external/mbed/LPC1768/mbed.ar(stdio.LPC1768.o)
                                                  ./main.o
realloc                                           ../../external/gcc/LPC1768/libc.a(lib_a-realloc.o)
                                                  ../../external/gcc/LPC1768/libstdc++.a(cp-demangle.o)
remove                                            ../../external/mbed/LPC1768/mbed.ar(stdio.LPC1768.o)
                                                  ./main.o
rename                                            ../../external/mbed/LPC1768/mbed.ar(stdio.LPC1768.o)
rewinddir                                         ../../external/mbed/LPC1768/mbed.ar(stdio.LPC1768.o)
scalbn                                            ../../external/gcc/LPC1768/libm.a(lib_a-s_scalbn.o)
                                                  ../../external/mbed/LPC1768/capi.ar(serial_api.LPC1768.o)
sd                                                ./main.o
seekdir                                           ../../external/mbed/LPC1768/mbed.ar(stdio.LPC1768.o)
semihost_close                                    ../../external/mbed/LPC1768/capi.ar(semihost_api.LPC1768.o)
semihost_ensure                                   ../../external/mbed/LPC1768/capi.ar(semihost_api.LPC1768.o)
semihost_exit                                     ../../external/mbed/LPC1768/capi.ar(semihost_api.LPC1768.o)
                                                  ../../external/mbed/LPC1768/capi.ar(exit.LPC1768.o)
semihost_flen                                     ../../external/mbed/LPC1768/capi.ar(semihost_api.LPC1768.o)
semihost_istty                                    ../../external/mbed/LPC1768/capi.ar(semihost_api.LPC1768.o)
semihost_open                                     ../../external/mbed/LPC1768/capi.ar(semihost_api.LPC1768.o)
semihost_read                                     ../../external/mbed/LPC1768/capi.ar(semihost_api.LPC1768.o)
semihost_remove                                   ../../external/mbed/LPC1768/capi.ar(semihost_api.LPC1768.o)
semihost_rename                                   ../../external/mbed/LPC1768/capi.ar(semihost_api.LPC1768.o)
semihost_reset                                    ../../external/mbed/LPC1768/capi.ar(semihost_api.LPC1768.o)
                                                  ../../external/mbed/LPC1768/capi.ar(utils_api.LPC1768.o)
semihost_seek                                     ../../external/mbed/LPC1768/capi.ar(semihost_api.LPC1768.o)
semihost_uid                                      ../../external/mbed/LPC1768/capi.ar(semihost_api.LPC1768.o)
                                                  ../../external/mbed/LPC1768/capi.ar(utils_api.LPC1768.o)
semihost_write                                    ../../external/mbed/LPC1768/capi.ar(semihost_api.LPC1768.o)
serial_baud                                       ../../external/mbed/LPC1768/capi.ar(serial_api.LPC1768.o)
                                                  ../../external/mbed/LPC1768/mbed.ar(stdio.LPC1768.o)
serial_clear                                      ../../external/mbed/LPC1768/capi.ar(serial_api.LPC1768.o)
serial_format                                     ../../external/mbed/LPC1768/capi.ar(serial_api.LPC1768.o)
                                                  ../../external/mbed/LPC1768/mbed.ar(stdio.LPC1768.o)
serial_free                                       ../../external/mbed/LPC1768/capi.ar(serial_api.LPC1768.o)
serial_getc                                       ../../external/mbed/LPC1768/capi.ar(serial_api.LPC1768.o)
                                                  ../../external/mbed/LPC1768/mbed.ar(stdio.LPC1768.o)
serial_init                                       ../../external/mbed/LPC1768/capi.ar(serial_api.LPC1768.o)
                                                  ../../external/mbed/LPC1768/mbed.ar(stdio.LPC1768.o)
serial_interrupt                                  ../../external/mbed/LPC1768/capi.ar(serial_api.LPC1768.o)
serial_putc                                       ../../external/mbed/LPC1768/capi.ar(serial_api.LPC1768.o)
                                                  ../../external/mbed/LPC1768/mbed.ar(stdio.LPC1768.o)
serial_readable                                   ../../external/mbed/LPC1768/capi.ar(serial_api.LPC1768.o)
serial_writable                                   ../../external/mbed/LPC1768/capi.ar(serial_api.LPC1768.o)
setlocale                                         ../../external/gcc/LPC1768/libc.a(lib_a-locale.o)
signal                                            ../../external/gcc/LPC1768/libc.a(lib_a-signal.o)
spi_busy                                          ../../external/mbed/LPC1768/capi.ar(spi_api.LPC1768.o)
spi_format                                        ../../external/mbed/LPC1768/capi.ar(spi_api.LPC1768.o)
                                                  ../../external/mbed/LPC1768/mbed.ar(SPI.LPC1768.o)
spi_free                                          ../../external/mbed/LPC1768/capi.ar(spi_api.LPC1768.o)
spi_frequency                                     ../../external/mbed/LPC1768/capi.ar(spi_api.LPC1768.o)
                                                  ../../external/mbed/LPC1768/mbed.ar(SPI.LPC1768.o)
spi_init                                          ../../external/mbed/LPC1768/capi.ar(spi_api.LPC1768.o)
                                                  ../../external/mbed/LPC1768/mbed.ar(SPI.LPC1768.o)
spi_master_write                                  ../../external/mbed/LPC1768/capi.ar(spi_api.LPC1768.o)
                                                  ../../external/mbed/LPC1768/mbed.ar(SPI.LPC1768.o)
spi_slave_read                                    ../../external/mbed/LPC1768/capi.ar(spi_api.LPC1768.o)
spi_slave_receive                                 ../../external/mbed/LPC1768/capi.ar(spi_api.LPC1768.o)
spi_slave_write                                   ../../external/mbed/LPC1768/capi.ar(spi_api.LPC1768.o)
sprintf                                           ../../external/gcc/LPC1768/libc.a(lib_a-sprintf.o)
                                                  ../../external/gcc/LPC1768/libc.a(lib_a-vfscanf.o)
                                                  ../../external/gcc/LPC1768/libc.a(lib_a-svfscanf.o)
                                                  ../../external/gcc/LPC1768/libstdc++.a(cp-demangle.o)
                                                  ../../external/FATFileSystem/LPC1768/FATFileSystem.ar(FATFileSystem.cpp.lpc1768.arm.o)
                                                  ../../external/mbed/LPC1768/mbed.ar(SPI.LPC1768.o)
                                                  ../../external/mbed/LPC1768/mbed.ar(Base.LPC1768.o)
                                                  ../../external/mbed/LPC1768/mbed.ar(DigitalOut.LPC1768.o)
sscanf                                            ../../external/gcc/LPC1768/libc.a(lib_a-sscanf.o)
                                                  ../../external/mbed/LPC1768/capi.ar(utils_api.LPC1768.o)
                                                  ../../external/mbed/LPC1768/mbed.ar(stdio.LPC1768.o)
std::bad_alloc::what() const                      ../../external/gcc/LPC1768/libstdc++.a(new_handler.o)
std::bad_alloc::~bad_alloc()                      ../../external/gcc/LPC1768/libstdc++.a(new_handler.o)
std::bad_alloc::~bad_alloc()                      ../../external/gcc/LPC1768/libstdc++.a(new_handler.o)
std::bad_alloc::~bad_alloc()                      ../../external/gcc/LPC1768/libstdc++.a(new_handler.o)
std::bad_exception::what() const                  ../../external/gcc/LPC1768/libstdc++.a(eh_exception.o)
std::bad_exception::~bad_exception()              ../../external/gcc/LPC1768/libstdc++.a(eh_exception.o)
std::bad_exception::~bad_exception()              ../../external/gcc/LPC1768/libstdc++.a(eh_exception.o)
std::bad_exception::~bad_exception()              ../../external/gcc/LPC1768/libstdc++.a(eh_exception.o)
std::exception::what() const                      ../../external/gcc/LPC1768/libstdc++.a(eh_exception.o)
std::exception::~exception()                      ../../external/gcc/LPC1768/libstdc++.a(eh_exception.o)
                                                  ../../external/gcc/LPC1768/libstdc++.a(new_handler.o)
std::exception::~exception()                      ../../external/gcc/LPC1768/libstdc++.a(eh_exception.o)
std::exception::~exception()                      ../../external/gcc/LPC1768/libstdc++.a(eh_exception.o)
std::nothrow                                      ../../external/gcc/LPC1768/libstdc++.a(new_handler.o)
std::set_new_handler(void (*)())                  ../../external/gcc/LPC1768/libstdc++.a(new_handler.o)
std::set_terminate(void (*)())                    ../../external/gcc/LPC1768/libstdc++.a(eh_terminate.o)
std::set_unexpected(void (*)())                   ../../external/gcc/LPC1768/libstdc++.a(eh_terminate.o)
std::terminate()                                  ../../external/gcc/LPC1768/libstdc++.a(eh_terminate.o)
                                                  ../../external/gcc/LPC1768/libstdc++.a(eh_unex_handler.o)
                                                  ../../external/gcc/LPC1768/libstdc++.a(pure.o)
std::type_info::__do_catch(std::type_info const*, void**, unsigned int) const ../../external/gcc/LPC1768/libstdc++.a(tinfo.o)
std::type_info::__do_upcast(__cxxabiv1::__class_type_info const*, void**) const ../../external/gcc/LPC1768/libstdc++.a(tinfo.o)
std::type_info::__is_function_p() const           ../../external/gcc/LPC1768/libstdc++.a(tinfo.o)
                                                  ../../external/gcc/LPC1768/libstdc++.a(vmi_class_type_info.o)
                                                  ../../external/gcc/LPC1768/libstdc++.a(si_class_type_info.o)
                                                  ../../external/gcc/LPC1768/libstdc++.a(class_type_info.o)
std::type_info::__is_pointer_p() const            ../../external/gcc/LPC1768/libstdc++.a(tinfo.o)
                                                  ../../external/gcc/LPC1768/libstdc++.a(vmi_class_type_info.o)
                                                  ../../external/gcc/LPC1768/libstdc++.a(si_class_type_info.o)
                                                  ../../external/gcc/LPC1768/libstdc++.a(class_type_info.o)
std::type_info::name() const                      ../../external/gcc/LPC1768/libstdc++.a(tinfo.o)
                                                  ../../external/gcc/LPC1768/libstdc++.a(vterminate.o)
std::type_info::operator==(std::type_info const&) const ../../external/gcc/LPC1768/libstdc++.a(tinfo.o)
                                                  ../../external/gcc/LPC1768/libstdc++.a(vmi_class_type_info.o)
                                                  ../../external/gcc/LPC1768/libstdc++.a(si_class_type_info.o)
                                                  ../../external/gcc/LPC1768/libstdc++.a(class_type_info.o)
std::type_info::~type_info()                      ../../external/gcc/LPC1768/libstdc++.a(tinfo.o)
std::type_info::~type_info()                      ../../external/gcc/LPC1768/libstdc++.a(tinfo.o)
std::type_info::~type_info()                      ../../external/gcc/LPC1768/libstdc++.a(tinfo.o)
                                                  ../../external/gcc/LPC1768/libstdc++.a(class_type_info.o)
std::unexpected()                                 ../../external/gcc/LPC1768/libstdc++.a(eh_terminate.o)
strcmp                                            ../../external/gcc/LPC1768/libc.a(lib_a-strcmp.o)
                                                  ../../external/gcc/LPC1768/libc.a(lib_a-locale.o)
                                                  ../../external/gcc/LPC1768/libstdc++.a(cp-demangle.o)
                                                  ../../external/gcc/LPC1768/libstdc++.a(tinfo.o)
                                                  ../../external/mbed/LPC1768/mbed.ar(stdio.LPC1768.o)
                                                  ../../external/mbed/LPC1768/mbed.ar(Base.LPC1768.o)
strcpy                                            ../../external/gcc/LPC1768/libc.a(lib_a-strcpy.o)
                                                  ../../external/gcc/LPC1768/libstdc++.a(cp-demangle.o)
                                                  ../../external/mbed/LPC1768/mbed.ar(SPI.LPC1768.o)
                                                  ../../external/mbed/LPC1768/mbed.ar(DigitalOut.LPC1768.o)
strlen                                            ../../external/gcc/LPC1768/libc.a(lib_a-strlen.o)
                                                  ../../external/gcc/LPC1768/libc.a(lib_a-gdtoa-gethex.o)
                                                  ../../external/gcc/LPC1768/libc.a(lib_a-vfiprintf.o)
                                                  ../../external/gcc/LPC1768/libc.a(lib_a-svfiprintf.o)
                                                  ../../external/gcc/LPC1768/libc.a(lib_a-strtod.o)
                                                  ../../external/gcc/LPC1768/libc.a(lib_a-vfprintf.o)
                                                  ../../external/gcc/LPC1768/libc.a(lib_a-svfprintf.o)
                                                  ../../external/gcc/LPC1768/libc.a(lib_a-sscanf.o)
                                                  ../../external/gcc/LPC1768/libc.a(lib_a-puts.o)
                                                  ../../external/gcc/LPC1768/libc.a(lib_a-fputs.o)
                                                  ../../external/gcc/LPC1768/libstdc++.a(cp-demangle.o)
                                                  ../../external/mbed/LPC1768/capi.ar(semihost_api.LPC1768.o)
                                                  ../../external/mbed/LPC1768/mbed.ar(Base.LPC1768.o)
strncmp                                           ../../external/gcc/LPC1768/libc.a(lib_a-strncmp.o)
                                                  ../../external/gcc/LPC1768/libc.a(lib_a-gdtoa-gethex.o)
                                                  ../../external/gcc/LPC1768/libc.a(lib_a-strtod.o)
                                                  ../../external/gcc/LPC1768/libstdc++.a(cp-demangle.o)
                                                  ../../external/mbed/LPC1768/mbed.ar(Base.LPC1768.o)
strncpy                                           ../../external/gcc/LPC1768/libc.a(lib_a-strncpy.o)
                                                  ../../external/mbed/LPC1768/mbed.ar(Base.LPC1768.o)
strtod                                            ../../external/gcc/LPC1768/libc.a(lib_a-strtod.o)
strtof                                            ../../external/gcc/LPC1768/libc.a(lib_a-strtod.o)
strtol                                            ../../external/gcc/LPC1768/libc.a(lib_a-strtol.o)
                                                  ../../external/mbed/LPC1768/mbed.ar(SPI.LPC1768.o)
                                                  ../../external/mbed/LPC1768/mbed.ar(DigitalOut.LPC1768.o)
strtoul                                           ../../external/gcc/LPC1768/libc.a(lib_a-strtoul.o)
telldir                                           ../../external/mbed/LPC1768/mbed.ar(stdio.LPC1768.o)
timer_free                                        ../../external/mbed/LPC1768/capi.ar(timer_api.LPC1768.o)
timer_frequency                                   ../../external/mbed/LPC1768/capi.ar(timer_api.LPC1768.o)
                                                  ../../external/mbed/LPC1768/capi.ar(us_ticker_api.LPC1768.o)
timer_init                                        ../../external/mbed/LPC1768/capi.ar(timer_api.LPC1768.o)
                                                  ../../external/mbed/LPC1768/capi.ar(us_ticker_api.LPC1768.o)
timer_read                                        ../../external/mbed/LPC1768/capi.ar(timer_api.LPC1768.o)
                                                  ../../external/mbed/LPC1768/capi.ar(us_ticker_api.LPC1768.o)
timer_start                                       ../../external/mbed/LPC1768/capi.ar(timer_api.LPC1768.o)
                                                  ../../external/mbed/LPC1768/capi.ar(us_ticker_api.LPC1768.o)
timer_stop                                        ../../external/mbed/LPC1768/capi.ar(timer_api.LPC1768.o)
timer_write                                       ../../external/mbed/LPC1768/capi.ar(timer_api.LPC1768.o)
tmpfile                                           ../../external/mbed/LPC1768/mbed.ar(stdio.LPC1768.o)
tmpnam                                            ../../external/mbed/LPC1768/mbed.ar(stdio.LPC1768.o)
typeinfo for SDFileSystem                         ./SDFileSystem/SDFileSystem.o
typeinfo for __cxxabiv1::__class_type_info        ../../external/gcc/LPC1768/libstdc++.a(class_type_info.o)
                                                  ../../external/gcc/LPC1768/libstdc++.a(vmi_class_type_info.o)
                                                  ../../external/gcc/LPC1768/libstdc++.a(si_class_type_info.o)
typeinfo for __cxxabiv1::__forced_unwind          ../../external/gcc/LPC1768/libstdc++.a(eh_exception.o)
typeinfo for __cxxabiv1::__foreign_exception      ../../external/gcc/LPC1768/libstdc++.a(eh_exception.o)
typeinfo for __cxxabiv1::__si_class_type_info     ../../external/gcc/LPC1768/libstdc++.a(si_class_type_info.o)
typeinfo for __cxxabiv1::__vmi_class_type_info    ../../external/gcc/LPC1768/libstdc++.a(vmi_class_type_info.o)
typeinfo for mbed::Base                           ../../external/mbed/LPC1768/mbed.ar(Base.LPC1768.o)
                                                  ../../external/FATFileSystem/LPC1768/FATFileSystem.ar(FATFileSystem.cpp.lpc1768.arm.o)
                                                  ../../external/mbed/LPC1768/mbed.ar(SPI.LPC1768.o)
                                                  ../../external/mbed/LPC1768/mbed.ar(stdio.LPC1768.o)
                                                  ../../external/mbed/LPC1768/mbed.ar(DigitalOut.LPC1768.o)
typeinfo for mbed::BaseDirHandle                  ../../external/mbed/LPC1768/mbed.ar(Base.LPC1768.o)
typeinfo for mbed::DigitalOut                     ../../external/mbed/LPC1768/mbed.ar(DigitalOut.LPC1768.o)
typeinfo for mbed::DirHandle                      ../../external/mbed/LPC1768/mbed.ar(Base.LPC1768.o)
                                                  ../../external/FATFileSystem/LPC1768/FATFileSystem.ar(FATDirHandle.cpp.lpc1768.arm.o)
                                                  ../../external/mbed/LPC1768/mbed.ar(stdio.LPC1768.o)
typeinfo for mbed::FATDirHandle                   ../../external/FATFileSystem/LPC1768/FATFileSystem.ar(FATDirHandle.cpp.lpc1768.arm.o)
typeinfo for mbed::FATFileHandle                  ../../external/FATFileSystem/LPC1768/FATFileSystem.ar(FATFileHandle.cpp.lpc1768.arm.o)
typeinfo for mbed::FATFileSystem                  ../../external/FATFileSystem/LPC1768/FATFileSystem.ar(FATFileSystem.cpp.lpc1768.arm.o)
                                                  ../../external/FATFileSystem/LPC1768/FATFileSystem.ar(diskio.cpp.lpc1768.arm.o)
                                                  ./SDFileSystem/SDFileSystem.o
typeinfo for mbed::FileHandle                     ../../external/mbed/LPC1768/mbed.ar(stdio.LPC1768.o)
                                                  ../../external/FATFileSystem/LPC1768/FATFileSystem.ar(FATFileHandle.cpp.lpc1768.arm.o)
typeinfo for mbed::FileLike                       ../../external/mbed/LPC1768/mbed.ar(stdio.LPC1768.o)
                                                  ../../external/mbed/LPC1768/mbed.ar(Base.LPC1768.o)
typeinfo for mbed::FileSystemLike                 ../../external/mbed/LPC1768/mbed.ar(Base.LPC1768.o)
                                                  ../../external/FATFileSystem/LPC1768/FATFileSystem.ar(FATFileSystem.cpp.lpc1768.arm.o)
                                                  ../../external/mbed/LPC1768/mbed.ar(stdio.LPC1768.o)
typeinfo for mbed::SPI                            ../../external/mbed/LPC1768/mbed.ar(SPI.LPC1768.o)
typeinfo for std::bad_alloc                       ../../external/gcc/LPC1768/libstdc++.a(new_handler.o)
typeinfo for std::bad_exception                   ../../external/gcc/LPC1768/libstdc++.a(eh_exception.o)
typeinfo for std::exception                       ../../external/gcc/LPC1768/libstdc++.a(eh_exception.o)
                                                  ../../external/gcc/LPC1768/libstdc++.a(new_handler.o)
typeinfo for std::type_info                       ../../external/gcc/LPC1768/libstdc++.a(tinfo.o)
                                                  ../../external/gcc/LPC1768/libstdc++.a(class_type_info.o)
typeinfo name for SDFileSystem                    ./SDFileSystem/SDFileSystem.o
typeinfo name for __cxxabiv1::__class_type_info   ../../external/gcc/LPC1768/libstdc++.a(class_type_info.o)
typeinfo name for __cxxabiv1::__forced_unwind     ../../external/gcc/LPC1768/libstdc++.a(eh_exception.o)
typeinfo name for __cxxabiv1::__foreign_exception ../../external/gcc/LPC1768/libstdc++.a(eh_exception.o)
typeinfo name for __cxxabiv1::__si_class_type_info ../../external/gcc/LPC1768/libstdc++.a(si_class_type_info.o)
typeinfo name for __cxxabiv1::__vmi_class_type_info ../../external/gcc/LPC1768/libstdc++.a(vmi_class_type_info.o)
typeinfo name for mbed::Base                      ../../external/mbed/LPC1768/mbed.ar(Base.LPC1768.o)
typeinfo name for mbed::BaseDirHandle             ../../external/mbed/LPC1768/mbed.ar(Base.LPC1768.o)
typeinfo name for mbed::DigitalOut                ../../external/mbed/LPC1768/mbed.ar(DigitalOut.LPC1768.o)
typeinfo name for mbed::DirHandle                 ../../external/mbed/LPC1768/mbed.ar(Base.LPC1768.o)
                                                  ../../external/FATFileSystem/LPC1768/FATFileSystem.ar(FATDirHandle.cpp.lpc1768.arm.o)
typeinfo name for mbed::FATDirHandle              ../../external/FATFileSystem/LPC1768/FATFileSystem.ar(FATDirHandle.cpp.lpc1768.arm.o)
typeinfo name for mbed::FATFileHandle             ../../external/FATFileSystem/LPC1768/FATFileSystem.ar(FATFileHandle.cpp.lpc1768.arm.o)
typeinfo name for mbed::FATFileSystem             ../../external/FATFileSystem/LPC1768/FATFileSystem.ar(FATFileSystem.cpp.lpc1768.arm.o)
typeinfo name for mbed::FileHandle                ../../external/mbed/LPC1768/mbed.ar(stdio.LPC1768.o)
                                                  ../../external/FATFileSystem/LPC1768/FATFileSystem.ar(FATFileHandle.cpp.lpc1768.arm.o)
typeinfo name for mbed::FileLike                  ../../external/mbed/LPC1768/mbed.ar(stdio.LPC1768.o)
typeinfo name for mbed::FileSystemLike            ../../external/mbed/LPC1768/mbed.ar(Base.LPC1768.o)
                                                  ../../external/FATFileSystem/LPC1768/FATFileSystem.ar(FATFileSystem.cpp.lpc1768.arm.o)
                                                  ../../external/mbed/LPC1768/mbed.ar(stdio.LPC1768.o)
typeinfo name for mbed::SPI                       ../../external/mbed/LPC1768/mbed.ar(SPI.LPC1768.o)
typeinfo name for std::bad_alloc                  ../../external/gcc/LPC1768/libstdc++.a(new_handler.o)
typeinfo name for std::bad_exception              ../../external/gcc/LPC1768/libstdc++.a(eh_exception.o)
typeinfo name for std::exception                  ../../external/gcc/LPC1768/libstdc++.a(eh_exception.o)
typeinfo name for std::type_info                  ../../external/gcc/LPC1768/libstdc++.a(tinfo.o)
ungetc                                            ../../external/gcc/LPC1768/libc.a(lib_a-ungetc.o)
us_ticker_read                                    ../../external/mbed/LPC1768/capi.ar(us_ticker_api.LPC1768.o)
                                                  ../../external/mbed/LPC1768/capi.ar(wait_api.LPC1768.o)
vfiprintf                                         ../../external/gcc/LPC1768/libc.a(lib_a-vfiprintf.o)
vfprintf                                          ../../external/gcc/LPC1768/libc.a(lib_a-vfprintf.o)
vfscanf                                           ../../external/gcc/LPC1768/libc.a(lib_a-vfscanf.o)
void mbed::rpc_function_caller<char const*, PinName, PinName, PinName, char const*, &(char const* mbed::Base::construct<mbed::SPI, PinName, PinName, PinName, char const*>(PinName, PinName, PinName, char const*))>(char const*, char*) ../../external/mbed/LPC1768/mbed.ar(SPI.LPC1768.o)
void mbed::rpc_function_caller<char const*, PinName, char const*, &(char const* mbed::Base::construct<mbed::DigitalOut, PinName, char const*>(PinName, char const*))>(char const*, char*) ../../external/mbed/LPC1768/mbed.ar(DigitalOut.LPC1768.o)
void mbed::rpc_method_caller<int, mbed::DigitalOut, &(mbed::DigitalOut::read())>(mbed::Base*, char const*, char*) ../../external/mbed/LPC1768/mbed.ar(DigitalOut.LPC1768.o)
void mbed::rpc_method_caller<int, mbed::SPI, int, &(mbed::SPI::write(int))>(mbed::Base*, char const*, char*) ../../external/mbed/LPC1768/mbed.ar(SPI.LPC1768.o)
void mbed::rpc_method_caller<mbed::Base, &(mbed::Base::delete_self())>(mbed::Base*, char const*, char*) ../../external/mbed/LPC1768/mbed.ar(Base.LPC1768.o)
void mbed::rpc_method_caller<mbed::DigitalOut, int, &(mbed::DigitalOut::write(int))>(mbed::Base*, char const*, char*) ../../external/mbed/LPC1768/mbed.ar(DigitalOut.LPC1768.o)
void mbed::rpc_method_caller<mbed::SPI, int, &(mbed::SPI::frequency(int))>(mbed::Base*, char const*, char*) ../../external/mbed/LPC1768/mbed.ar(SPI.LPC1768.o)
void mbed::rpc_method_caller<mbed::SPI, int, int, &(mbed::SPI::format(int, int))>(mbed::Base*, char const*, char*) ../../external/mbed/LPC1768/mbed.ar(SPI.LPC1768.o)
vtable for SDFileSystem                           ./SDFileSystem/SDFileSystem.o
                                                  ./main.o
vtable for __cxxabiv1::__class_type_info          ../../external/gcc/LPC1768/libstdc++.a(class_type_info.o)
                                                  ../../external/gcc/LPC1768/libstdc++.a(eh_exception.o)
                                                  ../../external/gcc/LPC1768/libstdc++.a(tinfo.o)
                                                  ../../external/FATFileSystem/LPC1768/FATFileSystem.ar(FATFileHandle.cpp.lpc1768.arm.o)
                                                  ../../external/FATFileSystem/LPC1768/FATFileSystem.ar(FATDirHandle.cpp.lpc1768.arm.o)
                                                  ../../external/mbed/LPC1768/mbed.ar(stdio.LPC1768.o)
                                                  ../../external/mbed/LPC1768/mbed.ar(Base.LPC1768.o)
vtable for __cxxabiv1::__forced_unwind            ../../external/gcc/LPC1768/libstdc++.a(eh_exception.o)
vtable for __cxxabiv1::__foreign_exception        ../../external/gcc/LPC1768/libstdc++.a(eh_exception.o)
vtable for __cxxabiv1::__si_class_type_info       ../../external/gcc/LPC1768/libstdc++.a(si_class_type_info.o)
                                                  ../../external/gcc/LPC1768/libstdc++.a(eh_exception.o)
                                                  ../../external/gcc/LPC1768/libstdc++.a(new_handler.o)
                                                  ../../external/gcc/LPC1768/libstdc++.a(vmi_class_type_info.o)
                                                  ../../external/gcc/LPC1768/libstdc++.a(class_type_info.o)
                                                  ../../external/FATFileSystem/LPC1768/FATFileSystem.ar(FATFileHandle.cpp.lpc1768.arm.o)
                                                  ../../external/FATFileSystem/LPC1768/FATFileSystem.ar(FATDirHandle.cpp.lpc1768.arm.o)
                                                  ../../external/FATFileSystem/LPC1768/FATFileSystem.ar(FATFileSystem.cpp.lpc1768.arm.o)
                                                  ../../external/mbed/LPC1768/mbed.ar(SPI.LPC1768.o)
                                                  ../../external/mbed/LPC1768/mbed.ar(stdio.LPC1768.o)
                                                  ../../external/mbed/LPC1768/mbed.ar(Base.LPC1768.o)
                                                  ../../external/mbed/LPC1768/mbed.ar(DigitalOut.LPC1768.o)
                                                  ./SDFileSystem/SDFileSystem.o
vtable for __cxxabiv1::__vmi_class_type_info      ../../external/gcc/LPC1768/libstdc++.a(vmi_class_type_info.o)
                                                  ../../external/mbed/LPC1768/mbed.ar(stdio.LPC1768.o)
vtable for mbed::Base                             ../../external/mbed/LPC1768/mbed.ar(Base.LPC1768.o)
vtable for mbed::BaseDirHandle                    ../../external/mbed/LPC1768/mbed.ar(Base.LPC1768.o)
vtable for mbed::DigitalOut                       ../../external/mbed/LPC1768/mbed.ar(DigitalOut.LPC1768.o)
                                                  ./SDFileSystem/SDFileSystem.o
                                                  ./main.o
vtable for mbed::FATDirHandle                     ../../external/FATFileSystem/LPC1768/FATFileSystem.ar(FATDirHandle.cpp.lpc1768.arm.o)
vtable for mbed::FATFileHandle                    ../../external/FATFileSystem/LPC1768/FATFileSystem.ar(FATFileHandle.cpp.lpc1768.arm.o)
vtable for mbed::FATFileSystem                    ../../external/FATFileSystem/LPC1768/FATFileSystem.ar(FATFileSystem.cpp.lpc1768.arm.o)
vtable for mbed::FileLike                         ../../external/mbed/LPC1768/mbed.ar(stdio.LPC1768.o)
vtable for mbed::SPI                              ../../external/mbed/LPC1768/mbed.ar(SPI.LPC1768.o)
                                                  ./SDFileSystem/SDFileSystem.o
                                                  ./main.o
vtable for std::bad_alloc                         ../../external/gcc/LPC1768/libstdc++.a(new_handler.o)
vtable for std::bad_exception                     ../../external/gcc/LPC1768/libstdc++.a(eh_exception.o)
vtable for std::exception                         ../../external/gcc/LPC1768/libstdc++.a(eh_exception.o)
vtable for std::type_info                         ../../external/gcc/LPC1768/libstdc++.a(tinfo.o)
wait                                              ../../external/mbed/LPC1768/capi.ar(wait_api.LPC1768.o)
wait_ms                                           ../../external/mbed/LPC1768/capi.ar(wait_api.LPC1768.o)
                                                  ../../external/mbed/LPC1768/capi.ar(utils_api.LPC1768.o)
wait_us                                           ../../external/mbed/LPC1768/capi.ar(wait_api.LPC1768.o)
wcrtomb                                           ../../external/gcc/LPC1768/libc.a(lib_a-wcrtomb.o)
write                                             ../../external/gcc/LPC1768/libc.a(lib_a-syswrite.o)
                                                  ../../external/gcc/LPC1768/libstdc++.a(pure.o)
